ARM GAS  C:\Users\Jerry\AppData\Local\Temp\ccj4ahyr.s 			page 1


   1              		.cpu cortex-m0plus
   2              		.fpu softvfp
   3              		.eabi_attribute 20, 1
   4              		.eabi_attribute 21, 1
   5              		.eabi_attribute 23, 3
   6              		.eabi_attribute 24, 1
   7              		.eabi_attribute 25, 1
   8              		.eabi_attribute 26, 1
   9              		.eabi_attribute 30, 4
  10              		.eabi_attribute 34, 0
  11              		.eabi_attribute 18, 4
  12              		.code	16
  13              		.file	"CapSense_Filter.c"
  14              		.text
  15              	.Ltext0:
  16              		.cfi_sections	.debug_frame
  17              		.section	.text.CapSense_FtInitialize,"ax",%progbits
  18              		.align	1
  19              		.global	CapSense_FtInitialize
  20              		.code	16
  21              		.thumb_func
  22              		.type	CapSense_FtInitialize, %function
  23              	CapSense_FtInitialize:
  24              	.LFB1:
  25              		.file 1 "Generated_Source\\PSoC4\\CapSense_Filter.c"
   1:Generated_Source\PSoC4/CapSense_Filter.c **** /***************************************************************************//**
   2:Generated_Source\PSoC4/CapSense_Filter.c **** * \file     CapSense_Filter.c
   3:Generated_Source\PSoC4/CapSense_Filter.c **** * \version  3.10
   4:Generated_Source\PSoC4/CapSense_Filter.c **** *
   5:Generated_Source\PSoC4/CapSense_Filter.c **** * \brief    This file contains the implementation source code to implement all 
   6:Generated_Source\PSoC4/CapSense_Filter.c **** *           firmware filters.
   7:Generated_Source\PSoC4/CapSense_Filter.c **** *
   8:Generated_Source\PSoC4/CapSense_Filter.c **** * \see      CapSense P4 v3.10 Datasheet
   9:Generated_Source\PSoC4/CapSense_Filter.c **** * 
  10:Generated_Source\PSoC4/CapSense_Filter.c **** *//*****************************************************************************
  11:Generated_Source\PSoC4/CapSense_Filter.c **** * Copyright (2016), Cypress Semiconductor Corporation.
  12:Generated_Source\PSoC4/CapSense_Filter.c **** ********************************************************************************
  13:Generated_Source\PSoC4/CapSense_Filter.c **** * This software is owned by Cypress Semiconductor Corporation (Cypress) and is
  14:Generated_Source\PSoC4/CapSense_Filter.c **** * protected by and subject to worldwide patent protection (United States and
  15:Generated_Source\PSoC4/CapSense_Filter.c **** * foreign), United States copyright laws and international treaty provisions.
  16:Generated_Source\PSoC4/CapSense_Filter.c **** * Cypress hereby grants to licensee a personal, non-exclusive, non-transferable
  17:Generated_Source\PSoC4/CapSense_Filter.c **** * license to copy, use, modify, create derivative works of, and compile the
  18:Generated_Source\PSoC4/CapSense_Filter.c **** * Cypress Source Code and derivative works for the sole purpose of creating
  19:Generated_Source\PSoC4/CapSense_Filter.c **** * custom software in support of licensee product to be used only in conjunction
  20:Generated_Source\PSoC4/CapSense_Filter.c **** * with a Cypress integrated circuit as specified in the applicable agreement.
  21:Generated_Source\PSoC4/CapSense_Filter.c **** * Any reproduction, modification, translation, compilation, or representation of
  22:Generated_Source\PSoC4/CapSense_Filter.c **** * this software except as specified above is prohibited without the express
  23:Generated_Source\PSoC4/CapSense_Filter.c **** * written permission of Cypress.
  24:Generated_Source\PSoC4/CapSense_Filter.c **** *
  25:Generated_Source\PSoC4/CapSense_Filter.c **** * Disclaimer: CYPRESS MAKES NO WARRANTY OF ANY KIND, EXPRESS OR IMPLIED, WITH
  26:Generated_Source\PSoC4/CapSense_Filter.c **** * REGARD TO THIS MATERIAL, INCLUDING, BUT NOT LIMITED TO, THE IMPLIED
  27:Generated_Source\PSoC4/CapSense_Filter.c **** * WARRANTIES OF MERCHANTABILITY AND FITNESS FOR A PARTICULAR PURPOSE.
  28:Generated_Source\PSoC4/CapSense_Filter.c **** * Cypress reserves the right to make changes without further notice to the
  29:Generated_Source\PSoC4/CapSense_Filter.c **** * materials described herein. Cypress does not assume any liability arising out
  30:Generated_Source\PSoC4/CapSense_Filter.c **** * of the application or use of any product or circuit described herein. Cypress
  31:Generated_Source\PSoC4/CapSense_Filter.c **** * does not authorize its products for use as critical components in life-support
  32:Generated_Source\PSoC4/CapSense_Filter.c **** * systems where a malfunction or failure may reasonably be expected to result in
ARM GAS  C:\Users\Jerry\AppData\Local\Temp\ccj4ahyr.s 			page 2


  33:Generated_Source\PSoC4/CapSense_Filter.c **** * significant injury to the user. The inclusion of Cypress' product in a life-
  34:Generated_Source\PSoC4/CapSense_Filter.c **** * support systems application implies that the manufacturer assumes all risk of
  35:Generated_Source\PSoC4/CapSense_Filter.c **** * such use and in doing so indemnifies Cypress against all charges. Use may be
  36:Generated_Source\PSoC4/CapSense_Filter.c **** * limited by and subject to the applicable Cypress software license agreement.
  37:Generated_Source\PSoC4/CapSense_Filter.c **** *******************************************************************************/
  38:Generated_Source\PSoC4/CapSense_Filter.c **** 
  39:Generated_Source\PSoC4/CapSense_Filter.c **** #include "CapSense_Filter.h"
  40:Generated_Source\PSoC4/CapSense_Filter.c **** #include "CapSense_Configuration.h"
  41:Generated_Source\PSoC4/CapSense_Filter.c **** 
  42:Generated_Source\PSoC4/CapSense_Filter.c **** #if (0 != (CapSense_CSD_AUTOTUNE & CapSense_CSD_SS_TH_EN))
  43:Generated_Source\PSoC4/CapSense_Filter.c ****     #include "CapSense_SmartSense_LL.h"
  44:Generated_Source\PSoC4/CapSense_Filter.c **** #endif /* (0 != (CapSense_CSD_AUTOTUNE & CapSense_CSD_SS_TH_EN)) */
  45:Generated_Source\PSoC4/CapSense_Filter.c **** 
  46:Generated_Source\PSoC4/CapSense_Filter.c **** #if (CapSense_ENABLE == CapSense_SELF_TEST_EN)
  47:Generated_Source\PSoC4/CapSense_Filter.c ****     #include "CapSense_SelfTest.h"
  48:Generated_Source\PSoC4/CapSense_Filter.c **** #endif
  49:Generated_Source\PSoC4/CapSense_Filter.c **** 
  50:Generated_Source\PSoC4/CapSense_Filter.c **** /*******************************************************************************
  51:Generated_Source\PSoC4/CapSense_Filter.c **** * Function Name: CapSense_FtInitialize
  52:Generated_Source\PSoC4/CapSense_Filter.c **** ****************************************************************************//**
  53:Generated_Source\PSoC4/CapSense_Filter.c **** *
  54:Generated_Source\PSoC4/CapSense_Filter.c **** * \brief
  55:Generated_Source\PSoC4/CapSense_Filter.c **** *    Initializes all the firmware filter history, except the baseline filter.
  56:Generated_Source\PSoC4/CapSense_Filter.c **** *
  57:Generated_Source\PSoC4/CapSense_Filter.c **** * \details
  58:Generated_Source\PSoC4/CapSense_Filter.c **** *    Initializes all the firmware filter history, except the baseline filter.
  59:Generated_Source\PSoC4/CapSense_Filter.c **** *
  60:Generated_Source\PSoC4/CapSense_Filter.c **** *******************************************************************************/
  61:Generated_Source\PSoC4/CapSense_Filter.c **** void CapSense_FtInitialize(void)
  62:Generated_Source\PSoC4/CapSense_Filter.c **** {
  26              		.loc 1 62 0
  27              		.cfi_startproc
  28              	.LVL0:
  29 0000 F0B5     		push	{r4, r5, r6, r7, lr}
  30              		.cfi_def_cfa_offset 20
  31              		.cfi_offset 4, -20
  32              		.cfi_offset 5, -16
  33              		.cfi_offset 6, -12
  34              		.cfi_offset 7, -8
  35              		.cfi_offset 14, -4
  36 0002 0A25     		mov	r5, #10
  37 0004 0C24     		mov	r4, #12
  63:Generated_Source\PSoC4/CapSense_Filter.c ****     uint32 widgetId;
  64:Generated_Source\PSoC4/CapSense_Filter.c ****     uint32 sensorId;
  65:Generated_Source\PSoC4/CapSense_Filter.c ****     uint32 sensorsNumber;
  66:Generated_Source\PSoC4/CapSense_Filter.c **** 
  67:Generated_Source\PSoC4/CapSense_Filter.c ****     CapSense_FLASH_WD_STRUCT const *ptrWidget;
  68:Generated_Source\PSoC4/CapSense_Filter.c ****     CapSense_RAM_SNS_STRUCT *ptrSensor = NULL;
  69:Generated_Source\PSoC4/CapSense_Filter.c ****     CapSense_PTR_FILTER_VARIANT ptrFilterHistObj;
  70:Generated_Source\PSoC4/CapSense_Filter.c ****     
  71:Generated_Source\PSoC4/CapSense_Filter.c ****     #if CapSense_CSD_AUTOTUNE & CapSense_CSD_SS_TH_EN
  72:Generated_Source\PSoC4/CapSense_Filter.c ****         CapSense_RAM_WD_BASE_STRUCT *ptrWidgetRam;
  73:Generated_Source\PSoC4/CapSense_Filter.c ****         SMARTSENSE_CSD_NOISE_ENVELOPE_STRUCT *ptrNoiseEnvelope = NULL;
  74:Generated_Source\PSoC4/CapSense_Filter.c ****     #endif /* #if CapSense_CSD_AUTOTUNE & CapSense_CSD_SS_TH_EN */
  75:Generated_Source\PSoC4/CapSense_Filter.c ****     
  76:Generated_Source\PSoC4/CapSense_Filter.c ****     for (widgetId = CapSense_TOTAL_WIDGETS; widgetId-- > 0u;)
  77:Generated_Source\PSoC4/CapSense_Filter.c ****     {
ARM GAS  C:\Users\Jerry\AppData\Local\Temp\ccj4ahyr.s 			page 3


  78:Generated_Source\PSoC4/CapSense_Filter.c ****         ptrWidget = &CapSense_dsFlash.wdgtArray[widgetId];
  79:Generated_Source\PSoC4/CapSense_Filter.c ****         
  80:Generated_Source\PSoC4/CapSense_Filter.c ****         #if CapSense_CSD_AUTOTUNE & CapSense_CSD_SS_TH_EN
  81:Generated_Source\PSoC4/CapSense_Filter.c ****             ptrWidgetRam = ptrWidget->ptr2WdgtRam;
  38              		.loc 1 81 0
  39 0006 0D4F     		ldr	r7, .L6
  62:Generated_Source\PSoC4/CapSense_Filter.c ****     uint32 widgetId;
  40              		.loc 1 62 0
  41 0008 85B0     		sub	sp, sp, #20
  42              		.cfi_def_cfa_offset 40
  82:Generated_Source\PSoC4/CapSense_Filter.c ****         #endif /* #if CapSense_CSD_AUTOTUNE & CapSense_CSD_SS_TH_EN */
  83:Generated_Source\PSoC4/CapSense_Filter.c **** 
  84:Generated_Source\PSoC4/CapSense_Filter.c ****         /* Find total amount of sensors in specified widget */   
  85:Generated_Source\PSoC4/CapSense_Filter.c ****         sensorsNumber = CapSense_GET_SNS_CNT_BY_PTR(ptrWidget);    
  43              		.loc 1 85 0
  44 000a FE8A     		ldrh	r6, [r7, #22]
  81:Generated_Source\PSoC4/CapSense_Filter.c ****         #endif /* #if CapSense_CSD_AUTOTUNE & CapSense_CSD_SS_TH_EN */
  45              		.loc 1 81 0
  46 000c 7B68     		ldr	r3, [r7, #4]
  47 000e 7543     		mul	r5, r6
  48 0010 7443     		mul	r4, r6
  49 0012 0193     		str	r3, [sp, #4]
  50              	.LVL1:
  51 0014 0A3D     		sub	r5, r5, #10
  52              	.LVL2:
  53              	.L4:
  54 0016 0C3C     		sub	r4, r4, #12
  55              	.LVL3:
  86:Generated_Source\PSoC4/CapSense_Filter.c ****     
  87:Generated_Source\PSoC4/CapSense_Filter.c ****         for (sensorId = sensorsNumber; sensorId-- > 0u;) 
  56              		.loc 1 87 0
  57 0018 002E     		cmp	r6, #0
  58 001a 0DD0     		beq	.L1
  59              	.LVL4:
  88:Generated_Source\PSoC4/CapSense_Filter.c ****         {
  89:Generated_Source\PSoC4/CapSense_Filter.c ****             /* Find pointer to specified sensor object */
  90:Generated_Source\PSoC4/CapSense_Filter.c ****             ptrSensor = ptrWidget->ptr2SnsRam;
  60              		.loc 1 90 0
  61 001c BB68     		ldr	r3, [r7, #8]
  62 001e 013E     		sub	r6, r6, #1
  63              	.LVL5:
  64 0020 0293     		str	r3, [sp, #8]
  65              	.LVL6:
  91:Generated_Source\PSoC4/CapSense_Filter.c ****             ptrSensor = &ptrSensor[sensorId];
  92:Generated_Source\PSoC4/CapSense_Filter.c ****                         
  93:Generated_Source\PSoC4/CapSense_Filter.c ****             /* Find pointer to to specified filter sensor object */
  94:Generated_Source\PSoC4/CapSense_Filter.c ****             ptrFilterHistObj.ptr = ptrWidget->ptr2FltrHistory;
  95:Generated_Source\PSoC4/CapSense_Filter.c **** 
  96:Generated_Source\PSoC4/CapSense_Filter.c ****             #if CapSense_CSD_AUTOTUNE & CapSense_CSD_SS_TH_EN
  97:Generated_Source\PSoC4/CapSense_Filter.c ****                 /* Find pointer to specified noise envelope sensor object */
  98:Generated_Source\PSoC4/CapSense_Filter.c ****                 ptrNoiseEnvelope = ptrWidget->ptr2NoiseEnvlp;
  66              		.loc 1 98 0
  67 0022 FB69     		ldr	r3, [r7, #28]
  68 0024 0393     		str	r3, [sp, #12]
  69              	.LVL7:
  99:Generated_Source\PSoC4/CapSense_Filter.c ****                 ptrNoiseEnvelope = &ptrNoiseEnvelope[sensorId];    
  70              		.loc 1 99 0
ARM GAS  C:\Users\Jerry\AppData\Local\Temp\ccj4ahyr.s 			page 4


  71 0026 1A19     		add	r2, r3, r4
  72              	.LVL8:
 100:Generated_Source\PSoC4/CapSense_Filter.c ****             #endif /* #if CapSense_CSD_AUTOTUNE & CapSense_CSD_SS_TH_EN */
 101:Generated_Source\PSoC4/CapSense_Filter.c ****             
 102:Generated_Source\PSoC4/CapSense_Filter.c ****             if ((CapSense_WD_TYPE_ENUM)ptrWidget->wdgtType != CapSense_WD_PROXIMITY_E)
 103:Generated_Source\PSoC4/CapSense_Filter.c ****             {
 104:Generated_Source\PSoC4/CapSense_Filter.c ****                 #if (CapSense_REGULAR_SENSOR_EN)             
 105:Generated_Source\PSoC4/CapSense_Filter.c ****                     ptrFilterHistObj.ptrRegular = &ptrFilterHistObj.ptrRegular[sensorId];
 106:Generated_Source\PSoC4/CapSense_Filter.c ****                 #endif /* (CapSense_REGULAR_SENSOR_EN) */
 107:Generated_Source\PSoC4/CapSense_Filter.c ****             }
 108:Generated_Source\PSoC4/CapSense_Filter.c ****             else
 109:Generated_Source\PSoC4/CapSense_Filter.c ****             {
 110:Generated_Source\PSoC4/CapSense_Filter.c ****                 #if (CapSense_PROXIMITY_SENSOR_EN)             
 111:Generated_Source\PSoC4/CapSense_Filter.c ****                     ptrFilterHistObj.ptrProx = &ptrFilterHistObj.ptrProx[sensorId];
 112:Generated_Source\PSoC4/CapSense_Filter.c ****                 #endif /* (CapSense_PROXIMITY_SENSOR_EN) */
 113:Generated_Source\PSoC4/CapSense_Filter.c ****             }
 114:Generated_Source\PSoC4/CapSense_Filter.c ****             
 115:Generated_Source\PSoC4/CapSense_Filter.c ****             #if (CapSense_REGULAR_RC_IIR_FILTER_EN || CapSense_PROX_RC_IIR_FILTER_EN)
 116:Generated_Source\PSoC4/CapSense_Filter.c ****                 CapSense_InitializeIIRInternal(ptrFilterHistObj, ptrSensor, (uint32)ptrWidget->wdgt
 117:Generated_Source\PSoC4/CapSense_Filter.c ****             #endif /* (CapSense_REGULAR_RC_IIR_FILTER_EN || CapSense_PROX_RC_IIR_FILTER_EN) */     
 118:Generated_Source\PSoC4/CapSense_Filter.c **** 
 119:Generated_Source\PSoC4/CapSense_Filter.c ****             #if (CapSense_REGULAR_RC_MEDIAN_FILTER_EN || CapSense_PROX_RC_MEDIAN_FILTER_EN)
 120:Generated_Source\PSoC4/CapSense_Filter.c ****                 CapSense_InitializeMedianInternal(ptrFilterHistObj, ptrSensor, (uint32)ptrWidget->w
 121:Generated_Source\PSoC4/CapSense_Filter.c ****             #endif /* (CapSense_REGULAR_RC_MEDIAN_FILTER_EN || CapSense_PROX_RC_MEDIAN_FILTER_EN) *
 122:Generated_Source\PSoC4/CapSense_Filter.c **** 
 123:Generated_Source\PSoC4/CapSense_Filter.c ****             #if (CapSense_REGULAR_RC_AVERAGE_FILTER_EN || CapSense_PROX_RC_AVERAGE_FILTER_EN)
 124:Generated_Source\PSoC4/CapSense_Filter.c ****                 CapSense_InitializeAverageInternal(ptrFilterHistObj, ptrSensor, (uint32)ptrWidget->
 125:Generated_Source\PSoC4/CapSense_Filter.c ****             #endif /* (CapSense_REGULAR_RC_AVERAGE_FILTER_EN || CapSense_PROX_RC_AVERAGE_FILTER_EN)
 126:Generated_Source\PSoC4/CapSense_Filter.c ****             
 127:Generated_Source\PSoC4/CapSense_Filter.c ****             #if (CapSense_CSD_AUTOTUNE & CapSense_CSD_SS_TH_EN)
 128:Generated_Source\PSoC4/CapSense_Filter.c ****                 if (CapSense_SENSE_METHOD_CSD_E ==
 129:Generated_Source\PSoC4/CapSense_Filter.c ****                     CapSense_GET_SENSE_METHOD(&CapSense_dsFlash.wdgtArray[widgetId]))
 130:Generated_Source\PSoC4/CapSense_Filter.c ****                 {
 131:Generated_Source\PSoC4/CapSense_Filter.c ****                     SmartSense_InitializeNoiseEnvelope(ptrSensor->raw[0u], ptrWidgetRam->sigPFC, pt
  73              		.loc 1 131 0
  74 0028 029B     		ldr	r3, [sp, #8]
  75 002a 585B     		ldrh	r0, [r3, r5]
  76 002c 019B     		ldr	r3, [sp, #4]
  77 002e 0A3D     		sub	r5, r5, #10
  78 0030 198A     		ldrh	r1, [r3, #16]
  79 0032 FFF7FEFF 		bl	SmartSense_InitializeNoiseEnvelope
  80              	.LVL9:
  81 0036 EEE7     		b	.L4
  82              	.LVL10:
  83              	.L1:
 132:Generated_Source\PSoC4/CapSense_Filter.c ****                 }
 133:Generated_Source\PSoC4/CapSense_Filter.c ****             #endif /* #if CapSense_CSD_AUTOTUNE & CapSense_CSD_SS_TH_EN */
 134:Generated_Source\PSoC4/CapSense_Filter.c ****         }
 135:Generated_Source\PSoC4/CapSense_Filter.c ****     }   
 136:Generated_Source\PSoC4/CapSense_Filter.c **** }
  84              		.loc 1 136 0
  85 0038 05B0     		add	sp, sp, #20
  86              		@ sp needed
  87              	.LVL11:
  88              	.LVL12:
  89 003a F0BD     		pop	{r4, r5, r6, r7, pc}
  90              	.L7:
ARM GAS  C:\Users\Jerry\AppData\Local\Temp\ccj4ahyr.s 			page 5


  91              		.align	2
  92              	.L6:
  93 003c 00000000 		.word	CapSense_dsFlash
  94              		.cfi_endproc
  95              	.LFE1:
  96              		.size	CapSense_FtInitialize, .-CapSense_FtInitialize
  97              		.section	.text.CapSense_FtUpdateBaseline,"ax",%progbits
  98              		.align	1
  99              		.global	CapSense_FtUpdateBaseline
 100              		.code	16
 101              		.thumb_func
 102              		.type	CapSense_FtUpdateBaseline, %function
 103              	CapSense_FtUpdateBaseline:
 104              	.LFB5:
 137:Generated_Source\PSoC4/CapSense_Filter.c **** 
 138:Generated_Source\PSoC4/CapSense_Filter.c **** 
 139:Generated_Source\PSoC4/CapSense_Filter.c **** /*******************************************************************************
 140:Generated_Source\PSoC4/CapSense_Filter.c **** * Function Name: CapSense_UpdateAllBaselines
 141:Generated_Source\PSoC4/CapSense_Filter.c **** ****************************************************************************//**
 142:Generated_Source\PSoC4/CapSense_Filter.c **** *
 143:Generated_Source\PSoC4/CapSense_Filter.c **** * \brief    
 144:Generated_Source\PSoC4/CapSense_Filter.c **** *  Updates the baseline for all sensors in all widgets.
 145:Generated_Source\PSoC4/CapSense_Filter.c **** *
 146:Generated_Source\PSoC4/CapSense_Filter.c **** * \details
 147:Generated_Source\PSoC4/CapSense_Filter.c **** *  Updates the baseline for all sensors in all widgets. Baseline updating is a 
 148:Generated_Source\PSoC4/CapSense_Filter.c **** *  part of data processing performed by the process functions. So, no need to 
 149:Generated_Source\PSoC4/CapSense_Filter.c **** *  call this function except a specific process flow is implemented.
 150:Generated_Source\PSoC4/CapSense_Filter.c **** *  
 151:Generated_Source\PSoC4/CapSense_Filter.c **** *  This function ignores the value of the wdgtEnable register. Multiple calling 
 152:Generated_Source\PSoC4/CapSense_Filter.c **** *  of this function (or any other function with a baseline updating task) 
 153:Generated_Source\PSoC4/CapSense_Filter.c **** *  without scanning leads to unexpected behavior.
 154:Generated_Source\PSoC4/CapSense_Filter.c **** *
 155:Generated_Source\PSoC4/CapSense_Filter.c **** *  If Self-test library is enabled this function executes baseline duplication
 156:Generated_Source\PSoC4/CapSense_Filter.c **** *  test. Refer to CapSense_CheckBaselineDuplication() for details.
 157:Generated_Source\PSoC4/CapSense_Filter.c **** *
 158:Generated_Source\PSoC4/CapSense_Filter.c **** * \return   
 159:Generated_Source\PSoC4/CapSense_Filter.c **** *  Returns the status of the update baseline operation of all widgets:
 160:Generated_Source\PSoC4/CapSense_Filter.c **** *  - CYRET_SUCCESS if operation was successfully completed
 161:Generated_Source\PSoC4/CapSense_Filter.c **** *  - CYRET_BAD_DATA if baseline processing failed
 162:Generated_Source\PSoC4/CapSense_Filter.c **** *
 163:Generated_Source\PSoC4/CapSense_Filter.c **** *******************************************************************************/
 164:Generated_Source\PSoC4/CapSense_Filter.c **** cystatus CapSense_UpdateAllBaselines(void)
 165:Generated_Source\PSoC4/CapSense_Filter.c **** {
 166:Generated_Source\PSoC4/CapSense_Filter.c ****     uint32 widgetId; 
 167:Generated_Source\PSoC4/CapSense_Filter.c ****     cystatus bslnStatus = CYRET_SUCCESS;
 168:Generated_Source\PSoC4/CapSense_Filter.c ****     
 169:Generated_Source\PSoC4/CapSense_Filter.c ****     for(widgetId = CapSense_TOTAL_WIDGETS; widgetId-- > 0u;)
 170:Generated_Source\PSoC4/CapSense_Filter.c ****     {            
 171:Generated_Source\PSoC4/CapSense_Filter.c ****         bslnStatus |= CapSense_UpdateWidgetBaseline(widgetId);       
 172:Generated_Source\PSoC4/CapSense_Filter.c ****     }      
 173:Generated_Source\PSoC4/CapSense_Filter.c ****     
 174:Generated_Source\PSoC4/CapSense_Filter.c ****     return(bslnStatus);
 175:Generated_Source\PSoC4/CapSense_Filter.c **** }
 176:Generated_Source\PSoC4/CapSense_Filter.c ****   
 177:Generated_Source\PSoC4/CapSense_Filter.c **** 
 178:Generated_Source\PSoC4/CapSense_Filter.c **** /*******************************************************************************
 179:Generated_Source\PSoC4/CapSense_Filter.c **** * Function Name: CapSense_UpdateWidgetBaseline
ARM GAS  C:\Users\Jerry\AppData\Local\Temp\ccj4ahyr.s 			page 6


 180:Generated_Source\PSoC4/CapSense_Filter.c **** ****************************************************************************//**
 181:Generated_Source\PSoC4/CapSense_Filter.c **** *
 182:Generated_Source\PSoC4/CapSense_Filter.c **** * \brief    
 183:Generated_Source\PSoC4/CapSense_Filter.c **** *  Updates the baseline for all sensors in a widget specified by input parameter.
 184:Generated_Source\PSoC4/CapSense_Filter.c **** *
 185:Generated_Source\PSoC4/CapSense_Filter.c **** * \details  
 186:Generated_Source\PSoC4/CapSense_Filter.c **** *  This function performs exactly the same tasks as 
 187:Generated_Source\PSoC4/CapSense_Filter.c **** *  CapSense_UpdateAllBaselines(), but only for a specified widget.
 188:Generated_Source\PSoC4/CapSense_Filter.c **** *  
 189:Generated_Source\PSoC4/CapSense_Filter.c **** *  This function ignores the value of the wdgtEnable register. Multiple calling
 190:Generated_Source\PSoC4/CapSense_Filter.c **** *  of this function (or any other function with a baseline updating task) 
 191:Generated_Source\PSoC4/CapSense_Filter.c **** *  without scanning leads to unexpected behavior.
 192:Generated_Source\PSoC4/CapSense_Filter.c **** *
 193:Generated_Source\PSoC4/CapSense_Filter.c **** *  If Self-test library is enabled this function executes baseline duplication
 194:Generated_Source\PSoC4/CapSense_Filter.c **** *  test. Refer to CapSense_CheckBaselineDuplication() for details.
 195:Generated_Source\PSoC4/CapSense_Filter.c **** *
 196:Generated_Source\PSoC4/CapSense_Filter.c **** * \param widgetId 
 197:Generated_Source\PSoC4/CapSense_Filter.c **** *  Specify the ID number of the widget to update the baseline of all sensors
 198:Generated_Source\PSoC4/CapSense_Filter.c **** *  in the widget.
 199:Generated_Source\PSoC4/CapSense_Filter.c **** *  A macro for the widget ID can be found in the 
 200:Generated_Source\PSoC4/CapSense_Filter.c **** *  CapSense Configuration header file defined as 
 201:Generated_Source\PSoC4/CapSense_Filter.c **** *  CapSense_<WidgetName>_WDGT_ID.
 202:Generated_Source\PSoC4/CapSense_Filter.c **** *
 203:Generated_Source\PSoC4/CapSense_Filter.c **** * \return   
 204:Generated_Source\PSoC4/CapSense_Filter.c **** *  Returns the status of the specified widget update baseline operation:
 205:Generated_Source\PSoC4/CapSense_Filter.c **** *  - CYRET_SUCCESS if operation was successfully completed
 206:Generated_Source\PSoC4/CapSense_Filter.c **** *  - CYRET_BAD_DATA if baseline processing failed
 207:Generated_Source\PSoC4/CapSense_Filter.c **** *
 208:Generated_Source\PSoC4/CapSense_Filter.c **** *******************************************************************************/
 209:Generated_Source\PSoC4/CapSense_Filter.c **** cystatus CapSense_UpdateWidgetBaseline(uint32 widgetId)
 210:Generated_Source\PSoC4/CapSense_Filter.c **** {
 211:Generated_Source\PSoC4/CapSense_Filter.c ****     uint32 sensorId;       
 212:Generated_Source\PSoC4/CapSense_Filter.c ****     uint32 sensorsNumber;  
 213:Generated_Source\PSoC4/CapSense_Filter.c **** 
 214:Generated_Source\PSoC4/CapSense_Filter.c ****     CapSense_FLASH_WD_STRUCT const *ptrWidget = &CapSense_dsFlash.wdgtArray[widgetId];    
 215:Generated_Source\PSoC4/CapSense_Filter.c ****     cystatus bslnStatus = CYRET_SUCCESS;    
 216:Generated_Source\PSoC4/CapSense_Filter.c ****     
 217:Generated_Source\PSoC4/CapSense_Filter.c ****     /* Find total amount of sensors in specified widget */   
 218:Generated_Source\PSoC4/CapSense_Filter.c ****     sensorsNumber = CapSense_GET_SNS_CNT_BY_PTR(ptrWidget);    
 219:Generated_Source\PSoC4/CapSense_Filter.c ****     
 220:Generated_Source\PSoC4/CapSense_Filter.c ****     for(sensorId = sensorsNumber; sensorId-- > 0u;)
 221:Generated_Source\PSoC4/CapSense_Filter.c ****     {
 222:Generated_Source\PSoC4/CapSense_Filter.c ****         bslnStatus |= CapSense_UpdateSensorBaseline(widgetId, sensorId);    
 223:Generated_Source\PSoC4/CapSense_Filter.c ****     }
 224:Generated_Source\PSoC4/CapSense_Filter.c **** 
 225:Generated_Source\PSoC4/CapSense_Filter.c ****     return(bslnStatus);
 226:Generated_Source\PSoC4/CapSense_Filter.c **** }
 227:Generated_Source\PSoC4/CapSense_Filter.c **** 
 228:Generated_Source\PSoC4/CapSense_Filter.c **** 
 229:Generated_Source\PSoC4/CapSense_Filter.c **** /*******************************************************************************
 230:Generated_Source\PSoC4/CapSense_Filter.c **** * Function Name: CapSense_UpdateSensorBaseline
 231:Generated_Source\PSoC4/CapSense_Filter.c **** ****************************************************************************//**
 232:Generated_Source\PSoC4/CapSense_Filter.c **** *
 233:Generated_Source\PSoC4/CapSense_Filter.c **** * \brief    
 234:Generated_Source\PSoC4/CapSense_Filter.c **** *  Updates the baseline for a sensor in a widget specified by input parameters.
 235:Generated_Source\PSoC4/CapSense_Filter.c **** *
 236:Generated_Source\PSoC4/CapSense_Filter.c **** * \details  
ARM GAS  C:\Users\Jerry\AppData\Local\Temp\ccj4ahyr.s 			page 7


 237:Generated_Source\PSoC4/CapSense_Filter.c **** *  This function performs exactly the same tasks as
 238:Generated_Source\PSoC4/CapSense_Filter.c **** *  CapSense_UpdateAllBaselines() and 
 239:Generated_Source\PSoC4/CapSense_Filter.c **** *  CapSense_UpdateWidgetBaseline() but only for a specified sensor.
 240:Generated_Source\PSoC4/CapSense_Filter.c **** *  
 241:Generated_Source\PSoC4/CapSense_Filter.c **** *  This function ignores the value of the wdgtEnable register. Multiple calling 
 242:Generated_Source\PSoC4/CapSense_Filter.c **** *  of this function (or any other function with a baseline updating task) 
 243:Generated_Source\PSoC4/CapSense_Filter.c **** *  without scanning leads to unexpected behavior.
 244:Generated_Source\PSoC4/CapSense_Filter.c **** *
 245:Generated_Source\PSoC4/CapSense_Filter.c **** *  If Self-test library is enabled this function executes baseline duplication
 246:Generated_Source\PSoC4/CapSense_Filter.c **** *  test. Refer to CapSense_CheckBaselineDuplication() for details.
 247:Generated_Source\PSoC4/CapSense_Filter.c **** *
 248:Generated_Source\PSoC4/CapSense_Filter.c **** * \param   widgetId 
 249:Generated_Source\PSoC4/CapSense_Filter.c **** *  Specify the ID number of the widget to update the baseline of the sensor 
 250:Generated_Source\PSoC4/CapSense_Filter.c **** *  specified by the sensorId argument.
 251:Generated_Source\PSoC4/CapSense_Filter.c **** *  A macro for the widget ID can be found in the CapSense Configuration header 
 252:Generated_Source\PSoC4/CapSense_Filter.c **** *  file defined as CapSense_<WidgetName>_WDGT_ID. 
 253:Generated_Source\PSoC4/CapSense_Filter.c **** *
 254:Generated_Source\PSoC4/CapSense_Filter.c **** * \param   sensorId 
 255:Generated_Source\PSoC4/CapSense_Filter.c **** *  Specify the ID number of the sensor within the widget to update its baseline.
 256:Generated_Source\PSoC4/CapSense_Filter.c **** *  A macro for the sensor ID within a specified widget can be found in the 
 257:Generated_Source\PSoC4/CapSense_Filter.c **** *  CapSense Configuration header file defined as 
 258:Generated_Source\PSoC4/CapSense_Filter.c **** *  CapSense_<WidgetName>_SNS<SensorNumber>_ID
 259:Generated_Source\PSoC4/CapSense_Filter.c **** *
 260:Generated_Source\PSoC4/CapSense_Filter.c **** * \return   
 261:Generated_Source\PSoC4/CapSense_Filter.c **** *  Returns the status of the specified sensor update baseline operation:
 262:Generated_Source\PSoC4/CapSense_Filter.c **** *  - CYRET_SUCCESS if operation was successfully completed
 263:Generated_Source\PSoC4/CapSense_Filter.c **** *  - CYRET_BAD_DATA if baseline processing failed
 264:Generated_Source\PSoC4/CapSense_Filter.c **** *
 265:Generated_Source\PSoC4/CapSense_Filter.c **** *******************************************************************************/
 266:Generated_Source\PSoC4/CapSense_Filter.c **** cystatus CapSense_UpdateSensorBaseline(uint32 widgetId, uint32 sensorId)
 267:Generated_Source\PSoC4/CapSense_Filter.c **** {    
 268:Generated_Source\PSoC4/CapSense_Filter.c ****     uint32 result = CYRET_SUCCESS;
 269:Generated_Source\PSoC4/CapSense_Filter.c ****     
 270:Generated_Source\PSoC4/CapSense_Filter.c ****     CapSense_RAM_SNS_STRUCT *ptrSensor = NULL;    
 271:Generated_Source\PSoC4/CapSense_Filter.c ****     CapSense_FLASH_WD_STRUCT const *ptrWidget = &CapSense_dsFlash.wdgtArray[widgetId];    
 272:Generated_Source\PSoC4/CapSense_Filter.c ****     CapSense_RAM_WD_BASE_STRUCT *ptrWidgetRam = ptrWidget->ptr2WdgtRam;   
 273:Generated_Source\PSoC4/CapSense_Filter.c **** 
 274:Generated_Source\PSoC4/CapSense_Filter.c ****     /* Find pointer to specified sensor object */     
 275:Generated_Source\PSoC4/CapSense_Filter.c ****     ptrSensor = ptrWidget->ptr2SnsRam;
 276:Generated_Source\PSoC4/CapSense_Filter.c ****     ptrSensor = &ptrSensor[sensorId];
 277:Generated_Source\PSoC4/CapSense_Filter.c ****     result = CapSense_FtUpdateBaseline(ptrWidgetRam, ptrSensor, (uint32)ptrWidget->wdgtType);
 278:Generated_Source\PSoC4/CapSense_Filter.c ****     
 279:Generated_Source\PSoC4/CapSense_Filter.c ****     #if (CapSense_ENABLE == CapSense_TST_BSLN_DUPLICATION_EN)
 280:Generated_Source\PSoC4/CapSense_Filter.c ****         if (CYRET_SUCCESS != result)
 281:Generated_Source\PSoC4/CapSense_Filter.c ****         {
 282:Generated_Source\PSoC4/CapSense_Filter.c ****             result = CYRET_BAD_DATA;
 283:Generated_Source\PSoC4/CapSense_Filter.c ****             CapSense_UpdateTestResultBaselineDuplication(widgetId, sensorId);           
 284:Generated_Source\PSoC4/CapSense_Filter.c ****         }
 285:Generated_Source\PSoC4/CapSense_Filter.c ****     #endif /* (CapSense_ENABLE == CapSense_TST_BSLN_DUPLICATION_EN) */
 286:Generated_Source\PSoC4/CapSense_Filter.c **** 
 287:Generated_Source\PSoC4/CapSense_Filter.c ****     return result;
 288:Generated_Source\PSoC4/CapSense_Filter.c **** }
 289:Generated_Source\PSoC4/CapSense_Filter.c **** 
 290:Generated_Source\PSoC4/CapSense_Filter.c **** /*******************************************************************************
 291:Generated_Source\PSoC4/CapSense_Filter.c **** * Function Name: CapSense_FtUpdateBaseline
 292:Generated_Source\PSoC4/CapSense_Filter.c **** ****************************************************************************//**
 293:Generated_Source\PSoC4/CapSense_Filter.c **** *
ARM GAS  C:\Users\Jerry\AppData\Local\Temp\ccj4ahyr.s 			page 8


 294:Generated_Source\PSoC4/CapSense_Filter.c **** * \brief
 295:Generated_Source\PSoC4/CapSense_Filter.c **** *  Updates the baseline for a sensor specified by an input parameter.
 296:Generated_Source\PSoC4/CapSense_Filter.c **** *
 297:Generated_Source\PSoC4/CapSense_Filter.c **** * \details
 298:Generated_Source\PSoC4/CapSense_Filter.c **** *  Check a matching of present baseline and its inverse duplication. If they 
 299:Generated_Source\PSoC4/CapSense_Filter.c **** *  match then updates the baseline for a sensor specified by an input parameter.  
 300:Generated_Source\PSoC4/CapSense_Filter.c **** *  If don't match the function return CapSense_TST_BSLN_DUPLICATION
 301:Generated_Source\PSoC4/CapSense_Filter.c **** *  result and don't update baseline.
 302:Generated_Source\PSoC4/CapSense_Filter.c **** *
 303:Generated_Source\PSoC4/CapSense_Filter.c **** * \param    ptrWidgetRam
 304:Generated_Source\PSoC4/CapSense_Filter.c **** *  The pointer to the widget RAM structure where all the widget parameters
 305:Generated_Source\PSoC4/CapSense_Filter.c **** *  are stored.
 306:Generated_Source\PSoC4/CapSense_Filter.c **** *
 307:Generated_Source\PSoC4/CapSense_Filter.c **** * \param    ptrSensor
 308:Generated_Source\PSoC4/CapSense_Filter.c **** *  The pointer to the sensor RAM structure where all the sensor parameters
 309:Generated_Source\PSoC4/CapSense_Filter.c **** *  are stored.
 310:Generated_Source\PSoC4/CapSense_Filter.c **** *
 311:Generated_Source\PSoC4/CapSense_Filter.c **** * \param    wdType
 312:Generated_Source\PSoC4/CapSense_Filter.c **** *  Specifies the type of a widget.
 313:Generated_Source\PSoC4/CapSense_Filter.c **** *
 314:Generated_Source\PSoC4/CapSense_Filter.c **** * \return   
 315:Generated_Source\PSoC4/CapSense_Filter.c **** *  Returns a status indicating whether the baseline has been updated:
 316:Generated_Source\PSoC4/CapSense_Filter.c **** *  - CYRET_SUCCESS if baseline updating was successful;
 317:Generated_Source\PSoC4/CapSense_Filter.c **** *  - CapSense_PROCESS_BASELINE_FAILED if present sensor's any channel
 318:Generated_Source\PSoC4/CapSense_Filter.c **** *    baseline and its inversion doesn't matched
 319:Generated_Source\PSoC4/CapSense_Filter.c **** *
 320:Generated_Source\PSoC4/CapSense_Filter.c **** *******************************************************************************/
 321:Generated_Source\PSoC4/CapSense_Filter.c **** uint32 CapSense_FtUpdateBaseline(
 322:Generated_Source\PSoC4/CapSense_Filter.c ****                                 CapSense_RAM_WD_BASE_STRUCT *ptrWidgetRam,
 323:Generated_Source\PSoC4/CapSense_Filter.c ****                                 CapSense_RAM_SNS_STRUCT *ptrSensor, 
 324:Generated_Source\PSoC4/CapSense_Filter.c ****                                 uint32 wdType)
 325:Generated_Source\PSoC4/CapSense_Filter.c **** {         
 105              		.loc 1 325 0
 106              		.cfi_startproc
 107              	.LVL13:
 108 0000 F0B5     		push	{r4, r5, r6, r7, lr}
 109              		.cfi_def_cfa_offset 20
 110              		.cfi_offset 4, -20
 111              		.cfi_offset 5, -16
 112              		.cfi_offset 6, -12
 113              		.cfi_offset 7, -8
 114              		.cfi_offset 14, -4
 326:Generated_Source\PSoC4/CapSense_Filter.c ****     uint32 sign;
 327:Generated_Source\PSoC4/CapSense_Filter.c ****     uint32 difference;        
 328:Generated_Source\PSoC4/CapSense_Filter.c ****     uint32 channel;
 329:Generated_Source\PSoC4/CapSense_Filter.c ****     uint32 result = CYRET_SUCCESS;
 330:Generated_Source\PSoC4/CapSense_Filter.c ****     
 331:Generated_Source\PSoC4/CapSense_Filter.c ****     #if (CapSense_TOTAL_WIDGETS)  
 332:Generated_Source\PSoC4/CapSense_Filter.c ****         uint32 history;
 333:Generated_Source\PSoC4/CapSense_Filter.c ****     #endif /* (CapSense_TOTAL_WIDGETS) */    
 334:Generated_Source\PSoC4/CapSense_Filter.c ****     
 335:Generated_Source\PSoC4/CapSense_Filter.c ****     /* Apply baseline to every channel in sensor */
 336:Generated_Source\PSoC4/CapSense_Filter.c ****     for(channel = CapSense_NUM_SCAN_FREQS; channel-- > 0u;) 
 337:Generated_Source\PSoC4/CapSense_Filter.c ****     {               
 338:Generated_Source\PSoC4/CapSense_Filter.c ****         #if (CapSense_ENABLE == CapSense_TST_BSLN_DUPLICATION_EN)
 339:Generated_Source\PSoC4/CapSense_Filter.c ****             if (ptrSensor->bslnInv[channel] != ((uint16) ~(ptrSensor->bsln[channel])))
 340:Generated_Source\PSoC4/CapSense_Filter.c ****             {
ARM GAS  C:\Users\Jerry\AppData\Local\Temp\ccj4ahyr.s 			page 9


 341:Generated_Source\PSoC4/CapSense_Filter.c ****                 result = CapSense_PROCESS_BASELINE_FAILED;
 342:Generated_Source\PSoC4/CapSense_Filter.c ****             }
 343:Generated_Source\PSoC4/CapSense_Filter.c ****             else
 344:Generated_Source\PSoC4/CapSense_Filter.c ****             {
 345:Generated_Source\PSoC4/CapSense_Filter.c ****         #endif /* (CapSense_ENABLE == CapSense_TST_BSLN_DUPLICATION_EN) */
 346:Generated_Source\PSoC4/CapSense_Filter.c **** 
 347:Generated_Source\PSoC4/CapSense_Filter.c ****         /* Calculate signal value and its sign */
 348:Generated_Source\PSoC4/CapSense_Filter.c ****         if(ptrSensor->raw[channel] >= ptrSensor->bsln[channel])
 115              		.loc 1 348 0
 116 0002 0B88     		ldrh	r3, [r1]
 117 0004 4C88     		ldrh	r4, [r1, #2]
 118 0006 A342     		cmp	r3, r4
 119 0008 05D2     		bcs	.L9
 349:Generated_Source\PSoC4/CapSense_Filter.c ****         {
 350:Generated_Source\PSoC4/CapSense_Filter.c ****             difference = (uint32)ptrSensor->raw[channel] - (uint32)ptrSensor->bsln[channel];
 351:Generated_Source\PSoC4/CapSense_Filter.c ****             sign = 1u;
 352:Generated_Source\PSoC4/CapSense_Filter.c ****             ptrSensor->negBslnRstCnt[channel] = 0u;
 353:Generated_Source\PSoC4/CapSense_Filter.c ****         }
 354:Generated_Source\PSoC4/CapSense_Filter.c ****         else
 355:Generated_Source\PSoC4/CapSense_Filter.c ****         {
 356:Generated_Source\PSoC4/CapSense_Filter.c ****             difference = (uint32)ptrSensor->bsln[channel] - (uint32)ptrSensor->raw[channel];
 357:Generated_Source\PSoC4/CapSense_Filter.c ****             sign = 0u;
 358:Generated_Source\PSoC4/CapSense_Filter.c ****         }     
 359:Generated_Source\PSoC4/CapSense_Filter.c ****         
 360:Generated_Source\PSoC4/CapSense_Filter.c ****         /* Reset baseline if condition is met */ 
 361:Generated_Source\PSoC4/CapSense_Filter.c ****         if((sign == 0u) && (difference > (uint32) ptrWidgetRam->nNoiseTh))
 120              		.loc 1 361 0
 121 000a 4679     		ldrb	r6, [r0, #5]
 356:Generated_Source\PSoC4/CapSense_Filter.c ****             sign = 0u;
 122              		.loc 1 356 0
 123 000c E51A     		sub	r5, r4, r3
 124              	.LVL14:
 125              		.loc 1 361 0
 126 000e B542     		cmp	r5, r6
 127 0010 1DD8     		bhi	.L10
 357:Generated_Source\PSoC4/CapSense_Filter.c ****         }     
 128              		.loc 1 357 0
 129 0012 0026     		mov	r6, #0
 130 0014 03E0     		b	.L11
 131              	.LVL15:
 132              	.L9:
 352:Generated_Source\PSoC4/CapSense_Filter.c ****         }
 133              		.loc 1 352 0
 134 0016 0026     		mov	r6, #0
 350:Generated_Source\PSoC4/CapSense_Filter.c ****             sign = 1u;
 135              		.loc 1 350 0
 136 0018 1D1B     		sub	r5, r3, r4
 137              	.LVL16:
 352:Generated_Source\PSoC4/CapSense_Filter.c ****         }
 138              		.loc 1 352 0
 139 001a 0E72     		strb	r6, [r1, #8]
 351:Generated_Source\PSoC4/CapSense_Filter.c ****             ptrSensor->negBslnRstCnt[channel] = 0u;
 140              		.loc 1 351 0
 141 001c 0136     		add	r6, r6, #1
 142              	.LVL17:
 143              	.L11:
 362:Generated_Source\PSoC4/CapSense_Filter.c ****         {
ARM GAS  C:\Users\Jerry\AppData\Local\Temp\ccj4ahyr.s 			page 10


 363:Generated_Source\PSoC4/CapSense_Filter.c ****             if(ptrSensor->negBslnRstCnt[channel] >= ptrWidgetRam->lowBslnRst)
 364:Generated_Source\PSoC4/CapSense_Filter.c ****             {                
 365:Generated_Source\PSoC4/CapSense_Filter.c ****                 CapSense_FtInitializeBaselineChannel(ptrSensor, wdType, channel);             
 366:Generated_Source\PSoC4/CapSense_Filter.c ****             }
 367:Generated_Source\PSoC4/CapSense_Filter.c ****             else
 368:Generated_Source\PSoC4/CapSense_Filter.c ****             {
 369:Generated_Source\PSoC4/CapSense_Filter.c ****                 ptrSensor->negBslnRstCnt[channel]++;
 370:Generated_Source\PSoC4/CapSense_Filter.c ****             }
 371:Generated_Source\PSoC4/CapSense_Filter.c ****         }
 372:Generated_Source\PSoC4/CapSense_Filter.c ****         else
 373:Generated_Source\PSoC4/CapSense_Filter.c ****         {
 374:Generated_Source\PSoC4/CapSense_Filter.c ****             #if (!CapSense_SENSOR_AUTO_RESET_EN)
 375:Generated_Source\PSoC4/CapSense_Filter.c ****                 /* Update baseline only if signal is in range between noiseThreshold and negativeno
 376:Generated_Source\PSoC4/CapSense_Filter.c ****                 if ((difference <= (uint32)ptrWidgetRam->noiseTh) ||
 144              		.loc 1 376 0
 145 001e 0779     		ldrb	r7, [r0, #4]
 146 0020 BD42     		cmp	r5, r7
 147 0022 0ED8     		bhi	.L12
 148              	.LVL18:
 149              	.L14:
 377:Generated_Source\PSoC4/CapSense_Filter.c ****                     ((difference < (uint32) ptrWidgetRam->nNoiseTh) && (sign == 0u)))
 378:Generated_Source\PSoC4/CapSense_Filter.c ****                 {
 379:Generated_Source\PSoC4/CapSense_Filter.c ****             #endif /* (CapSense_CSD_AUTO_RESET == CapSense_CSD_AUTO_RESET_DISABLE) */
 380:Generated_Source\PSoC4/CapSense_Filter.c ****             
 381:Generated_Source\PSoC4/CapSense_Filter.c ****             #if (CapSense_BASELINE_TYPE == CapSense_IIR_BASELINE)  
 382:Generated_Source\PSoC4/CapSense_Filter.c ****                 /* Calculate baseline value */
 383:Generated_Source\PSoC4/CapSense_Filter.c ****                 if ((CapSense_WD_TYPE_ENUM)wdType != CapSense_WD_PROXIMITY_E)
 150              		.loc 1 383 0
 151 0024 D2B2     		uxtb	r2, r2
 152              	.LVL19:
 153 0026 062A     		cmp	r2, #6
 154 0028 21D1     		bne	.L13
 384:Generated_Source\PSoC4/CapSense_Filter.c ****                 {
 385:Generated_Source\PSoC4/CapSense_Filter.c ****                     #if (CapSense_REGULAR_SENSOR_EN) 
 386:Generated_Source\PSoC4/CapSense_Filter.c ****                         #if (CapSense_REGULAR_IIR_BL_TYPE == CapSense_IIR_FILTER_PERFORMANCE)      
 387:Generated_Source\PSoC4/CapSense_Filter.c ****                             history = (uint32) ptrSensor->bsln[channel] << 8u; 
 388:Generated_Source\PSoC4/CapSense_Filter.c ****                             history |= ptrSensor->bslnExt[channel];
 389:Generated_Source\PSoC4/CapSense_Filter.c ****                         #else
 390:Generated_Source\PSoC4/CapSense_Filter.c ****                             history = ptrSensor->bsln[channel];                                    
 391:Generated_Source\PSoC4/CapSense_Filter.c ****                         #endif /* (CapSense_REGULAR_IIR_BL_TYPE == CapSense_IIR_FILTER_PERFORMANCE)
 392:Generated_Source\PSoC4/CapSense_Filter.c ****                     
 393:Generated_Source\PSoC4/CapSense_Filter.c ****                         history =  CapSense_FtIIR1stOrder(
 394:Generated_Source\PSoC4/CapSense_Filter.c ****                                         (uint32)ptrSensor->raw[channel],
 395:Generated_Source\PSoC4/CapSense_Filter.c ****                                         history, 
 396:Generated_Source\PSoC4/CapSense_Filter.c ****                                         CapSense_REGULAR_IIR_BL_N, 
 397:Generated_Source\PSoC4/CapSense_Filter.c ****                                         CapSense_REGULAR_IIR_BL_SHIFT);
 398:Generated_Source\PSoC4/CapSense_Filter.c ****                                                    
 399:Generated_Source\PSoC4/CapSense_Filter.c ****                         #if (CapSense_REGULAR_IIR_BL_TYPE == CapSense_IIR_FILTER_PERFORMANCE)      
 400:Generated_Source\PSoC4/CapSense_Filter.c ****                             ptrSensor->bsln[channel] = LO16(history >> 8u);
 401:Generated_Source\PSoC4/CapSense_Filter.c ****                             ptrSensor->bslnExt[channel] = LO8(history);
 402:Generated_Source\PSoC4/CapSense_Filter.c ****                         #else
 403:Generated_Source\PSoC4/CapSense_Filter.c ****                             ptrSensor->bsln[channel] = LO16(history);
 404:Generated_Source\PSoC4/CapSense_Filter.c ****                         #endif /* (CapSense_REGULAR_IIR_BL_TYPE == CapSense_IIR_FILTER_PERFORMANCE)
 405:Generated_Source\PSoC4/CapSense_Filter.c ****                     #endif /* (CapSense_REGULAR_SENSOR_EN) */
 406:Generated_Source\PSoC4/CapSense_Filter.c ****                 }
 407:Generated_Source\PSoC4/CapSense_Filter.c ****                 else 
 408:Generated_Source\PSoC4/CapSense_Filter.c ****                 {
ARM GAS  C:\Users\Jerry\AppData\Local\Temp\ccj4ahyr.s 			page 11


 409:Generated_Source\PSoC4/CapSense_Filter.c ****                     #if (CapSense_PROXIMITY_SENSOR_EN)     
 410:Generated_Source\PSoC4/CapSense_Filter.c ****                         #if (CapSense_PROX_IIR_BL_TYPE == CapSense_IIR_FILTER_PERFORMANCE)         
 411:Generated_Source\PSoC4/CapSense_Filter.c ****                             history = (uint32) ptrSensor->bsln[channel] << 8u; 
 412:Generated_Source\PSoC4/CapSense_Filter.c ****                             history |= ptrSensor->bslnExt[channel];
 155              		.loc 1 412 0
 156 002a 0A79     		ldrb	r2, [r1, #4]
 411:Generated_Source\PSoC4/CapSense_Filter.c ****                             history |= ptrSensor->bslnExt[channel];
 157              		.loc 1 411 0
 158 002c 2402     		lsl	r4, r4, #8
 159              	.LVL20:
 160              		.loc 1 412 0
 161 002e 1443     		orr	r4, r2
 162              	.LVL21:
 163              	.LBB8:
 164              	.LBB9:
 413:Generated_Source\PSoC4/CapSense_Filter.c ****                         #else
 414:Generated_Source\PSoC4/CapSense_Filter.c ****                             history = (uint32) ptrSensor->bsln[channel];                           
 415:Generated_Source\PSoC4/CapSense_Filter.c ****                         #endif /* (CapSense_PROX_IIR_BL_TYPE == CapSense_IIR_FILTER_PERFORMANCE) */
 416:Generated_Source\PSoC4/CapSense_Filter.c ****                         
 417:Generated_Source\PSoC4/CapSense_Filter.c ****                         history = CapSense_FtIIR1stOrder((uint32)ptrSensor->raw[channel], history, 
 418:Generated_Source\PSoC4/CapSense_Filter.c ****                         
 419:Generated_Source\PSoC4/CapSense_Filter.c ****                         #if (CapSense_PROX_IIR_BL_TYPE == CapSense_IIR_FILTER_PERFORMANCE)         
 420:Generated_Source\PSoC4/CapSense_Filter.c ****                             ptrSensor->bsln[channel] = LO16(history >> 8u);
 421:Generated_Source\PSoC4/CapSense_Filter.c ****                             ptrSensor->bslnExt[channel] = LO8(history);
 422:Generated_Source\PSoC4/CapSense_Filter.c ****                         #else
 423:Generated_Source\PSoC4/CapSense_Filter.c ****                             ptrSensor->bsln[channel] = LO16(history);
 424:Generated_Source\PSoC4/CapSense_Filter.c ****                         #endif /* (CapSense_PROX_IIR_BL_TYPE == CapSense_IIR_FILTER_PERFORMANCE) */
 425:Generated_Source\PSoC4/CapSense_Filter.c ****                     #endif /* (CapSense_PROX_SENSOR_EN)   */
 426:Generated_Source\PSoC4/CapSense_Filter.c ****                 }
 427:Generated_Source\PSoC4/CapSense_Filter.c ****             #else /* (CapSense_CSD_BASELINE_TYPE == CapSense_IIR_BASELINE)  */
 428:Generated_Source\PSoC4/CapSense_Filter.c ****                 
 429:Generated_Source\PSoC4/CapSense_Filter.c ****                 /******************************************************************
 430:Generated_Source\PSoC4/CapSense_Filter.c ****                 * This is the place where the bucket algorithm should be implemented.
 431:Generated_Source\PSoC4/CapSense_Filter.c ****                 * The bucket method will be implemented in future component version.
 432:Generated_Source\PSoC4/CapSense_Filter.c ****                 *******************************************************************/
 433:Generated_Source\PSoC4/CapSense_Filter.c ****                 
 434:Generated_Source\PSoC4/CapSense_Filter.c ****             #endif /* (CapSense_CSD_BASELINE_TYPE == CapSense_IIR_BASELINE)  */
 435:Generated_Source\PSoC4/CapSense_Filter.c ****                     
 436:Generated_Source\PSoC4/CapSense_Filter.c ****             #if (!CapSense_SENSOR_AUTO_RESET_EN)
 437:Generated_Source\PSoC4/CapSense_Filter.c ****                 }
 438:Generated_Source\PSoC4/CapSense_Filter.c ****             #endif /* (!CapSense_SENSOR_AUTO_RESET_EN) */
 439:Generated_Source\PSoC4/CapSense_Filter.c ****         }
 440:Generated_Source\PSoC4/CapSense_Filter.c ****                 
 441:Generated_Source\PSoC4/CapSense_Filter.c ****         #if (CapSense_ENABLE == CapSense_TST_BSLN_DUPLICATION_EN)
 442:Generated_Source\PSoC4/CapSense_Filter.c ****             /* Update baseline inversion of every channel in sensor */    
 443:Generated_Source\PSoC4/CapSense_Filter.c ****             ptrSensor->bslnInv[channel] = ~(ptrSensor->bsln[channel]);
 444:Generated_Source\PSoC4/CapSense_Filter.c ****             }
 445:Generated_Source\PSoC4/CapSense_Filter.c ****         #endif /* (CapSense_ENABLE == CapSense_TST_BSLN_DUPLICATION_EN) */
 446:Generated_Source\PSoC4/CapSense_Filter.c **** 
 447:Generated_Source\PSoC4/CapSense_Filter.c ****     }
 448:Generated_Source\PSoC4/CapSense_Filter.c ****     return result;    
 449:Generated_Source\PSoC4/CapSense_Filter.c **** }
 450:Generated_Source\PSoC4/CapSense_Filter.c **** 
 451:Generated_Source\PSoC4/CapSense_Filter.c **** 
 452:Generated_Source\PSoC4/CapSense_Filter.c **** /*******************************************************************************
 453:Generated_Source\PSoC4/CapSense_Filter.c **** * Function Name: CapSense_InitializeAllBaselines
 454:Generated_Source\PSoC4/CapSense_Filter.c **** ****************************************************************************//**
ARM GAS  C:\Users\Jerry\AppData\Local\Temp\ccj4ahyr.s 			page 12


 455:Generated_Source\PSoC4/CapSense_Filter.c **** *
 456:Generated_Source\PSoC4/CapSense_Filter.c **** * \brief    
 457:Generated_Source\PSoC4/CapSense_Filter.c **** *  Initializes (or re-initialize) the baseline of all sensors of all widgets.
 458:Generated_Source\PSoC4/CapSense_Filter.c **** *
 459:Generated_Source\PSoC4/CapSense_Filter.c **** * \details  
 460:Generated_Source\PSoC4/CapSense_Filter.c **** *  Initializes the baseline for all sensors of all widgets. Also, this function
 461:Generated_Source\PSoC4/CapSense_Filter.c **** *  can be used to re-initialize baselines. CapSense_Start() calls this 
 462:Generated_Source\PSoC4/CapSense_Filter.c **** *  API as part of CapSense operation initialization.
 463:Generated_Source\PSoC4/CapSense_Filter.c **** *
 464:Generated_Source\PSoC4/CapSense_Filter.c **** *******************************************************************************/
 465:Generated_Source\PSoC4/CapSense_Filter.c **** void CapSense_InitializeAllBaselines(void)
 466:Generated_Source\PSoC4/CapSense_Filter.c **** {
 467:Generated_Source\PSoC4/CapSense_Filter.c ****     uint32 widgetId;    
 468:Generated_Source\PSoC4/CapSense_Filter.c ****     
 469:Generated_Source\PSoC4/CapSense_Filter.c ****     for(widgetId = CapSense_TOTAL_WIDGETS; widgetId-- > 0u;)
 470:Generated_Source\PSoC4/CapSense_Filter.c ****     {
 471:Generated_Source\PSoC4/CapSense_Filter.c ****         CapSense_InitializeWidgetBaseline(widgetId); 
 472:Generated_Source\PSoC4/CapSense_Filter.c ****     }
 473:Generated_Source\PSoC4/CapSense_Filter.c **** }
 474:Generated_Source\PSoC4/CapSense_Filter.c **** 
 475:Generated_Source\PSoC4/CapSense_Filter.c **** 
 476:Generated_Source\PSoC4/CapSense_Filter.c **** /*******************************************************************************
 477:Generated_Source\PSoC4/CapSense_Filter.c **** * Function Name: CapSense_InitializeWidgetBaseline
 478:Generated_Source\PSoC4/CapSense_Filter.c **** ****************************************************************************//**
 479:Generated_Source\PSoC4/CapSense_Filter.c **** *
 480:Generated_Source\PSoC4/CapSense_Filter.c **** * \brief    
 481:Generated_Source\PSoC4/CapSense_Filter.c **** *  Initializes (or re-initialize) the baseline of all sensors in a widget 
 482:Generated_Source\PSoC4/CapSense_Filter.c **** *  specified by input parameter. 
 483:Generated_Source\PSoC4/CapSense_Filter.c **** *
 484:Generated_Source\PSoC4/CapSense_Filter.c **** * \details  
 485:Generated_Source\PSoC4/CapSense_Filter.c **** *  Initializes (or re-initializes) the baseline for all sensors of the 
 486:Generated_Source\PSoC4/CapSense_Filter.c **** *  specified widget.
 487:Generated_Source\PSoC4/CapSense_Filter.c **** *
 488:Generated_Source\PSoC4/CapSense_Filter.c **** * \param  widgetId 
 489:Generated_Source\PSoC4/CapSense_Filter.c **** *  Specify the ID number of a widget to initialize the baseline of all sensors
 490:Generated_Source\PSoC4/CapSense_Filter.c **** *  in the widget. 
 491:Generated_Source\PSoC4/CapSense_Filter.c **** *  A macro for the widget ID can be found in the 
 492:Generated_Source\PSoC4/CapSense_Filter.c **** *  CapSense Configuration header file defined as 
 493:Generated_Source\PSoC4/CapSense_Filter.c **** *  CapSense_<WidgetName>_WDGT_ID.
 494:Generated_Source\PSoC4/CapSense_Filter.c **** *
 495:Generated_Source\PSoC4/CapSense_Filter.c **** *******************************************************************************/
 496:Generated_Source\PSoC4/CapSense_Filter.c **** void CapSense_InitializeWidgetBaseline(uint32 widgetId)
 497:Generated_Source\PSoC4/CapSense_Filter.c **** {   
 498:Generated_Source\PSoC4/CapSense_Filter.c ****     uint32 sensorId;
 499:Generated_Source\PSoC4/CapSense_Filter.c ****     uint32 sensorsNumber;
 500:Generated_Source\PSoC4/CapSense_Filter.c ****   
 501:Generated_Source\PSoC4/CapSense_Filter.c ****     CapSense_FLASH_WD_STRUCT const *ptrWidget = &CapSense_dsFlash.wdgtArray[widgetId];
 502:Generated_Source\PSoC4/CapSense_Filter.c **** 
 503:Generated_Source\PSoC4/CapSense_Filter.c ****     /* Find total amount of sensors in specified widget */   
 504:Generated_Source\PSoC4/CapSense_Filter.c ****     sensorsNumber = CapSense_GET_SNS_CNT_BY_PTR(ptrWidget);    
 505:Generated_Source\PSoC4/CapSense_Filter.c ****     
 506:Generated_Source\PSoC4/CapSense_Filter.c ****     for(sensorId = sensorsNumber; sensorId-- > 0u;)
 507:Generated_Source\PSoC4/CapSense_Filter.c ****     {
 508:Generated_Source\PSoC4/CapSense_Filter.c ****         CapSense_InitializeSensorBaseline(widgetId, sensorId);   
 509:Generated_Source\PSoC4/CapSense_Filter.c ****     }
 510:Generated_Source\PSoC4/CapSense_Filter.c **** }
 511:Generated_Source\PSoC4/CapSense_Filter.c **** 
ARM GAS  C:\Users\Jerry\AppData\Local\Temp\ccj4ahyr.s 			page 13


 512:Generated_Source\PSoC4/CapSense_Filter.c **** 
 513:Generated_Source\PSoC4/CapSense_Filter.c **** /*******************************************************************************
 514:Generated_Source\PSoC4/CapSense_Filter.c **** * Function Name: CapSense_InitializeSensorBaseline
 515:Generated_Source\PSoC4/CapSense_Filter.c **** ****************************************************************************//**
 516:Generated_Source\PSoC4/CapSense_Filter.c **** *
 517:Generated_Source\PSoC4/CapSense_Filter.c **** * \brief
 518:Generated_Source\PSoC4/CapSense_Filter.c **** *  Initializes (or re-initialize) the baseline of a sensor in a widget specified
 519:Generated_Source\PSoC4/CapSense_Filter.c **** *  by input parameters.
 520:Generated_Source\PSoC4/CapSense_Filter.c **** *
 521:Generated_Source\PSoC4/CapSense_Filter.c **** * \details  
 522:Generated_Source\PSoC4/CapSense_Filter.c **** *  Initializes (or re-initializes) the baseline for a specified sensor within
 523:Generated_Source\PSoC4/CapSense_Filter.c **** *  a specified widget.
 524:Generated_Source\PSoC4/CapSense_Filter.c **** *
 525:Generated_Source\PSoC4/CapSense_Filter.c **** * \param    widgetId 
 526:Generated_Source\PSoC4/CapSense_Filter.c **** *  Specify the ID number of a widget to initialize the baseline of all sensors
 527:Generated_Source\PSoC4/CapSense_Filter.c **** *  in the widget.
 528:Generated_Source\PSoC4/CapSense_Filter.c **** *  A macro for the widget ID can be found in the 
 529:Generated_Source\PSoC4/CapSense_Filter.c **** *  CapSense Configuration header file defined as 
 530:Generated_Source\PSoC4/CapSense_Filter.c **** *  CapSense_<WidgetName>_WDGT_ID.
 531:Generated_Source\PSoC4/CapSense_Filter.c **** *  
 532:Generated_Source\PSoC4/CapSense_Filter.c **** * \param    sensorId 
 533:Generated_Source\PSoC4/CapSense_Filter.c **** *  Specify the ID number of the sensor within the widget to initialize its 
 534:Generated_Source\PSoC4/CapSense_Filter.c **** *  baseline.
 535:Generated_Source\PSoC4/CapSense_Filter.c **** *  A macro for the sensor ID within a specified widget can be found in the 
 536:Generated_Source\PSoC4/CapSense_Filter.c **** *  CapSense Configuration header file defined as 
 537:Generated_Source\PSoC4/CapSense_Filter.c **** *  CapSense_<WidgetName>_SNS<SensorNumber>_ID
 538:Generated_Source\PSoC4/CapSense_Filter.c **** *
 539:Generated_Source\PSoC4/CapSense_Filter.c **** *******************************************************************************/
 540:Generated_Source\PSoC4/CapSense_Filter.c **** void CapSense_InitializeSensorBaseline(uint32 widgetId, uint32 sensorId)
 541:Generated_Source\PSoC4/CapSense_Filter.c **** {      
 542:Generated_Source\PSoC4/CapSense_Filter.c ****     CapSense_RAM_SNS_STRUCT *ptrSensor = NULL;    
 543:Generated_Source\PSoC4/CapSense_Filter.c ****     CapSense_FLASH_WD_STRUCT const *ptrWidget = NULL;
 544:Generated_Source\PSoC4/CapSense_Filter.c ****     ptrWidget = &CapSense_dsFlash.wdgtArray[widgetId];
 545:Generated_Source\PSoC4/CapSense_Filter.c **** 
 546:Generated_Source\PSoC4/CapSense_Filter.c ****     /* Find pointer to specified sensor object */     
 547:Generated_Source\PSoC4/CapSense_Filter.c ****     ptrSensor = ptrWidget->ptr2SnsRam;
 548:Generated_Source\PSoC4/CapSense_Filter.c ****     ptrSensor = &ptrSensor[sensorId];
 549:Generated_Source\PSoC4/CapSense_Filter.c **** 
 550:Generated_Source\PSoC4/CapSense_Filter.c ****     CapSense_FtInitializeBaseline(ptrSensor, (uint32)ptrWidget->wdgtType);
 551:Generated_Source\PSoC4/CapSense_Filter.c **** }
 552:Generated_Source\PSoC4/CapSense_Filter.c **** 
 553:Generated_Source\PSoC4/CapSense_Filter.c **** 
 554:Generated_Source\PSoC4/CapSense_Filter.c **** /*******************************************************************************
 555:Generated_Source\PSoC4/CapSense_Filter.c **** * Function Name: CapSense_FtInitializeBaseline
 556:Generated_Source\PSoC4/CapSense_Filter.c **** ****************************************************************************//**
 557:Generated_Source\PSoC4/CapSense_Filter.c **** *
 558:Generated_Source\PSoC4/CapSense_Filter.c **** * \brief    Initializes the baseline history for a sensor indicated by an input
 559:Generated_Source\PSoC4/CapSense_Filter.c **** *           parameter.
 560:Generated_Source\PSoC4/CapSense_Filter.c **** *
 561:Generated_Source\PSoC4/CapSense_Filter.c **** * \details  Initializes the baseline history for a sensor indicated by an input
 562:Generated_Source\PSoC4/CapSense_Filter.c **** *           parameter.
 563:Generated_Source\PSoC4/CapSense_Filter.c **** *
 564:Generated_Source\PSoC4/CapSense_Filter.c **** * \param    *ptrSensor The pointer to the sensor RAM object.
 565:Generated_Source\PSoC4/CapSense_Filter.c **** * \param    wdType     Specifies the type of a widget.
 566:Generated_Source\PSoC4/CapSense_Filter.c **** *
 567:Generated_Source\PSoC4/CapSense_Filter.c **** *******************************************************************************/
 568:Generated_Source\PSoC4/CapSense_Filter.c **** CY_INLINE void CapSense_FtInitializeBaseline(CapSense_RAM_SNS_STRUCT *ptrSensor, uint32 wdType) 
ARM GAS  C:\Users\Jerry\AppData\Local\Temp\ccj4ahyr.s 			page 14


 569:Generated_Source\PSoC4/CapSense_Filter.c **** {
 570:Generated_Source\PSoC4/CapSense_Filter.c ****     uint32 channel;
 571:Generated_Source\PSoC4/CapSense_Filter.c **** 
 572:Generated_Source\PSoC4/CapSense_Filter.c ****     /* Apply baseline initialization to every channel in sensor */    
 573:Generated_Source\PSoC4/CapSense_Filter.c ****     for(channel = CapSense_NUM_SCAN_FREQS; channel-- > 0u;) 
 574:Generated_Source\PSoC4/CapSense_Filter.c ****     {
 575:Generated_Source\PSoC4/CapSense_Filter.c ****         CapSense_FtInitializeBaselineChannel(ptrSensor, wdType, channel); 
 576:Generated_Source\PSoC4/CapSense_Filter.c ****     }
 577:Generated_Source\PSoC4/CapSense_Filter.c **** }
 578:Generated_Source\PSoC4/CapSense_Filter.c **** 
 579:Generated_Source\PSoC4/CapSense_Filter.c **** 
 580:Generated_Source\PSoC4/CapSense_Filter.c **** /*******************************************************************************
 581:Generated_Source\PSoC4/CapSense_Filter.c **** * Function Name: CapSense_FtInitializeBaselineChannel
 582:Generated_Source\PSoC4/CapSense_Filter.c **** ****************************************************************************//**
 583:Generated_Source\PSoC4/CapSense_Filter.c **** *
 584:Generated_Source\PSoC4/CapSense_Filter.c **** * \brief    Initializes the baseline history for a sensor indicated by an input
 585:Generated_Source\PSoC4/CapSense_Filter.c **** *           parameter.
 586:Generated_Source\PSoC4/CapSense_Filter.c **** *
 587:Generated_Source\PSoC4/CapSense_Filter.c **** * \details  Initializes the baseline history for a sensor indicated by an input
 588:Generated_Source\PSoC4/CapSense_Filter.c **** *           parameter.
 589:Generated_Source\PSoC4/CapSense_Filter.c **** *
 590:Generated_Source\PSoC4/CapSense_Filter.c **** * \param    *ptrSensor The pointer to the sensor RAM object.
 591:Generated_Source\PSoC4/CapSense_Filter.c **** * \param    wdType     Specifies the type of a widget.
 592:Generated_Source\PSoC4/CapSense_Filter.c **** * \param    channel    Specifies the number of the channel to be initialized.
 593:Generated_Source\PSoC4/CapSense_Filter.c **** *
 594:Generated_Source\PSoC4/CapSense_Filter.c **** *******************************************************************************/
 595:Generated_Source\PSoC4/CapSense_Filter.c **** void CapSense_FtInitializeBaselineChannel(CapSense_RAM_SNS_STRUCT *ptrSensor, uint32 wdType, uint32
 596:Generated_Source\PSoC4/CapSense_Filter.c **** {
 597:Generated_Source\PSoC4/CapSense_Filter.c ****     #if (CapSense_BASELINE_TYPE == CapSense_IIR_BASELINE)  
 598:Generated_Source\PSoC4/CapSense_Filter.c ****         if ((CapSense_WD_TYPE_ENUM)wdType != CapSense_WD_PROXIMITY_E)
 599:Generated_Source\PSoC4/CapSense_Filter.c ****         {
 600:Generated_Source\PSoC4/CapSense_Filter.c ****             #if (CapSense_REGULAR_SENSOR_EN)
 601:Generated_Source\PSoC4/CapSense_Filter.c ****                 #if (CapSense_REGULAR_IIR_BL_TYPE == CapSense_IIR_FILTER_PERFORMANCE)              
 602:Generated_Source\PSoC4/CapSense_Filter.c ****                     ptrSensor->bslnExt[channel] = 0u;                
 603:Generated_Source\PSoC4/CapSense_Filter.c ****                 #endif /* (CapSense_REGULAR_IIR_BL_TYPE == CapSense_IIR_FILTER_PERFORMANCE) */
 604:Generated_Source\PSoC4/CapSense_Filter.c ****             #endif /* (CapSense_REGULAR_SENSOR_EN) */
 605:Generated_Source\PSoC4/CapSense_Filter.c ****         }
 606:Generated_Source\PSoC4/CapSense_Filter.c ****         else
 607:Generated_Source\PSoC4/CapSense_Filter.c ****         {
 608:Generated_Source\PSoC4/CapSense_Filter.c ****             #if (CapSense_PROXIMITY_SENSOR_EN)     
 609:Generated_Source\PSoC4/CapSense_Filter.c ****                 #if (CapSense_PROX_IIR_BL_TYPE == CapSense_IIR_FILTER_PERFORMANCE)                 
 610:Generated_Source\PSoC4/CapSense_Filter.c ****                     ptrSensor->bslnExt[channel] = 0u;               
 611:Generated_Source\PSoC4/CapSense_Filter.c ****                 #endif /* (CapSense_PROX_IIR_BL_TYPE == CapSense_IIR_FILTER_PERFORMANCE) */
 612:Generated_Source\PSoC4/CapSense_Filter.c ****             #endif /* (CapSense_PROX_SENSOR_EN) */
 613:Generated_Source\PSoC4/CapSense_Filter.c ****         }
 614:Generated_Source\PSoC4/CapSense_Filter.c ****     #else
 615:Generated_Source\PSoC4/CapSense_Filter.c ****         /* CapSense_BASELINE_TYPE == CapSense_BUCKET_BASELINE */        
 616:Generated_Source\PSoC4/CapSense_Filter.c ****         ptrSensor->bslnExt[channel] = 0u;        
 617:Generated_Source\PSoC4/CapSense_Filter.c ****     #endif /* (CapSense_BASELINE_TYPE == CapSense_IIR_BASELINE) */      
 618:Generated_Source\PSoC4/CapSense_Filter.c ****     
 619:Generated_Source\PSoC4/CapSense_Filter.c ****     ptrSensor->bsln[channel] = ptrSensor->raw[channel]; 
 620:Generated_Source\PSoC4/CapSense_Filter.c ****     
 621:Generated_Source\PSoC4/CapSense_Filter.c ****     #if (CapSense_ENABLE == CapSense_TST_BSLN_DUPLICATION_EN)
 622:Generated_Source\PSoC4/CapSense_Filter.c ****     /* Update baseline inversion of the channel in sensor */    
 623:Generated_Source\PSoC4/CapSense_Filter.c ****         ptrSensor->bslnInv[channel] = ~(ptrSensor->bsln[channel]);
 624:Generated_Source\PSoC4/CapSense_Filter.c ****     #endif /* (CapSense_ENABLE == CapSense_TST_BSLN_DUPLICATION_EN) */
 625:Generated_Source\PSoC4/CapSense_Filter.c **** 
ARM GAS  C:\Users\Jerry\AppData\Local\Temp\ccj4ahyr.s 			page 15


 626:Generated_Source\PSoC4/CapSense_Filter.c ****     ptrSensor->negBslnRstCnt[channel] = 0u;
 627:Generated_Source\PSoC4/CapSense_Filter.c **** }
 628:Generated_Source\PSoC4/CapSense_Filter.c **** 
 629:Generated_Source\PSoC4/CapSense_Filter.c **** 
 630:Generated_Source\PSoC4/CapSense_Filter.c **** #if (CapSense_REGULAR_RC_IIR_FILTER_EN || CapSense_PROX_RC_IIR_FILTER_EN)
 631:Generated_Source\PSoC4/CapSense_Filter.c **** 
 632:Generated_Source\PSoC4/CapSense_Filter.c **** /*******************************************************************************
 633:Generated_Source\PSoC4/CapSense_Filter.c **** * Function Name: CapSense_InitializeIIR
 634:Generated_Source\PSoC4/CapSense_Filter.c **** ****************************************************************************//**
 635:Generated_Source\PSoC4/CapSense_Filter.c **** *
 636:Generated_Source\PSoC4/CapSense_Filter.c **** * \brief    Initialize the IIR filter history.
 637:Generated_Source\PSoC4/CapSense_Filter.c **** *
 638:Generated_Source\PSoC4/CapSense_Filter.c **** * \details  Initialize the IIR filter history.
 639:Generated_Source\PSoC4/CapSense_Filter.c **** *
 640:Generated_Source\PSoC4/CapSense_Filter.c **** * \param    widgetId Specifies the ID number of the widget.
 641:Generated_Source\PSoC4/CapSense_Filter.c **** * \param    sensorId Specifies the ID number of the sensor in the widget.
 642:Generated_Source\PSoC4/CapSense_Filter.c **** *
 643:Generated_Source\PSoC4/CapSense_Filter.c **** *******************************************************************************/
 644:Generated_Source\PSoC4/CapSense_Filter.c **** void CapSense_InitializeIIR(uint32 widgetId, uint32 sensorId)
 645:Generated_Source\PSoC4/CapSense_Filter.c **** {   
 646:Generated_Source\PSoC4/CapSense_Filter.c ****     CapSense_FLASH_WD_STRUCT const *ptrWidget = &CapSense_dsFlash.wdgtArray[widgetId];      
 647:Generated_Source\PSoC4/CapSense_Filter.c ****     CapSense_RAM_SNS_STRUCT *ptrSensor = NULL;    
 648:Generated_Source\PSoC4/CapSense_Filter.c ****     CapSense_PTR_FILTER_VARIANT ptrFilterHistObj; 
 649:Generated_Source\PSoC4/CapSense_Filter.c ****               
 650:Generated_Source\PSoC4/CapSense_Filter.c ****     /* Find pointer to specified sensor object */     
 651:Generated_Source\PSoC4/CapSense_Filter.c ****     ptrSensor = ptrWidget->ptr2SnsRam;
 652:Generated_Source\PSoC4/CapSense_Filter.c ****     ptrSensor = &ptrSensor[sensorId];
 653:Generated_Source\PSoC4/CapSense_Filter.c ****         
 654:Generated_Source\PSoC4/CapSense_Filter.c ****     /* Find pointer to specified filter sensor object */     
 655:Generated_Source\PSoC4/CapSense_Filter.c ****     ptrFilterHistObj.ptr = ptrWidget->ptr2FltrHistory;
 656:Generated_Source\PSoC4/CapSense_Filter.c ****     
 657:Generated_Source\PSoC4/CapSense_Filter.c ****     if ((CapSense_WD_TYPE_ENUM)ptrWidget->wdgtType != CapSense_WD_PROXIMITY_E)
 658:Generated_Source\PSoC4/CapSense_Filter.c ****     {
 659:Generated_Source\PSoC4/CapSense_Filter.c ****         #if (CapSense_REGULAR_SENSOR_EN)
 660:Generated_Source\PSoC4/CapSense_Filter.c ****             ptrFilterHistObj.ptrRegular = &ptrFilterHistObj.ptrRegular[sensorId];
 661:Generated_Source\PSoC4/CapSense_Filter.c ****         #endif /* (CapSense_REGULAR_SENSOR_EN) */
 662:Generated_Source\PSoC4/CapSense_Filter.c ****     }
 663:Generated_Source\PSoC4/CapSense_Filter.c ****     else
 664:Generated_Source\PSoC4/CapSense_Filter.c ****     {
 665:Generated_Source\PSoC4/CapSense_Filter.c ****         #if (CapSense_PROXIMITY_SENSOR_EN)
 666:Generated_Source\PSoC4/CapSense_Filter.c ****             ptrFilterHistObj.ptrProx = &ptrFilterHistObj.ptrProx[sensorId];
 667:Generated_Source\PSoC4/CapSense_Filter.c ****         #endif /* (CapSense_PROXIMITY_SENSOR_EN) */
 668:Generated_Source\PSoC4/CapSense_Filter.c ****     }    
 669:Generated_Source\PSoC4/CapSense_Filter.c ****     
 670:Generated_Source\PSoC4/CapSense_Filter.c ****     CapSense_InitializeIIRInternal(ptrFilterHistObj, ptrSensor, (uint32)ptrWidget->wdgtType);
 671:Generated_Source\PSoC4/CapSense_Filter.c **** }
 672:Generated_Source\PSoC4/CapSense_Filter.c **** 
 673:Generated_Source\PSoC4/CapSense_Filter.c **** 
 674:Generated_Source\PSoC4/CapSense_Filter.c **** /*******************************************************************************
 675:Generated_Source\PSoC4/CapSense_Filter.c **** * Function Name: CapSense_RunIIR
 676:Generated_Source\PSoC4/CapSense_Filter.c **** ****************************************************************************//**
 677:Generated_Source\PSoC4/CapSense_Filter.c **** *
 678:Generated_Source\PSoC4/CapSense_Filter.c **** * \brief    Executes the IIR filter algorithm on a sensor indicated by an input
 679:Generated_Source\PSoC4/CapSense_Filter.c **** *           parameter. 
 680:Generated_Source\PSoC4/CapSense_Filter.c **** *
 681:Generated_Source\PSoC4/CapSense_Filter.c **** * \details  Executes the IIR filter algorithm on a sensor indicated by an input
 682:Generated_Source\PSoC4/CapSense_Filter.c **** *           parameter. 
ARM GAS  C:\Users\Jerry\AppData\Local\Temp\ccj4ahyr.s 			page 16


 683:Generated_Source\PSoC4/CapSense_Filter.c **** *
 684:Generated_Source\PSoC4/CapSense_Filter.c **** * \param    widgetId Specifies the ID number of the widget.
 685:Generated_Source\PSoC4/CapSense_Filter.c **** * \param    sensorId Specifies the ID number of the sensor in the widget.
 686:Generated_Source\PSoC4/CapSense_Filter.c **** *
 687:Generated_Source\PSoC4/CapSense_Filter.c **** *******************************************************************************/
 688:Generated_Source\PSoC4/CapSense_Filter.c **** void CapSense_RunIIR(uint32 widgetId, uint32 sensorId)
 689:Generated_Source\PSoC4/CapSense_Filter.c **** {
 690:Generated_Source\PSoC4/CapSense_Filter.c ****     CapSense_FLASH_WD_STRUCT const *ptrWidget = &CapSense_dsFlash.wdgtArray[widgetId];      
 691:Generated_Source\PSoC4/CapSense_Filter.c ****     CapSense_RAM_SNS_STRUCT *ptrSensor = NULL;    
 692:Generated_Source\PSoC4/CapSense_Filter.c ****     CapSense_PTR_FILTER_VARIANT ptrFilterHistObj; 
 693:Generated_Source\PSoC4/CapSense_Filter.c ****               
 694:Generated_Source\PSoC4/CapSense_Filter.c ****     /* Find pointer to specified sensor object */     
 695:Generated_Source\PSoC4/CapSense_Filter.c ****     ptrSensor = ptrWidget->ptr2SnsRam;
 696:Generated_Source\PSoC4/CapSense_Filter.c ****     ptrSensor = &ptrSensor[sensorId];
 697:Generated_Source\PSoC4/CapSense_Filter.c ****         
 698:Generated_Source\PSoC4/CapSense_Filter.c ****     /* Find pointer to specified filter sensor object */     
 699:Generated_Source\PSoC4/CapSense_Filter.c ****     ptrFilterHistObj.ptr = ptrWidget->ptr2FltrHistory;
 700:Generated_Source\PSoC4/CapSense_Filter.c ****     
 701:Generated_Source\PSoC4/CapSense_Filter.c ****     if ((CapSense_WD_TYPE_ENUM)ptrWidget->wdgtType != CapSense_WD_PROXIMITY_E)
 702:Generated_Source\PSoC4/CapSense_Filter.c ****     {
 703:Generated_Source\PSoC4/CapSense_Filter.c ****         #if (CapSense_REGULAR_SENSOR_EN)
 704:Generated_Source\PSoC4/CapSense_Filter.c ****             ptrFilterHistObj.ptrRegular = &ptrFilterHistObj.ptrRegular[sensorId];
 705:Generated_Source\PSoC4/CapSense_Filter.c ****         #endif /* (CapSense_REGULAR_SENSOR_EN) */
 706:Generated_Source\PSoC4/CapSense_Filter.c ****     }
 707:Generated_Source\PSoC4/CapSense_Filter.c ****     else
 708:Generated_Source\PSoC4/CapSense_Filter.c ****     {
 709:Generated_Source\PSoC4/CapSense_Filter.c ****         #if (CapSense_PROXIMITY_SENSOR_EN)
 710:Generated_Source\PSoC4/CapSense_Filter.c ****             ptrFilterHistObj.ptrProx = &ptrFilterHistObj.ptrProx[sensorId];
 711:Generated_Source\PSoC4/CapSense_Filter.c ****         #endif /* (CapSense_PROXIMITY_SENSOR_EN) */
 712:Generated_Source\PSoC4/CapSense_Filter.c ****     }    
 713:Generated_Source\PSoC4/CapSense_Filter.c ****     
 714:Generated_Source\PSoC4/CapSense_Filter.c ****     CapSense_RunIIRInternal(ptrFilterHistObj, ptrSensor, (uint32)ptrWidget->wdgtType);
 715:Generated_Source\PSoC4/CapSense_Filter.c **** }
 716:Generated_Source\PSoC4/CapSense_Filter.c ****     
 717:Generated_Source\PSoC4/CapSense_Filter.c **** /*******************************************************************************
 718:Generated_Source\PSoC4/CapSense_Filter.c **** * Function Name: CapSense_InitializeIIRInternal
 719:Generated_Source\PSoC4/CapSense_Filter.c **** ****************************************************************************//**
 720:Generated_Source\PSoC4/CapSense_Filter.c **** *
 721:Generated_Source\PSoC4/CapSense_Filter.c **** * \brief    Initializes the IIR filter history.
 722:Generated_Source\PSoC4/CapSense_Filter.c **** *
 723:Generated_Source\PSoC4/CapSense_Filter.c **** * \details  Initializes the IIR filter history.
 724:Generated_Source\PSoC4/CapSense_Filter.c **** *
 725:Generated_Source\PSoC4/CapSense_Filter.c **** * \param    ptrFilterHistObj The pointer to the filter RAM object of the sensor.
 726:Generated_Source\PSoC4/CapSense_Filter.c **** * \param    ptrSensorObj     The pointer to the sensor RAM object of the sensor.
 727:Generated_Source\PSoC4/CapSense_Filter.c **** * \param    wdType           Specifies the type of a widget.                                  
 728:Generated_Source\PSoC4/CapSense_Filter.c **** *
 729:Generated_Source\PSoC4/CapSense_Filter.c **** *******************************************************************************/
 730:Generated_Source\PSoC4/CapSense_Filter.c **** void CapSense_InitializeIIRInternal(CapSense_PTR_FILTER_VARIANT ptrFilterHistObj,
 731:Generated_Source\PSoC4/CapSense_Filter.c ****                                             CapSense_RAM_SNS_STRUCT *ptrSensorObj, uint32 wdType)
 732:Generated_Source\PSoC4/CapSense_Filter.c **** {
 733:Generated_Source\PSoC4/CapSense_Filter.c ****     uint32 channel;
 734:Generated_Source\PSoC4/CapSense_Filter.c **** 
 735:Generated_Source\PSoC4/CapSense_Filter.c ****     for(channel = CapSense_NUM_SCAN_FREQS; channel-- > 0u;)
 736:Generated_Source\PSoC4/CapSense_Filter.c ****     {
 737:Generated_Source\PSoC4/CapSense_Filter.c ****         if ((CapSense_WD_TYPE_ENUM)wdType != CapSense_WD_PROXIMITY_E)
 738:Generated_Source\PSoC4/CapSense_Filter.c ****         {
 739:Generated_Source\PSoC4/CapSense_Filter.c ****             #if (CapSense_REGULAR_SENSOR_EN && CapSense_REGULAR_RC_IIR_FILTER_EN)
ARM GAS  C:\Users\Jerry\AppData\Local\Temp\ccj4ahyr.s 			page 17


 740:Generated_Source\PSoC4/CapSense_Filter.c ****                 #if (CapSense_REGULAR_IIR_RC_TYPE == CapSense_IIR_FILTER_PERFORMANCE)
 741:Generated_Source\PSoC4/CapSense_Filter.c ****                     ptrFilterHistObj.ptrRegular->regularChannel[channel].iirHistory = ptrSensorObj-
 742:Generated_Source\PSoC4/CapSense_Filter.c ****                     ptrFilterHistObj.ptrRegular->regularChannel[channel].iirHistoryLow = 0u;
 743:Generated_Source\PSoC4/CapSense_Filter.c ****                 #else
 744:Generated_Source\PSoC4/CapSense_Filter.c ****                     ptrFilterHistObj.ptrRegular->regularChannel[channel].iirHistory = ptrSensorObj-
 745:Generated_Source\PSoC4/CapSense_Filter.c ****                 #endif /* (CapSense_REGULAR_IIR_RC_TYPE == CapSense_IIR_FILTER_PERFORMANCE) */
 746:Generated_Source\PSoC4/CapSense_Filter.c ****             #endif /* (CapSense_REGULAR_SENSOR_EN) */    
 747:Generated_Source\PSoC4/CapSense_Filter.c ****         }
 748:Generated_Source\PSoC4/CapSense_Filter.c ****         else
 749:Generated_Source\PSoC4/CapSense_Filter.c ****         {
 750:Generated_Source\PSoC4/CapSense_Filter.c ****             #if (CapSense_PROXIMITY_SENSOR_EN && CapSense_PROX_RC_IIR_FILTER_EN)
 751:Generated_Source\PSoC4/CapSense_Filter.c ****                 #if (CapSense_PROX_IIR_RC_TYPE == CapSense_IIR_FILTER_PERFORMANCE)
 752:Generated_Source\PSoC4/CapSense_Filter.c ****                     ptrFilterHistObj.ptrProx->proxChannel[channel].iirHistory = ptrSensorObj->raw[c
 753:Generated_Source\PSoC4/CapSense_Filter.c ****                     ptrFilterHistObj.ptrProx->proxChannel[channel].iirHistoryLow = 0u;    
 754:Generated_Source\PSoC4/CapSense_Filter.c ****                 #else
 755:Generated_Source\PSoC4/CapSense_Filter.c ****                     ptrFilterHistObj.ptrProx->proxChannel[channel].iirHistory = ptrSensorObj->raw[c
 756:Generated_Source\PSoC4/CapSense_Filter.c ****                 #endif /* (CapSense_PROX_IIR_RC_TYPE == CapSense_IIR_FILTER_PERFORMANCE) */
 757:Generated_Source\PSoC4/CapSense_Filter.c ****             #endif /* (CapSense_PROX_SENSOR_EN) */
 758:Generated_Source\PSoC4/CapSense_Filter.c ****         }    
 759:Generated_Source\PSoC4/CapSense_Filter.c ****     }    
 760:Generated_Source\PSoC4/CapSense_Filter.c **** }
 761:Generated_Source\PSoC4/CapSense_Filter.c ****  
 762:Generated_Source\PSoC4/CapSense_Filter.c **** 
 763:Generated_Source\PSoC4/CapSense_Filter.c **** /*******************************************************************************
 764:Generated_Source\PSoC4/CapSense_Filter.c **** * Function Name: CapSense_RunIIRInternal
 765:Generated_Source\PSoC4/CapSense_Filter.c **** ****************************************************************************//**
 766:Generated_Source\PSoC4/CapSense_Filter.c **** *
 767:Generated_Source\PSoC4/CapSense_Filter.c **** * \brief    Run the IIR filter.
 768:Generated_Source\PSoC4/CapSense_Filter.c **** *
 769:Generated_Source\PSoC4/CapSense_Filter.c **** * \details  Run the IIR filter.
 770:Generated_Source\PSoC4/CapSense_Filter.c **** *
 771:Generated_Source\PSoC4/CapSense_Filter.c **** * \param    ptrFilterHistObj The pointer to the filter RAM object of the sensor.
 772:Generated_Source\PSoC4/CapSense_Filter.c **** * \param    ptrSensorObj     The pointer to the sensor RAM object of the sensor.
 773:Generated_Source\PSoC4/CapSense_Filter.c **** * \param    wdType           Specifies the type of a widget.
 774:Generated_Source\PSoC4/CapSense_Filter.c **** *
 775:Generated_Source\PSoC4/CapSense_Filter.c **** *******************************************************************************/    
 776:Generated_Source\PSoC4/CapSense_Filter.c **** void CapSense_RunIIRInternal(CapSense_PTR_FILTER_VARIANT ptrFilterHistObj, 
 777:Generated_Source\PSoC4/CapSense_Filter.c ****                                      CapSense_RAM_SNS_STRUCT *ptrSensorObj, uint32 wdType)
 778:Generated_Source\PSoC4/CapSense_Filter.c **** {        
 779:Generated_Source\PSoC4/CapSense_Filter.c ****     uint32 channel;
 780:Generated_Source\PSoC4/CapSense_Filter.c ****     uint32 temp;
 781:Generated_Source\PSoC4/CapSense_Filter.c **** 
 782:Generated_Source\PSoC4/CapSense_Filter.c ****     for(channel = CapSense_NUM_SCAN_FREQS; channel-- > 0u;)
 783:Generated_Source\PSoC4/CapSense_Filter.c ****     {
 784:Generated_Source\PSoC4/CapSense_Filter.c ****         if ((CapSense_WD_TYPE_ENUM)wdType != CapSense_WD_PROXIMITY_E)
 785:Generated_Source\PSoC4/CapSense_Filter.c ****         {
 786:Generated_Source\PSoC4/CapSense_Filter.c ****             #if (CapSense_REGULAR_SENSOR_EN && CapSense_REGULAR_RC_IIR_FILTER_EN)
 787:Generated_Source\PSoC4/CapSense_Filter.c ****                 #if (CapSense_REGULAR_IIR_RC_TYPE == CapSense_IIR_FILTER_PERFORMANCE)
 788:Generated_Source\PSoC4/CapSense_Filter.c ****                     temp = ((uint32)ptrFilterHistObj.ptrRegular->regularChannel[channel].iirHistory
 789:Generated_Source\PSoC4/CapSense_Filter.c ****                     temp |= ptrFilterHistObj.ptrRegular->regularChannel[channel].iirHistoryLow;
 790:Generated_Source\PSoC4/CapSense_Filter.c ****                     temp = CapSense_FtIIR1stOrder((uint32)ptrSensorObj->raw[channel],
 791:Generated_Source\PSoC4/CapSense_Filter.c ****                                                         temp,
 792:Generated_Source\PSoC4/CapSense_Filter.c ****                                                         CapSense_REGULAR_IIR_RC_N,
 793:Generated_Source\PSoC4/CapSense_Filter.c ****                                                         CapSense_REGULAR_IIR_RC_SHIFT);
 794:Generated_Source\PSoC4/CapSense_Filter.c ****                     ptrFilterHistObj.ptrRegular->regularChannel[channel].iirHistory = LO16(temp >>C
 795:Generated_Source\PSoC4/CapSense_Filter.c ****                     ptrFilterHistObj.ptrRegular->regularChannel[channel].iirHistoryLow = LO8(temp);
 796:Generated_Source\PSoC4/CapSense_Filter.c ****                     ptrSensorObj->raw[channel] = LO16(temp >>CapSense_REGULAR_IIR_RC_SHIFT);
ARM GAS  C:\Users\Jerry\AppData\Local\Temp\ccj4ahyr.s 			page 18


 797:Generated_Source\PSoC4/CapSense_Filter.c ****                 #else
 798:Generated_Source\PSoC4/CapSense_Filter.c ****                     temp =CapSense_FtIIR1stOrder((uint32)ptrSensorObj->raw[channel],
 799:Generated_Source\PSoC4/CapSense_Filter.c ****                                                         (uint32)ptrFilterHistObj.ptrRegular->regula
 800:Generated_Source\PSoC4/CapSense_Filter.c ****                                                         CapSense_REGULAR_IIR_RC_N,
 801:Generated_Source\PSoC4/CapSense_Filter.c ****                                                         CapSense_REGULAR_IIR_RC_SHIFT);
 802:Generated_Source\PSoC4/CapSense_Filter.c ****                     ptrFilterHistObj.ptrRegular->regularChannel[channel].iirHistory = LO16(temp);
 803:Generated_Source\PSoC4/CapSense_Filter.c ****                     ptrSensorObj->raw[channel] = LO16(temp >>CapSense_REGULAR_IIR_RC_SHIFT);
 804:Generated_Source\PSoC4/CapSense_Filter.c ****                 #endif /* (CapSense_REGULAR_IIR_RC_TYPE == CapSense_IIR_FILTER_PERFORMANCE) */
 805:Generated_Source\PSoC4/CapSense_Filter.c ****             #endif /* (CapSense_REGULAR_SENSOR_EN) */    
 806:Generated_Source\PSoC4/CapSense_Filter.c ****         }
 807:Generated_Source\PSoC4/CapSense_Filter.c ****         else
 808:Generated_Source\PSoC4/CapSense_Filter.c ****         {
 809:Generated_Source\PSoC4/CapSense_Filter.c ****             #if (CapSense_PROXIMITY_SENSOR_EN && CapSense_PROX_RC_IIR_FILTER_EN)
 810:Generated_Source\PSoC4/CapSense_Filter.c ****                 #if (CapSense_PROX_IIR_RC_TYPE == CapSense_IIR_FILTER_PERFORMANCE)
 811:Generated_Source\PSoC4/CapSense_Filter.c ****                     temp =  ptrFilterHistObj.ptrProx->proxChannel[channel].iirHistory << CapSense_P
 812:Generated_Source\PSoC4/CapSense_Filter.c ****                     temp |= ptrFilterHistObj.ptrProx->proxChannel[channel].iirHistoryLow;
 813:Generated_Source\PSoC4/CapSense_Filter.c ****                     temp =CapSense_FtIIR1stOrder((uint32)ptrSensorObj->raw[channel],
 814:Generated_Source\PSoC4/CapSense_Filter.c ****                                                         temp,
 815:Generated_Source\PSoC4/CapSense_Filter.c ****                                                         CapSense_PROX_IIR_RC_N,
 816:Generated_Source\PSoC4/CapSense_Filter.c ****                                                         CapSense_PROX_IIR_RC_SHIFT);
 817:Generated_Source\PSoC4/CapSense_Filter.c ****                     ptrFilterHistObj.ptrProx->proxChannel[channel].iirHistory = LO16(temp >>CapSens
 818:Generated_Source\PSoC4/CapSense_Filter.c ****                     ptrFilterHistObj.ptrProx->proxChannel[channel].iirHistoryLow = LO8(temp);
 819:Generated_Source\PSoC4/CapSense_Filter.c ****                     ptrSensorObj->raw[channel] = LO16(temp >>CapSense_PROX_IIR_RC_SHIFT);
 820:Generated_Source\PSoC4/CapSense_Filter.c ****                 #else
 821:Generated_Source\PSoC4/CapSense_Filter.c ****                     temp =CapSense_FtIIR1stOrder((uint32)ptrSensorObj->raw[channel],
 822:Generated_Source\PSoC4/CapSense_Filter.c ****                                                         (uint32)ptrFilterHistObj.ptrProx->proxChann
 823:Generated_Source\PSoC4/CapSense_Filter.c ****                                                         CapSense_PROX_IIR_RC_N,
 824:Generated_Source\PSoC4/CapSense_Filter.c ****                                                         CapSense_PROX_IIR_RC_SHIFT);
 825:Generated_Source\PSoC4/CapSense_Filter.c ****                     ptrFilterHistObj.ptrProx->proxChannel[channel].iirHistory = LO16(temp);
 826:Generated_Source\PSoC4/CapSense_Filter.c ****                     ptrSensorObj->raw[channel] = LO16(temp >>CapSense_PROX_IIR_RC_SHIFT);
 827:Generated_Source\PSoC4/CapSense_Filter.c ****                 #endif /* (CapSense_PROX_IIR_RC_TYPE == CapSense_IIR_FILTER_PERFORMANCE) */
 828:Generated_Source\PSoC4/CapSense_Filter.c ****             #endif /* (CapSense_PROX_SENSOR_EN) */
 829:Generated_Source\PSoC4/CapSense_Filter.c ****         }    
 830:Generated_Source\PSoC4/CapSense_Filter.c ****     }        
 831:Generated_Source\PSoC4/CapSense_Filter.c **** }    
 832:Generated_Source\PSoC4/CapSense_Filter.c **** #endif /* #if (CapSense_REGULAR_RC_IIR_FILTER_EN || CapSense_PROX_RC_IIR_FILTER_EN) */
 833:Generated_Source\PSoC4/CapSense_Filter.c **** 
 834:Generated_Source\PSoC4/CapSense_Filter.c **** 
 835:Generated_Source\PSoC4/CapSense_Filter.c **** #if (CapSense_REGULAR_RC_MEDIAN_FILTER_EN || CapSense_PROX_RC_MEDIAN_FILTER_EN)
 836:Generated_Source\PSoC4/CapSense_Filter.c **** 
 837:Generated_Source\PSoC4/CapSense_Filter.c **** /*******************************************************************************
 838:Generated_Source\PSoC4/CapSense_Filter.c **** * Function Name: CapSense_InitializeMedian
 839:Generated_Source\PSoC4/CapSense_Filter.c **** ****************************************************************************//**
 840:Generated_Source\PSoC4/CapSense_Filter.c **** *
 841:Generated_Source\PSoC4/CapSense_Filter.c **** * \brief    Initializes the Median filter history.
 842:Generated_Source\PSoC4/CapSense_Filter.c **** *
 843:Generated_Source\PSoC4/CapSense_Filter.c **** * \details  Initializes the Median filter history.
 844:Generated_Source\PSoC4/CapSense_Filter.c **** *
 845:Generated_Source\PSoC4/CapSense_Filter.c **** * \param    widgetId Specifies the ID number of the widget.
 846:Generated_Source\PSoC4/CapSense_Filter.c **** * \param    sensorId Specifies the ID number of the sensor in the widget.
 847:Generated_Source\PSoC4/CapSense_Filter.c **** *
 848:Generated_Source\PSoC4/CapSense_Filter.c **** *******************************************************************************/
 849:Generated_Source\PSoC4/CapSense_Filter.c **** void CapSense_InitializeMedian(uint32 widgetId, uint32 sensorId)
 850:Generated_Source\PSoC4/CapSense_Filter.c **** {
 851:Generated_Source\PSoC4/CapSense_Filter.c ****     CapSense_FLASH_WD_STRUCT const *ptrWidget = &CapSense_dsFlash.wdgtArray[widgetId];      
 852:Generated_Source\PSoC4/CapSense_Filter.c ****     CapSense_RAM_SNS_STRUCT *ptrSensor = NULL;    
 853:Generated_Source\PSoC4/CapSense_Filter.c ****     CapSense_PTR_FILTER_VARIANT ptrFilterHistObj; 
ARM GAS  C:\Users\Jerry\AppData\Local\Temp\ccj4ahyr.s 			page 19


 854:Generated_Source\PSoC4/CapSense_Filter.c ****               
 855:Generated_Source\PSoC4/CapSense_Filter.c ****     /* Find pointer to specified sensor object */     
 856:Generated_Source\PSoC4/CapSense_Filter.c ****     ptrSensor = ptrWidget->ptr2SnsRam;
 857:Generated_Source\PSoC4/CapSense_Filter.c ****     ptrSensor = &ptrSensor[sensorId];
 858:Generated_Source\PSoC4/CapSense_Filter.c ****     
 859:Generated_Source\PSoC4/CapSense_Filter.c ****     /* Find pointer to specified filter sensor object */     
 860:Generated_Source\PSoC4/CapSense_Filter.c ****     ptrFilterHistObj.ptr = ptrWidget->ptr2FltrHistory;
 861:Generated_Source\PSoC4/CapSense_Filter.c ****     
 862:Generated_Source\PSoC4/CapSense_Filter.c ****     if ((CapSense_WD_TYPE_ENUM)ptrWidget->wdgtType != CapSense_WD_PROXIMITY_E)
 863:Generated_Source\PSoC4/CapSense_Filter.c ****     {
 864:Generated_Source\PSoC4/CapSense_Filter.c ****         #if (CapSense_REGULAR_SENSOR_EN)
 865:Generated_Source\PSoC4/CapSense_Filter.c ****             ptrFilterHistObj.ptrRegular = &ptrFilterHistObj.ptrRegular[sensorId];
 866:Generated_Source\PSoC4/CapSense_Filter.c ****         #endif /* (CapSense_REGULAR_SENSOR_EN) */
 867:Generated_Source\PSoC4/CapSense_Filter.c ****     }
 868:Generated_Source\PSoC4/CapSense_Filter.c ****     else
 869:Generated_Source\PSoC4/CapSense_Filter.c ****     {
 870:Generated_Source\PSoC4/CapSense_Filter.c ****         #if (CapSense_PROXIMITY_SENSOR_EN)
 871:Generated_Source\PSoC4/CapSense_Filter.c ****             ptrFilterHistObj.ptrProx = &ptrFilterHistObj.ptrProx[sensorId];
 872:Generated_Source\PSoC4/CapSense_Filter.c ****         #endif /* (CapSense_PROXIMITY_SENSOR_EN) */
 873:Generated_Source\PSoC4/CapSense_Filter.c ****     }
 874:Generated_Source\PSoC4/CapSense_Filter.c ****     
 875:Generated_Source\PSoC4/CapSense_Filter.c ****     CapSense_InitializeMedianInternal(ptrFilterHistObj, ptrSensor, (uint32)ptrWidget->wdgtType);
 876:Generated_Source\PSoC4/CapSense_Filter.c **** }     
 877:Generated_Source\PSoC4/CapSense_Filter.c **** 
 878:Generated_Source\PSoC4/CapSense_Filter.c **** 
 879:Generated_Source\PSoC4/CapSense_Filter.c **** /*******************************************************************************
 880:Generated_Source\PSoC4/CapSense_Filter.c **** * Function Name: CapSense_RunMedian
 881:Generated_Source\PSoC4/CapSense_Filter.c **** ****************************************************************************//**
 882:Generated_Source\PSoC4/CapSense_Filter.c **** *
 883:Generated_Source\PSoC4/CapSense_Filter.c **** * \brief    Executes the Median filter algorithm on a sensor indicated by an input 
 884:Generated_Source\PSoC4/CapSense_Filter.c **** *           parameter. 
 885:Generated_Source\PSoC4/CapSense_Filter.c **** *
 886:Generated_Source\PSoC4/CapSense_Filter.c **** * \details  Executes the Median filter algorithm on a sensor indicated by an input 
 887:Generated_Source\PSoC4/CapSense_Filter.c **** *           parameter. 
 888:Generated_Source\PSoC4/CapSense_Filter.c **** *
 889:Generated_Source\PSoC4/CapSense_Filter.c **** * \param    widgetId Specifies the ID number of the widget.
 890:Generated_Source\PSoC4/CapSense_Filter.c **** * \param    sensorId Specifies the ID number of the sensor in the widget.
 891:Generated_Source\PSoC4/CapSense_Filter.c **** *
 892:Generated_Source\PSoC4/CapSense_Filter.c **** *******************************************************************************/
 893:Generated_Source\PSoC4/CapSense_Filter.c **** void CapSense_RunMedian(uint32 widgetId, uint32 sensorId)
 894:Generated_Source\PSoC4/CapSense_Filter.c **** {
 895:Generated_Source\PSoC4/CapSense_Filter.c ****     CapSense_FLASH_WD_STRUCT const *ptrWidget = &CapSense_dsFlash.wdgtArray[widgetId];      
 896:Generated_Source\PSoC4/CapSense_Filter.c ****     CapSense_RAM_SNS_STRUCT *ptrSensor = NULL;    
 897:Generated_Source\PSoC4/CapSense_Filter.c ****     CapSense_PTR_FILTER_VARIANT ptrFilterHistObj; 
 898:Generated_Source\PSoC4/CapSense_Filter.c ****               
 899:Generated_Source\PSoC4/CapSense_Filter.c ****     /* Find pointer to specified sensor object */     
 900:Generated_Source\PSoC4/CapSense_Filter.c ****     ptrSensor = ptrWidget->ptr2SnsRam;
 901:Generated_Source\PSoC4/CapSense_Filter.c ****     ptrSensor = &ptrSensor[sensorId];
 902:Generated_Source\PSoC4/CapSense_Filter.c ****     
 903:Generated_Source\PSoC4/CapSense_Filter.c ****     /* Find pointer to specified filter sensor object */     
 904:Generated_Source\PSoC4/CapSense_Filter.c ****     ptrFilterHistObj.ptr = ptrWidget->ptr2FltrHistory;
 905:Generated_Source\PSoC4/CapSense_Filter.c ****     
 906:Generated_Source\PSoC4/CapSense_Filter.c ****     if ((CapSense_WD_TYPE_ENUM)ptrWidget->wdgtType != CapSense_WD_PROXIMITY_E)
 907:Generated_Source\PSoC4/CapSense_Filter.c ****     {
 908:Generated_Source\PSoC4/CapSense_Filter.c ****         #if (CapSense_REGULAR_SENSOR_EN)
 909:Generated_Source\PSoC4/CapSense_Filter.c ****             ptrFilterHistObj.ptrRegular = &ptrFilterHistObj.ptrRegular[sensorId];
 910:Generated_Source\PSoC4/CapSense_Filter.c ****         #endif /* (CapSense_REGULAR_SENSOR_EN) */
ARM GAS  C:\Users\Jerry\AppData\Local\Temp\ccj4ahyr.s 			page 20


 911:Generated_Source\PSoC4/CapSense_Filter.c ****     }
 912:Generated_Source\PSoC4/CapSense_Filter.c ****     else
 913:Generated_Source\PSoC4/CapSense_Filter.c ****     {
 914:Generated_Source\PSoC4/CapSense_Filter.c ****         #if (CapSense_PROXIMITY_SENSOR_EN)
 915:Generated_Source\PSoC4/CapSense_Filter.c ****             ptrFilterHistObj.ptrProx = &ptrFilterHistObj.ptrProx[sensorId];
 916:Generated_Source\PSoC4/CapSense_Filter.c ****         #endif /* (CapSense_PROXIMITY_SENSOR_EN) */
 917:Generated_Source\PSoC4/CapSense_Filter.c ****     }
 918:Generated_Source\PSoC4/CapSense_Filter.c ****     
 919:Generated_Source\PSoC4/CapSense_Filter.c ****     CapSense_RunMedianInternal(ptrFilterHistObj, ptrSensor, (uint32)ptrWidget->wdgtType);
 920:Generated_Source\PSoC4/CapSense_Filter.c **** }
 921:Generated_Source\PSoC4/CapSense_Filter.c ****    
 922:Generated_Source\PSoC4/CapSense_Filter.c **** 
 923:Generated_Source\PSoC4/CapSense_Filter.c **** /*******************************************************************************
 924:Generated_Source\PSoC4/CapSense_Filter.c **** * Function Name: CapSense_InitializeMedianInternal
 925:Generated_Source\PSoC4/CapSense_Filter.c **** ****************************************************************************//**
 926:Generated_Source\PSoC4/CapSense_Filter.c **** *
 927:Generated_Source\PSoC4/CapSense_Filter.c **** * \brief    Initializes the Median filter.
 928:Generated_Source\PSoC4/CapSense_Filter.c **** *
 929:Generated_Source\PSoC4/CapSense_Filter.c **** * \details  Initializes the Median filter.
 930:Generated_Source\PSoC4/CapSense_Filter.c **** *
 931:Generated_Source\PSoC4/CapSense_Filter.c **** * \param    ptrFilterHistObj The pointer to the filter RAM object of the sensor.
 932:Generated_Source\PSoC4/CapSense_Filter.c **** * \param    ptrSensorObj     The pointer to the sensor RAM object of the sensor.
 933:Generated_Source\PSoC4/CapSense_Filter.c **** * \param    wdType           Specifies the type of a widget.
 934:Generated_Source\PSoC4/CapSense_Filter.c **** *
 935:Generated_Source\PSoC4/CapSense_Filter.c **** *******************************************************************************/
 936:Generated_Source\PSoC4/CapSense_Filter.c **** void CapSense_InitializeMedianInternal(CapSense_PTR_FILTER_VARIANT ptrFilterHistObj,
 937:Generated_Source\PSoC4/CapSense_Filter.c ****                                                CapSense_RAM_SNS_STRUCT *ptrSensorObj, uint32 wdType
 938:Generated_Source\PSoC4/CapSense_Filter.c **** {
 939:Generated_Source\PSoC4/CapSense_Filter.c ****     uint32 channel;
 940:Generated_Source\PSoC4/CapSense_Filter.c **** 
 941:Generated_Source\PSoC4/CapSense_Filter.c ****     for(channel = CapSense_NUM_SCAN_FREQS; channel-- > 0u;)
 942:Generated_Source\PSoC4/CapSense_Filter.c ****     {
 943:Generated_Source\PSoC4/CapSense_Filter.c ****         if ((CapSense_WD_TYPE_ENUM)wdType != CapSense_WD_PROXIMITY_E)
 944:Generated_Source\PSoC4/CapSense_Filter.c ****         {
 945:Generated_Source\PSoC4/CapSense_Filter.c ****             #if (CapSense_REGULAR_SENSOR_EN && CapSense_REGULAR_RC_MEDIAN_FILTER_EN)
 946:Generated_Source\PSoC4/CapSense_Filter.c ****                 ptrFilterHistObj.ptrRegular->regularChannel[channel].medHistory[0u] = ptrSensorObj-
 947:Generated_Source\PSoC4/CapSense_Filter.c ****                 ptrFilterHistObj.ptrRegular->regularChannel[channel].medHistory[1u] = ptrSensorObj-
 948:Generated_Source\PSoC4/CapSense_Filter.c ****             #endif /* (CapSense_REGULAR_SENSOR_EN) */
 949:Generated_Source\PSoC4/CapSense_Filter.c ****         }
 950:Generated_Source\PSoC4/CapSense_Filter.c ****         else
 951:Generated_Source\PSoC4/CapSense_Filter.c ****         {
 952:Generated_Source\PSoC4/CapSense_Filter.c ****             #if (CapSense_PROXIMITY_SENSOR_EN && CapSense_PROX_RC_MEDIAN_FILTER_EN)
 953:Generated_Source\PSoC4/CapSense_Filter.c ****                 ptrFilterHistObj.ptrProx->proxChannel[channel].medHistory[0u] = ptrSensorObj->raw[c
 954:Generated_Source\PSoC4/CapSense_Filter.c ****                 ptrFilterHistObj.ptrProx->proxChannel[channel].medHistory[1u] = ptrSensorObj->raw[c
 955:Generated_Source\PSoC4/CapSense_Filter.c ****             #endif /* (CapSense_PROXIMITY_SENSOR_EN) */               
 956:Generated_Source\PSoC4/CapSense_Filter.c ****         }
 957:Generated_Source\PSoC4/CapSense_Filter.c ****     }
 958:Generated_Source\PSoC4/CapSense_Filter.c **** }
 959:Generated_Source\PSoC4/CapSense_Filter.c **** 
 960:Generated_Source\PSoC4/CapSense_Filter.c **** 
 961:Generated_Source\PSoC4/CapSense_Filter.c **** /*******************************************************************************
 962:Generated_Source\PSoC4/CapSense_Filter.c **** * Function Name: CapSense_RunMedianInternal
 963:Generated_Source\PSoC4/CapSense_Filter.c **** ****************************************************************************//**
 964:Generated_Source\PSoC4/CapSense_Filter.c **** *
 965:Generated_Source\PSoC4/CapSense_Filter.c **** * \brief    Runs the Median filter.
 966:Generated_Source\PSoC4/CapSense_Filter.c **** *
 967:Generated_Source\PSoC4/CapSense_Filter.c **** * \details  Runs the Median filter.
ARM GAS  C:\Users\Jerry\AppData\Local\Temp\ccj4ahyr.s 			page 21


 968:Generated_Source\PSoC4/CapSense_Filter.c **** *
 969:Generated_Source\PSoC4/CapSense_Filter.c **** * \param    ptrFilterHistObj The pointer to the filter RAM object of the sensor.
 970:Generated_Source\PSoC4/CapSense_Filter.c **** * \param    ptrSensorObj     The pointer to the sensor RAM object of the sensor.
 971:Generated_Source\PSoC4/CapSense_Filter.c **** * \param    wdType           Specifies the type of a widget.
 972:Generated_Source\PSoC4/CapSense_Filter.c **** *
 973:Generated_Source\PSoC4/CapSense_Filter.c **** *******************************************************************************/
 974:Generated_Source\PSoC4/CapSense_Filter.c **** void CapSense_RunMedianInternal(CapSense_PTR_FILTER_VARIANT ptrFilterHistObj,
 975:Generated_Source\PSoC4/CapSense_Filter.c ****                                         CapSense_RAM_SNS_STRUCT *ptrSensorObj, uint32 wdType)
 976:Generated_Source\PSoC4/CapSense_Filter.c **** {
 977:Generated_Source\PSoC4/CapSense_Filter.c ****     uint32 channel;
 978:Generated_Source\PSoC4/CapSense_Filter.c ****     
 979:Generated_Source\PSoC4/CapSense_Filter.c ****     #if ((CapSense_REGULAR_SENSOR_EN && CapSense_REGULAR_RC_MEDIAN_FILTER_EN) || \
 980:Generated_Source\PSoC4/CapSense_Filter.c ****          (CapSense_PROXIMITY_SENSOR_EN && CapSense_PROX_RC_MEDIAN_FILTER_EN))
 981:Generated_Source\PSoC4/CapSense_Filter.c ****         uint32 temp;
 982:Generated_Source\PSoC4/CapSense_Filter.c ****     #endif
 983:Generated_Source\PSoC4/CapSense_Filter.c ****     
 984:Generated_Source\PSoC4/CapSense_Filter.c ****     for(channel = CapSense_NUM_SCAN_FREQS; channel-- > 0u;)
 985:Generated_Source\PSoC4/CapSense_Filter.c ****     {    
 986:Generated_Source\PSoC4/CapSense_Filter.c ****         if ((CapSense_WD_TYPE_ENUM)wdType != CapSense_WD_PROXIMITY_E)
 987:Generated_Source\PSoC4/CapSense_Filter.c ****         {                                             
 988:Generated_Source\PSoC4/CapSense_Filter.c ****             #if (CapSense_REGULAR_SENSOR_EN && CapSense_REGULAR_RC_MEDIAN_FILTER_EN)
 989:Generated_Source\PSoC4/CapSense_Filter.c ****                 temp = CapSense_FtMedian((uint32)ptrSensorObj->raw[channel],\
 990:Generated_Source\PSoC4/CapSense_Filter.c ****                                                  (uint32)ptrFilterHistObj.ptrRegular->regularChanne
 991:Generated_Source\PSoC4/CapSense_Filter.c ****                                                  (uint32)ptrFilterHistObj.ptrRegular->regularChanne
 992:Generated_Source\PSoC4/CapSense_Filter.c ****                 ptrFilterHistObj.ptrRegular->regularChannel[channel].medHistory[1u] = \
 993:Generated_Source\PSoC4/CapSense_Filter.c ****                 ptrFilterHistObj.ptrRegular->regularChannel[channel].medHistory[0u];
 994:Generated_Source\PSoC4/CapSense_Filter.c ****                 ptrFilterHistObj.ptrRegular->regularChannel[channel].medHistory[0u] = ptrSensorObj-
 995:Generated_Source\PSoC4/CapSense_Filter.c ****                 ptrSensorObj->raw[channel] = LO16(temp);
 996:Generated_Source\PSoC4/CapSense_Filter.c ****             #endif /* (CapSense_REGULAR_SENSOR_EN) */     
 997:Generated_Source\PSoC4/CapSense_Filter.c ****         }
 998:Generated_Source\PSoC4/CapSense_Filter.c ****         else 
 999:Generated_Source\PSoC4/CapSense_Filter.c ****         {                   
1000:Generated_Source\PSoC4/CapSense_Filter.c ****             #if (CapSense_PROXIMITY_SENSOR_EN && CapSense_PROX_RC_MEDIAN_FILTER_EN)
1001:Generated_Source\PSoC4/CapSense_Filter.c ****                 temp = CapSense_FtMedian((uint32)ptrSensorObj->raw[channel],\
1002:Generated_Source\PSoC4/CapSense_Filter.c ****                                                  (uint32)ptrFilterHistObj.ptrProx->proxChannel[chan
1003:Generated_Source\PSoC4/CapSense_Filter.c ****                                                  (uint32)ptrFilterHistObj.ptrProx->proxChannel[chan
1004:Generated_Source\PSoC4/CapSense_Filter.c ****                 ptrFilterHistObj.ptrProx->proxChannel[channel].medHistory[1u] = \
1005:Generated_Source\PSoC4/CapSense_Filter.c ****                 ptrFilterHistObj.ptrProx->proxChannel[channel].medHistory[0u];
1006:Generated_Source\PSoC4/CapSense_Filter.c ****                 ptrFilterHistObj.ptrProx->proxChannel[channel].medHistory[0u] = ptrSensorObj->raw[c
1007:Generated_Source\PSoC4/CapSense_Filter.c ****                 ptrSensorObj->raw[channel] = LO16(temp);
1008:Generated_Source\PSoC4/CapSense_Filter.c ****             #endif /* (CapSense_PROXIMITY_SENSOR_EN) */               
1009:Generated_Source\PSoC4/CapSense_Filter.c ****         }
1010:Generated_Source\PSoC4/CapSense_Filter.c ****     }
1011:Generated_Source\PSoC4/CapSense_Filter.c **** }
1012:Generated_Source\PSoC4/CapSense_Filter.c **** #endif /* (CapSense_REGULAR_RC_MEDIAN_FILTER_EN || CapSense_PROX_RC_MEDIAN_FILTER_EN) */
1013:Generated_Source\PSoC4/CapSense_Filter.c **** 
1014:Generated_Source\PSoC4/CapSense_Filter.c **** 
1015:Generated_Source\PSoC4/CapSense_Filter.c **** #if (CapSense_REGULAR_RC_AVERAGE_FILTER_EN || CapSense_PROX_RC_AVERAGE_FILTER_EN)
1016:Generated_Source\PSoC4/CapSense_Filter.c **** 
1017:Generated_Source\PSoC4/CapSense_Filter.c **** /*******************************************************************************
1018:Generated_Source\PSoC4/CapSense_Filter.c **** * Function Name: CapSense_InitializeAverage
1019:Generated_Source\PSoC4/CapSense_Filter.c **** ****************************************************************************//**
1020:Generated_Source\PSoC4/CapSense_Filter.c **** *
1021:Generated_Source\PSoC4/CapSense_Filter.c **** * \brief    Initializes the average filter history.
1022:Generated_Source\PSoC4/CapSense_Filter.c **** *
1023:Generated_Source\PSoC4/CapSense_Filter.c **** * \details  Initializes the average filter history.
1024:Generated_Source\PSoC4/CapSense_Filter.c **** *
ARM GAS  C:\Users\Jerry\AppData\Local\Temp\ccj4ahyr.s 			page 22


1025:Generated_Source\PSoC4/CapSense_Filter.c **** * \param    widgetId Specifies the ID number of the widget.
1026:Generated_Source\PSoC4/CapSense_Filter.c **** * \param    sensorId Specifies the ID number of the sensor in the widget.
1027:Generated_Source\PSoC4/CapSense_Filter.c **** *
1028:Generated_Source\PSoC4/CapSense_Filter.c **** *******************************************************************************/
1029:Generated_Source\PSoC4/CapSense_Filter.c **** void CapSense_InitializeAverage(uint32 widgetId, uint32 sensorId)
1030:Generated_Source\PSoC4/CapSense_Filter.c **** {
1031:Generated_Source\PSoC4/CapSense_Filter.c ****     CapSense_FLASH_WD_STRUCT const *ptrWidget = &CapSense_dsFlash.wdgtArray[widgetId];      
1032:Generated_Source\PSoC4/CapSense_Filter.c ****     CapSense_RAM_SNS_STRUCT *ptrSensor = NULL;
1033:Generated_Source\PSoC4/CapSense_Filter.c ****     CapSense_PTR_FILTER_VARIANT ptrFilterHistObj;
1034:Generated_Source\PSoC4/CapSense_Filter.c **** 
1035:Generated_Source\PSoC4/CapSense_Filter.c ****     /* Find pointer to specified sensor object */
1036:Generated_Source\PSoC4/CapSense_Filter.c ****     ptrSensor = ptrWidget->ptr2SnsRam;
1037:Generated_Source\PSoC4/CapSense_Filter.c ****     ptrSensor = &ptrSensor[sensorId];
1038:Generated_Source\PSoC4/CapSense_Filter.c ****     
1039:Generated_Source\PSoC4/CapSense_Filter.c ****     /* Find pointer to specified filter sensor object */
1040:Generated_Source\PSoC4/CapSense_Filter.c ****     ptrFilterHistObj.ptr = ptrWidget->ptr2FltrHistory;
1041:Generated_Source\PSoC4/CapSense_Filter.c **** 
1042:Generated_Source\PSoC4/CapSense_Filter.c ****     if ((CapSense_WD_TYPE_ENUM)ptrWidget->wdgtType != CapSense_WD_PROXIMITY_E)
1043:Generated_Source\PSoC4/CapSense_Filter.c ****     {
1044:Generated_Source\PSoC4/CapSense_Filter.c ****         #if (CapSense_REGULAR_SENSOR_EN)
1045:Generated_Source\PSoC4/CapSense_Filter.c ****             ptrFilterHistObj.ptrRegular = &ptrFilterHistObj.ptrRegular[sensorId];
1046:Generated_Source\PSoC4/CapSense_Filter.c ****         #endif /* (CapSense_REGULAR_SENSOR_EN) */
1047:Generated_Source\PSoC4/CapSense_Filter.c ****     }
1048:Generated_Source\PSoC4/CapSense_Filter.c ****     else
1049:Generated_Source\PSoC4/CapSense_Filter.c ****     {
1050:Generated_Source\PSoC4/CapSense_Filter.c ****         #if (CapSense_PROXIMITY_SENSOR_EN)
1051:Generated_Source\PSoC4/CapSense_Filter.c ****             ptrFilterHistObj.ptrProx = &ptrFilterHistObj.ptrProx[sensorId];
1052:Generated_Source\PSoC4/CapSense_Filter.c ****         #endif /* (CapSense_PROXIMITY_SENSOR_EN) */
1053:Generated_Source\PSoC4/CapSense_Filter.c ****     }
1054:Generated_Source\PSoC4/CapSense_Filter.c **** 
1055:Generated_Source\PSoC4/CapSense_Filter.c ****     CapSense_InitializeAverageInternal(ptrFilterHistObj, ptrSensor, (uint32)ptrWidget->wdgtType);
1056:Generated_Source\PSoC4/CapSense_Filter.c **** }
1057:Generated_Source\PSoC4/CapSense_Filter.c **** 
1058:Generated_Source\PSoC4/CapSense_Filter.c **** 
1059:Generated_Source\PSoC4/CapSense_Filter.c **** /*******************************************************************************
1060:Generated_Source\PSoC4/CapSense_Filter.c **** * Function Name: CapSense_RunAverage
1061:Generated_Source\PSoC4/CapSense_Filter.c **** ****************************************************************************//**
1062:Generated_Source\PSoC4/CapSense_Filter.c **** *
1063:Generated_Source\PSoC4/CapSense_Filter.c **** * \brief    Executes the average filter algorithm on a sensor indicated by an input 
1064:Generated_Source\PSoC4/CapSense_Filter.c **** *           parameter. 
1065:Generated_Source\PSoC4/CapSense_Filter.c **** *
1066:Generated_Source\PSoC4/CapSense_Filter.c **** * \details  Executes the average filter algorithm on a sensor indicated by an input 
1067:Generated_Source\PSoC4/CapSense_Filter.c **** *           parameter. 
1068:Generated_Source\PSoC4/CapSense_Filter.c **** *
1069:Generated_Source\PSoC4/CapSense_Filter.c **** * \param    widgetId Specifies the ID number of the widget.
1070:Generated_Source\PSoC4/CapSense_Filter.c **** * \param    sensorId Specifies the ID number of the sensor in the widget.
1071:Generated_Source\PSoC4/CapSense_Filter.c **** *
1072:Generated_Source\PSoC4/CapSense_Filter.c **** *******************************************************************************/
1073:Generated_Source\PSoC4/CapSense_Filter.c **** void CapSense_RunAverage(uint32 widgetId, uint32 sensorId)
1074:Generated_Source\PSoC4/CapSense_Filter.c **** {
1075:Generated_Source\PSoC4/CapSense_Filter.c ****     CapSense_FLASH_WD_STRUCT const *ptrWidget = &CapSense_dsFlash.wdgtArray[widgetId];      
1076:Generated_Source\PSoC4/CapSense_Filter.c ****     CapSense_RAM_SNS_STRUCT *ptrSensor = NULL;    
1077:Generated_Source\PSoC4/CapSense_Filter.c ****     CapSense_PTR_FILTER_VARIANT ptrFilterHistObj; 
1078:Generated_Source\PSoC4/CapSense_Filter.c ****               
1079:Generated_Source\PSoC4/CapSense_Filter.c ****     /* Find pointer to specified sensor object */     
1080:Generated_Source\PSoC4/CapSense_Filter.c ****     ptrSensor = ptrWidget->ptr2SnsRam;
1081:Generated_Source\PSoC4/CapSense_Filter.c ****     ptrSensor = &ptrSensor[sensorId];
ARM GAS  C:\Users\Jerry\AppData\Local\Temp\ccj4ahyr.s 			page 23


1082:Generated_Source\PSoC4/CapSense_Filter.c ****     
1083:Generated_Source\PSoC4/CapSense_Filter.c ****     /* Find pointer to specified filter sensor object */     
1084:Generated_Source\PSoC4/CapSense_Filter.c ****     ptrFilterHistObj.ptr = ptrWidget->ptr2FltrHistory;
1085:Generated_Source\PSoC4/CapSense_Filter.c ****     
1086:Generated_Source\PSoC4/CapSense_Filter.c ****     if ((CapSense_WD_TYPE_ENUM)ptrWidget->wdgtType != CapSense_WD_PROXIMITY_E)
1087:Generated_Source\PSoC4/CapSense_Filter.c ****     {
1088:Generated_Source\PSoC4/CapSense_Filter.c ****         #if (CapSense_REGULAR_SENSOR_EN)
1089:Generated_Source\PSoC4/CapSense_Filter.c ****             ptrFilterHistObj.ptrRegular = &ptrFilterHistObj.ptrRegular[sensorId];
1090:Generated_Source\PSoC4/CapSense_Filter.c ****         #endif /* (CapSense_REGULAR_SENSOR_EN) */
1091:Generated_Source\PSoC4/CapSense_Filter.c ****     }
1092:Generated_Source\PSoC4/CapSense_Filter.c ****     else
1093:Generated_Source\PSoC4/CapSense_Filter.c ****     {
1094:Generated_Source\PSoC4/CapSense_Filter.c ****         #if (CapSense_PROXIMITY_SENSOR_EN)
1095:Generated_Source\PSoC4/CapSense_Filter.c ****             ptrFilterHistObj.ptrProx = &ptrFilterHistObj.ptrProx[sensorId];
1096:Generated_Source\PSoC4/CapSense_Filter.c ****         #endif /* (CapSense_PROXIMITY_SENSOR_EN) */
1097:Generated_Source\PSoC4/CapSense_Filter.c ****     }
1098:Generated_Source\PSoC4/CapSense_Filter.c ****     
1099:Generated_Source\PSoC4/CapSense_Filter.c ****     CapSense_RunAverageInternal(ptrFilterHistObj, ptrSensor, (uint32)ptrWidget->wdgtType);
1100:Generated_Source\PSoC4/CapSense_Filter.c **** }
1101:Generated_Source\PSoC4/CapSense_Filter.c **** 
1102:Generated_Source\PSoC4/CapSense_Filter.c **** 
1103:Generated_Source\PSoC4/CapSense_Filter.c **** /*******************************************************************************
1104:Generated_Source\PSoC4/CapSense_Filter.c **** * Function Name: CapSense_InitializeAverageInternal
1105:Generated_Source\PSoC4/CapSense_Filter.c **** ****************************************************************************//**
1106:Generated_Source\PSoC4/CapSense_Filter.c **** *
1107:Generated_Source\PSoC4/CapSense_Filter.c **** * \brief    Initializes the average filter.
1108:Generated_Source\PSoC4/CapSense_Filter.c **** *
1109:Generated_Source\PSoC4/CapSense_Filter.c **** * \details  Initializes the average filter.
1110:Generated_Source\PSoC4/CapSense_Filter.c **** *
1111:Generated_Source\PSoC4/CapSense_Filter.c **** * \param    ptrFilterHistObj The pointer to the filter RAM object of the sensor.
1112:Generated_Source\PSoC4/CapSense_Filter.c **** * \param    ptrSensorObj     The pointer to the sensor RAM object of the sensor.
1113:Generated_Source\PSoC4/CapSense_Filter.c **** * \param    wdType           Specifies the type of a widget.
1114:Generated_Source\PSoC4/CapSense_Filter.c **** *
1115:Generated_Source\PSoC4/CapSense_Filter.c **** *******************************************************************************/
1116:Generated_Source\PSoC4/CapSense_Filter.c **** void CapSense_InitializeAverageInternal(CapSense_PTR_FILTER_VARIANT ptrFilterHistObj,\
1117:Generated_Source\PSoC4/CapSense_Filter.c ****                                                   CapSense_RAM_SNS_STRUCT *ptrSensorObj, uint32 wdT
1118:Generated_Source\PSoC4/CapSense_Filter.c **** {
1119:Generated_Source\PSoC4/CapSense_Filter.c ****     uint32 channel;
1120:Generated_Source\PSoC4/CapSense_Filter.c **** 
1121:Generated_Source\PSoC4/CapSense_Filter.c ****     for(channel = CapSense_NUM_SCAN_FREQS; channel-- > 0u;)
1122:Generated_Source\PSoC4/CapSense_Filter.c ****     {
1123:Generated_Source\PSoC4/CapSense_Filter.c ****         if ((CapSense_WD_TYPE_ENUM)wdType != CapSense_WD_PROXIMITY_E)
1124:Generated_Source\PSoC4/CapSense_Filter.c ****         {
1125:Generated_Source\PSoC4/CapSense_Filter.c ****             #if (CapSense_REGULAR_SENSOR_EN && CapSense_REGULAR_RC_AVERAGE_FILTER_EN)
1126:Generated_Source\PSoC4/CapSense_Filter.c ****                 ptrFilterHistObj.ptrRegular->regularChannel[channel].avgHistory[0] = ptrSensorObj->
1127:Generated_Source\PSoC4/CapSense_Filter.c ****                 #if (CapSense_REGULAR_AVERAGE_LEN == CapSense_AVERAGE_FILTER_LEN_4)
1128:Generated_Source\PSoC4/CapSense_Filter.c ****                     ptrFilterHistObj.ptrRegular->regularChannel[channel].avgHistory[1u] = ptrSensor
1129:Generated_Source\PSoC4/CapSense_Filter.c ****                     ptrFilterHistObj.ptrRegular->regularChannel[channel].avgHistory[2u] = ptrSensor
1130:Generated_Source\PSoC4/CapSense_Filter.c ****                 #endif /* CapSense_REGULAR_AVERAGE_LEN == CapSense_AVERAGE_FILTER_LEN_4 */
1131:Generated_Source\PSoC4/CapSense_Filter.c ****             #endif /* (CapSense_REGULAR_SENSOR_EN) */      
1132:Generated_Source\PSoC4/CapSense_Filter.c ****         }
1133:Generated_Source\PSoC4/CapSense_Filter.c ****         else
1134:Generated_Source\PSoC4/CapSense_Filter.c ****         {
1135:Generated_Source\PSoC4/CapSense_Filter.c ****             #if (CapSense_PROXIMITY_SENSOR_EN && CapSense_PROX_RC_AVERAGE_FILTER_EN)
1136:Generated_Source\PSoC4/CapSense_Filter.c ****                 ptrFilterHistObj.ptrProx->proxChannel[channel].avgHistory[0] = ptrSensorObj->raw[ch
1137:Generated_Source\PSoC4/CapSense_Filter.c ****                     #if (CapSense_PROX_AVERAGE_LEN == CapSense_AVERAGE_FILTER_LEN_4)
1138:Generated_Source\PSoC4/CapSense_Filter.c ****                         ptrFilterHistObj.ptrProx->proxChannel[channel].avgHistory[1u] = ptrSensorOb
ARM GAS  C:\Users\Jerry\AppData\Local\Temp\ccj4ahyr.s 			page 24


1139:Generated_Source\PSoC4/CapSense_Filter.c ****                         ptrFilterHistObj.ptrProx->proxChannel[channel].avgHistory[2u] = ptrSensorOb
1140:Generated_Source\PSoC4/CapSense_Filter.c ****                     #endif /* CapSense_REGULAR_AVERAGE_LEN == CapSense_AVERAGE_FILTER_LEN_4 */
1141:Generated_Source\PSoC4/CapSense_Filter.c ****             #endif /* (CapSense_PROXIMITY_SENSOR_EN) */
1142:Generated_Source\PSoC4/CapSense_Filter.c ****         }
1143:Generated_Source\PSoC4/CapSense_Filter.c ****     }
1144:Generated_Source\PSoC4/CapSense_Filter.c **** }
1145:Generated_Source\PSoC4/CapSense_Filter.c **** 
1146:Generated_Source\PSoC4/CapSense_Filter.c **** 
1147:Generated_Source\PSoC4/CapSense_Filter.c **** /*******************************************************************************
1148:Generated_Source\PSoC4/CapSense_Filter.c **** * Function Name: CapSense_RunAverageInternal
1149:Generated_Source\PSoC4/CapSense_Filter.c **** ****************************************************************************//**
1150:Generated_Source\PSoC4/CapSense_Filter.c **** *
1151:Generated_Source\PSoC4/CapSense_Filter.c **** * \brief    Runs the average filter.
1152:Generated_Source\PSoC4/CapSense_Filter.c **** *
1153:Generated_Source\PSoC4/CapSense_Filter.c **** * \details  Runs the average filter.
1154:Generated_Source\PSoC4/CapSense_Filter.c **** *
1155:Generated_Source\PSoC4/CapSense_Filter.c **** * \param    ptrFilterHistObj The pointer to the filter RAM object of the sensor.
1156:Generated_Source\PSoC4/CapSense_Filter.c **** * \param    ptrSensorObj     The pointer to the sensor RAM object of the sensor.
1157:Generated_Source\PSoC4/CapSense_Filter.c **** * \param    wdType           Specifies the type of a widget.
1158:Generated_Source\PSoC4/CapSense_Filter.c **** *
1159:Generated_Source\PSoC4/CapSense_Filter.c **** *******************************************************************************/
1160:Generated_Source\PSoC4/CapSense_Filter.c **** void CapSense_RunAverageInternal(CapSense_PTR_FILTER_VARIANT ptrFilterHistObj,\
1161:Generated_Source\PSoC4/CapSense_Filter.c ****                                            CapSense_RAM_SNS_STRUCT *ptrSensorObj, uint32 wdType)
1162:Generated_Source\PSoC4/CapSense_Filter.c **** {
1163:Generated_Source\PSoC4/CapSense_Filter.c ****     uint32 channel;
1164:Generated_Source\PSoC4/CapSense_Filter.c ****     uint32 temp;
1165:Generated_Source\PSoC4/CapSense_Filter.c **** 
1166:Generated_Source\PSoC4/CapSense_Filter.c ****     for(channel = CapSense_NUM_SCAN_FREQS; channel-- > 0u;)
1167:Generated_Source\PSoC4/CapSense_Filter.c ****     {
1168:Generated_Source\PSoC4/CapSense_Filter.c ****         if ((CapSense_WD_TYPE_ENUM)wdType != CapSense_WD_PROXIMITY_E)
1169:Generated_Source\PSoC4/CapSense_Filter.c ****         {
1170:Generated_Source\PSoC4/CapSense_Filter.c ****             #if (CapSense_REGULAR_SENSOR_EN && CapSense_REGULAR_RC_AVERAGE_FILTER_EN)
1171:Generated_Source\PSoC4/CapSense_Filter.c ****                 #if (CapSense_REGULAR_AVERAGE_LEN == CapSense_AVERAGE_FILTER_LEN_2)
1172:Generated_Source\PSoC4/CapSense_Filter.c ****                     temp = ((uint32)ptrSensorObj->raw[channel] + 
1173:Generated_Source\PSoC4/CapSense_Filter.c ****                             (uint32)ptrFilterHistObj.ptrRegular->regularChannel[channel].avgHistory
1174:Generated_Source\PSoC4/CapSense_Filter.c ****                     ptrFilterHistObj.ptrRegular->regularChannel[channel].avgHistory[0] = ptrSensorO
1175:Generated_Source\PSoC4/CapSense_Filter.c ****                     ptrSensorObj->raw[channel] = LO16(temp);
1176:Generated_Source\PSoC4/CapSense_Filter.c ****                 #else
1177:Generated_Source\PSoC4/CapSense_Filter.c ****                     temp = ((uint32)ptrSensorObj->raw[channel] + 
1178:Generated_Source\PSoC4/CapSense_Filter.c ****                             (uint32)ptrFilterHistObj.ptrRegular->regularChannel[channel].avgHistory
1179:Generated_Source\PSoC4/CapSense_Filter.c ****                             (uint32)ptrFilterHistObj.ptrRegular->regularChannel[channel].avgHistory
1180:Generated_Source\PSoC4/CapSense_Filter.c ****                             (uint32)ptrFilterHistObj.ptrRegular->regularChannel[channel].avgHistory
1181:Generated_Source\PSoC4/CapSense_Filter.c **** 
1182:Generated_Source\PSoC4/CapSense_Filter.c ****                     ptrFilterHistObj.ptrRegular->regularChannel[channel].avgHistory[2u] =
1183:Generated_Source\PSoC4/CapSense_Filter.c ****                     ptrFilterHistObj.ptrRegular->regularChannel[channel].avgHistory[1u];
1184:Generated_Source\PSoC4/CapSense_Filter.c ****                     ptrFilterHistObj.ptrRegular->regularChannel[channel].avgHistory[1u] =
1185:Generated_Source\PSoC4/CapSense_Filter.c ****                     ptrFilterHistObj.ptrRegular->regularChannel[channel].avgHistory[0];
1186:Generated_Source\PSoC4/CapSense_Filter.c ****                     ptrFilterHistObj.ptrRegular->regularChannel[channel].avgHistory[0] = ptrSensorO
1187:Generated_Source\PSoC4/CapSense_Filter.c ****                     ptrSensorObj->raw[channel] = LO16(temp);
1188:Generated_Source\PSoC4/CapSense_Filter.c ****                 #endif /* CapSense_REGULAR_AVERAGE_LEN == CapSense_AVERAGE_FILTER_LEN_4 */
1189:Generated_Source\PSoC4/CapSense_Filter.c ****             #endif /* (CapSense_REGULAR_SENSOR_EN) */
1190:Generated_Source\PSoC4/CapSense_Filter.c ****         }
1191:Generated_Source\PSoC4/CapSense_Filter.c ****         else 
1192:Generated_Source\PSoC4/CapSense_Filter.c ****         {
1193:Generated_Source\PSoC4/CapSense_Filter.c ****             #if (CapSense_PROXIMITY_SENSOR_EN && CapSense_PROX_RC_AVERAGE_FILTER_EN)
1194:Generated_Source\PSoC4/CapSense_Filter.c ****                 #if (CapSense_PROX_AVERAGE_LEN == CapSense_AVERAGE_FILTER_LEN_2)     
1195:Generated_Source\PSoC4/CapSense_Filter.c ****                     temp = ((uint32)ptrSensorObj->raw[channel] + 
ARM GAS  C:\Users\Jerry\AppData\Local\Temp\ccj4ahyr.s 			page 25


1196:Generated_Source\PSoC4/CapSense_Filter.c ****                             (uint32)ptrFilterHistObj.ptrProx->proxChannel[channel].avgHistory[0]) >
1197:Generated_Source\PSoC4/CapSense_Filter.c ****                     ptrFilterHistObj.ptrProx->proxChannel[channel].avgHistory[0] = ptrSensorObj->ra
1198:Generated_Source\PSoC4/CapSense_Filter.c ****                     ptrSensorObj->raw[channel] = LO16(temp);
1199:Generated_Source\PSoC4/CapSense_Filter.c ****                 #else
1200:Generated_Source\PSoC4/CapSense_Filter.c ****                     temp = ((uint32)ptrSensorObj->raw[channel] + 
1201:Generated_Source\PSoC4/CapSense_Filter.c ****                             (uint32)ptrFilterHistObj.ptrProx->proxChannel[channel].avgHistory[0] +
1202:Generated_Source\PSoC4/CapSense_Filter.c ****                             (uint32)ptrFilterHistObj.ptrProx->proxChannel[channel].avgHistory[1u] +
1203:Generated_Source\PSoC4/CapSense_Filter.c ****                             (uint32)ptrFilterHistObj.ptrProx->proxChannel[channel].avgHistory[2u]) 
1204:Generated_Source\PSoC4/CapSense_Filter.c ****                     
1205:Generated_Source\PSoC4/CapSense_Filter.c ****                     ptrFilterHistObj.ptrProx->proxChannel[channel].avgHistory[2u] =
1206:Generated_Source\PSoC4/CapSense_Filter.c ****                     ptrFilterHistObj.ptrProx->proxChannel[channel].avgHistory[1u];
1207:Generated_Source\PSoC4/CapSense_Filter.c ****                     ptrFilterHistObj.ptrProx->proxChannel[channel].avgHistory[1u] =
1208:Generated_Source\PSoC4/CapSense_Filter.c ****                     ptrFilterHistObj.ptrProx->proxChannel[channel].avgHistory[0];
1209:Generated_Source\PSoC4/CapSense_Filter.c ****                     ptrFilterHistObj.ptrProx->proxChannel[channel].avgHistory[0] = ptrSensorObj->ra
1210:Generated_Source\PSoC4/CapSense_Filter.c ****                     ptrSensorObj->raw[channel] = LO16(temp);
1211:Generated_Source\PSoC4/CapSense_Filter.c ****                 #endif /* CapSense_PROX_AVERAGE_LEN == CapSense_AVERAGE_FILTER_LEN_4 */
1212:Generated_Source\PSoC4/CapSense_Filter.c ****             #endif /* (CapSense_PROXIMITY_SENSOR_EN) */
1213:Generated_Source\PSoC4/CapSense_Filter.c ****         }
1214:Generated_Source\PSoC4/CapSense_Filter.c ****     }
1215:Generated_Source\PSoC4/CapSense_Filter.c **** }
1216:Generated_Source\PSoC4/CapSense_Filter.c **** #endif /* (CapSense_REGULAR_RC_AVERAGE_FILTER_EN || CapSense_PROX_RC_AVERAGE_FILTER_EN) */
1217:Generated_Source\PSoC4/CapSense_Filter.c **** 
1218:Generated_Source\PSoC4/CapSense_Filter.c **** 
1219:Generated_Source\PSoC4/CapSense_Filter.c **** #if ((CapSense_REGULAR_RC_FILTER_EN || CapSense_PROX_RC_FILTER_EN))
1220:Generated_Source\PSoC4/CapSense_Filter.c **** /*******************************************************************************
1221:Generated_Source\PSoC4/CapSense_Filter.c **** * Function Name: CapSense_FtRunEnabledFilters
1222:Generated_Source\PSoC4/CapSense_Filter.c **** ****************************************************************************//**
1223:Generated_Source\PSoC4/CapSense_Filter.c **** *
1224:Generated_Source\PSoC4/CapSense_Filter.c **** * \brief    Runs all enabled filters.
1225:Generated_Source\PSoC4/CapSense_Filter.c **** *
1226:Generated_Source\PSoC4/CapSense_Filter.c **** * \details  Runs all enabled filters.
1227:Generated_Source\PSoC4/CapSense_Filter.c **** *
1228:Generated_Source\PSoC4/CapSense_Filter.c **** * \param    widgetId Specifies the ID number of a widget to update the IIR filter history.*
1229:Generated_Source\PSoC4/CapSense_Filter.c **** * \param    sensorId Specifies the ID number of a sensor in the widget to update the IIR 
1230:Generated_Source\PSoC4/CapSense_Filter.c **** *           filter history.
1231:Generated_Source\PSoC4/CapSense_Filter.c **** *
1232:Generated_Source\PSoC4/CapSense_Filter.c **** *******************************************************************************/
1233:Generated_Source\PSoC4/CapSense_Filter.c **** void CapSense_FtRunEnabledFilters(uint32 widgetId, uint32 sensorId)
1234:Generated_Source\PSoC4/CapSense_Filter.c **** {
1235:Generated_Source\PSoC4/CapSense_Filter.c ****     CapSense_FLASH_WD_STRUCT const *ptrWidget = &CapSense_dsFlash.wdgtArray[widgetId];      
1236:Generated_Source\PSoC4/CapSense_Filter.c ****     CapSense_RAM_SNS_STRUCT *ptrSensor = NULL;    
1237:Generated_Source\PSoC4/CapSense_Filter.c ****     CapSense_PTR_FILTER_VARIANT ptrFilterHistObj; 
1238:Generated_Source\PSoC4/CapSense_Filter.c ****               
1239:Generated_Source\PSoC4/CapSense_Filter.c ****     /* Find pointer to specified sensor object */     
1240:Generated_Source\PSoC4/CapSense_Filter.c ****     ptrSensor = ptrWidget->ptr2SnsRam;
1241:Generated_Source\PSoC4/CapSense_Filter.c ****     ptrSensor = &ptrSensor[sensorId];
1242:Generated_Source\PSoC4/CapSense_Filter.c ****     
1243:Generated_Source\PSoC4/CapSense_Filter.c ****     /* Find pointer to specified filter sensor object */     
1244:Generated_Source\PSoC4/CapSense_Filter.c ****     ptrFilterHistObj.ptr = ptrWidget->ptr2FltrHistory;
1245:Generated_Source\PSoC4/CapSense_Filter.c ****     
1246:Generated_Source\PSoC4/CapSense_Filter.c ****     if ((CapSense_WD_TYPE_ENUM)ptrWidget->wdgtType != CapSense_WD_PROXIMITY_E)
1247:Generated_Source\PSoC4/CapSense_Filter.c ****     {
1248:Generated_Source\PSoC4/CapSense_Filter.c ****         #if (CapSense_REGULAR_SENSOR_EN)
1249:Generated_Source\PSoC4/CapSense_Filter.c ****             ptrFilterHistObj.ptrRegular = &ptrFilterHistObj.ptrRegular[sensorId];
1250:Generated_Source\PSoC4/CapSense_Filter.c ****         #endif /* (CapSense_REGULAR_SENSOR_EN) */
1251:Generated_Source\PSoC4/CapSense_Filter.c ****     }
1252:Generated_Source\PSoC4/CapSense_Filter.c ****     else
ARM GAS  C:\Users\Jerry\AppData\Local\Temp\ccj4ahyr.s 			page 26


1253:Generated_Source\PSoC4/CapSense_Filter.c ****     {
1254:Generated_Source\PSoC4/CapSense_Filter.c ****         #if (CapSense_PROXIMITY_SENSOR_EN)
1255:Generated_Source\PSoC4/CapSense_Filter.c ****             ptrFilterHistObj.ptrProx = &ptrFilterHistObj.ptrProx[sensorId];
1256:Generated_Source\PSoC4/CapSense_Filter.c ****         #endif /* (CapSense_PROXIMITY_SENSOR_EN) */
1257:Generated_Source\PSoC4/CapSense_Filter.c ****     }
1258:Generated_Source\PSoC4/CapSense_Filter.c ****     
1259:Generated_Source\PSoC4/CapSense_Filter.c ****     CapSense_FtRunEnabledFiltersInternal(ptrFilterHistObj, ptrSensor, (uint32)ptrWidget->wdgtType);
1260:Generated_Source\PSoC4/CapSense_Filter.c **** }
1261:Generated_Source\PSoC4/CapSense_Filter.c **** 
1262:Generated_Source\PSoC4/CapSense_Filter.c **** 
1263:Generated_Source\PSoC4/CapSense_Filter.c **** /*******************************************************************************
1264:Generated_Source\PSoC4/CapSense_Filter.c **** * Function Name: CapSense_FtRunEnabledFiltersInternal
1265:Generated_Source\PSoC4/CapSense_Filter.c **** ****************************************************************************//**
1266:Generated_Source\PSoC4/CapSense_Filter.c **** *
1267:Generated_Source\PSoC4/CapSense_Filter.c **** * \brief    Runs all enabled filters.
1268:Generated_Source\PSoC4/CapSense_Filter.c **** *
1269:Generated_Source\PSoC4/CapSense_Filter.c **** * \details  Runs all enabled filters.
1270:Generated_Source\PSoC4/CapSense_Filter.c **** *
1271:Generated_Source\PSoC4/CapSense_Filter.c **** * \param    ptrFilterHistObj The pointer to the filter RAM object of the sensor.
1272:Generated_Source\PSoC4/CapSense_Filter.c **** * \param    ptrSensorObj     The pointer to the sensor RAM object of the sensor.
1273:Generated_Source\PSoC4/CapSense_Filter.c **** * \param    wdType           Specifies the type of a widget.
1274:Generated_Source\PSoC4/CapSense_Filter.c **** *
1275:Generated_Source\PSoC4/CapSense_Filter.c **** *******************************************************************************/
1276:Generated_Source\PSoC4/CapSense_Filter.c **** void CapSense_FtRunEnabledFiltersInternal(CapSense_PTR_FILTER_VARIANT ptrFilterHistObj, 
1277:Generated_Source\PSoC4/CapSense_Filter.c ****                                                   CapSense_RAM_SNS_STRUCT *ptrSensorObj, uint32 wdT
1278:Generated_Source\PSoC4/CapSense_Filter.c **** {
1279:Generated_Source\PSoC4/CapSense_Filter.c ****     #if (CapSense_REGULAR_RC_MEDIAN_FILTER_EN || CapSense_PROX_RC_MEDIAN_FILTER_EN)
1280:Generated_Source\PSoC4/CapSense_Filter.c ****         CapSense_RunMedianInternal(ptrFilterHistObj, ptrSensorObj, wdType);
1281:Generated_Source\PSoC4/CapSense_Filter.c ****     #endif /* (CapSense_REGULAR_RC_MEDIAN_FILTER_EN || CapSense_PROX_RC_MEDIAN_FILTER_EN) */
1282:Generated_Source\PSoC4/CapSense_Filter.c ****     
1283:Generated_Source\PSoC4/CapSense_Filter.c ****     #if (CapSense_REGULAR_RC_IIR_FILTER_EN || CapSense_PROX_RC_IIR_FILTER_EN)    
1284:Generated_Source\PSoC4/CapSense_Filter.c ****         CapSense_RunIIRInternal(ptrFilterHistObj, ptrSensorObj, wdType);
1285:Generated_Source\PSoC4/CapSense_Filter.c ****     #endif /* (CapSense_REGULAR_RC_IIR_FILTER_EN || CapSense_PROX_RC_IIR_FILTER_EN) */ 
1286:Generated_Source\PSoC4/CapSense_Filter.c **** 
1287:Generated_Source\PSoC4/CapSense_Filter.c ****     #if (CapSense_REGULAR_RC_AVERAGE_FILTER_EN || CapSense_PROX_RC_AVERAGE_FILTER_EN)
1288:Generated_Source\PSoC4/CapSense_Filter.c ****         CapSense_RunAverageInternal(ptrFilterHistObj, ptrSensorObj, wdType);
1289:Generated_Source\PSoC4/CapSense_Filter.c ****     #endif /* (CapSense_REGULAR_RC_AVERAGE_FILTER_EN || CapSense_PROX_RC_AVERAGE_FILTER_EN) */     
1290:Generated_Source\PSoC4/CapSense_Filter.c **** }
1291:Generated_Source\PSoC4/CapSense_Filter.c **** #endif /* (CapSense_REGULAR_RC_FILTER_EN || CapSense_PROX_RC_FILTER_EN) */
1292:Generated_Source\PSoC4/CapSense_Filter.c **** 
1293:Generated_Source\PSoC4/CapSense_Filter.c **** 
1294:Generated_Source\PSoC4/CapSense_Filter.c **** #if (CapSense_CSD_AUTOTUNE & CapSense_CSD_SS_TH_EN)
1295:Generated_Source\PSoC4/CapSense_Filter.c **** /*******************************************************************************
1296:Generated_Source\PSoC4/CapSense_Filter.c **** * Function Name: CapSense_RunNoiseEnvelope
1297:Generated_Source\PSoC4/CapSense_Filter.c **** ****************************************************************************//**
1298:Generated_Source\PSoC4/CapSense_Filter.c **** *
1299:Generated_Source\PSoC4/CapSense_Filter.c **** * \brief    Executes the noise envelope  filter algorithm on a sensor indicated by 
1300:Generated_Source\PSoC4/CapSense_Filter.c **** *           an input parameter to measure the pk-to-pk noise in the sensor raw count.
1301:Generated_Source\PSoC4/CapSense_Filter.c **** *
1302:Generated_Source\PSoC4/CapSense_Filter.c **** * \details  Executes the noise envelope  filter algorithm on a sensor indicated by 
1303:Generated_Source\PSoC4/CapSense_Filter.c **** *           an input parameter to measure the pk-to-pk noise in the sensor raw count.
1304:Generated_Source\PSoC4/CapSense_Filter.c **** *
1305:Generated_Source\PSoC4/CapSense_Filter.c **** * \param    widgetId Specifies the ID number of the widget.
1306:Generated_Source\PSoC4/CapSense_Filter.c **** * \param    sensorId Specifies the ID number of the sensor in the widget.
1307:Generated_Source\PSoC4/CapSense_Filter.c **** *
1308:Generated_Source\PSoC4/CapSense_Filter.c **** *******************************************************************************/
1309:Generated_Source\PSoC4/CapSense_Filter.c **** void CapSense_RunNoiseEnvelope(uint32 widgetId, uint32 sensorId)
ARM GAS  C:\Users\Jerry\AppData\Local\Temp\ccj4ahyr.s 			page 27


1310:Generated_Source\PSoC4/CapSense_Filter.c **** {
1311:Generated_Source\PSoC4/CapSense_Filter.c ****     CapSense_FLASH_WD_STRUCT const *ptrWidget = &CapSense_dsFlash.wdgtArray[widgetId];
1312:Generated_Source\PSoC4/CapSense_Filter.c ****     CapSense_RAM_WD_BASE_STRUCT *ptrWidgetRam = ptrWidget->ptr2WdgtRam;
1313:Generated_Source\PSoC4/CapSense_Filter.c ****     CapSense_RAM_SNS_STRUCT *ptrSensor = NULL;    
1314:Generated_Source\PSoC4/CapSense_Filter.c ****     SMARTSENSE_CSD_NOISE_ENVELOPE_STRUCT *ptrNoiseEnvelope = NULL;
1315:Generated_Source\PSoC4/CapSense_Filter.c **** 
1316:Generated_Source\PSoC4/CapSense_Filter.c ****     /* Find pointer to specified sensor object */
1317:Generated_Source\PSoC4/CapSense_Filter.c ****     ptrSensor = ptrWidget->ptr2SnsRam;
1318:Generated_Source\PSoC4/CapSense_Filter.c ****     ptrSensor = &ptrSensor[sensorId];
1319:Generated_Source\PSoC4/CapSense_Filter.c ****     
1320:Generated_Source\PSoC4/CapSense_Filter.c ****     /* Find pointer to specified filter sensor object */
1321:Generated_Source\PSoC4/CapSense_Filter.c ****     ptrNoiseEnvelope = ptrWidget->ptr2NoiseEnvlp;
1322:Generated_Source\PSoC4/CapSense_Filter.c ****     ptrNoiseEnvelope = &ptrNoiseEnvelope[sensorId];    
1323:Generated_Source\PSoC4/CapSense_Filter.c **** 
1324:Generated_Source\PSoC4/CapSense_Filter.c ****     SmartSense_RunNoiseEnvelope(ptrSensor->raw[0u], ptrWidgetRam->sigPFC, ptrNoiseEnvelope);
1325:Generated_Source\PSoC4/CapSense_Filter.c **** }
1326:Generated_Source\PSoC4/CapSense_Filter.c **** 
1327:Generated_Source\PSoC4/CapSense_Filter.c **** 
1328:Generated_Source\PSoC4/CapSense_Filter.c **** /*******************************************************************************
1329:Generated_Source\PSoC4/CapSense_Filter.c **** * Function Name: CapSense_InitializeNoiseEnvelope
1330:Generated_Source\PSoC4/CapSense_Filter.c **** ****************************************************************************//**
1331:Generated_Source\PSoC4/CapSense_Filter.c **** *
1332:Generated_Source\PSoC4/CapSense_Filter.c **** * \brief    Initializes the noise-envelope filter
1333:Generated_Source\PSoC4/CapSense_Filter.c **** *
1334:Generated_Source\PSoC4/CapSense_Filter.c **** * \details  Initializes the noise-envelope filter
1335:Generated_Source\PSoC4/CapSense_Filter.c **** *
1336:Generated_Source\PSoC4/CapSense_Filter.c **** * \param    widgetId Specifies the ID number of the widget.
1337:Generated_Source\PSoC4/CapSense_Filter.c **** * \param    sensorId Specifies the ID number of the sensor in the widget.
1338:Generated_Source\PSoC4/CapSense_Filter.c **** *
1339:Generated_Source\PSoC4/CapSense_Filter.c **** *******************************************************************************/
1340:Generated_Source\PSoC4/CapSense_Filter.c **** void CapSense_InitializeNoiseEnvelope(uint32 widgetId, uint32 sensorId)
1341:Generated_Source\PSoC4/CapSense_Filter.c **** {
1342:Generated_Source\PSoC4/CapSense_Filter.c ****     CapSense_FLASH_WD_STRUCT const *ptrWidget = &CapSense_dsFlash.wdgtArray[widgetId];
1343:Generated_Source\PSoC4/CapSense_Filter.c ****     CapSense_RAM_WD_BASE_STRUCT *ptrWidgetRam = ptrWidget->ptr2WdgtRam;
1344:Generated_Source\PSoC4/CapSense_Filter.c ****     CapSense_RAM_SNS_STRUCT *ptrSensor = NULL;    
1345:Generated_Source\PSoC4/CapSense_Filter.c ****     SMARTSENSE_CSD_NOISE_ENVELOPE_STRUCT *ptrNoiseEnvelope = NULL;
1346:Generated_Source\PSoC4/CapSense_Filter.c **** 
1347:Generated_Source\PSoC4/CapSense_Filter.c ****     /* Find pointer to specified sensor object */
1348:Generated_Source\PSoC4/CapSense_Filter.c ****     ptrSensor = ptrWidget->ptr2SnsRam;
1349:Generated_Source\PSoC4/CapSense_Filter.c ****     ptrSensor = &ptrSensor[sensorId];
1350:Generated_Source\PSoC4/CapSense_Filter.c ****     
1351:Generated_Source\PSoC4/CapSense_Filter.c ****     /* Find pointer to specified filter sensor object */
1352:Generated_Source\PSoC4/CapSense_Filter.c ****     ptrNoiseEnvelope = ptrWidget->ptr2NoiseEnvlp;
1353:Generated_Source\PSoC4/CapSense_Filter.c ****     ptrNoiseEnvelope = &ptrNoiseEnvelope[sensorId];    
1354:Generated_Source\PSoC4/CapSense_Filter.c **** 
1355:Generated_Source\PSoC4/CapSense_Filter.c ****     SmartSense_InitializeNoiseEnvelope(ptrSensor->raw[0u], ptrWidgetRam->sigPFC, ptrNoiseEnvelope);
1356:Generated_Source\PSoC4/CapSense_Filter.c **** }
1357:Generated_Source\PSoC4/CapSense_Filter.c **** #endif /* #if CapSense_CSD_AUTOTUNE & CapSense_CSD_SS_TH_EN */
1358:Generated_Source\PSoC4/CapSense_Filter.c **** 
1359:Generated_Source\PSoC4/CapSense_Filter.c **** 
1360:Generated_Source\PSoC4/CapSense_Filter.c **** #if (CapSense_POS_MEDIAN_FILTER_EN || CapSense_REGULAR_RC_MEDIAN_FILTER_EN || CapSense_PROX_RC_MEDI
1361:Generated_Source\PSoC4/CapSense_Filter.c **** /*******************************************************************************
1362:Generated_Source\PSoC4/CapSense_Filter.c **** * Function Name: CapSense_FtMedian
1363:Generated_Source\PSoC4/CapSense_Filter.c **** ****************************************************************************//**
1364:Generated_Source\PSoC4/CapSense_Filter.c **** *
1365:Generated_Source\PSoC4/CapSense_Filter.c **** * \brief    Return the median value from the three passed arguments.
1366:Generated_Source\PSoC4/CapSense_Filter.c **** *
ARM GAS  C:\Users\Jerry\AppData\Local\Temp\ccj4ahyr.s 			page 28


1367:Generated_Source\PSoC4/CapSense_Filter.c **** * \details  Return the median value from the three passed arguments.
1368:Generated_Source\PSoC4/CapSense_Filter.c **** *
1369:Generated_Source\PSoC4/CapSense_Filter.c **** * \param    x1 The first value to be compared.
1370:Generated_Source\PSoC4/CapSense_Filter.c **** * \param    x2 The second value to be compared.
1371:Generated_Source\PSoC4/CapSense_Filter.c **** * \param    x3 The third value to be compared.
1372:Generated_Source\PSoC4/CapSense_Filter.c **** *
1373:Generated_Source\PSoC4/CapSense_Filter.c **** * \return   Returns the median value of input arguments.
1374:Generated_Source\PSoC4/CapSense_Filter.c **** *
1375:Generated_Source\PSoC4/CapSense_Filter.c **** *******************************************************************************/
1376:Generated_Source\PSoC4/CapSense_Filter.c **** uint32 CapSense_FtMedian(uint32 x1, uint32 x2, uint32 x3)
1377:Generated_Source\PSoC4/CapSense_Filter.c **** {
1378:Generated_Source\PSoC4/CapSense_Filter.c ****     uint32 tmp;
1379:Generated_Source\PSoC4/CapSense_Filter.c **** 
1380:Generated_Source\PSoC4/CapSense_Filter.c ****     if (x1 > x2)
1381:Generated_Source\PSoC4/CapSense_Filter.c ****     {
1382:Generated_Source\PSoC4/CapSense_Filter.c ****         tmp = x2;
1383:Generated_Source\PSoC4/CapSense_Filter.c ****         x2 = x1;
1384:Generated_Source\PSoC4/CapSense_Filter.c ****         x1 = tmp;
1385:Generated_Source\PSoC4/CapSense_Filter.c ****     }
1386:Generated_Source\PSoC4/CapSense_Filter.c **** 
1387:Generated_Source\PSoC4/CapSense_Filter.c ****     if (x2 > x3)
1388:Generated_Source\PSoC4/CapSense_Filter.c ****     {
1389:Generated_Source\PSoC4/CapSense_Filter.c ****         x2 = x3;
1390:Generated_Source\PSoC4/CapSense_Filter.c ****     }
1391:Generated_Source\PSoC4/CapSense_Filter.c **** 
1392:Generated_Source\PSoC4/CapSense_Filter.c ****     return ((x1 > x2) ? x1 : x2);
1393:Generated_Source\PSoC4/CapSense_Filter.c **** }
1394:Generated_Source\PSoC4/CapSense_Filter.c **** #endif /*CapSense_POS_MEDIAN_FILTER_EN || CapSense_REGULAR_RC_MEDIAN_FILTER_EN || CapSense_PROX_RC_
1395:Generated_Source\PSoC4/CapSense_Filter.c **** 
1396:Generated_Source\PSoC4/CapSense_Filter.c **** 
1397:Generated_Source\PSoC4/CapSense_Filter.c **** /*******************************************************************************
1398:Generated_Source\PSoC4/CapSense_Filter.c **** * Function Name: CapSense_FtIIR1stOrder
1399:Generated_Source\PSoC4/CapSense_Filter.c **** ****************************************************************************//**
1400:Generated_Source\PSoC4/CapSense_Filter.c **** *
1401:Generated_Source\PSoC4/CapSense_Filter.c **** * \brief    Return the filtered data by the IIR 1-st order algorithm
1402:Generated_Source\PSoC4/CapSense_Filter.c **** *
1403:Generated_Source\PSoC4/CapSense_Filter.c **** * \details  Return the filtered data by the IIR 1-st order algorithm
1404:Generated_Source\PSoC4/CapSense_Filter.c **** *
1405:Generated_Source\PSoC4/CapSense_Filter.c **** * \param    input      The data to be filtered.
1406:Generated_Source\PSoC4/CapSense_Filter.c **** * \param    prevOutput The previous filtered data.
1407:Generated_Source\PSoC4/CapSense_Filter.c **** * \param    n          The IIR filter coefficient (n/256).
1408:Generated_Source\PSoC4/CapSense_Filter.c **** * \param    shift      The parameter is used to shift input data to have free LSB 
1409:Generated_Source\PSoC4/CapSense_Filter.c **** *                       bits for a fraction storage of the filter output calculation.
1410:Generated_Source\PSoC4/CapSense_Filter.c **** *
1411:Generated_Source\PSoC4/CapSense_Filter.c **** * \return   Returns the filtered data.
1412:Generated_Source\PSoC4/CapSense_Filter.c **** *
1413:Generated_Source\PSoC4/CapSense_Filter.c **** *******************************************************************************/
1414:Generated_Source\PSoC4/CapSense_Filter.c **** uint32 CapSense_FtIIR1stOrder(uint32 input, uint32 prevOutput, uint32 n, uint32 shift)
1415:Generated_Source\PSoC4/CapSense_Filter.c **** {   
1416:Generated_Source\PSoC4/CapSense_Filter.c ****     uint32 output;
1417:Generated_Source\PSoC4/CapSense_Filter.c ****    
1418:Generated_Source\PSoC4/CapSense_Filter.c ****     /*
1419:Generated_Source\PSoC4/CapSense_Filter.c ****     * n - IIR filter coefficient (n/256)
1420:Generated_Source\PSoC4/CapSense_Filter.c ****     * shift - Used to shift input data to have free LSB bits
1421:Generated_Source\PSoC4/CapSense_Filter.c ****     * for fraction storage of filter output calculation
1422:Generated_Source\PSoC4/CapSense_Filter.c ****     */
1423:Generated_Source\PSoC4/CapSense_Filter.c ****     output = ((n * (input << shift)) + ((CapSense_IIR_COEFFICIENT_K - n) * prevOutput)) >> 8u;
ARM GAS  C:\Users\Jerry\AppData\Local\Temp\ccj4ahyr.s 			page 29


 165              		.loc 1 1423 0
 166 0030 FF22     		mov	r2, #255
 167 0032 5443     		mul	r4, r2
 168              	.LVL22:
 169 0034 1B02     		lsl	r3, r3, #8
 170              	.LVL23:
 171 0036 E318     		add	r3, r4, r3
 172 0038 1A0A     		lsr	r2, r3, #8
 173              	.LVL24:
 174              	.LBE9:
 175              	.LBE8:
 420:Generated_Source\PSoC4/CapSense_Filter.c ****                             ptrSensor->bslnExt[channel] = LO8(history);
 176              		.loc 1 420 0
 177 003a 1B0C     		lsr	r3, r3, #16
 178 003c 4B80     		strh	r3, [r1, #2]
 179              	.LVL25:
 421:Generated_Source\PSoC4/CapSense_Filter.c ****                         #else
 180              		.loc 1 421 0
 181 003e 0A71     		strb	r2, [r1, #4]
 182 0040 15E0     		b	.L13
 183              	.LVL26:
 184              	.L12:
 377:Generated_Source\PSoC4/CapSense_Filter.c ****                 {
 185              		.loc 1 377 0
 186 0042 4079     		ldrb	r0, [r0, #5]
 187              	.LVL27:
 376:Generated_Source\PSoC4/CapSense_Filter.c ****                     ((difference < (uint32) ptrWidgetRam->nNoiseTh) && (sign == 0u)))
 188              		.loc 1 376 0
 189 0044 8542     		cmp	r5, r0
 190 0046 12D2     		bcs	.L13
 377:Generated_Source\PSoC4/CapSense_Filter.c ****                 {
 191              		.loc 1 377 0
 192 0048 002E     		cmp	r6, #0
 193 004a EBD0     		beq	.L14
 194 004c 0FE0     		b	.L13
 195              	.LVL28:
 196              	.L10:
 363:Generated_Source\PSoC4/CapSense_Filter.c ****             {                
 197              		.loc 1 363 0
 198 004e 0C7A     		ldrb	r4, [r1, #8]
 199 0050 007A     		ldrb	r0, [r0, #8]
 200              	.LVL29:
 201 0052 A042     		cmp	r0, r4
 202 0054 02D9     		bls	.L15
 369:Generated_Source\PSoC4/CapSense_Filter.c ****             }
 203              		.loc 1 369 0
 204 0056 0134     		add	r4, r4, #1
 205 0058 0C72     		strb	r4, [r1, #8]
 206 005a 08E0     		b	.L13
 207              	.L15:
 208              	.LVL30:
 209              	.LBB10:
 210              	.LBB11:
 598:Generated_Source\PSoC4/CapSense_Filter.c ****         {
 211              		.loc 1 598 0
 212 005c D2B2     		uxtb	r2, r2
 213              	.LVL31:
ARM GAS  C:\Users\Jerry\AppData\Local\Temp\ccj4ahyr.s 			page 30


 214 005e 0020     		mov	r0, #0
 215 0060 062A     		cmp	r2, #6
 216 0062 02D0     		beq	.L16
 217              	.L17:
 619:Generated_Source\PSoC4/CapSense_Filter.c ****     
 218              		.loc 1 619 0
 219 0064 4B80     		strh	r3, [r1, #2]
 626:Generated_Source\PSoC4/CapSense_Filter.c **** }
 220              		.loc 1 626 0
 221 0066 0872     		strb	r0, [r1, #8]
 222 0068 01E0     		b	.L13
 223              	.L16:
 610:Generated_Source\PSoC4/CapSense_Filter.c ****                 #endif /* (CapSense_PROX_IIR_BL_TYPE == CapSense_IIR_FILTER_PERFORMANCE) */
 224              		.loc 1 610 0
 225 006a 0871     		strb	r0, [r1, #4]
 226 006c FAE7     		b	.L17
 227              	.LVL32:
 228              	.L13:
 229              	.LBE11:
 230              	.LBE10:
 449:Generated_Source\PSoC4/CapSense_Filter.c **** 
 231              		.loc 1 449 0
 232 006e 0020     		mov	r0, #0
 233              		@ sp needed
 234              	.LVL33:
 235 0070 F0BD     		pop	{r4, r5, r6, r7, pc}
 236              		.cfi_endproc
 237              	.LFE5:
 238              		.size	CapSense_FtUpdateBaseline, .-CapSense_FtUpdateBaseline
 239              		.section	.text.CapSense_UpdateSensorBaseline,"ax",%progbits
 240              		.align	1
 241              		.global	CapSense_UpdateSensorBaseline
 242              		.code	16
 243              		.thumb_func
 244              		.type	CapSense_UpdateSensorBaseline, %function
 245              	CapSense_UpdateSensorBaseline:
 246              	.LFB4:
 267:Generated_Source\PSoC4/CapSense_Filter.c ****     uint32 result = CYRET_SUCCESS;
 247              		.loc 1 267 0
 248              		.cfi_startproc
 249              	.LVL34:
 250 0000 08B5     		push	{r3, lr}
 251              		.cfi_def_cfa_offset 8
 252              		.cfi_offset 3, -8
 253              		.cfi_offset 14, -4
 275:Generated_Source\PSoC4/CapSense_Filter.c ****     ptrSensor = &ptrSensor[sensorId];
 254              		.loc 1 275 0
 255 0002 064B     		ldr	r3, .L22
 256 0004 4001     		lsl	r0, r0, #5
 257              	.LVL35:
 258 0006 1818     		add	r0, r3, r0
 259              	.LVL36:
 276:Generated_Source\PSoC4/CapSense_Filter.c ****     result = CapSense_FtUpdateBaseline(ptrWidgetRam, ptrSensor, (uint32)ptrWidget->wdgtType);
 260              		.loc 1 276 0
 261 0008 0A23     		mov	r3, #10
 262 000a 5943     		mul	r1, r3
 263              	.LVL37:
ARM GAS  C:\Users\Jerry\AppData\Local\Temp\ccj4ahyr.s 			page 31


 264 000c 8368     		ldr	r3, [r0, #8]
 277:Generated_Source\PSoC4/CapSense_Filter.c ****     
 265              		.loc 1 277 0
 266 000e 027E     		ldrb	r2, [r0, #24]
 276:Generated_Source\PSoC4/CapSense_Filter.c ****     result = CapSense_FtUpdateBaseline(ptrWidgetRam, ptrSensor, (uint32)ptrWidget->wdgtType);
 267              		.loc 1 276 0
 268 0010 5918     		add	r1, r3, r1
 269              	.LVL38:
 277:Generated_Source\PSoC4/CapSense_Filter.c ****     
 270              		.loc 1 277 0
 271 0012 4068     		ldr	r0, [r0, #4]
 272              	.LVL39:
 273 0014 FFF7FEFF 		bl	CapSense_FtUpdateBaseline
 274              	.LVL40:
 288:Generated_Source\PSoC4/CapSense_Filter.c **** 
 275              		.loc 1 288 0
 276              		@ sp needed
 277 0018 08BD     		pop	{r3, pc}
 278              	.L23:
 279 001a C046     		.align	2
 280              	.L22:
 281 001c 00000000 		.word	CapSense_dsFlash
 282              		.cfi_endproc
 283              	.LFE4:
 284              		.size	CapSense_UpdateSensorBaseline, .-CapSense_UpdateSensorBaseline
 285              		.section	.text.CapSense_UpdateWidgetBaseline,"ax",%progbits
 286              		.align	1
 287              		.global	CapSense_UpdateWidgetBaseline
 288              		.code	16
 289              		.thumb_func
 290              		.type	CapSense_UpdateWidgetBaseline, %function
 291              	CapSense_UpdateWidgetBaseline:
 292              	.LFB3:
 210:Generated_Source\PSoC4/CapSense_Filter.c ****     uint32 sensorId;       
 293              		.loc 1 210 0
 294              		.cfi_startproc
 295              	.LVL41:
 296 0000 70B5     		push	{r4, r5, r6, lr}
 297              		.cfi_def_cfa_offset 16
 298              		.cfi_offset 4, -16
 299              		.cfi_offset 5, -12
 300              		.cfi_offset 6, -8
 301              		.cfi_offset 14, -4
 210:Generated_Source\PSoC4/CapSense_Filter.c ****     uint32 sensorId;       
 302              		.loc 1 210 0
 303 0002 051C     		mov	r5, r0
 215:Generated_Source\PSoC4/CapSense_Filter.c ****     
 304              		.loc 1 215 0
 305 0004 0024     		mov	r4, #0
 218:Generated_Source\PSoC4/CapSense_Filter.c ****     
 306              		.loc 1 218 0
 307 0006 084A     		ldr	r2, .L28
 308 0008 4301     		lsl	r3, r0, #5
 309 000a D318     		add	r3, r2, r3
 310              	.LVL42:
 311 000c DB8A     		ldrh	r3, [r3, #22]
 312              	.LVL43:
ARM GAS  C:\Users\Jerry\AppData\Local\Temp\ccj4ahyr.s 			page 32


 313              	.L25:
 220:Generated_Source\PSoC4/CapSense_Filter.c ****     {
 314              		.loc 1 220 0 discriminator 1
 315 000e 5E1E     		sub	r6, r3, #1
 316              	.LVL44:
 317 0010 002B     		cmp	r3, #0
 318 0012 06D0     		beq	.L27
 222:Generated_Source\PSoC4/CapSense_Filter.c ****     }
 319              		.loc 1 222 0
 320 0014 281C     		mov	r0, r5
 321 0016 311C     		mov	r1, r6
 322 0018 FFF7FEFF 		bl	CapSense_UpdateSensorBaseline
 323              	.LVL45:
 324 001c 331C     		mov	r3, r6
 325 001e 0443     		orr	r4, r0
 326              	.LVL46:
 327 0020 F5E7     		b	.L25
 328              	.L27:
 226:Generated_Source\PSoC4/CapSense_Filter.c **** 
 329              		.loc 1 226 0
 330 0022 201C     		mov	r0, r4
 331              		@ sp needed
 332              	.LVL47:
 333              	.LVL48:
 334              	.LVL49:
 335 0024 70BD     		pop	{r4, r5, r6, pc}
 336              	.L29:
 337 0026 C046     		.align	2
 338              	.L28:
 339 0028 00000000 		.word	CapSense_dsFlash
 340              		.cfi_endproc
 341              	.LFE3:
 342              		.size	CapSense_UpdateWidgetBaseline, .-CapSense_UpdateWidgetBaseline
 343              		.section	.text.CapSense_UpdateAllBaselines,"ax",%progbits
 344              		.align	1
 345              		.global	CapSense_UpdateAllBaselines
 346              		.code	16
 347              		.thumb_func
 348              		.type	CapSense_UpdateAllBaselines, %function
 349              	CapSense_UpdateAllBaselines:
 350              	.LFB2:
 165:Generated_Source\PSoC4/CapSense_Filter.c ****     uint32 widgetId; 
 351              		.loc 1 165 0
 352              		.cfi_startproc
 353              	.LVL50:
 354 0000 08B5     		push	{r3, lr}
 355              		.cfi_def_cfa_offset 8
 356              		.cfi_offset 3, -8
 357              		.cfi_offset 14, -4
 171:Generated_Source\PSoC4/CapSense_Filter.c ****     }      
 358              		.loc 1 171 0
 359 0002 0020     		mov	r0, #0
 360 0004 FFF7FEFF 		bl	CapSense_UpdateWidgetBaseline
 361              	.LVL51:
 175:Generated_Source\PSoC4/CapSense_Filter.c ****   
 362              		.loc 1 175 0
 363              		@ sp needed
ARM GAS  C:\Users\Jerry\AppData\Local\Temp\ccj4ahyr.s 			page 33


 364 0008 08BD     		pop	{r3, pc}
 365              		.cfi_endproc
 366              	.LFE2:
 367              		.size	CapSense_UpdateAllBaselines, .-CapSense_UpdateAllBaselines
 368              		.section	.text.CapSense_FtInitializeBaseline,"ax",%progbits
 369              		.align	1
 370              		.global	CapSense_FtInitializeBaseline
 371              		.code	16
 372              		.thumb_func
 373              		.type	CapSense_FtInitializeBaseline, %function
 374              	CapSense_FtInitializeBaseline:
 375              	.LFB9:
 569:Generated_Source\PSoC4/CapSense_Filter.c ****     uint32 channel;
 376              		.loc 1 569 0
 377              		.cfi_startproc
 378              	.LVL52:
 379              	.LBB12:
 380              	.LBB13:
 598:Generated_Source\PSoC4/CapSense_Filter.c ****         {
 381              		.loc 1 598 0
 382 0000 C9B2     		uxtb	r1, r1
 383              	.LVL53:
 384 0002 0629     		cmp	r1, #6
 385 0004 01D1     		bne	.L32
 610:Generated_Source\PSoC4/CapSense_Filter.c ****                 #endif /* (CapSense_PROX_IIR_BL_TYPE == CapSense_IIR_FILTER_PERFORMANCE) */
 386              		.loc 1 610 0
 387 0006 0023     		mov	r3, #0
 388 0008 0371     		strb	r3, [r0, #4]
 389              	.L32:
 619:Generated_Source\PSoC4/CapSense_Filter.c ****     
 390              		.loc 1 619 0
 391 000a 0388     		ldrh	r3, [r0]
 392              	.LBE13:
 393              	.LBE12:
 577:Generated_Source\PSoC4/CapSense_Filter.c **** 
 394              		.loc 1 577 0
 395              		@ sp needed
 396              	.LBB15:
 397              	.LBB14:
 619:Generated_Source\PSoC4/CapSense_Filter.c ****     
 398              		.loc 1 619 0
 399 000c 4380     		strh	r3, [r0, #2]
 626:Generated_Source\PSoC4/CapSense_Filter.c **** }
 400              		.loc 1 626 0
 401 000e 0023     		mov	r3, #0
 402 0010 0372     		strb	r3, [r0, #8]
 403              	.LVL54:
 404              	.LBE14:
 405              	.LBE15:
 577:Generated_Source\PSoC4/CapSense_Filter.c **** 
 406              		.loc 1 577 0
 407 0012 7047     		bx	lr
 408              		.cfi_endproc
 409              	.LFE9:
 410              		.size	CapSense_FtInitializeBaseline, .-CapSense_FtInitializeBaseline
 411              		.section	.text.CapSense_InitializeSensorBaseline,"ax",%progbits
 412              		.align	1
ARM GAS  C:\Users\Jerry\AppData\Local\Temp\ccj4ahyr.s 			page 34


 413              		.global	CapSense_InitializeSensorBaseline
 414              		.code	16
 415              		.thumb_func
 416              		.type	CapSense_InitializeSensorBaseline, %function
 417              	CapSense_InitializeSensorBaseline:
 418              	.LFB8:
 541:Generated_Source\PSoC4/CapSense_Filter.c ****     CapSense_RAM_SNS_STRUCT *ptrSensor = NULL;    
 419              		.loc 1 541 0
 420              		.cfi_startproc
 421              	.LVL55:
 548:Generated_Source\PSoC4/CapSense_Filter.c **** 
 422              		.loc 1 548 0
 423 0000 0A22     		mov	r2, #10
 541:Generated_Source\PSoC4/CapSense_Filter.c ****     CapSense_RAM_SNS_STRUCT *ptrSensor = NULL;    
 424              		.loc 1 541 0
 425 0002 08B5     		push	{r3, lr}
 426              		.cfi_def_cfa_offset 8
 427              		.cfi_offset 3, -8
 428              		.cfi_offset 14, -4
 547:Generated_Source\PSoC4/CapSense_Filter.c ****     ptrSensor = &ptrSensor[sensorId];
 429              		.loc 1 547 0
 430 0004 044B     		ldr	r3, .L34
 548:Generated_Source\PSoC4/CapSense_Filter.c **** 
 431              		.loc 1 548 0
 432 0006 5143     		mul	r1, r2
 433              	.LVL56:
 547:Generated_Source\PSoC4/CapSense_Filter.c ****     ptrSensor = &ptrSensor[sensorId];
 434              		.loc 1 547 0
 435 0008 4001     		lsl	r0, r0, #5
 436              	.LVL57:
 437 000a 1B18     		add	r3, r3, r0
 438              	.LVL58:
 548:Generated_Source\PSoC4/CapSense_Filter.c **** 
 439              		.loc 1 548 0
 440 000c 9A68     		ldr	r2, [r3, #8]
 551:Generated_Source\PSoC4/CapSense_Filter.c **** 
 441              		.loc 1 551 0
 442              		@ sp needed
 548:Generated_Source\PSoC4/CapSense_Filter.c **** 
 443              		.loc 1 548 0
 444 000e 5018     		add	r0, r2, r1
 550:Generated_Source\PSoC4/CapSense_Filter.c **** }
 445              		.loc 1 550 0
 446 0010 197E     		ldrb	r1, [r3, #24]
 447 0012 FFF7FEFF 		bl	CapSense_FtInitializeBaseline
 448              	.LVL59:
 551:Generated_Source\PSoC4/CapSense_Filter.c **** 
 449              		.loc 1 551 0
 450 0016 08BD     		pop	{r3, pc}
 451              	.L35:
 452              		.align	2
 453              	.L34:
 454 0018 00000000 		.word	CapSense_dsFlash
 455              		.cfi_endproc
 456              	.LFE8:
 457              		.size	CapSense_InitializeSensorBaseline, .-CapSense_InitializeSensorBaseline
 458              		.section	.text.CapSense_InitializeWidgetBaseline,"ax",%progbits
ARM GAS  C:\Users\Jerry\AppData\Local\Temp\ccj4ahyr.s 			page 35


 459              		.align	1
 460              		.global	CapSense_InitializeWidgetBaseline
 461              		.code	16
 462              		.thumb_func
 463              		.type	CapSense_InitializeWidgetBaseline, %function
 464              	CapSense_InitializeWidgetBaseline:
 465              	.LFB7:
 497:Generated_Source\PSoC4/CapSense_Filter.c ****     uint32 sensorId;
 466              		.loc 1 497 0
 467              		.cfi_startproc
 468              	.LVL60:
 469 0000 38B5     		push	{r3, r4, r5, lr}
 470              		.cfi_def_cfa_offset 16
 471              		.cfi_offset 3, -16
 472              		.cfi_offset 4, -12
 473              		.cfi_offset 5, -8
 474              		.cfi_offset 14, -4
 497:Generated_Source\PSoC4/CapSense_Filter.c ****     uint32 sensorId;
 475              		.loc 1 497 0
 476 0002 041C     		mov	r4, r0
 504:Generated_Source\PSoC4/CapSense_Filter.c ****     
 477              		.loc 1 504 0
 478 0004 064A     		ldr	r2, .L40
 479 0006 4301     		lsl	r3, r0, #5
 480 0008 D318     		add	r3, r2, r3
 481              	.LVL61:
 482 000a DB8A     		ldrh	r3, [r3, #22]
 483              	.LVL62:
 484              	.L37:
 506:Generated_Source\PSoC4/CapSense_Filter.c ****     {
 485              		.loc 1 506 0 discriminator 1
 486 000c 5D1E     		sub	r5, r3, #1
 487              	.LVL63:
 488 000e 002B     		cmp	r3, #0
 489 0010 05D0     		beq	.L39
 508:Generated_Source\PSoC4/CapSense_Filter.c ****     }
 490              		.loc 1 508 0
 491 0012 201C     		mov	r0, r4
 492 0014 291C     		mov	r1, r5
 493 0016 FFF7FEFF 		bl	CapSense_InitializeSensorBaseline
 494              	.LVL64:
 495 001a 2B1C     		mov	r3, r5
 496 001c F6E7     		b	.L37
 497              	.L39:
 510:Generated_Source\PSoC4/CapSense_Filter.c **** 
 498              		.loc 1 510 0
 499              		@ sp needed
 500              	.LVL65:
 501              	.LVL66:
 502 001e 38BD     		pop	{r3, r4, r5, pc}
 503              	.L41:
 504              		.align	2
 505              	.L40:
 506 0020 00000000 		.word	CapSense_dsFlash
 507              		.cfi_endproc
 508              	.LFE7:
 509              		.size	CapSense_InitializeWidgetBaseline, .-CapSense_InitializeWidgetBaseline
ARM GAS  C:\Users\Jerry\AppData\Local\Temp\ccj4ahyr.s 			page 36


 510              		.section	.text.CapSense_InitializeAllBaselines,"ax",%progbits
 511              		.align	1
 512              		.global	CapSense_InitializeAllBaselines
 513              		.code	16
 514              		.thumb_func
 515              		.type	CapSense_InitializeAllBaselines, %function
 516              	CapSense_InitializeAllBaselines:
 517              	.LFB6:
 466:Generated_Source\PSoC4/CapSense_Filter.c ****     uint32 widgetId;    
 518              		.loc 1 466 0
 519              		.cfi_startproc
 520              	.LVL67:
 521 0000 08B5     		push	{r3, lr}
 522              		.cfi_def_cfa_offset 8
 523              		.cfi_offset 3, -8
 524              		.cfi_offset 14, -4
 471:Generated_Source\PSoC4/CapSense_Filter.c ****     }
 525              		.loc 1 471 0
 526 0002 0020     		mov	r0, #0
 527 0004 FFF7FEFF 		bl	CapSense_InitializeWidgetBaseline
 528              	.LVL68:
 473:Generated_Source\PSoC4/CapSense_Filter.c **** 
 529              		.loc 1 473 0
 530              		@ sp needed
 531 0008 08BD     		pop	{r3, pc}
 532              		.cfi_endproc
 533              	.LFE6:
 534              		.size	CapSense_InitializeAllBaselines, .-CapSense_InitializeAllBaselines
 535              		.section	.text.CapSense_FtInitializeBaselineChannel,"ax",%progbits
 536              		.align	1
 537              		.global	CapSense_FtInitializeBaselineChannel
 538              		.code	16
 539              		.thumb_func
 540              		.type	CapSense_FtInitializeBaselineChannel, %function
 541              	CapSense_FtInitializeBaselineChannel:
 542              	.LFB10:
 596:Generated_Source\PSoC4/CapSense_Filter.c ****     #if (CapSense_BASELINE_TYPE == CapSense_IIR_BASELINE)  
 543              		.loc 1 596 0
 544              		.cfi_startproc
 545              	.LVL69:
 598:Generated_Source\PSoC4/CapSense_Filter.c ****         {
 546              		.loc 1 598 0
 547 0000 C9B2     		uxtb	r1, r1
 548              	.LVL70:
 549 0002 8318     		add	r3, r0, r2
 550 0004 0629     		cmp	r1, #6
 551 0006 01D1     		bne	.L44
 610:Generated_Source\PSoC4/CapSense_Filter.c ****                 #endif /* (CapSense_PROX_IIR_BL_TYPE == CapSense_IIR_FILTER_PERFORMANCE) */
 552              		.loc 1 610 0
 553 0008 0021     		mov	r1, #0
 554 000a 1971     		strb	r1, [r3, #4]
 555              	.L44:
 556 000c 5200     		lsl	r2, r2, #1
 557              	.LVL71:
 558 000e 8218     		add	r2, r0, r2
 619:Generated_Source\PSoC4/CapSense_Filter.c ****     
 559              		.loc 1 619 0
ARM GAS  C:\Users\Jerry\AppData\Local\Temp\ccj4ahyr.s 			page 37


 560 0010 1188     		ldrh	r1, [r2]
 627:Generated_Source\PSoC4/CapSense_Filter.c **** 
 561              		.loc 1 627 0
 562              		@ sp needed
 619:Generated_Source\PSoC4/CapSense_Filter.c ****     
 563              		.loc 1 619 0
 564 0012 5180     		strh	r1, [r2, #2]
 626:Generated_Source\PSoC4/CapSense_Filter.c **** }
 565              		.loc 1 626 0
 566 0014 0022     		mov	r2, #0
 567 0016 1A72     		strb	r2, [r3, #8]
 627:Generated_Source\PSoC4/CapSense_Filter.c **** 
 568              		.loc 1 627 0
 569 0018 7047     		bx	lr
 570              		.cfi_endproc
 571              	.LFE10:
 572              		.size	CapSense_FtInitializeBaselineChannel, .-CapSense_FtInitializeBaselineChannel
 573              		.section	.text.CapSense_RunNoiseEnvelope,"ax",%progbits
 574              		.align	1
 575              		.global	CapSense_RunNoiseEnvelope
 576              		.code	16
 577              		.thumb_func
 578              		.type	CapSense_RunNoiseEnvelope, %function
 579              	CapSense_RunNoiseEnvelope:
 580              	.LFB11:
1310:Generated_Source\PSoC4/CapSense_Filter.c ****     CapSense_FLASH_WD_STRUCT const *ptrWidget = &CapSense_dsFlash.wdgtArray[widgetId];
 581              		.loc 1 1310 0
 582              		.cfi_startproc
 583              	.LVL72:
1317:Generated_Source\PSoC4/CapSense_Filter.c ****     ptrSensor = &ptrSensor[sensorId];
 584              		.loc 1 1317 0
 585 0000 084B     		ldr	r3, .L46
 586 0002 4001     		lsl	r0, r0, #5
 587              	.LVL73:
 588 0004 1B18     		add	r3, r3, r0
 589              	.LVL74:
1324:Generated_Source\PSoC4/CapSense_Filter.c **** }
 590              		.loc 1 1324 0
 591 0006 0A20     		mov	r0, #10
1310:Generated_Source\PSoC4/CapSense_Filter.c ****     CapSense_FLASH_WD_STRUCT const *ptrWidget = &CapSense_dsFlash.wdgtArray[widgetId];
 592              		.loc 1 1310 0
 593 0008 10B5     		push	{r4, lr}
 594              		.cfi_def_cfa_offset 8
 595              		.cfi_offset 4, -8
 596              		.cfi_offset 14, -4
1324:Generated_Source\PSoC4/CapSense_Filter.c **** }
 597              		.loc 1 1324 0
 598 000a 4843     		mul	r0, r1
1321:Generated_Source\PSoC4/CapSense_Filter.c ****     ptrNoiseEnvelope = &ptrNoiseEnvelope[sensorId];    
 599              		.loc 1 1321 0
 600 000c DC69     		ldr	r4, [r3, #28]
 601              	.LVL75:
1310:Generated_Source\PSoC4/CapSense_Filter.c ****     CapSense_FLASH_WD_STRUCT const *ptrWidget = &CapSense_dsFlash.wdgtArray[widgetId];
 602              		.loc 1 1310 0
 603 000e 0A1C     		mov	r2, r1
1324:Generated_Source\PSoC4/CapSense_Filter.c **** }
 604              		.loc 1 1324 0
ARM GAS  C:\Users\Jerry\AppData\Local\Temp\ccj4ahyr.s 			page 38


 605 0010 9968     		ldr	r1, [r3, #8]
 606              	.LVL76:
 607 0012 5B68     		ldr	r3, [r3, #4]
 608              	.LVL77:
 609 0014 405A     		ldrh	r0, [r0, r1]
 610 0016 198A     		ldrh	r1, [r3, #16]
 611              	.LVL78:
1322:Generated_Source\PSoC4/CapSense_Filter.c **** 
 612              		.loc 1 1322 0
 613 0018 0C23     		mov	r3, #12
 614 001a 5A43     		mul	r2, r3
 615              	.LVL79:
 616 001c A218     		add	r2, r4, r2
 617              	.LVL80:
1324:Generated_Source\PSoC4/CapSense_Filter.c **** }
 618              		.loc 1 1324 0
 619 001e FFF7FEFF 		bl	SmartSense_RunNoiseEnvelope
 620              	.LVL81:
1325:Generated_Source\PSoC4/CapSense_Filter.c **** 
 621              		.loc 1 1325 0
 622              		@ sp needed
 623              	.LVL82:
 624 0022 10BD     		pop	{r4, pc}
 625              	.L47:
 626              		.align	2
 627              	.L46:
 628 0024 00000000 		.word	CapSense_dsFlash
 629              		.cfi_endproc
 630              	.LFE11:
 631              		.size	CapSense_RunNoiseEnvelope, .-CapSense_RunNoiseEnvelope
 632              		.section	.text.CapSense_InitializeNoiseEnvelope,"ax",%progbits
 633              		.align	1
 634              		.global	CapSense_InitializeNoiseEnvelope
 635              		.code	16
 636              		.thumb_func
 637              		.type	CapSense_InitializeNoiseEnvelope, %function
 638              	CapSense_InitializeNoiseEnvelope:
 639              	.LFB12:
1341:Generated_Source\PSoC4/CapSense_Filter.c ****     CapSense_FLASH_WD_STRUCT const *ptrWidget = &CapSense_dsFlash.wdgtArray[widgetId];
 640              		.loc 1 1341 0
 641              		.cfi_startproc
 642              	.LVL83:
1348:Generated_Source\PSoC4/CapSense_Filter.c ****     ptrSensor = &ptrSensor[sensorId];
 643              		.loc 1 1348 0
 644 0000 084B     		ldr	r3, .L49
 645 0002 4001     		lsl	r0, r0, #5
 646              	.LVL84:
 647 0004 1B18     		add	r3, r3, r0
 648              	.LVL85:
1355:Generated_Source\PSoC4/CapSense_Filter.c **** }
 649              		.loc 1 1355 0
 650 0006 0A20     		mov	r0, #10
1341:Generated_Source\PSoC4/CapSense_Filter.c ****     CapSense_FLASH_WD_STRUCT const *ptrWidget = &CapSense_dsFlash.wdgtArray[widgetId];
 651              		.loc 1 1341 0
 652 0008 10B5     		push	{r4, lr}
 653              		.cfi_def_cfa_offset 8
 654              		.cfi_offset 4, -8
ARM GAS  C:\Users\Jerry\AppData\Local\Temp\ccj4ahyr.s 			page 39


 655              		.cfi_offset 14, -4
1355:Generated_Source\PSoC4/CapSense_Filter.c **** }
 656              		.loc 1 1355 0
 657 000a 4843     		mul	r0, r1
1352:Generated_Source\PSoC4/CapSense_Filter.c ****     ptrNoiseEnvelope = &ptrNoiseEnvelope[sensorId];    
 658              		.loc 1 1352 0
 659 000c DC69     		ldr	r4, [r3, #28]
 660              	.LVL86:
1341:Generated_Source\PSoC4/CapSense_Filter.c ****     CapSense_FLASH_WD_STRUCT const *ptrWidget = &CapSense_dsFlash.wdgtArray[widgetId];
 661              		.loc 1 1341 0
 662 000e 0A1C     		mov	r2, r1
1355:Generated_Source\PSoC4/CapSense_Filter.c **** }
 663              		.loc 1 1355 0
 664 0010 9968     		ldr	r1, [r3, #8]
 665              	.LVL87:
 666 0012 5B68     		ldr	r3, [r3, #4]
 667              	.LVL88:
 668 0014 405A     		ldrh	r0, [r0, r1]
 669 0016 198A     		ldrh	r1, [r3, #16]
 670              	.LVL89:
1353:Generated_Source\PSoC4/CapSense_Filter.c **** 
 671              		.loc 1 1353 0
 672 0018 0C23     		mov	r3, #12
 673 001a 5A43     		mul	r2, r3
 674              	.LVL90:
 675 001c A218     		add	r2, r4, r2
 676              	.LVL91:
1355:Generated_Source\PSoC4/CapSense_Filter.c **** }
 677              		.loc 1 1355 0
 678 001e FFF7FEFF 		bl	SmartSense_InitializeNoiseEnvelope
 679              	.LVL92:
1356:Generated_Source\PSoC4/CapSense_Filter.c **** #endif /* #if CapSense_CSD_AUTOTUNE & CapSense_CSD_SS_TH_EN */
 680              		.loc 1 1356 0
 681              		@ sp needed
 682              	.LVL93:
 683 0022 10BD     		pop	{r4, pc}
 684              	.L50:
 685              		.align	2
 686              	.L49:
 687 0024 00000000 		.word	CapSense_dsFlash
 688              		.cfi_endproc
 689              	.LFE12:
 690              		.size	CapSense_InitializeNoiseEnvelope, .-CapSense_InitializeNoiseEnvelope
 691              		.section	.text.CapSense_FtIIR1stOrder,"ax",%progbits
 692              		.align	1
 693              		.global	CapSense_FtIIR1stOrder
 694              		.code	16
 695              		.thumb_func
 696              		.type	CapSense_FtIIR1stOrder, %function
 697              	CapSense_FtIIR1stOrder:
 698              	.LFB13:
1415:Generated_Source\PSoC4/CapSense_Filter.c ****     uint32 output;
 699              		.loc 1 1415 0
 700              		.cfi_startproc
 701              	.LVL94:
 702              		.loc 1 1423 0
 703 0000 9840     		lsl	r0, r0, r3
ARM GAS  C:\Users\Jerry\AppData\Local\Temp\ccj4ahyr.s 			page 40


 704              	.LVL95:
 705 0002 031C     		mov	r3, r0
 706              	.LVL96:
 707 0004 8020     		mov	r0, #128
 708 0006 4000     		lsl	r0, r0, #1
 709 0008 801A     		sub	r0, r0, r2
 710 000a 5343     		mul	r3, r2
 711 000c 4143     		mul	r1, r0
 712              	.LVL97:
 713 000e 5818     		add	r0, r3, r1
 714 0010 000A     		lsr	r0, r0, #8
1424:Generated_Source\PSoC4/CapSense_Filter.c ****     
1425:Generated_Source\PSoC4/CapSense_Filter.c ****     /* Shift operation of output will be done in upper level API if needed */
1426:Generated_Source\PSoC4/CapSense_Filter.c ****     return output;
1427:Generated_Source\PSoC4/CapSense_Filter.c **** }
 715              		.loc 1 1427 0
 716              		@ sp needed
 717 0012 7047     		bx	lr
 718              		.cfi_endproc
 719              	.LFE13:
 720              		.size	CapSense_FtIIR1stOrder, .-CapSense_FtIIR1stOrder
 721              		.text
 722              	.Letext0:
 723              		.file 2 "Generated_Source\\PSoC4\\cytypes.h"
 724              		.file 3 "Generated_Source\\PSoC4\\CapSense_Configuration.h"
 725              		.file 4 "Generated_Source\\PSoC4\\CapSense_SmartSense_LL.h"
 726              		.file 5 "Generated_Source\\PSoC4\\CapSense_Structure.h"