ARM GAS  C:\Users\Jerry\AppData\Local\Temp\ccKYXNFX.s 			page 1


   1              		.cpu cortex-m0plus
   2              		.fpu softvfp
   3              		.eabi_attribute 20, 1
   4              		.eabi_attribute 21, 1
   5              		.eabi_attribute 23, 3
   6              		.eabi_attribute 24, 1
   7              		.eabi_attribute 25, 1
   8              		.eabi_attribute 26, 1
   9              		.eabi_attribute 30, 4
  10              		.eabi_attribute 34, 0
  11              		.eabi_attribute 18, 4
  12              		.code	16
  13              		.file	"CapSense_Structure.c"
  14              		.text
  15              	.Ltext0:
  16              		.cfi_sections	.debug_frame
  17              		.section	.text.DsParseParamId,"ax",%progbits
  18              		.align	1
  19              		.code	16
  20              		.thumb_func
  21              		.type	DsParseParamId, %function
  22              	DsParseParamId:
  23              	.LFB2:
  24              		.file 1 "Generated_Source\\PSoC4\\CapSense_Structure.c"
   1:Generated_Source\PSoC4/CapSense_Structure.c **** /***************************************************************************//**
   2:Generated_Source\PSoC4/CapSense_Structure.c **** * \file CapSense_Structure.c
   3:Generated_Source\PSoC4/CapSense_Structure.c **** * \version 3.10
   4:Generated_Source\PSoC4/CapSense_Structure.c **** *
   5:Generated_Source\PSoC4/CapSense_Structure.c **** * \brief
   6:Generated_Source\PSoC4/CapSense_Structure.c **** *   This file defines the data structure global variables and provides implementation
   7:Generated_Source\PSoC4/CapSense_Structure.c **** *   for the high-level and low-level APIs of the Data Structure module.
   8:Generated_Source\PSoC4/CapSense_Structure.c **** *
   9:Generated_Source\PSoC4/CapSense_Structure.c **** * \see CapSense P4 v3.10 Datasheet
  10:Generated_Source\PSoC4/CapSense_Structure.c **** *
  11:Generated_Source\PSoC4/CapSense_Structure.c **** *//*****************************************************************************
  12:Generated_Source\PSoC4/CapSense_Structure.c **** * Copyright (2016), Cypress Semiconductor Corporation.
  13:Generated_Source\PSoC4/CapSense_Structure.c **** ********************************************************************************
  14:Generated_Source\PSoC4/CapSense_Structure.c **** * This software is owned by Cypress Semiconductor Corporation (Cypress) and is
  15:Generated_Source\PSoC4/CapSense_Structure.c **** * protected by and subject to worldwide patent protection (United States and
  16:Generated_Source\PSoC4/CapSense_Structure.c **** * foreign), United States copyright laws and international treaty provisions.
  17:Generated_Source\PSoC4/CapSense_Structure.c **** * Cypress hereby grants to licensee a personal, non-exclusive, non-transferable
  18:Generated_Source\PSoC4/CapSense_Structure.c **** * license to copy, use, modify, create derivative works of, and compile the
  19:Generated_Source\PSoC4/CapSense_Structure.c **** * Cypress Source Code and derivative works for the sole purpose of creating
  20:Generated_Source\PSoC4/CapSense_Structure.c **** * custom software in support of licensee product to be used only in conjunction
  21:Generated_Source\PSoC4/CapSense_Structure.c **** * with a Cypress integrated circuit as specified in the applicable agreement.
  22:Generated_Source\PSoC4/CapSense_Structure.c **** * Any reproduction, modification, translation, compilation, or representation of
  23:Generated_Source\PSoC4/CapSense_Structure.c **** * this software except as specified above is prohibited without the express
  24:Generated_Source\PSoC4/CapSense_Structure.c **** * written permission of Cypress.
  25:Generated_Source\PSoC4/CapSense_Structure.c **** *
  26:Generated_Source\PSoC4/CapSense_Structure.c **** * Disclaimer: CYPRESS MAKES NO WARRANTY OF ANY KIND, EXPRESS OR IMPLIED, WITH
  27:Generated_Source\PSoC4/CapSense_Structure.c **** * REGARD TO THIS MATERIAL, INCLUDING, BUT NOT LIMITED TO, THE IMPLIED
  28:Generated_Source\PSoC4/CapSense_Structure.c **** * WARRANTIES OF MERCHANTABILITY AND FITNESS FOR A PARTICULAR PURPOSE.
  29:Generated_Source\PSoC4/CapSense_Structure.c **** * Cypress reserves the right to make changes without further notice to the
  30:Generated_Source\PSoC4/CapSense_Structure.c **** * materials described herein. Cypress does not assume any liability arising out
  31:Generated_Source\PSoC4/CapSense_Structure.c **** * of the application or use of any product or circuit described herein. Cypress
  32:Generated_Source\PSoC4/CapSense_Structure.c **** * does not authorize its products for use as critical components in life-support
  33:Generated_Source\PSoC4/CapSense_Structure.c **** * systems where a malfunction or failure may reasonably be expected to result in
ARM GAS  C:\Users\Jerry\AppData\Local\Temp\ccKYXNFX.s 			page 2


  34:Generated_Source\PSoC4/CapSense_Structure.c **** * significant injury to the user. The inclusion of Cypress' product in a life-
  35:Generated_Source\PSoC4/CapSense_Structure.c **** * support systems application implies that the manufacturer assumes all risk of
  36:Generated_Source\PSoC4/CapSense_Structure.c **** * such use and in doing so indemnifies Cypress against all charges. Use may be
  37:Generated_Source\PSoC4/CapSense_Structure.c **** * limited by and subject to the applicable Cypress software license agreement.
  38:Generated_Source\PSoC4/CapSense_Structure.c **** *******************************************************************************/
  39:Generated_Source\PSoC4/CapSense_Structure.c **** 
  40:Generated_Source\PSoC4/CapSense_Structure.c **** #include <cytypes.h>
  41:Generated_Source\PSoC4/CapSense_Structure.c **** #include "CyLib.h"
  42:Generated_Source\PSoC4/CapSense_Structure.c **** #include "CapSense_Structure.h"
  43:Generated_Source\PSoC4/CapSense_Structure.c **** #include "CapSense_Configuration.h"
  44:Generated_Source\PSoC4/CapSense_Structure.c **** 
  45:Generated_Source\PSoC4/CapSense_Structure.c **** #if (0u != CapSense_ADC_EN)
  46:Generated_Source\PSoC4/CapSense_Structure.c ****     #include "CapSense_Adc.h"
  47:Generated_Source\PSoC4/CapSense_Structure.c **** #endif /* (0u != CapSense_ADC_EN) */
  48:Generated_Source\PSoC4/CapSense_Structure.c **** 
  49:Generated_Source\PSoC4/CapSense_Structure.c **** #if (CapSense_ENABLE == CapSense_SELF_TEST_EN)
  50:Generated_Source\PSoC4/CapSense_Structure.c ****     #include "CapSense_SelfTest.h"
  51:Generated_Source\PSoC4/CapSense_Structure.c **** #endif
  52:Generated_Source\PSoC4/CapSense_Structure.c **** 
  53:Generated_Source\PSoC4/CapSense_Structure.c **** /*******************************************************************************
  54:Generated_Source\PSoC4/CapSense_Structure.c **** * Define the RAM Data Structure variables and their init data in flash
  55:Generated_Source\PSoC4/CapSense_Structure.c **** *******************************************************************************/
  56:Generated_Source\PSoC4/CapSense_Structure.c **** /**
  57:Generated_Source\PSoC4/CapSense_Structure.c **** * \if SECTION_GLOBAL_VARIABLES
  58:Generated_Source\PSoC4/CapSense_Structure.c **** * \addtogroup group_global_variables
  59:Generated_Source\PSoC4/CapSense_Structure.c **** * \{
  60:Generated_Source\PSoC4/CapSense_Structure.c **** */
  61:Generated_Source\PSoC4/CapSense_Structure.c **** 
  62:Generated_Source\PSoC4/CapSense_Structure.c **** /**
  63:Generated_Source\PSoC4/CapSense_Structure.c **** * Variable that contains CapSense configuration, settings and scanning results.
  64:Generated_Source\PSoC4/CapSense_Structure.c **** * CapSense_dsRam represents RAM Data Structure.
  65:Generated_Source\PSoC4/CapSense_Structure.c **** */
  66:Generated_Source\PSoC4/CapSense_Structure.c **** CapSense_RAM_STRUCT CapSense_dsRam;
  67:Generated_Source\PSoC4/CapSense_Structure.c **** /** \}
  68:Generated_Source\PSoC4/CapSense_Structure.c **** * \endif */
  69:Generated_Source\PSoC4/CapSense_Structure.c **** 
  70:Generated_Source\PSoC4/CapSense_Structure.c **** /*******************************************************************************
  71:Generated_Source\PSoC4/CapSense_Structure.c **** * Declare Widget's De-bounce Counters
  72:Generated_Source\PSoC4/CapSense_Structure.c **** *******************************************************************************/
  73:Generated_Source\PSoC4/CapSense_Structure.c **** static uint8 CapSense_debounceProximity0[CapSense_PROXIMITY0_NUM_SENSORS * 2u];
  74:Generated_Source\PSoC4/CapSense_Structure.c **** 
  75:Generated_Source\PSoC4/CapSense_Structure.c **** 
  76:Generated_Source\PSoC4/CapSense_Structure.c **** /***************************************************************************//**
  77:Generated_Source\PSoC4/CapSense_Structure.c **** * Declare Noise Envelope data structures
  78:Generated_Source\PSoC4/CapSense_Structure.c **** *******************************************************************************/
  79:Generated_Source\PSoC4/CapSense_Structure.c **** static SMARTSENSE_CSD_NOISE_ENVELOPE_STRUCT CapSense_noiseEnvlpProximity0[CapSense_PROXIMITY0_NUM_S
  80:Generated_Source\PSoC4/CapSense_Structure.c **** 
  81:Generated_Source\PSoC4/CapSense_Structure.c **** /*******************************************************************************
  82:Generated_Source\PSoC4/CapSense_Structure.c **** * Define and initialize the Flash Data Structure
  83:Generated_Source\PSoC4/CapSense_Structure.c **** *******************************************************************************/
  84:Generated_Source\PSoC4/CapSense_Structure.c **** 
  85:Generated_Source\PSoC4/CapSense_Structure.c **** /**
  86:Generated_Source\PSoC4/CapSense_Structure.c **** * \if SECTION_API_CONSTANTS
  87:Generated_Source\PSoC4/CapSense_Structure.c **** * \addtogroup group_api_constants
  88:Generated_Source\PSoC4/CapSense_Structure.c **** * \{
  89:Generated_Source\PSoC4/CapSense_Structure.c **** */
  90:Generated_Source\PSoC4/CapSense_Structure.c **** 
ARM GAS  C:\Users\Jerry\AppData\Local\Temp\ccKYXNFX.s 			page 3


  91:Generated_Source\PSoC4/CapSense_Structure.c **** /**
  92:Generated_Source\PSoC4/CapSense_Structure.c **** * Constant for the FLASH Data Structure
  93:Generated_Source\PSoC4/CapSense_Structure.c **** */
  94:Generated_Source\PSoC4/CapSense_Structure.c **** const CapSense_FLASH_STRUCT CapSense_dsFlash =
  95:Generated_Source\PSoC4/CapSense_Structure.c **** {
  96:Generated_Source\PSoC4/CapSense_Structure.c ****     /* Flash Widget Initialization Data */
  97:Generated_Source\PSoC4/CapSense_Structure.c ****     {
  98:Generated_Source\PSoC4/CapSense_Structure.c ****         { /* Proximity0 */
  99:Generated_Source\PSoC4/CapSense_Structure.c ****             &CapSense_ioList[0u],
 100:Generated_Source\PSoC4/CapSense_Structure.c ****             (void *)&CapSense_dsRam.wdgtList.proximity0,
 101:Generated_Source\PSoC4/CapSense_Structure.c ****             CapSense_dsRam.snsList.proximity0,
 102:Generated_Source\PSoC4/CapSense_Structure.c ****             (void *)0u,
 103:Generated_Source\PSoC4/CapSense_Structure.c ****             CapSense_debounceProximity0,
 104:Generated_Source\PSoC4/CapSense_Structure.c ****             CapSense_PROXIMITY0_STATIC_CONFIG,
 105:Generated_Source\PSoC4/CapSense_Structure.c ****             CapSense_PROXIMITY0_NUM_SENSORS,
 106:Generated_Source\PSoC4/CapSense_Structure.c ****             (uint8)CapSense_WD_PROXIMITY_E,
 107:Generated_Source\PSoC4/CapSense_Structure.c ****             CapSense_PROXIMITY0_NUM_SENSORS,
 108:Generated_Source\PSoC4/CapSense_Structure.c ****             CapSense_noiseEnvlpProximity0,
 109:Generated_Source\PSoC4/CapSense_Structure.c ****         },
 110:Generated_Source\PSoC4/CapSense_Structure.c ****     },
 111:Generated_Source\PSoC4/CapSense_Structure.c **** };
 112:Generated_Source\PSoC4/CapSense_Structure.c **** 
 113:Generated_Source\PSoC4/CapSense_Structure.c **** 
 114:Generated_Source\PSoC4/CapSense_Structure.c **** /**
 115:Generated_Source\PSoC4/CapSense_Structure.c **** * Array of pointers to the electrode specific register
 116:Generated_Source\PSoC4/CapSense_Structure.c **** */
 117:Generated_Source\PSoC4/CapSense_Structure.c **** const CapSense_FLASH_IO_STRUCT CapSense_ioList[CapSense_TOTAL_ELECTRODES] =
 118:Generated_Source\PSoC4/CapSense_Structure.c **** {
 119:Generated_Source\PSoC4/CapSense_Structure.c ****     { /* 0: Proximity0_Sns0 */
 120:Generated_Source\PSoC4/CapSense_Structure.c ****         (reg32 *)CapSense_Sns__0__HSIOM,
 121:Generated_Source\PSoC4/CapSense_Structure.c ****         (reg32 *)CapSense_Sns__0__PC,
 122:Generated_Source\PSoC4/CapSense_Structure.c ****         (reg32 *)CapSense_Sns__0__DR,
 123:Generated_Source\PSoC4/CapSense_Structure.c ****         (reg32 *)CapSense_Sns__0__PS,
 124:Generated_Source\PSoC4/CapSense_Structure.c ****         CapSense_Sns__0__HSIOM_MASK,
 125:Generated_Source\PSoC4/CapSense_Structure.c ****         CapSense_Sns__0__MASK,
 126:Generated_Source\PSoC4/CapSense_Structure.c ****         CapSense_Sns__0__HSIOM_SHIFT,
 127:Generated_Source\PSoC4/CapSense_Structure.c ****         (uint8)CapSense_Sns__0__SHIFT,
 128:Generated_Source\PSoC4/CapSense_Structure.c ****         (uint8)CapSense_Sns__0__SHIFT * 3u,
 129:Generated_Source\PSoC4/CapSense_Structure.c ****     },
 130:Generated_Source\PSoC4/CapSense_Structure.c **** };
 131:Generated_Source\PSoC4/CapSense_Structure.c **** 
 132:Generated_Source\PSoC4/CapSense_Structure.c **** 
 133:Generated_Source\PSoC4/CapSense_Structure.c **** 
 134:Generated_Source\PSoC4/CapSense_Structure.c **** /** \}
 135:Generated_Source\PSoC4/CapSense_Structure.c **** * \endif */
 136:Generated_Source\PSoC4/CapSense_Structure.c **** 
 137:Generated_Source\PSoC4/CapSense_Structure.c **** /* Initialization data for RAM widget list */
 138:Generated_Source\PSoC4/CapSense_Structure.c **** static const CapSense_RAM_WD_LIST_STRUCT CapSense_ramWidgetInit =
 139:Generated_Source\PSoC4/CapSense_Structure.c **** {
 140:Generated_Source\PSoC4/CapSense_Structure.c ****     { /* Proximity0 */
 141:Generated_Source\PSoC4/CapSense_Structure.c ****         CapSense_PROXIMITY0_RESOLUTION,
 142:Generated_Source\PSoC4/CapSense_Structure.c ****         CapSense_PROXIMITY0_FINGER_TH,
 143:Generated_Source\PSoC4/CapSense_Structure.c ****         CapSense_PROXIMITY0_NOISE_TH,
 144:Generated_Source\PSoC4/CapSense_Structure.c ****         CapSense_PROXIMITY0_NNOISE_TH,
 145:Generated_Source\PSoC4/CapSense_Structure.c ****         CapSense_PROXIMITY0_HYSTERESIS,
 146:Generated_Source\PSoC4/CapSense_Structure.c ****         CapSense_PROXIMITY0_ON_DEBOUNCE,
 147:Generated_Source\PSoC4/CapSense_Structure.c ****         CapSense_PROXIMITY0_LOW_BSLN_RST,
ARM GAS  C:\Users\Jerry\AppData\Local\Temp\ccKYXNFX.s 			page 4


 148:Generated_Source\PSoC4/CapSense_Structure.c ****         CapSense_PROXIMITY0_BSLN_COEFF,
 149:Generated_Source\PSoC4/CapSense_Structure.c ****         {
 150:Generated_Source\PSoC4/CapSense_Structure.c ****             CapSense_PROXIMITY0_IDAC_MOD0,
 151:Generated_Source\PSoC4/CapSense_Structure.c ****         },
 152:Generated_Source\PSoC4/CapSense_Structure.c ****         CapSense_PROXIMITY0_SNS_CLK,
 153:Generated_Source\PSoC4/CapSense_Structure.c ****         CapSense_PROXIMITY0_SNS_CLK_SOURCE,
 154:Generated_Source\PSoC4/CapSense_Structure.c ****         CapSense_PROXIMITY0_FINGER_CAP,
 155:Generated_Source\PSoC4/CapSense_Structure.c ****         CapSense_PROXIMITY0_SIGPFC,
 156:Generated_Source\PSoC4/CapSense_Structure.c ****         CapSense_PROXIMITY0_PROX_TOUCH_TH,
 157:Generated_Source\PSoC4/CapSense_Structure.c ****     },
 158:Generated_Source\PSoC4/CapSense_Structure.c **** };
 159:Generated_Source\PSoC4/CapSense_Structure.c **** 
 160:Generated_Source\PSoC4/CapSense_Structure.c **** 
 161:Generated_Source\PSoC4/CapSense_Structure.c **** /* IDAC Initialization Data */
 162:Generated_Source\PSoC4/CapSense_Structure.c **** static const uint8 CapSense_ramIdacInit[CapSense_TOTAL_SENSORS] =
 163:Generated_Source\PSoC4/CapSense_Structure.c **** {
 164:Generated_Source\PSoC4/CapSense_Structure.c ****     /* Proximity0 */
 165:Generated_Source\PSoC4/CapSense_Structure.c ****     CapSense_PROXIMITY0_SNS0_IDAC_COMP0,
 166:Generated_Source\PSoC4/CapSense_Structure.c **** };
 167:Generated_Source\PSoC4/CapSense_Structure.c **** 
 168:Generated_Source\PSoC4/CapSense_Structure.c **** 
 169:Generated_Source\PSoC4/CapSense_Structure.c **** /*******************************************************************************
 170:Generated_Source\PSoC4/CapSense_Structure.c **** * Define internal data types and statements
 171:Generated_Source\PSoC4/CapSense_Structure.c **** *******************************************************************************/
 172:Generated_Source\PSoC4/CapSense_Structure.c **** #define PARAM_TYPE_OFFSET       (30u)
 173:Generated_Source\PSoC4/CapSense_Structure.c **** #define PARAM_TYPE_MASK         (3Lu << PARAM_TYPE_OFFSET)
 174:Generated_Source\PSoC4/CapSense_Structure.c **** #define PARAM_RWBIT_OFFSET      (29u)
 175:Generated_Source\PSoC4/CapSense_Structure.c **** #define PARAM_RWBIT_MASK        (1Lu << PARAM_RWBIT_OFFSET)
 176:Generated_Source\PSoC4/CapSense_Structure.c **** #define PARAM_FBIT_OFFSET       (28u)
 177:Generated_Source\PSoC4/CapSense_Structure.c **** #define PARAM_FBIT_MASK         (1Lu << PARAM_FBIT_OFFSET)
 178:Generated_Source\PSoC4/CapSense_Structure.c **** #define PARAM_UBIT_OFFSET       (23u)
 179:Generated_Source\PSoC4/CapSense_Structure.c **** #define PARAM_UBIT_MASK         (1Lu << PARAM_UBIT_OFFSET)
 180:Generated_Source\PSoC4/CapSense_Structure.c **** #define PARAM_WDID_OFFSET       (16u)
 181:Generated_Source\PSoC4/CapSense_Structure.c **** #define PARAM_WDID_MASK         (0x7FLu << PARAM_WDID_OFFSET)
 182:Generated_Source\PSoC4/CapSense_Structure.c **** #define PARAM_CRC_OFFSET        (24u)
 183:Generated_Source\PSoC4/CapSense_Structure.c **** #define PARAM_CRC_MASK          (0x0FLu << PARAM_CRC_OFFSET)
 184:Generated_Source\PSoC4/CapSense_Structure.c **** 
 185:Generated_Source\PSoC4/CapSense_Structure.c **** /* Define align masks for uint16 and uint32 */
 186:Generated_Source\PSoC4/CapSense_Structure.c **** #define UINT16_ALIGN_MASK       (1Lu)
 187:Generated_Source\PSoC4/CapSense_Structure.c **** #define UINT32_ALIGN_MASK       (3Lu)
 188:Generated_Source\PSoC4/CapSense_Structure.c **** 
 189:Generated_Source\PSoC4/CapSense_Structure.c **** /* Define supported parameter types */
 190:Generated_Source\PSoC4/CapSense_Structure.c **** #define DS_PARAM_TYPE_UINT8     (0x01u)
 191:Generated_Source\PSoC4/CapSense_Structure.c **** #define DS_PARAM_TYPE_UINT16    (0x02u)
 192:Generated_Source\PSoC4/CapSense_Structure.c **** #define DS_PARAM_TYPE_UINT32    (0x03u)
 193:Generated_Source\PSoC4/CapSense_Structure.c **** 
 194:Generated_Source\PSoC4/CapSense_Structure.c **** 
 195:Generated_Source\PSoC4/CapSense_Structure.c **** /* Define PARAM_ID structure */
 196:Generated_Source\PSoC4/CapSense_Structure.c **** typedef struct
 197:Generated_Source\PSoC4/CapSense_Structure.c **** {
 198:Generated_Source\PSoC4/CapSense_Structure.c ****     uint16 offset;      /* parameter offset                     */
 199:Generated_Source\PSoC4/CapSense_Structure.c ****     uint8  widgetId;    /* widget Id parameter belongs to       */
 200:Generated_Source\PSoC4/CapSense_Structure.c ****     uint8  affectsCrc;  /* parameter affects widget CRC         */
 201:Generated_Source\PSoC4/CapSense_Structure.c ****     uint8  crc;         /* parameter CRC                        */
 202:Generated_Source\PSoC4/CapSense_Structure.c ****     uint8  flash;       /* parameter located in FLASH flag      */
 203:Generated_Source\PSoC4/CapSense_Structure.c ****     uint8  rw;          /* parameter is read/write flag         */
 204:Generated_Source\PSoC4/CapSense_Structure.c ****     uint8  type;        /* parameter type: uint8/uint16/uint32  */
ARM GAS  C:\Users\Jerry\AppData\Local\Temp\ccKYXNFX.s 			page 5


 205:Generated_Source\PSoC4/CapSense_Structure.c **** } PARAM_ID_STRUCT;
 206:Generated_Source\PSoC4/CapSense_Structure.c **** 
 207:Generated_Source\PSoC4/CapSense_Structure.c **** 
 208:Generated_Source\PSoC4/CapSense_Structure.c **** /*******************************************************************************
 209:Generated_Source\PSoC4/CapSense_Structure.c **** * Static Function Prototypes
 210:Generated_Source\PSoC4/CapSense_Structure.c **** *******************************************************************************/
 211:Generated_Source\PSoC4/CapSense_Structure.c **** /**
 212:Generated_Source\PSoC4/CapSense_Structure.c **** * \if SECTION_CAPSENSE_INTERNAL
 213:Generated_Source\PSoC4/CapSense_Structure.c **** * \addtogroup group_capsense_internal
 214:Generated_Source\PSoC4/CapSense_Structure.c **** * \{
 215:Generated_Source\PSoC4/CapSense_Structure.c **** */
 216:Generated_Source\PSoC4/CapSense_Structure.c **** 
 217:Generated_Source\PSoC4/CapSense_Structure.c **** static cystatus DsParseParamId(uint32 paramId, PARAM_ID_STRUCT *pData);
 218:Generated_Source\PSoC4/CapSense_Structure.c **** 
 219:Generated_Source\PSoC4/CapSense_Structure.c **** /** \}
 220:Generated_Source\PSoC4/CapSense_Structure.c **** * \endif */
 221:Generated_Source\PSoC4/CapSense_Structure.c **** 
 222:Generated_Source\PSoC4/CapSense_Structure.c **** 
 223:Generated_Source\PSoC4/CapSense_Structure.c **** /*******************************************************************************
 224:Generated_Source\PSoC4/CapSense_Structure.c **** * Function Name: CapSense_DsInitialize
 225:Generated_Source\PSoC4/CapSense_Structure.c **** ****************************************************************************//**
 226:Generated_Source\PSoC4/CapSense_Structure.c **** *
 227:Generated_Source\PSoC4/CapSense_Structure.c **** * \brief
 228:Generated_Source\PSoC4/CapSense_Structure.c **** *   This function initializes the Data Structure storage.
 229:Generated_Source\PSoC4/CapSense_Structure.c **** *
 230:Generated_Source\PSoC4/CapSense_Structure.c **** * \details
 231:Generated_Source\PSoC4/CapSense_Structure.c **** *   This function copies the default widget configuration parameters 
 232:Generated_Source\PSoC4/CapSense_Structure.c **** *   from the Flash storage into the RAM Data Structure.
 233:Generated_Source\PSoC4/CapSense_Structure.c **** *
 234:Generated_Source\PSoC4/CapSense_Structure.c **** *******************************************************************************/
 235:Generated_Source\PSoC4/CapSense_Structure.c **** void CapSense_DsInitialize(void)
 236:Generated_Source\PSoC4/CapSense_Structure.c **** {
 237:Generated_Source\PSoC4/CapSense_Structure.c ****     #if (0u != CapSense_CSX_EN) || (0 != CapSense_CSD_IDAC_COMP_EN)
 238:Generated_Source\PSoC4/CapSense_Structure.c ****         uint32 snsId;
 239:Generated_Source\PSoC4/CapSense_Structure.c ****         uint32 wdgtId;
 240:Generated_Source\PSoC4/CapSense_Structure.c ****     
 241:Generated_Source\PSoC4/CapSense_Structure.c ****         CapSense_RAM_SNS_STRUCT * ptrSns;
 242:Generated_Source\PSoC4/CapSense_Structure.c ****         CapSense_FLASH_WD_STRUCT const * ptrFlashWdgt;
 243:Generated_Source\PSoC4/CapSense_Structure.c ****         uint8 const * ptrIdacInit = CapSense_ramIdacInit;
 244:Generated_Source\PSoC4/CapSense_Structure.c ****     #endif        
 245:Generated_Source\PSoC4/CapSense_Structure.c ****     
 246:Generated_Source\PSoC4/CapSense_Structure.c ****     /* Reset RAM data structure content */
 247:Generated_Source\PSoC4/CapSense_Structure.c ****     (void)memset(&CapSense_dsRam, 0, sizeof(CapSense_dsRam));
 248:Generated_Source\PSoC4/CapSense_Structure.c ****     
 249:Generated_Source\PSoC4/CapSense_Structure.c ****     /* Initialize configId and deviceId registers */
 250:Generated_Source\PSoC4/CapSense_Structure.c ****     CapSense_dsRam.configId = CapSense_CONFIG_ID;
 251:Generated_Source\PSoC4/CapSense_Structure.c ****     CapSense_dsRam.deviceId = CapSense_DEVICE_ID;
 252:Generated_Source\PSoC4/CapSense_Structure.c ****     
 253:Generated_Source\PSoC4/CapSense_Structure.c ****     /* Initialize global RAM data */
 254:Generated_Source\PSoC4/CapSense_Structure.c ****     CapSense_dsRam.csd0Config = CapSense_CSD0_CONFIG;
 255:Generated_Source\PSoC4/CapSense_Structure.c **** 
 256:Generated_Source\PSoC4/CapSense_Structure.c ****     #if ((0u != CapSense_CSD2X_EN) || (0u != CapSense_CSX2X_EN))
 257:Generated_Source\PSoC4/CapSense_Structure.c ****         CapSense_dsRam.csd1Config = CapSense_CSD1_CONFIG;
 258:Generated_Source\PSoC4/CapSense_Structure.c ****     #endif /* #if ((0u != CapSense_CSD2X_EN) || (0u != CapSense_CSX2X_EN)) */
 259:Generated_Source\PSoC4/CapSense_Structure.c ****     
 260:Generated_Source\PSoC4/CapSense_Structure.c ****     #if (0u != CapSense_TOTAL_CSD_WIDGETS)
 261:Generated_Source\PSoC4/CapSense_Structure.c ****         CapSense_dsRam.modCsdClk = CapSense_CSD_SCANSPEED_DIVIDER;
ARM GAS  C:\Users\Jerry\AppData\Local\Temp\ccKYXNFX.s 			page 6


 262:Generated_Source\PSoC4/CapSense_Structure.c ****         
 263:Generated_Source\PSoC4/CapSense_Structure.c ****         #if (0u != CapSense_CSD_COMMON_SNS_CLK_EN)
 264:Generated_Source\PSoC4/CapSense_Structure.c ****             CapSense_dsRam.snsCsdClk = CapSense_CSD_SNS_CLK_DIVIDER;
 265:Generated_Source\PSoC4/CapSense_Structure.c ****         #endif /* #if (0u != CapSense_CSD_COMMON_SNS_CLK_EN) */
 266:Generated_Source\PSoC4/CapSense_Structure.c ****     #endif /* #if (0u != CapSense_TOTAL_CSD_WIDGETS) */
 267:Generated_Source\PSoC4/CapSense_Structure.c ****     
 268:Generated_Source\PSoC4/CapSense_Structure.c ****     #if (0u != CapSense_CSX_EN)
 269:Generated_Source\PSoC4/CapSense_Structure.c ****         CapSense_dsRam.modCsxClk = CapSense_CSX_SCANSPEED_DIVIDER;
 270:Generated_Source\PSoC4/CapSense_Structure.c ****         
 271:Generated_Source\PSoC4/CapSense_Structure.c ****         #if (0u != CapSense_CSX_COMMON_TX_CLK_EN)
 272:Generated_Source\PSoC4/CapSense_Structure.c ****             CapSense_dsRam.snsCsxClk = CapSense_CSX_TX_CLK_DIVIDER;
 273:Generated_Source\PSoC4/CapSense_Structure.c ****         #endif /* #if (0u != CapSense_CSX_COMMON_TX_CLK_EN) */
 274:Generated_Source\PSoC4/CapSense_Structure.c ****     #endif /* #if (0u != CapSense_CSX_EN) */
 275:Generated_Source\PSoC4/CapSense_Structure.c ****     
 276:Generated_Source\PSoC4/CapSense_Structure.c ****     #if (0u != CapSense_SELF_TEST_EN)
 277:Generated_Source\PSoC4/CapSense_Structure.c ****         CapSense_dsRam.glbCrc = CapSense_GLB_CRC;
 278:Generated_Source\PSoC4/CapSense_Structure.c ****     #endif /* #if (0u != CapSense_SELF_TEST_EN) */
 279:Generated_Source\PSoC4/CapSense_Structure.c ****    
 280:Generated_Source\PSoC4/CapSense_Structure.c ****     /* Initialize RAM widget data */
 281:Generated_Source\PSoC4/CapSense_Structure.c ****     CapSense_dsRam.wdgtList = CapSense_ramWidgetInit;
 282:Generated_Source\PSoC4/CapSense_Structure.c ****     
 283:Generated_Source\PSoC4/CapSense_Structure.c ****     #if (0u != CapSense_CSX_EN) || (0 != CapSense_CSD_IDAC_COMP_EN)
 284:Generated_Source\PSoC4/CapSense_Structure.c ****         /* Initialize IDAC data */
 285:Generated_Source\PSoC4/CapSense_Structure.c ****         ptrFlashWdgt = CapSense_dsFlash.wdgtArray;
 286:Generated_Source\PSoC4/CapSense_Structure.c ****         
 287:Generated_Source\PSoC4/CapSense_Structure.c ****         for (wdgtId = CapSense_TOTAL_WIDGETS; wdgtId-- > 0u; )
 288:Generated_Source\PSoC4/CapSense_Structure.c ****         {
 289:Generated_Source\PSoC4/CapSense_Structure.c ****             ptrSns = ptrFlashWdgt->ptr2SnsRam;
 290:Generated_Source\PSoC4/CapSense_Structure.c ****                 
 291:Generated_Source\PSoC4/CapSense_Structure.c ****             for (snsId = CapSense_GET_SNS_CNT_BY_PTR(ptrFlashWdgt); snsId-- > 0u;)
 292:Generated_Source\PSoC4/CapSense_Structure.c ****             {
 293:Generated_Source\PSoC4/CapSense_Structure.c ****                 ptrSns->idacComp[0u] = *ptrIdacInit;
 294:Generated_Source\PSoC4/CapSense_Structure.c ****                 ptrIdacInit++;
 295:Generated_Source\PSoC4/CapSense_Structure.c ****                 
 296:Generated_Source\PSoC4/CapSense_Structure.c ****                 #if (0u != CapSense_MULTI_FREQ_SCAN_EN)
 297:Generated_Source\PSoC4/CapSense_Structure.c ****                     ptrSns->idacComp[1u] = *ptrIdacInit;
 298:Generated_Source\PSoC4/CapSense_Structure.c ****                     ptrIdacInit++;
 299:Generated_Source\PSoC4/CapSense_Structure.c ****                     
 300:Generated_Source\PSoC4/CapSense_Structure.c ****                     ptrSns->idacComp[2u] = *ptrIdacInit;
 301:Generated_Source\PSoC4/CapSense_Structure.c ****                     ptrIdacInit++;
 302:Generated_Source\PSoC4/CapSense_Structure.c ****                 #endif /* #if (0u != CapSense_MULTI_FREQ_SCAN_EN) */
 303:Generated_Source\PSoC4/CapSense_Structure.c ****                 
 304:Generated_Source\PSoC4/CapSense_Structure.c ****                 ptrSns++;
 305:Generated_Source\PSoC4/CapSense_Structure.c ****             }
 306:Generated_Source\PSoC4/CapSense_Structure.c ****             
 307:Generated_Source\PSoC4/CapSense_Structure.c ****             ptrFlashWdgt++; /* Move to next widget */
 308:Generated_Source\PSoC4/CapSense_Structure.c ****         }
 309:Generated_Source\PSoC4/CapSense_Structure.c ****     #endif /*(0u != CapSense_CSX_EN) || (0 != CapSense_CSD_IDAC_COMP_EN)*/
 310:Generated_Source\PSoC4/CapSense_Structure.c ****     
 311:Generated_Source\PSoC4/CapSense_Structure.c ****     #if (0u != CapSense_ADC_EN)
 312:Generated_Source\PSoC4/CapSense_Structure.c ****         CapSense_AdcDsInitialize();
 313:Generated_Source\PSoC4/CapSense_Structure.c ****     #endif /* (0u != CapSense_ADC_EN) */
 314:Generated_Source\PSoC4/CapSense_Structure.c **** }
 315:Generated_Source\PSoC4/CapSense_Structure.c **** 
 316:Generated_Source\PSoC4/CapSense_Structure.c **** 
 317:Generated_Source\PSoC4/CapSense_Structure.c **** #if (0u != CapSense_ADC_EN)
 318:Generated_Source\PSoC4/CapSense_Structure.c ****     /*******************************************************************************
ARM GAS  C:\Users\Jerry\AppData\Local\Temp\ccKYXNFX.s 			page 7


 319:Generated_Source\PSoC4/CapSense_Structure.c ****     * Function Name: CapSense_AdcDsInitialize
 320:Generated_Source\PSoC4/CapSense_Structure.c ****     ****************************************************************************//**
 321:Generated_Source\PSoC4/CapSense_Structure.c ****     *
 322:Generated_Source\PSoC4/CapSense_Structure.c ****     * \brief
 323:Generated_Source\PSoC4/CapSense_Structure.c ****     *   Configures the initial Adc datastructure members.
 324:Generated_Source\PSoC4/CapSense_Structure.c ****     *
 325:Generated_Source\PSoC4/CapSense_Structure.c ****     *******************************************************************************/
 326:Generated_Source\PSoC4/CapSense_Structure.c ****     void CapSense_AdcDsInitialize(void)
 327:Generated_Source\PSoC4/CapSense_Structure.c ****     {
 328:Generated_Source\PSoC4/CapSense_Structure.c ****         CapSense_dsRam.adcResolution = CapSense_ADC_RESOLUTION;
 329:Generated_Source\PSoC4/CapSense_Structure.c ****         CapSense_dsRam.adcIdac = (uint8)(CapSense_ADC_IDACVAL);
 330:Generated_Source\PSoC4/CapSense_Structure.c ****     }
 331:Generated_Source\PSoC4/CapSense_Structure.c **** #endif /* (0u != CapSense_ADC_EN) */
 332:Generated_Source\PSoC4/CapSense_Structure.c **** 
 333:Generated_Source\PSoC4/CapSense_Structure.c **** 
 334:Generated_Source\PSoC4/CapSense_Structure.c **** /*******************************************************************************
 335:Generated_Source\PSoC4/CapSense_Structure.c **** * Function Name: DsParseParamId
 336:Generated_Source\PSoC4/CapSense_Structure.c **** ****************************************************************************//**
 337:Generated_Source\PSoC4/CapSense_Structure.c **** *
 338:Generated_Source\PSoC4/CapSense_Structure.c **** * \brief
 339:Generated_Source\PSoC4/CapSense_Structure.c **** *   This function parses the parameter ID and checks its correctness.
 340:Generated_Source\PSoC4/CapSense_Structure.c **** *
 341:Generated_Source\PSoC4/CapSense_Structure.c **** * \details
 342:Generated_Source\PSoC4/CapSense_Structure.c **** *   This function checks the parameter CRC if the self-test is enabled, 
 343:Generated_Source\PSoC4/CapSense_Structure.c **** *   validates the offset value and parameter type.
 344:Generated_Source\PSoC4/CapSense_Structure.c **** *
 345:Generated_Source\PSoC4/CapSense_Structure.c **** * \param paramId The parameter to parse.
 346:Generated_Source\PSoC4/CapSense_Structure.c **** * \param pData   The pointer to the structure that will hold parsed data.
 347:Generated_Source\PSoC4/CapSense_Structure.c **** *
 348:Generated_Source\PSoC4/CapSense_Structure.c **** * \return CYRET_SUCCESS     If the parameter is valid
 349:Generated_Source\PSoC4/CapSense_Structure.c **** *         CYRET_BAD_PARAM   If  the parameter is invalid
 350:Generated_Source\PSoC4/CapSense_Structure.c **** *
 351:Generated_Source\PSoC4/CapSense_Structure.c **** *******************************************************************************/
 352:Generated_Source\PSoC4/CapSense_Structure.c **** static cystatus DsParseParamId(uint32 paramId, PARAM_ID_STRUCT *pData)
 353:Generated_Source\PSoC4/CapSense_Structure.c **** {
  25              		.loc 1 353 0
  26              		.cfi_startproc
  27              	.LVL0:
  28 0000 031C     		mov	r3, r0
 354:Generated_Source\PSoC4/CapSense_Structure.c ****     cystatus result = CYRET_SUCCESS;
 355:Generated_Source\PSoC4/CapSense_Structure.c ****     
 356:Generated_Source\PSoC4/CapSense_Structure.c ****     #if (0u != CapSense_SELF_TEST_EN)
 357:Generated_Source\PSoC4/CapSense_Structure.c ****         const uint8 crcTable[] =
 358:Generated_Source\PSoC4/CapSense_Structure.c ****         {
 359:Generated_Source\PSoC4/CapSense_Structure.c ****             0x00u, 0x09u, 0x0Bu, 0x02u, 0x0Fu, 0x06u, 0x04u, 0x0Du,
 360:Generated_Source\PSoC4/CapSense_Structure.c ****             0x07u, 0x0Eu, 0x0Cu, 0x05u, 0x08u, 0x01u, 0x03u, 0x0Au
 361:Generated_Source\PSoC4/CapSense_Structure.c ****         };
 362:Generated_Source\PSoC4/CapSense_Structure.c ****         
 363:Generated_Source\PSoC4/CapSense_Structure.c ****         uint32 i;
 364:Generated_Source\PSoC4/CapSense_Structure.c ****         uint32 actualCrc = 0u;
 365:Generated_Source\PSoC4/CapSense_Structure.c ****         uint32 crcIndex;
 366:Generated_Source\PSoC4/CapSense_Structure.c ****     #endif /* #if (0u != CapSense_SELF_TEST_EN) */
 367:Generated_Source\PSoC4/CapSense_Structure.c ****             
 368:Generated_Source\PSoC4/CapSense_Structure.c ****     /* Extract parameter data */
 369:Generated_Source\PSoC4/CapSense_Structure.c ****     pData->offset     = LO16(paramId);
  29              		.loc 1 369 0
  30 0002 82B2     		uxth	r2, r0
ARM GAS  C:\Users\Jerry\AppData\Local\Temp\ccKYXNFX.s 			page 8


 370:Generated_Source\PSoC4/CapSense_Structure.c ****     pData->affectsCrc = LO8((paramId & PARAM_UBIT_MASK)  >> PARAM_UBIT_OFFSET);
  31              		.loc 1 370 0
  32 0004 0002     		lsl	r0, r0, #8
  33              	.LVL1:
  34 0006 C00F     		lsr	r0, r0, #31
  35 0008 C870     		strb	r0, [r1, #3]
 371:Generated_Source\PSoC4/CapSense_Structure.c ****     pData->widgetId   = LO8((paramId & PARAM_WDID_MASK)  >> PARAM_WDID_OFFSET);
  36              		.loc 1 371 0
  37 000a 5802     		lsl	r0, r3, #9
  38 000c 400E     		lsr	r0, r0, #25
 353:Generated_Source\PSoC4/CapSense_Structure.c ****     cystatus result = CYRET_SUCCESS;
  39              		.loc 1 353 0
  40 000e 30B5     		push	{r4, r5, lr}
  41              		.cfi_def_cfa_offset 12
  42              		.cfi_offset 4, -12
  43              		.cfi_offset 5, -8
  44              		.cfi_offset 14, -4
  45              		.loc 1 371 0
  46 0010 8870     		strb	r0, [r1, #2]
 372:Generated_Source\PSoC4/CapSense_Structure.c ****     pData->type       = LO8((paramId & PARAM_TYPE_MASK)  >> PARAM_TYPE_OFFSET);
  47              		.loc 1 372 0
  48 0012 9C0F     		lsr	r4, r3, #30
 373:Generated_Source\PSoC4/CapSense_Structure.c ****     pData->flash      = LO8((paramId & PARAM_FBIT_MASK)  >> PARAM_FBIT_OFFSET);
  49              		.loc 1 373 0
  50 0014 D800     		lsl	r0, r3, #3
 374:Generated_Source\PSoC4/CapSense_Structure.c ****     pData->rw         = LO8((paramId & PARAM_RWBIT_MASK) >> PARAM_RWBIT_OFFSET);
  51              		.loc 1 374 0
  52 0016 9D00     		lsl	r5, r3, #2
 375:Generated_Source\PSoC4/CapSense_Structure.c ****     pData->crc        = LO8((paramId & PARAM_CRC_MASK)   >> PARAM_CRC_OFFSET);
  53              		.loc 1 375 0
  54 0018 1B01     		lsl	r3, r3, #4
  55              	.LVL2:
 373:Generated_Source\PSoC4/CapSense_Structure.c ****     pData->flash      = LO8((paramId & PARAM_FBIT_MASK)  >> PARAM_FBIT_OFFSET);
  56              		.loc 1 373 0
  57 001a C00F     		lsr	r0, r0, #31
 374:Generated_Source\PSoC4/CapSense_Structure.c ****     pData->rw         = LO8((paramId & PARAM_RWBIT_MASK) >> PARAM_RWBIT_OFFSET);
  58              		.loc 1 374 0
  59 001c ED0F     		lsr	r5, r5, #31
  60              		.loc 1 375 0
  61 001e 1B0F     		lsr	r3, r3, #28
 369:Generated_Source\PSoC4/CapSense_Structure.c ****     pData->affectsCrc = LO8((paramId & PARAM_UBIT_MASK)  >> PARAM_UBIT_OFFSET);
  62              		.loc 1 369 0
  63 0020 0A80     		strh	r2, [r1]
 372:Generated_Source\PSoC4/CapSense_Structure.c ****     pData->flash      = LO8((paramId & PARAM_FBIT_MASK)  >> PARAM_FBIT_OFFSET);
  64              		.loc 1 372 0
  65 0022 CC71     		strb	r4, [r1, #7]
 373:Generated_Source\PSoC4/CapSense_Structure.c ****     pData->rw         = LO8((paramId & PARAM_RWBIT_MASK) >> PARAM_RWBIT_OFFSET);
  66              		.loc 1 373 0
  67 0024 4871     		strb	r0, [r1, #5]
 374:Generated_Source\PSoC4/CapSense_Structure.c ****     pData->crc        = LO8((paramId & PARAM_CRC_MASK)   >> PARAM_CRC_OFFSET);
  68              		.loc 1 374 0
  69 0026 8D71     		strb	r5, [r1, #6]
  70              		.loc 1 375 0
  71 0028 0B71     		strb	r3, [r1, #4]
 376:Generated_Source\PSoC4/CapSense_Structure.c ****     
 377:Generated_Source\PSoC4/CapSense_Structure.c ****     /* Check parameter CRC if self-test is enabled */
 378:Generated_Source\PSoC4/CapSense_Structure.c ****     #if (0u != CapSense_SELF_TEST_EN)
ARM GAS  C:\Users\Jerry\AppData\Local\Temp\ccKYXNFX.s 			page 9


 379:Generated_Source\PSoC4/CapSense_Structure.c ****  
 380:Generated_Source\PSoC4/CapSense_Structure.c ****         /* Calculate CRC for bits 0..24.
 381:Generated_Source\PSoC4/CapSense_Structure.c ****          * The CRC is calculated using nibbles (4-bits). 
 382:Generated_Source\PSoC4/CapSense_Structure.c ****          * So for 0..24 bits there are in total 6 nibbles. */
 383:Generated_Source\PSoC4/CapSense_Structure.c ****         for (i = 6u; i > 0u; i--)
 384:Generated_Source\PSoC4/CapSense_Structure.c ****         {
 385:Generated_Source\PSoC4/CapSense_Structure.c ****             crcIndex = actualCrc ^ (paramId & 0x0Fu);
 386:Generated_Source\PSoC4/CapSense_Structure.c ****             actualCrc = crcTable[crcIndex];
 387:Generated_Source\PSoC4/CapSense_Structure.c ****             paramId >>= 4u;
 388:Generated_Source\PSoC4/CapSense_Structure.c ****         }
 389:Generated_Source\PSoC4/CapSense_Structure.c **** 
 390:Generated_Source\PSoC4/CapSense_Structure.c ****         /* Add bits 28..32 */
 391:Generated_Source\PSoC4/CapSense_Structure.c ****         crcIndex = actualCrc ^ ((paramId >> 4u) & 0x0Fu);
 392:Generated_Source\PSoC4/CapSense_Structure.c ****         actualCrc = crcTable[crcIndex];
 393:Generated_Source\PSoC4/CapSense_Structure.c **** 
 394:Generated_Source\PSoC4/CapSense_Structure.c ****         /* Add bits 24..28 (CRC) */
 395:Generated_Source\PSoC4/CapSense_Structure.c ****         crcIndex = actualCrc ^ (paramId & 0x0Fu);
 396:Generated_Source\PSoC4/CapSense_Structure.c ****         actualCrc = crcTable[crcIndex];
 397:Generated_Source\PSoC4/CapSense_Structure.c ****         
 398:Generated_Source\PSoC4/CapSense_Structure.c ****         if (0u != actualCrc)
 399:Generated_Source\PSoC4/CapSense_Structure.c ****         {
 400:Generated_Source\PSoC4/CapSense_Structure.c ****             /* CRC mismatch */
 401:Generated_Source\PSoC4/CapSense_Structure.c ****             result = CYRET_BAD_PARAM;
 402:Generated_Source\PSoC4/CapSense_Structure.c ****         }
 403:Generated_Source\PSoC4/CapSense_Structure.c ****         
 404:Generated_Source\PSoC4/CapSense_Structure.c ****         if ((CYRET_SUCCESS == result) && 
 405:Generated_Source\PSoC4/CapSense_Structure.c ****             (0u != pData->affectsCrc) && (pData->widgetId >= CapSense_TOTAL_WIDGETS ))
 406:Generated_Source\PSoC4/CapSense_Structure.c ****         {
 407:Generated_Source\PSoC4/CapSense_Structure.c ****             /* Wrong widgetId for protected parameter */
 408:Generated_Source\PSoC4/CapSense_Structure.c ****             result = CYRET_BAD_PARAM;
 409:Generated_Source\PSoC4/CapSense_Structure.c ****         }
 410:Generated_Source\PSoC4/CapSense_Structure.c ****         
 411:Generated_Source\PSoC4/CapSense_Structure.c ****         /* Check offset value range */
 412:Generated_Source\PSoC4/CapSense_Structure.c ****         if (CYRET_SUCCESS == result)
 413:Generated_Source\PSoC4/CapSense_Structure.c ****         {
 414:Generated_Source\PSoC4/CapSense_Structure.c ****             if (0u == pData->flash)
 415:Generated_Source\PSoC4/CapSense_Structure.c ****             {
 416:Generated_Source\PSoC4/CapSense_Structure.c ****                 /* Check offset for RAM Data Structure range */
 417:Generated_Source\PSoC4/CapSense_Structure.c ****                 if (pData->offset >= sizeof(CapSense_dsRam))
 418:Generated_Source\PSoC4/CapSense_Structure.c ****                 {
 419:Generated_Source\PSoC4/CapSense_Structure.c ****                     result = CYRET_BAD_PARAM;
 420:Generated_Source\PSoC4/CapSense_Structure.c ****                 }
 421:Generated_Source\PSoC4/CapSense_Structure.c ****             }
 422:Generated_Source\PSoC4/CapSense_Structure.c ****             else
 423:Generated_Source\PSoC4/CapSense_Structure.c ****             {
 424:Generated_Source\PSoC4/CapSense_Structure.c ****                 /* Check offset for Flash Data Structure range */
 425:Generated_Source\PSoC4/CapSense_Structure.c ****                 if (pData->offset >= sizeof(CapSense_dsFlash))
 426:Generated_Source\PSoC4/CapSense_Structure.c ****                 {
 427:Generated_Source\PSoC4/CapSense_Structure.c ****                     result = CYRET_BAD_PARAM;
 428:Generated_Source\PSoC4/CapSense_Structure.c ****                 }
 429:Generated_Source\PSoC4/CapSense_Structure.c ****                 
 430:Generated_Source\PSoC4/CapSense_Structure.c ****                 /* Check if it is marked as Read Only */
 431:Generated_Source\PSoC4/CapSense_Structure.c ****                 if (0u != pData->rw)
 432:Generated_Source\PSoC4/CapSense_Structure.c ****                 {
 433:Generated_Source\PSoC4/CapSense_Structure.c ****                     result = CYRET_BAD_PARAM;
 434:Generated_Source\PSoC4/CapSense_Structure.c ****                 }
 435:Generated_Source\PSoC4/CapSense_Structure.c ****             }
ARM GAS  C:\Users\Jerry\AppData\Local\Temp\ccKYXNFX.s 			page 10


 436:Generated_Source\PSoC4/CapSense_Structure.c ****         }
 437:Generated_Source\PSoC4/CapSense_Structure.c ****     #else /* #if (0u != CapSense_SELF_TEST_EN) */
 438:Generated_Source\PSoC4/CapSense_Structure.c ****         /* Check offset value range */
 439:Generated_Source\PSoC4/CapSense_Structure.c ****         if (0u == pData->flash)
  72              		.loc 1 439 0
  73 002a 0028     		cmp	r0, #0
  74 002c 03D1     		bne	.L2
  75 002e 0130     		add	r0, r0, #1
 440:Generated_Source\PSoC4/CapSense_Structure.c ****         {
 441:Generated_Source\PSoC4/CapSense_Structure.c ****             /* Check offset for RAM Data Structure range */
 442:Generated_Source\PSoC4/CapSense_Structure.c ****             if (pData->offset >= sizeof(CapSense_dsRam))
  76              		.loc 1 442 0
  77 0030 3F2A     		cmp	r2, #63
  78 0032 13D8     		bhi	.L13
  79 0034 04E0     		b	.L4
  80              	.L2:
  81 0036 0120     		mov	r0, #1
 443:Generated_Source\PSoC4/CapSense_Structure.c ****             {
 444:Generated_Source\PSoC4/CapSense_Structure.c ****                 result = CYRET_BAD_PARAM;
 445:Generated_Source\PSoC4/CapSense_Structure.c ****             }
 446:Generated_Source\PSoC4/CapSense_Structure.c ****         }
 447:Generated_Source\PSoC4/CapSense_Structure.c ****         else
 448:Generated_Source\PSoC4/CapSense_Structure.c ****         {
 449:Generated_Source\PSoC4/CapSense_Structure.c ****             /* Check offset for Flash Data Structure range */
 450:Generated_Source\PSoC4/CapSense_Structure.c ****             if (pData->offset >= sizeof(CapSense_dsFlash))
  82              		.loc 1 450 0
  83 0038 1F2A     		cmp	r2, #31
  84 003a 0FD8     		bhi	.L13
 451:Generated_Source\PSoC4/CapSense_Structure.c ****             {
 452:Generated_Source\PSoC4/CapSense_Structure.c ****                 result = CYRET_BAD_PARAM;
 453:Generated_Source\PSoC4/CapSense_Structure.c ****             }
 454:Generated_Source\PSoC4/CapSense_Structure.c ****             
 455:Generated_Source\PSoC4/CapSense_Structure.c ****             /* Check if it is marked as Read Only */
 456:Generated_Source\PSoC4/CapSense_Structure.c ****             if (0u != pData->rw)
  85              		.loc 1 456 0
  86 003c 002D     		cmp	r5, #0
  87 003e 0DD1     		bne	.L13
  88              	.L4:
  89              	.LVL3:
 457:Generated_Source\PSoC4/CapSense_Structure.c ****             {
 458:Generated_Source\PSoC4/CapSense_Structure.c ****                 result = CYRET_BAD_PARAM;
 459:Generated_Source\PSoC4/CapSense_Structure.c ****             }
 460:Generated_Source\PSoC4/CapSense_Structure.c ****         }
 461:Generated_Source\PSoC4/CapSense_Structure.c ****     #endif /* #if (0u != CapSense_SELF_TEST_EN) */
 462:Generated_Source\PSoC4/CapSense_Structure.c **** 
 463:Generated_Source\PSoC4/CapSense_Structure.c ****     if (CYRET_SUCCESS == result)
 464:Generated_Source\PSoC4/CapSense_Structure.c ****     {
 465:Generated_Source\PSoC4/CapSense_Structure.c ****         /* Check parameter type, offset alignment */
 466:Generated_Source\PSoC4/CapSense_Structure.c ****         switch (pData->type)
  90              		.loc 1 466 0
  91 0040 022C     		cmp	r4, #2
  92 0042 05D0     		beq	.L7
 467:Generated_Source\PSoC4/CapSense_Structure.c ****         {
 468:Generated_Source\PSoC4/CapSense_Structure.c ****         case DS_PARAM_TYPE_UINT16:
 469:Generated_Source\PSoC4/CapSense_Structure.c ****             if (0u != (pData->offset & UINT16_ALIGN_MASK))
 470:Generated_Source\PSoC4/CapSense_Structure.c ****             {
 471:Generated_Source\PSoC4/CapSense_Structure.c ****                 result = CYRET_BAD_PARAM;
ARM GAS  C:\Users\Jerry\AppData\Local\Temp\ccKYXNFX.s 			page 11


 472:Generated_Source\PSoC4/CapSense_Structure.c ****             }
 473:Generated_Source\PSoC4/CapSense_Structure.c ****             break;
 474:Generated_Source\PSoC4/CapSense_Structure.c ****             
 475:Generated_Source\PSoC4/CapSense_Structure.c ****         case DS_PARAM_TYPE_UINT32:
 476:Generated_Source\PSoC4/CapSense_Structure.c ****             if (0u != (pData->offset & UINT32_ALIGN_MASK))
 477:Generated_Source\PSoC4/CapSense_Structure.c ****             {
 478:Generated_Source\PSoC4/CapSense_Structure.c ****                 result = CYRET_BAD_PARAM;
 479:Generated_Source\PSoC4/CapSense_Structure.c ****             }
 480:Generated_Source\PSoC4/CapSense_Structure.c ****             break;
 481:Generated_Source\PSoC4/CapSense_Structure.c ****             
 482:Generated_Source\PSoC4/CapSense_Structure.c ****         case DS_PARAM_TYPE_UINT8:
 483:Generated_Source\PSoC4/CapSense_Structure.c ****             break;
 484:Generated_Source\PSoC4/CapSense_Structure.c ****             
 485:Generated_Source\PSoC4/CapSense_Structure.c ****         default:
 486:Generated_Source\PSoC4/CapSense_Structure.c ****             result = CYRET_BAD_PARAM;
  93              		.loc 1 486 0
  94 0044 601E     		sub	r0, r4, #1
 466:Generated_Source\PSoC4/CapSense_Structure.c ****         {
  95              		.loc 1 466 0
  96 0046 032C     		cmp	r4, #3
  97 0048 06D1     		bne	.L15
 476:Generated_Source\PSoC4/CapSense_Structure.c ****             {
  98              		.loc 1 476 0
  99 004a 2240     		and	r2, r4
 100 004c 101C     		mov	r0, r2
 101 004e 03E0     		b	.L15
 102              	.L7:
 471:Generated_Source\PSoC4/CapSense_Structure.c ****             }
 103              		.loc 1 471 0
 104 0050 0123     		mov	r3, #1
 105 0052 1A40     		and	r2, r3
 106 0054 101C     		mov	r0, r2
 107 0056 01E0     		b	.L13
 108              	.L15:
 109 0058 431E     		sub	r3, r0, #1
 110 005a 9841     		sbc	r0, r0, r3
 111              	.L13:
 487:Generated_Source\PSoC4/CapSense_Structure.c ****             break;
 488:Generated_Source\PSoC4/CapSense_Structure.c ****         }
 489:Generated_Source\PSoC4/CapSense_Structure.c ****     }
 490:Generated_Source\PSoC4/CapSense_Structure.c **** 
 491:Generated_Source\PSoC4/CapSense_Structure.c ****     return result;
 492:Generated_Source\PSoC4/CapSense_Structure.c **** }
 112              		.loc 1 492 0
 113              		@ sp needed
 114 005c 30BD     		pop	{r4, r5, pc}
 115              		.cfi_endproc
 116              	.LFE2:
 117              		.size	DsParseParamId, .-DsParseParamId
 118              		.section	.text.CapSense_DsInitialize,"ax",%progbits
 119              		.align	1
 120              		.global	CapSense_DsInitialize
 121              		.code	16
 122              		.thumb_func
 123              		.type	CapSense_DsInitialize, %function
 124              	CapSense_DsInitialize:
 125              	.LFB1:
ARM GAS  C:\Users\Jerry\AppData\Local\Temp\ccKYXNFX.s 			page 12


 236:Generated_Source\PSoC4/CapSense_Structure.c ****     #if (0u != CapSense_CSX_EN) || (0 != CapSense_CSD_IDAC_COMP_EN)
 126              		.loc 1 236 0
 127              		.cfi_startproc
 128              	.LVL4:
 129 0000 10B5     		push	{r4, lr}
 130              		.cfi_def_cfa_offset 8
 131              		.cfi_offset 4, -8
 132              		.cfi_offset 14, -4
 247:Generated_Source\PSoC4/CapSense_Structure.c ****     
 133              		.loc 1 247 0
 134 0002 0D4C     		ldr	r4, .L18
 135 0004 0021     		mov	r1, #0
 136 0006 201C     		mov	r0, r4
 137 0008 4022     		mov	r2, #64
 138 000a FFF7FEFF 		bl	memset
 139              	.LVL5:
 250:Generated_Source\PSoC4/CapSense_Structure.c ****     CapSense_dsRam.deviceId = CapSense_DEVICE_ID;
 140              		.loc 1 250 0
 141 000e 0B4B     		ldr	r3, .L18+4
 281:Generated_Source\PSoC4/CapSense_Structure.c ****     
 142              		.loc 1 281 0
 143 0010 201C     		mov	r0, r4
 250:Generated_Source\PSoC4/CapSense_Structure.c ****     CapSense_dsRam.deviceId = CapSense_DEVICE_ID;
 144              		.loc 1 250 0
 145 0012 2380     		strh	r3, [r4]
 251:Generated_Source\PSoC4/CapSense_Structure.c ****     
 146              		.loc 1 251 0
 147 0014 B023     		mov	r3, #176
 148 0016 5B00     		lsl	r3, r3, #1
 149 0018 6380     		strh	r3, [r4, #2]
 254:Generated_Source\PSoC4/CapSense_Structure.c **** 
 150              		.loc 1 254 0
 151 001a 593B     		sub	r3, r3, #89
 152 001c FF3B     		sub	r3, r3, #255
 153 001e E382     		strh	r3, [r4, #22]
 281:Generated_Source\PSoC4/CapSense_Structure.c ****     
 154              		.loc 1 281 0
 155 0020 0749     		ldr	r1, .L18+8
 261:Generated_Source\PSoC4/CapSense_Structure.c ****         
 156              		.loc 1 261 0
 157 0022 073B     		sub	r3, r3, #7
 281:Generated_Source\PSoC4/CapSense_Structure.c ****     
 158              		.loc 1 281 0
 159 0024 1422     		mov	r2, #20
 160 0026 1A30     		add	r0, r0, #26
 261:Generated_Source\PSoC4/CapSense_Structure.c ****         
 161              		.loc 1 261 0
 162 0028 2376     		strb	r3, [r4, #24]
 281:Generated_Source\PSoC4/CapSense_Structure.c ****     
 163              		.loc 1 281 0
 164 002a FFF7FEFF 		bl	memcpy
 165              	.LVL6:
 293:Generated_Source\PSoC4/CapSense_Structure.c ****                 ptrIdacInit++;
 166              		.loc 1 293 0
 167 002e 2023     		mov	r3, #32
 168 0030 3734     		add	r4, r4, #55
 169 0032 2370     		strb	r3, [r4]
ARM GAS  C:\Users\Jerry\AppData\Local\Temp\ccKYXNFX.s 			page 13


 170              	.LVL7:
 314:Generated_Source\PSoC4/CapSense_Structure.c **** 
 171              		.loc 1 314 0
 172              		@ sp needed
 173 0034 10BD     		pop	{r4, pc}
 174              	.L19:
 175 0036 C046     		.align	2
 176              	.L18:
 177 0038 00000000 		.word	CapSense_dsRam
 178 003c 28460000 		.word	17960
 179 0040 00000000 		.word	.LANCHOR0
 180              		.cfi_endproc
 181              	.LFE1:
 182              		.size	CapSense_DsInitialize, .-CapSense_DsInitialize
 183              		.section	.text.CapSense_GetParam,"ax",%progbits
 184              		.align	1
 185              		.global	CapSense_GetParam
 186              		.code	16
 187              		.thumb_func
 188              		.type	CapSense_GetParam, %function
 189              	CapSense_GetParam:
 190              	.LFB3:
 493:Generated_Source\PSoC4/CapSense_Structure.c **** 
 494:Generated_Source\PSoC4/CapSense_Structure.c **** /*******************************************************************************
 495:Generated_Source\PSoC4/CapSense_Structure.c **** * Function Name: CapSense_GetParam
 496:Generated_Source\PSoC4/CapSense_Structure.c **** ****************************************************************************//**
 497:Generated_Source\PSoC4/CapSense_Structure.c **** *
 498:Generated_Source\PSoC4/CapSense_Structure.c **** * \brief
 499:Generated_Source\PSoC4/CapSense_Structure.c **** *  Gets the specified parameter value from the \ref group_structures.
 500:Generated_Source\PSoC4/CapSense_Structure.c **** *
 501:Generated_Source\PSoC4/CapSense_Structure.c **** * \details
 502:Generated_Source\PSoC4/CapSense_Structure.c **** *  This function gets the value of the specified parameter by the paramId 
 503:Generated_Source\PSoC4/CapSense_Structure.c **** *  argument. The paramId for each register is available in the 
 504:Generated_Source\PSoC4/CapSense_Structure.c **** *  CapSense RegisterMap header file as 
 505:Generated_Source\PSoC4/CapSense_Structure.c **** *  CapSense_<ParameterName>_PARAM_ID. The paramId is a special 
 506:Generated_Source\PSoC4/CapSense_Structure.c **** *  enumerated value generated by the customizer. The format of paramId is as 
 507:Generated_Source\PSoC4/CapSense_Structure.c **** *  follows:
 508:Generated_Source\PSoC4/CapSense_Structure.c **** *    1. [ byte 3 byte 2 byte 1 byte 0 ] 
 509:Generated_Source\PSoC4/CapSense_Structure.c **** *    2. [ TTWFCCCC UIIIIIII MMMMMMMM LLLLLLLL ]
 510:Generated_Source\PSoC4/CapSense_Structure.c **** *    3. T - encodes the parameter type:
 511:Generated_Source\PSoC4/CapSense_Structure.c **** *      - 01b: uint8
 512:Generated_Source\PSoC4/CapSense_Structure.c **** *      - 10b: uint16
 513:Generated_Source\PSoC4/CapSense_Structure.c **** *      - 11b: uint32
 514:Generated_Source\PSoC4/CapSense_Structure.c **** *    4. W - indicates whether the parameter is writable:
 515:Generated_Source\PSoC4/CapSense_Structure.c **** *      - 0: ReadOnly
 516:Generated_Source\PSoC4/CapSense_Structure.c **** *      - 1: Read/Write
 517:Generated_Source\PSoC4/CapSense_Structure.c **** *    5. C - 4 bit CRC (X^3 + 1) of the whole paramId word, the C bits are 
 518:Generated_Source\PSoC4/CapSense_Structure.c **** *       filled with 0s when the CRC is calculated.
 519:Generated_Source\PSoC4/CapSense_Structure.c **** *    6. U - indicates if the parameter affects the RAM Widget Object CRC.
 520:Generated_Source\PSoC4/CapSense_Structure.c **** *    7. I - specifies that the widgetID parameter belongs to
 521:Generated_Source\PSoC4/CapSense_Structure.c **** *    8. M,L - the parameter offset MSB and LSB accordingly in:
 522:Generated_Source\PSoC4/CapSense_Structure.c **** *      - Flash Data Structure if W bit is 0.
 523:Generated_Source\PSoC4/CapSense_Structure.c **** *      - RAM Data Structure if W bit is 1.
 524:Generated_Source\PSoC4/CapSense_Structure.c **** *
 525:Generated_Source\PSoC4/CapSense_Structure.c **** *  Refer to the \ref group_structures section for details of the data structure 
 526:Generated_Source\PSoC4/CapSense_Structure.c **** *  organization and examples of its register access.
 527:Generated_Source\PSoC4/CapSense_Structure.c **** *
ARM GAS  C:\Users\Jerry\AppData\Local\Temp\ccKYXNFX.s 			page 14


 528:Generated_Source\PSoC4/CapSense_Structure.c **** * \param  paramId 
 529:Generated_Source\PSoC4/CapSense_Structure.c **** *  Specify the ID of parameter to get its value.
 530:Generated_Source\PSoC4/CapSense_Structure.c **** *  A macro for the parameter ID can be found in the CapSense RegisterMap header 
 531:Generated_Source\PSoC4/CapSense_Structure.c **** *  file defined as CapSense_<ParameterName>_PARAM_ID.
 532:Generated_Source\PSoC4/CapSense_Structure.c **** *
 533:Generated_Source\PSoC4/CapSense_Structure.c **** * \param  value   
 534:Generated_Source\PSoC4/CapSense_Structure.c **** *  The pointer to a variable that should be updated with the got value.
 535:Generated_Source\PSoC4/CapSense_Structure.c **** *
 536:Generated_Source\PSoC4/CapSense_Structure.c **** * \return
 537:Generated_Source\PSoC4/CapSense_Structure.c **** *  Returns the status of operation:
 538:Generated_Source\PSoC4/CapSense_Structure.c **** *    - CYRET_SUCCESS if the operation is successfully completed.
 539:Generated_Source\PSoC4/CapSense_Structure.c **** *    - CYRET_BAD_PARAM if the input parameter is invalid. 
 540:Generated_Source\PSoC4/CapSense_Structure.c **** *
 541:Generated_Source\PSoC4/CapSense_Structure.c **** *******************************************************************************/
 542:Generated_Source\PSoC4/CapSense_Structure.c **** cystatus CapSense_GetParam(uint32 paramId, uint32 *value)
 543:Generated_Source\PSoC4/CapSense_Structure.c **** {
 191              		.loc 1 543 0
 192              		.cfi_startproc
 193              	.LVL8:
 194 0000 13B5     		push	{r0, r1, r4, lr}
 195              		.cfi_def_cfa_offset 16
 196              		.cfi_offset 0, -16
 197              		.cfi_offset 1, -12
 198              		.cfi_offset 4, -8
 199              		.cfi_offset 14, -4
 200              		.loc 1 543 0
 201 0002 0C1C     		mov	r4, r1
 544:Generated_Source\PSoC4/CapSense_Structure.c ****     PARAM_ID_STRUCT pData;
 545:Generated_Source\PSoC4/CapSense_Structure.c ****     cystatus result;
 546:Generated_Source\PSoC4/CapSense_Structure.c ****     
 547:Generated_Source\PSoC4/CapSense_Structure.c ****     union
 548:Generated_Source\PSoC4/CapSense_Structure.c ****     {
 549:Generated_Source\PSoC4/CapSense_Structure.c ****         volatile void   const * ptr;
 550:Generated_Source\PSoC4/CapSense_Structure.c ****         volatile uint8  const * ptrUint8;
 551:Generated_Source\PSoC4/CapSense_Structure.c ****         volatile uint16 const * ptrUint16;
 552:Generated_Source\PSoC4/CapSense_Structure.c ****         volatile uint32 const * ptrUint32;
 553:Generated_Source\PSoC4/CapSense_Structure.c ****     } ptrData;
 554:Generated_Source\PSoC4/CapSense_Structure.c ****     
 555:Generated_Source\PSoC4/CapSense_Structure.c ****     result = DsParseParamId(paramId, &pData);
 202              		.loc 1 555 0
 203 0004 6946     		mov	r1, sp
 204              	.LVL9:
 205 0006 FFF7FEFF 		bl	DsParseParamId
 206              	.LVL10:
 556:Generated_Source\PSoC4/CapSense_Structure.c ****     
 557:Generated_Source\PSoC4/CapSense_Structure.c ****     /* Parse and validate paramId */
 558:Generated_Source\PSoC4/CapSense_Structure.c ****     if (CYRET_SUCCESS == result)
 207              		.loc 1 558 0
 208 000a 0028     		cmp	r0, #0
 209 000c 17D1     		bne	.L21
 559:Generated_Source\PSoC4/CapSense_Structure.c ****     {
 560:Generated_Source\PSoC4/CapSense_Structure.c ****         /* Get base address of parameter */
 561:Generated_Source\PSoC4/CapSense_Structure.c ****         if (0u == pData.flash)
 210              		.loc 1 561 0
 211 000e 6B46     		mov	r3, sp
 212 0010 5A79     		ldrb	r2, [r3, #5]
 562:Generated_Source\PSoC4/CapSense_Structure.c ****         {
ARM GAS  C:\Users\Jerry\AppData\Local\Temp\ccKYXNFX.s 			page 15


 563:Generated_Source\PSoC4/CapSense_Structure.c ****             ptrData.ptr = &CapSense_dsRam;
 213              		.loc 1 563 0
 214 0012 0B4B     		ldr	r3, .L28
 561:Generated_Source\PSoC4/CapSense_Structure.c ****         {
 215              		.loc 1 561 0
 216 0014 002A     		cmp	r2, #0
 217 0016 01D0     		beq	.L22
 564:Generated_Source\PSoC4/CapSense_Structure.c ****         }
 565:Generated_Source\PSoC4/CapSense_Structure.c ****         else
 566:Generated_Source\PSoC4/CapSense_Structure.c ****         {
 567:Generated_Source\PSoC4/CapSense_Structure.c ****             ptrData.ptr = &CapSense_dsFlash;
 218              		.loc 1 567 0
 219 0018 0A4B     		ldr	r3, .L28+4
 220 001a 1433     		add	r3, r3, #20
 221              	.L22:
 222              	.LVL11:
 568:Generated_Source\PSoC4/CapSense_Structure.c ****         }
 569:Generated_Source\PSoC4/CapSense_Structure.c ****         
 570:Generated_Source\PSoC4/CapSense_Structure.c ****         /* Add offset to base address */
 571:Generated_Source\PSoC4/CapSense_Structure.c ****         ptrData.ptrUint8 += pData.offset;
 223              		.loc 1 571 0
 224 001c 6A46     		mov	r2, sp
 225 001e 1288     		ldrh	r2, [r2]
 226 0020 9B18     		add	r3, r3, r2
 227              	.LVL12:
 572:Generated_Source\PSoC4/CapSense_Structure.c ****         
 573:Generated_Source\PSoC4/CapSense_Structure.c ****         /* Read data */
 574:Generated_Source\PSoC4/CapSense_Structure.c ****         if (DS_PARAM_TYPE_UINT8 == pData.type)
 228              		.loc 1 574 0
 229 0022 6A46     		mov	r2, sp
 230 0024 D279     		ldrb	r2, [r2, #7]
 231 0026 012A     		cmp	r2, #1
 232 0028 01D1     		bne	.L23
 575:Generated_Source\PSoC4/CapSense_Structure.c ****         {
 576:Generated_Source\PSoC4/CapSense_Structure.c ****             *value = (uint32) (*ptrData.ptrUint8);
 233              		.loc 1 576 0
 234 002a 1B78     		ldrb	r3, [r3]
 235              	.LVL13:
 236 002c 06E0     		b	.L27
 237              	.LVL14:
 238              	.L23:
 577:Generated_Source\PSoC4/CapSense_Structure.c ****         }
 578:Generated_Source\PSoC4/CapSense_Structure.c ****         else if (DS_PARAM_TYPE_UINT16 == pData.type)
 239              		.loc 1 578 0
 240 002e 022A     		cmp	r2, #2
 241 0030 01D1     		bne	.L24
 579:Generated_Source\PSoC4/CapSense_Structure.c ****         {
 580:Generated_Source\PSoC4/CapSense_Structure.c ****             *value = (uint32) (*ptrData.ptrUint16);
 242              		.loc 1 580 0
 243 0032 1B88     		ldrh	r3, [r3]
 244              	.LVL15:
 245 0034 02E0     		b	.L27
 246              	.LVL16:
 247              	.L24:
 581:Generated_Source\PSoC4/CapSense_Structure.c ****         }
 582:Generated_Source\PSoC4/CapSense_Structure.c ****         else if (DS_PARAM_TYPE_UINT32 == pData.type)
 248              		.loc 1 582 0
ARM GAS  C:\Users\Jerry\AppData\Local\Temp\ccKYXNFX.s 			page 16


 249 0036 032A     		cmp	r2, #3
 250 0038 01D1     		bne	.L21
 583:Generated_Source\PSoC4/CapSense_Structure.c ****         {
 584:Generated_Source\PSoC4/CapSense_Structure.c ****             *value = *ptrData.ptrUint32;
 251              		.loc 1 584 0
 252 003a 1B68     		ldr	r3, [r3]
 253              	.LVL17:
 254              	.L27:
 255 003c 2360     		str	r3, [r4]
 256              	.L21:
 585:Generated_Source\PSoC4/CapSense_Structure.c ****         }
 586:Generated_Source\PSoC4/CapSense_Structure.c ****         else
 587:Generated_Source\PSoC4/CapSense_Structure.c ****         {
 588:Generated_Source\PSoC4/CapSense_Structure.c ****             /* Parameter comes here already validated. */
 589:Generated_Source\PSoC4/CapSense_Structure.c ****             CYASSERT(0u);
 590:Generated_Source\PSoC4/CapSense_Structure.c ****         }
 591:Generated_Source\PSoC4/CapSense_Structure.c ****     }
 592:Generated_Source\PSoC4/CapSense_Structure.c ****     
 593:Generated_Source\PSoC4/CapSense_Structure.c ****     return result;
 594:Generated_Source\PSoC4/CapSense_Structure.c **** }
 257              		.loc 1 594 0
 258              		@ sp needed
 259              	.LVL18:
 260 003e 16BD     		pop	{r1, r2, r4, pc}
 261              	.L29:
 262              		.align	2
 263              	.L28:
 264 0040 00000000 		.word	CapSense_dsRam
 265 0044 00000000 		.word	.LANCHOR0
 266              		.cfi_endproc
 267              	.LFE3:
 268              		.size	CapSense_GetParam, .-CapSense_GetParam
 269              		.section	.text.CapSense_SetParam,"ax",%progbits
 270              		.align	1
 271              		.global	CapSense_SetParam
 272              		.code	16
 273              		.thumb_func
 274              		.type	CapSense_SetParam, %function
 275              	CapSense_SetParam:
 276              	.LFB4:
 595:Generated_Source\PSoC4/CapSense_Structure.c **** 
 596:Generated_Source\PSoC4/CapSense_Structure.c **** 
 597:Generated_Source\PSoC4/CapSense_Structure.c **** /*******************************************************************************
 598:Generated_Source\PSoC4/CapSense_Structure.c **** * Function Name: CapSense_SetParam
 599:Generated_Source\PSoC4/CapSense_Structure.c **** ****************************************************************************//**
 600:Generated_Source\PSoC4/CapSense_Structure.c **** *
 601:Generated_Source\PSoC4/CapSense_Structure.c **** * \brief
 602:Generated_Source\PSoC4/CapSense_Structure.c **** *  Sets a new value for the specified parameter in the \ref group_structures.
 603:Generated_Source\PSoC4/CapSense_Structure.c **** *
 604:Generated_Source\PSoC4/CapSense_Structure.c **** * \details
 605:Generated_Source\PSoC4/CapSense_Structure.c **** *  This function sets the value of the specified parameter by the paramId 
 606:Generated_Source\PSoC4/CapSense_Structure.c **** *  argument. The paramId for each register is available in the 
 607:Generated_Source\PSoC4/CapSense_Structure.c **** *  CapSense RegisterMap header file as 
 608:Generated_Source\PSoC4/CapSense_Structure.c **** *  CapSense_<ParameterName>_PARAM_ID. The paramId is a special 
 609:Generated_Source\PSoC4/CapSense_Structure.c **** *  enumerated value generated by the customizer. The format of paramId is as 
 610:Generated_Source\PSoC4/CapSense_Structure.c **** *  follows:
 611:Generated_Source\PSoC4/CapSense_Structure.c **** *    1. [ byte 3 byte 2 byte 1 byte 0 ] 
ARM GAS  C:\Users\Jerry\AppData\Local\Temp\ccKYXNFX.s 			page 17


 612:Generated_Source\PSoC4/CapSense_Structure.c **** *    2. [ TTWFCCCC UIIIIIII MMMMMMMM LLLLLLLL ]
 613:Generated_Source\PSoC4/CapSense_Structure.c **** *    3. T - encodes the parameter type:
 614:Generated_Source\PSoC4/CapSense_Structure.c **** *      - 01b: uint8
 615:Generated_Source\PSoC4/CapSense_Structure.c **** *      - 10b: uint16
 616:Generated_Source\PSoC4/CapSense_Structure.c **** *      - 11b: uint32
 617:Generated_Source\PSoC4/CapSense_Structure.c **** *    4. W - indicates whether the parameter is writable:
 618:Generated_Source\PSoC4/CapSense_Structure.c **** *      - 0: ReadOnly
 619:Generated_Source\PSoC4/CapSense_Structure.c **** *      - 1: Read/Write
 620:Generated_Source\PSoC4/CapSense_Structure.c **** *    5. C - 4 bit CRC (X^3 + 1) of the whole paramId word, the C bits are 
 621:Generated_Source\PSoC4/CapSense_Structure.c **** *       filled with 0s when the CRC is calculated.
 622:Generated_Source\PSoC4/CapSense_Structure.c **** *    6. U - indicates if the parameter affects the RAM Widget Object CRC.
 623:Generated_Source\PSoC4/CapSense_Structure.c **** *    7. I - specifies that the widgetID parameter belongs to
 624:Generated_Source\PSoC4/CapSense_Structure.c **** *    8. M,L - the parameter offset MSB and LSB accordingly in:
 625:Generated_Source\PSoC4/CapSense_Structure.c **** *      - Flash Data Structure if W bit is 0.
 626:Generated_Source\PSoC4/CapSense_Structure.c **** *      - RAM Data Structure if W bit is 1.
 627:Generated_Source\PSoC4/CapSense_Structure.c **** *
 628:Generated_Source\PSoC4/CapSense_Structure.c **** *  Refer to the \ref group_structures section for details of the data structure 
 629:Generated_Source\PSoC4/CapSense_Structure.c **** *  organization and examples of its register access.
 630:Generated_Source\PSoC4/CapSense_Structure.c **** *
 631:Generated_Source\PSoC4/CapSense_Structure.c **** * \param paramId  
 632:Generated_Source\PSoC4/CapSense_Structure.c **** *  Specify the ID of parameter to set its value.
 633:Generated_Source\PSoC4/CapSense_Structure.c **** *  A macro for the parameter ID can be found in the CapSense RegisterMap header
 634:Generated_Source\PSoC4/CapSense_Structure.c **** *  file defined as CapSense_<ParameterName>_PARAM_ID.
 635:Generated_Source\PSoC4/CapSense_Structure.c **** 
 636:Generated_Source\PSoC4/CapSense_Structure.c **** * \param value    
 637:Generated_Source\PSoC4/CapSense_Structure.c **** *  Specify the new parameter's value.
 638:Generated_Source\PSoC4/CapSense_Structure.c **** *
 639:Generated_Source\PSoC4/CapSense_Structure.c **** * \return
 640:Generated_Source\PSoC4/CapSense_Structure.c **** *  Returns the status of operation:
 641:Generated_Source\PSoC4/CapSense_Structure.c **** *    - CYRET_SUCCESS if the operation is successfully completed.
 642:Generated_Source\PSoC4/CapSense_Structure.c **** *    - CYRET_BAD_PARAM if the input parameter is invalid. 
 643:Generated_Source\PSoC4/CapSense_Structure.c **** *
 644:Generated_Source\PSoC4/CapSense_Structure.c **** *******************************************************************************/
 645:Generated_Source\PSoC4/CapSense_Structure.c **** cystatus CapSense_SetParam(uint32 paramId, uint32 value)
 646:Generated_Source\PSoC4/CapSense_Structure.c **** {
 277              		.loc 1 646 0
 278              		.cfi_startproc
 279              	.LVL19:
 280 0000 13B5     		push	{r0, r1, r4, lr}
 281              		.cfi_def_cfa_offset 16
 282              		.cfi_offset 0, -16
 283              		.cfi_offset 1, -12
 284              		.cfi_offset 4, -8
 285              		.cfi_offset 14, -4
 286              		.loc 1 646 0
 287 0002 0C1C     		mov	r4, r1
 647:Generated_Source\PSoC4/CapSense_Structure.c ****     cystatus result;
 648:Generated_Source\PSoC4/CapSense_Structure.c ****     PARAM_ID_STRUCT pData;
 649:Generated_Source\PSoC4/CapSense_Structure.c ****     
 650:Generated_Source\PSoC4/CapSense_Structure.c ****     union
 651:Generated_Source\PSoC4/CapSense_Structure.c ****     {
 652:Generated_Source\PSoC4/CapSense_Structure.c ****         volatile void   * ptr;
 653:Generated_Source\PSoC4/CapSense_Structure.c ****         volatile uint8  * ptrUint8;
 654:Generated_Source\PSoC4/CapSense_Structure.c ****         volatile uint16 * ptrUint16;
 655:Generated_Source\PSoC4/CapSense_Structure.c ****         volatile uint32 * ptrUint32;
 656:Generated_Source\PSoC4/CapSense_Structure.c ****     } ptrData;
 657:Generated_Source\PSoC4/CapSense_Structure.c ****     
ARM GAS  C:\Users\Jerry\AppData\Local\Temp\ccKYXNFX.s 			page 18


 658:Generated_Source\PSoC4/CapSense_Structure.c ****     result = DsParseParamId(paramId, &pData);
 288              		.loc 1 658 0
 289 0004 6946     		mov	r1, sp
 290              	.LVL20:
 291 0006 FFF7FEFF 		bl	DsParseParamId
 292              	.LVL21:
 659:Generated_Source\PSoC4/CapSense_Structure.c ****     
 660:Generated_Source\PSoC4/CapSense_Structure.c ****     /* verify if parameter is writable */
 661:Generated_Source\PSoC4/CapSense_Structure.c ****     if (CYRET_SUCCESS == result)
 293              		.loc 1 661 0
 294 000a 0028     		cmp	r0, #0
 295 000c 18D1     		bne	.L38
 662:Generated_Source\PSoC4/CapSense_Structure.c ****     {
 663:Generated_Source\PSoC4/CapSense_Structure.c ****         if (0u == pData.rw)
 296              		.loc 1 663 0
 297 000e 6B46     		mov	r3, sp
 298 0010 9B79     		ldrb	r3, [r3, #6]
 299 0012 002B     		cmp	r3, #0
 300 0014 01D1     		bne	.L41
 664:Generated_Source\PSoC4/CapSense_Structure.c ****         {
 665:Generated_Source\PSoC4/CapSense_Structure.c ****             result = CYRET_BAD_PARAM;
 301              		.loc 1 665 0
 302 0016 0120     		mov	r0, #1
 303              	.LVL22:
 304 0018 12E0     		b	.L38
 305              	.LVL23:
 306              	.L41:
 666:Generated_Source\PSoC4/CapSense_Structure.c ****         }
 667:Generated_Source\PSoC4/CapSense_Structure.c ****     }
 668:Generated_Source\PSoC4/CapSense_Structure.c ****     
 669:Generated_Source\PSoC4/CapSense_Structure.c ****     /* Parse and validate paramId */
 670:Generated_Source\PSoC4/CapSense_Structure.c ****     if (CYRET_SUCCESS == result)
 671:Generated_Source\PSoC4/CapSense_Structure.c ****     {
 672:Generated_Source\PSoC4/CapSense_Structure.c ****         /* Get base address of parameter */
 673:Generated_Source\PSoC4/CapSense_Structure.c ****         ptrData.ptr = &CapSense_dsRam;
 674:Generated_Source\PSoC4/CapSense_Structure.c ****         
 675:Generated_Source\PSoC4/CapSense_Structure.c ****         /* Add offset to base address */
 676:Generated_Source\PSoC4/CapSense_Structure.c ****         ptrData.ptrUint8 += pData.offset;
 307              		.loc 1 676 0
 308 001a 6B46     		mov	r3, sp
 309 001c 1A88     		ldrh	r2, [r3]
 310 001e 094B     		ldr	r3, .L42
 311 0020 D318     		add	r3, r2, r3
 312              	.LVL24:
 677:Generated_Source\PSoC4/CapSense_Structure.c ****         
 678:Generated_Source\PSoC4/CapSense_Structure.c ****         /* Write data */
 679:Generated_Source\PSoC4/CapSense_Structure.c ****         if (DS_PARAM_TYPE_UINT8 == pData.type)
 313              		.loc 1 679 0
 314 0022 6A46     		mov	r2, sp
 315 0024 D279     		ldrb	r2, [r2, #7]
 316 0026 012A     		cmp	r2, #1
 317 0028 02D1     		bne	.L40
 680:Generated_Source\PSoC4/CapSense_Structure.c ****         {
 681:Generated_Source\PSoC4/CapSense_Structure.c ****             *ptrData.ptrUint8 = LO8(value);
 318              		.loc 1 681 0
 319 002a E4B2     		uxtb	r4, r4
 320              	.LVL25:
ARM GAS  C:\Users\Jerry\AppData\Local\Temp\ccKYXNFX.s 			page 19


 321 002c 1C70     		strb	r4, [r3]
 322 002e 07E0     		b	.L38
 323              	.LVL26:
 324              	.L40:
 682:Generated_Source\PSoC4/CapSense_Structure.c ****         }
 683:Generated_Source\PSoC4/CapSense_Structure.c ****         else if (DS_PARAM_TYPE_UINT16 == pData.type)
 325              		.loc 1 683 0
 326 0030 022A     		cmp	r2, #2
 327 0032 02D1     		bne	.L34
 684:Generated_Source\PSoC4/CapSense_Structure.c ****         {
 685:Generated_Source\PSoC4/CapSense_Structure.c ****             *ptrData.ptrUint16 = LO16(value);
 328              		.loc 1 685 0
 329 0034 A4B2     		uxth	r4, r4
 330              	.LVL27:
 331 0036 1C80     		strh	r4, [r3]
 332 0038 02E0     		b	.L38
 333              	.LVL28:
 334              	.L34:
 686:Generated_Source\PSoC4/CapSense_Structure.c ****         }
 687:Generated_Source\PSoC4/CapSense_Structure.c ****         else if (DS_PARAM_TYPE_UINT32 == pData.type)
 335              		.loc 1 687 0
 336 003a 032A     		cmp	r2, #3
 337 003c 00D1     		bne	.L38
 688:Generated_Source\PSoC4/CapSense_Structure.c ****         {
 689:Generated_Source\PSoC4/CapSense_Structure.c ****             *ptrData.ptrUint32 = value;
 338              		.loc 1 689 0
 339 003e 1C60     		str	r4, [r3]
 340              	.LVL29:
 341              	.L38:
 690:Generated_Source\PSoC4/CapSense_Structure.c ****         }
 691:Generated_Source\PSoC4/CapSense_Structure.c ****         else
 692:Generated_Source\PSoC4/CapSense_Structure.c ****         {
 693:Generated_Source\PSoC4/CapSense_Structure.c ****             /* Parameter comes here already validated. */
 694:Generated_Source\PSoC4/CapSense_Structure.c ****             CYASSERT(0u);
 695:Generated_Source\PSoC4/CapSense_Structure.c ****         }
 696:Generated_Source\PSoC4/CapSense_Structure.c ****         
 697:Generated_Source\PSoC4/CapSense_Structure.c ****         #if (CapSense_ENABLE == (CapSense_TST_WDGT_CRC_EN || CapSense_TST_GLOBAL_CRC_EN))
 698:Generated_Source\PSoC4/CapSense_Structure.c ****             /* Update widget or global CRC if self-test is enabled and parameter affects it */
 699:Generated_Source\PSoC4/CapSense_Structure.c ****             if (0u != pData.affectsCrc)
 700:Generated_Source\PSoC4/CapSense_Structure.c ****             {
 701:Generated_Source\PSoC4/CapSense_Structure.c ****                 if ((ptrData.ptrUint16 >= &CapSense_dsRam.csd0Config) &&
 702:Generated_Source\PSoC4/CapSense_Structure.c ****                     (ptrData.ptrUint16 <  &CapSense_dsRam.glbCrc))
 703:Generated_Source\PSoC4/CapSense_Structure.c ****                 {
 704:Generated_Source\PSoC4/CapSense_Structure.c ****                     
 705:Generated_Source\PSoC4/CapSense_Structure.c ****                     #if (CapSense_ENABLE == CapSense_TST_GLOBAL_CRC_EN)
 706:Generated_Source\PSoC4/CapSense_Structure.c ****                         CapSense_DsUpdateGlobalCrc();
 707:Generated_Source\PSoC4/CapSense_Structure.c ****                     #endif /* (CapSense_ENABLE == CapSense_TST_GLOBAL_CRC_EN) */
 708:Generated_Source\PSoC4/CapSense_Structure.c **** 
 709:Generated_Source\PSoC4/CapSense_Structure.c ****                 }
 710:Generated_Source\PSoC4/CapSense_Structure.c ****                 else
 711:Generated_Source\PSoC4/CapSense_Structure.c ****                 {
 712:Generated_Source\PSoC4/CapSense_Structure.c ****                     #if (CapSense_ENABLE == CapSense_TST_WDGT_CRC_EN)
 713:Generated_Source\PSoC4/CapSense_Structure.c ****                         CapSense_DsUpdateWidgetCrc((uint32)pData.widgetId);
 714:Generated_Source\PSoC4/CapSense_Structure.c ****                     #endif /* (CapSense_ENABLE == CapSense_TST_WDGT_CRC_EN) */
 715:Generated_Source\PSoC4/CapSense_Structure.c ****                 }
 716:Generated_Source\PSoC4/CapSense_Structure.c ****             }
 717:Generated_Source\PSoC4/CapSense_Structure.c ****         #endif /* (CapSense_ENABLE == (CapSense_TST_WDGT_CRC_EN || CapSense_TST_GLOBAL_CRC_EN)) */
ARM GAS  C:\Users\Jerry\AppData\Local\Temp\ccKYXNFX.s 			page 20


 718:Generated_Source\PSoC4/CapSense_Structure.c ****     }
 719:Generated_Source\PSoC4/CapSense_Structure.c ****     
 720:Generated_Source\PSoC4/CapSense_Structure.c ****     return result;
 721:Generated_Source\PSoC4/CapSense_Structure.c **** }
 342              		.loc 1 721 0
 343              		@ sp needed
 344 0040 16BD     		pop	{r1, r2, r4, pc}
 345              	.L43:
 346 0042 C046     		.align	2
 347              	.L42:
 348 0044 00000000 		.word	CapSense_dsRam
 349              		.cfi_endproc
 350              	.LFE4:
 351              		.size	CapSense_SetParam, .-CapSense_SetParam
 352              		.section	.text.CapSense_IsAnyWidgetActive,"ax",%progbits
 353              		.align	1
 354              		.global	CapSense_IsAnyWidgetActive
 355              		.code	16
 356              		.thumb_func
 357              		.type	CapSense_IsAnyWidgetActive, %function
 358              	CapSense_IsAnyWidgetActive:
 359              	.LFB5:
 722:Generated_Source\PSoC4/CapSense_Structure.c **** 
 723:Generated_Source\PSoC4/CapSense_Structure.c **** /*******************************************************************************
 724:Generated_Source\PSoC4/CapSense_Structure.c **** * Function Name: CapSense_IsAnyWidgetActive
 725:Generated_Source\PSoC4/CapSense_Structure.c **** ****************************************************************************//**
 726:Generated_Source\PSoC4/CapSense_Structure.c **** *
 727:Generated_Source\PSoC4/CapSense_Structure.c **** * \brief
 728:Generated_Source\PSoC4/CapSense_Structure.c **** *  Reports if any widget has detected a touch.
 729:Generated_Source\PSoC4/CapSense_Structure.c **** *
 730:Generated_Source\PSoC4/CapSense_Structure.c **** * \details
 731:Generated_Source\PSoC4/CapSense_Structure.c **** *  This function reports if any widget has detected a touch or not by extracting 
 732:Generated_Source\PSoC4/CapSense_Structure.c **** *  the information from the wdgtStatus registers 
 733:Generated_Source\PSoC4/CapSense_Structure.c **** *  (CapSense_WDGT_STATUS<X>_VALUE). This function does not process any 
 734:Generated_Source\PSoC4/CapSense_Structure.c **** *  widget but extracts the processed results from the \ref group_structures.
 735:Generated_Source\PSoC4/CapSense_Structure.c **** *
 736:Generated_Source\PSoC4/CapSense_Structure.c **** * \return 
 737:Generated_Source\PSoC4/CapSense_Structure.c **** *   Returns the touch detection status of all widgets:
 738:Generated_Source\PSoC4/CapSense_Structure.c **** *     - Zero if no touch is detected in all widgets or sensors.
 739:Generated_Source\PSoC4/CapSense_Structure.c **** *     - Non-zero if at least one widget or sensor detected a touch.
 740:Generated_Source\PSoC4/CapSense_Structure.c **** *
 741:Generated_Source\PSoC4/CapSense_Structure.c **** *******************************************************************************/
 742:Generated_Source\PSoC4/CapSense_Structure.c **** uint32 CapSense_IsAnyWidgetActive(void)
 743:Generated_Source\PSoC4/CapSense_Structure.c **** {
 360              		.loc 1 743 0
 361              		.cfi_startproc
 362              	.LVL30:
 744:Generated_Source\PSoC4/CapSense_Structure.c ****     uint32 result = 0Lu;
 745:Generated_Source\PSoC4/CapSense_Structure.c ****     uint32 wdWord;
 746:Generated_Source\PSoC4/CapSense_Structure.c ****     
 747:Generated_Source\PSoC4/CapSense_Structure.c ****     for (wdWord = CapSense_WDGT_STATUS_WORDS; wdWord-- > 0u;)
 748:Generated_Source\PSoC4/CapSense_Structure.c ****     {
 749:Generated_Source\PSoC4/CapSense_Structure.c ****         result |= CapSense_dsRam.wdgtStatus[wdWord];
 363              		.loc 1 749 0
 364 0000 014B     		ldr	r3, .L45
 750:Generated_Source\PSoC4/CapSense_Structure.c ****     }
 751:Generated_Source\PSoC4/CapSense_Structure.c ****     
ARM GAS  C:\Users\Jerry\AppData\Local\Temp\ccKYXNFX.s 			page 21


 752:Generated_Source\PSoC4/CapSense_Structure.c ****     return result;
 753:Generated_Source\PSoC4/CapSense_Structure.c **** }
 365              		.loc 1 753 0
 366              		@ sp needed
 752:Generated_Source\PSoC4/CapSense_Structure.c **** }
 367              		.loc 1 752 0
 368 0002 1869     		ldr	r0, [r3, #16]
 369              		.loc 1 753 0
 370 0004 7047     		bx	lr
 371              	.L46:
 372 0006 C046     		.align	2
 373              	.L45:
 374 0008 00000000 		.word	CapSense_dsRam
 375              		.cfi_endproc
 376              	.LFE5:
 377              		.size	CapSense_IsAnyWidgetActive, .-CapSense_IsAnyWidgetActive
 378              		.section	.text.CapSense_IsWidgetActive,"ax",%progbits
 379              		.align	1
 380              		.global	CapSense_IsWidgetActive
 381              		.code	16
 382              		.thumb_func
 383              		.type	CapSense_IsWidgetActive, %function
 384              	CapSense_IsWidgetActive:
 385              	.LFB6:
 754:Generated_Source\PSoC4/CapSense_Structure.c **** 
 755:Generated_Source\PSoC4/CapSense_Structure.c **** 
 756:Generated_Source\PSoC4/CapSense_Structure.c **** /*******************************************************************************
 757:Generated_Source\PSoC4/CapSense_Structure.c **** * Function Name: CapSense_IsWidgetActive
 758:Generated_Source\PSoC4/CapSense_Structure.c **** ****************************************************************************//**
 759:Generated_Source\PSoC4/CapSense_Structure.c **** *
 760:Generated_Source\PSoC4/CapSense_Structure.c **** * \brief
 761:Generated_Source\PSoC4/CapSense_Structure.c **** *  Reports if the specified widget detects a touch on any of its sensors.
 762:Generated_Source\PSoC4/CapSense_Structure.c **** *
 763:Generated_Source\PSoC4/CapSense_Structure.c **** * \details
 764:Generated_Source\PSoC4/CapSense_Structure.c **** *  This function reports if the specified widget has detected a touch or not by 
 765:Generated_Source\PSoC4/CapSense_Structure.c **** *  extracting the information from the wdgtStatus registers 
 766:Generated_Source\PSoC4/CapSense_Structure.c **** *  (CapSense_WDGT_STATUS<X>_VALUE). This function does not process the 
 767:Generated_Source\PSoC4/CapSense_Structure.c **** *  widget, but extracts the processed results from the \ref group_structures.
 768:Generated_Source\PSoC4/CapSense_Structure.c **** *
 769:Generated_Source\PSoC4/CapSense_Structure.c **** * \param widgetId  
 770:Generated_Source\PSoC4/CapSense_Structure.c **** *  Specify the ID number of the widget to get its status.
 771:Generated_Source\PSoC4/CapSense_Structure.c **** *  A macro for the widget ID can be found in the CapSense Configuration header 
 772:Generated_Source\PSoC4/CapSense_Structure.c **** *  file defined as CapSense_<WidgetName>_WDGT_ID.
 773:Generated_Source\PSoC4/CapSense_Structure.c **** *
 774:Generated_Source\PSoC4/CapSense_Structure.c **** * \return 
 775:Generated_Source\PSoC4/CapSense_Structure.c **** *  Returns the touch detection status of the specified widgets:
 776:Generated_Source\PSoC4/CapSense_Structure.c **** *    - Zero if no touch is detected in the specified widget or a wrong widgetId
 777:Generated_Source\PSoC4/CapSense_Structure.c **** *      is specified
 778:Generated_Source\PSoC4/CapSense_Structure.c **** *    - Non-zero if at least one sensor of the specified widget is active i.e. 
 779:Generated_Source\PSoC4/CapSense_Structure.c **** *      touch is detected
 780:Generated_Source\PSoC4/CapSense_Structure.c **** *
 781:Generated_Source\PSoC4/CapSense_Structure.c **** *******************************************************************************/
 782:Generated_Source\PSoC4/CapSense_Structure.c **** uint32 CapSense_IsWidgetActive(uint32 widgetId)
 783:Generated_Source\PSoC4/CapSense_Structure.c **** {
 386              		.loc 1 783 0
 387              		.cfi_startproc
 388              	.LVL31:
ARM GAS  C:\Users\Jerry\AppData\Local\Temp\ccKYXNFX.s 			page 22


 389              		.loc 1 783 0
 390 0000 031C     		mov	r3, r0
 784:Generated_Source\PSoC4/CapSense_Structure.c ****     uint32 result = 0Lu;
 391              		.loc 1 784 0
 392 0002 0020     		mov	r0, #0
 393              	.LVL32:
 785:Generated_Source\PSoC4/CapSense_Structure.c ****    
 786:Generated_Source\PSoC4/CapSense_Structure.c ****     if (widgetId < CapSense_TOTAL_WIDGETS)
 394              		.loc 1 786 0
 395 0004 8342     		cmp	r3, r0
 396 0006 03D1     		bne	.L48
 787:Generated_Source\PSoC4/CapSense_Structure.c ****     {
 788:Generated_Source\PSoC4/CapSense_Structure.c ****         result = CapSense_GET_WIDGET_ACTIVE_STATUS(widgetId);
 397              		.loc 1 788 0
 398 0008 024B     		ldr	r3, .L50
 399              	.LVL33:
 400 000a 1869     		ldr	r0, [r3, #16]
 401 000c 0123     		mov	r3, #1
 402 000e 1840     		and	r0, r3
 403              	.LVL34:
 404              	.L48:
 789:Generated_Source\PSoC4/CapSense_Structure.c ****     }
 790:Generated_Source\PSoC4/CapSense_Structure.c ****     return result;
 791:Generated_Source\PSoC4/CapSense_Structure.c **** }
 405              		.loc 1 791 0
 406              		@ sp needed
 407 0010 7047     		bx	lr
 408              	.L51:
 409 0012 C046     		.align	2
 410              	.L50:
 411 0014 00000000 		.word	CapSense_dsRam
 412              		.cfi_endproc
 413              	.LFE6:
 414              		.size	CapSense_IsWidgetActive, .-CapSense_IsWidgetActive
 415              		.section	.text.CapSense_IsSensorActive,"ax",%progbits
 416              		.align	1
 417              		.global	CapSense_IsSensorActive
 418              		.code	16
 419              		.thumb_func
 420              		.type	CapSense_IsSensorActive, %function
 421              	CapSense_IsSensorActive:
 422              	.LFB7:
 792:Generated_Source\PSoC4/CapSense_Structure.c **** 
 793:Generated_Source\PSoC4/CapSense_Structure.c **** 
 794:Generated_Source\PSoC4/CapSense_Structure.c **** /*******************************************************************************
 795:Generated_Source\PSoC4/CapSense_Structure.c **** * Function Name: CapSense_IsSensorActive
 796:Generated_Source\PSoC4/CapSense_Structure.c **** ****************************************************************************//**
 797:Generated_Source\PSoC4/CapSense_Structure.c **** *
 798:Generated_Source\PSoC4/CapSense_Structure.c **** * \brief
 799:Generated_Source\PSoC4/CapSense_Structure.c **** *  Reports if the specified sensor in the widget detects a touch.
 800:Generated_Source\PSoC4/CapSense_Structure.c **** *
 801:Generated_Source\PSoC4/CapSense_Structure.c **** * \details 
 802:Generated_Source\PSoC4/CapSense_Structure.c **** *  This function reports if the specified sensor in the widget has detected a 
 803:Generated_Source\PSoC4/CapSense_Structure.c **** *  touch or not by extracting the information from wdgtStatus registers 
 804:Generated_Source\PSoC4/CapSense_Structure.c **** *  (CapSense_WDGT_STATUS<X>_VALUE). This function does not process the
 805:Generated_Source\PSoC4/CapSense_Structure.c **** *  widget or sensor, but extracts the processed results from the \ref group_structures.
 806:Generated_Source\PSoC4/CapSense_Structure.c **** *   
ARM GAS  C:\Users\Jerry\AppData\Local\Temp\ccKYXNFX.s 			page 23


 807:Generated_Source\PSoC4/CapSense_Structure.c **** *  For Proximity sensors this function returns proximity detection status. To 
 808:Generated_Source\PSoC4/CapSense_Structure.c **** *  get finger touch status of proximity sensors, use the 
 809:Generated_Source\PSoC4/CapSense_Structure.c **** *  CapSense_IsProximitySensorActive() function. 
 810:Generated_Source\PSoC4/CapSense_Structure.c **** *
 811:Generated_Source\PSoC4/CapSense_Structure.c **** * \param widgetId  
 812:Generated_Source\PSoC4/CapSense_Structure.c **** *  Specify the ID number of the widget.
 813:Generated_Source\PSoC4/CapSense_Structure.c **** *  A macro for the widget ID can be found in the CapSense Configuration header 
 814:Generated_Source\PSoC4/CapSense_Structure.c **** *  file defined as CapSense_<WidgetName>_WDGT_ID 
 815:Generated_Source\PSoC4/CapSense_Structure.c **** 
 816:Generated_Source\PSoC4/CapSense_Structure.c **** * \param sensorId  
 817:Generated_Source\PSoC4/CapSense_Structure.c **** *  Specify the ID number of the sensor within the widget to get its touch 
 818:Generated_Source\PSoC4/CapSense_Structure.c **** *  detection status.
 819:Generated_Source\PSoC4/CapSense_Structure.c **** *  A macro for the sensor ID within specified widget can be found in the 
 820:Generated_Source\PSoC4/CapSense_Structure.c **** *  CapSense Configuration header file defined as 
 821:Generated_Source\PSoC4/CapSense_Structure.c **** *  CapSense_<WidgetName>_SNS<SensorNumber>_ID 
 822:Generated_Source\PSoC4/CapSense_Structure.c **** *
 823:Generated_Source\PSoC4/CapSense_Structure.c **** * \return 
 824:Generated_Source\PSoC4/CapSense_Structure.c **** *  Returns the touch detection status of the specified sensor / widget:
 825:Generated_Source\PSoC4/CapSense_Structure.c **** *    - Zero if no touch is detected in the specified sensor / widget or a wrong
 826:Generated_Source\PSoC4/CapSense_Structure.c **** *      widget ID / sensor ID is specified
 827:Generated_Source\PSoC4/CapSense_Structure.c **** *    - Non-zero if the specified sensor is active i.e. touch is detected. If the
 828:Generated_Source\PSoC4/CapSense_Structure.c **** *      specific sensor belongs to a proximity widget, the proximity detection 
 829:Generated_Source\PSoC4/CapSense_Structure.c **** *      status is returned.
 830:Generated_Source\PSoC4/CapSense_Structure.c **** *
 831:Generated_Source\PSoC4/CapSense_Structure.c **** *******************************************************************************/
 832:Generated_Source\PSoC4/CapSense_Structure.c **** uint32 CapSense_IsSensorActive(uint32 widgetId, uint32 sensorId)
 833:Generated_Source\PSoC4/CapSense_Structure.c **** {
 423              		.loc 1 833 0
 424              		.cfi_startproc
 425              	.LVL35:
 426              		.loc 1 833 0
 427 0000 031C     		mov	r3, r0
 834:Generated_Source\PSoC4/CapSense_Structure.c ****     uint32 result = 0Lu;
 428              		.loc 1 834 0
 429 0002 0020     		mov	r0, #0
 430              	.LVL36:
 835:Generated_Source\PSoC4/CapSense_Structure.c ****     
 836:Generated_Source\PSoC4/CapSense_Structure.c ****     if ((widgetId < CapSense_TOTAL_WIDGETS) &&
 431              		.loc 1 836 0
 432 0004 8342     		cmp	r3, r0
 433 0006 05D1     		bne	.L53
 434              		.loc 1 836 0 is_stmt 0 discriminator 1
 435 0008 8142     		cmp	r1, r0
 436 000a 03D1     		bne	.L53
 437              	.LVL37:
 837:Generated_Source\PSoC4/CapSense_Structure.c ****         (sensorId < CapSense_GET_SENSOR_COUNT(widgetId)))
 838:Generated_Source\PSoC4/CapSense_Structure.c ****     {
 839:Generated_Source\PSoC4/CapSense_Structure.c ****         #if (CapSense_ENABLE == CapSense_PROXIMITY_WIDGET_EN)
 840:Generated_Source\PSoC4/CapSense_Structure.c ****             if (CapSense_WD_PROXIMITY_E == 
 841:Generated_Source\PSoC4/CapSense_Structure.c **** 				(CapSense_WD_TYPE_ENUM)CapSense_dsFlash.wdgtArray[widgetId].wdgtType)
 842:Generated_Source\PSoC4/CapSense_Structure.c ****             {
 843:Generated_Source\PSoC4/CapSense_Structure.c ****                 sensorId = CapSense_PROX_STS_OFFSET(sensorId);
 844:Generated_Source\PSoC4/CapSense_Structure.c ****             }
 845:Generated_Source\PSoC4/CapSense_Structure.c ****         #endif /* (CapSense_ENABLE != CapSense_PROXIMITY_WIDGET_EN) */
 846:Generated_Source\PSoC4/CapSense_Structure.c ****         result = CapSense_dsRam.snsStatus[widgetId] & (1Lu << sensorId);
 438              		.loc 1 846 0 is_stmt 1
 439 000c 024B     		ldr	r3, .L56
ARM GAS  C:\Users\Jerry\AppData\Local\Temp\ccKYXNFX.s 			page 24


 440              	.LVL38:
 441 000e 187D     		ldrb	r0, [r3, #20]
 442 0010 0123     		mov	r3, #1
 443 0012 1840     		and	r0, r3
 444              	.LVL39:
 445              	.L53:
 847:Generated_Source\PSoC4/CapSense_Structure.c ****     }
 848:Generated_Source\PSoC4/CapSense_Structure.c ****     
 849:Generated_Source\PSoC4/CapSense_Structure.c ****     return result;
 850:Generated_Source\PSoC4/CapSense_Structure.c **** }
 446              		.loc 1 850 0
 447              		@ sp needed
 448 0014 7047     		bx	lr
 449              	.L57:
 450 0016 C046     		.align	2
 451              	.L56:
 452 0018 00000000 		.word	CapSense_dsRam
 453              		.cfi_endproc
 454              	.LFE7:
 455              		.size	CapSense_IsSensorActive, .-CapSense_IsSensorActive
 456              		.section	.text.CapSense_IsProximitySensorActive,"ax",%progbits
 457              		.align	1
 458              		.global	CapSense_IsProximitySensorActive
 459              		.code	16
 460              		.thumb_func
 461              		.type	CapSense_IsProximitySensorActive, %function
 462              	CapSense_IsProximitySensorActive:
 463              	.LFB8:
 851:Generated_Source\PSoC4/CapSense_Structure.c **** 
 852:Generated_Source\PSoC4/CapSense_Structure.c **** #if (0u != CapSense_MATRIX_WIDGET_EN)
 853:Generated_Source\PSoC4/CapSense_Structure.c **** /*******************************************************************************
 854:Generated_Source\PSoC4/CapSense_Structure.c **** * Function Name: CapSense_IsMatrixButtonsActive
 855:Generated_Source\PSoC4/CapSense_Structure.c **** ****************************************************************************//**
 856:Generated_Source\PSoC4/CapSense_Structure.c **** *
 857:Generated_Source\PSoC4/CapSense_Structure.c **** * \brief
 858:Generated_Source\PSoC4/CapSense_Structure.c **** *  Reports the status of the specified matrix button widget.
 859:Generated_Source\PSoC4/CapSense_Structure.c **** *
 860:Generated_Source\PSoC4/CapSense_Structure.c **** * \details 
 861:Generated_Source\PSoC4/CapSense_Structure.c **** *  This function reports if the specified matrix widget has detected a touch or
 862:Generated_Source\PSoC4/CapSense_Structure.c **** *  not by extracting the information from the wdgtStatus registers 
 863:Generated_Source\PSoC4/CapSense_Structure.c **** *  (CapSense_WDGT_STATUS<X>_VALUE for the CSD widgets and 
 864:Generated_Source\PSoC4/CapSense_Structure.c **** *  CapSense_SNS_STATUS<WidgetId>_VALUE for CSX widget). In addition, the
 865:Generated_Source\PSoC4/CapSense_Structure.c **** *  function provides details of the active sensor including active rows/columns 
 866:Generated_Source\PSoC4/CapSense_Structure.c **** *  for the CSD widgets. This function should be used only with the matrix button
 867:Generated_Source\PSoC4/CapSense_Structure.c **** *  widgets. This function does not process the widget, but extracts the 
 868:Generated_Source\PSoC4/CapSense_Structure.c **** *  processed results from the \ref group_structures.
 869:Generated_Source\PSoC4/CapSense_Structure.c **** *
 870:Generated_Source\PSoC4/CapSense_Structure.c **** * \param widgetId 
 871:Generated_Source\PSoC4/CapSense_Structure.c **** *  Specify the ID number of the matrix button widget to check status of its 
 872:Generated_Source\PSoC4/CapSense_Structure.c **** *  sensors. 
 873:Generated_Source\PSoC4/CapSense_Structure.c **** *  A macro for widget ID can be found in the CapSense Configuration header file 
 874:Generated_Source\PSoC4/CapSense_Structure.c **** *  defined as CapSense_<WidgetName>_WDGT_ID
 875:Generated_Source\PSoC4/CapSense_Structure.c **** *
 876:Generated_Source\PSoC4/CapSense_Structure.c **** * \return 
 877:Generated_Source\PSoC4/CapSense_Structure.c **** *  Returns the touch detection status of sensors in the specified matrix 
 878:Generated_Source\PSoC4/CapSense_Structure.c **** *  buttons widget. Zero indicates that no touch is detected in the specified 
 879:Generated_Source\PSoC4/CapSense_Structure.c **** *  widget or a wrong widgetId is specified.
ARM GAS  C:\Users\Jerry\AppData\Local\Temp\ccKYXNFX.s 			page 25


 880:Generated_Source\PSoC4/CapSense_Structure.c **** *    1. For the matrix buttons widgets with the CSD sensing mode:
 881:Generated_Source\PSoC4/CapSense_Structure.c **** *      - Bit [31] if set, indicates that one or more sensors in the widget 
 882:Generated_Source\PSoC4/CapSense_Structure.c **** *        detected a touch.
 883:Generated_Source\PSoC4/CapSense_Structure.c **** *      - Bits [30..24] is reserved
 884:Generated_Source\PSoC4/CapSense_Structure.c **** *      - Bits [23..16] indicates the logical sensor number of the sensor that 
 885:Generated_Source\PSoC4/CapSense_Structure.c **** *        detected a touch. If more than one sensor detected a touch for the CSD
 886:Generated_Source\PSoC4/CapSense_Structure.c **** *        widget, no status is reported as more than one touch is invalid for the
 887:Generated_Source\PSoC4/CapSense_Structure.c **** *        CSD matrix buttons widgets.
 888:Generated_Source\PSoC4/CapSense_Structure.c **** *      - Bits [15..8] indicates the active row number.
 889:Generated_Source\PSoC4/CapSense_Structure.c **** *      - Bits [7..0] indicates the active column number.
 890:Generated_Source\PSoC4/CapSense_Structure.c **** *    2. For the matrix buttons widgets with the CSX widgets, each bit (31..0)
 891:Generated_Source\PSoC4/CapSense_Structure.c **** *      corresponds to the TX/RX intersection.
 892:Generated_Source\PSoC4/CapSense_Structure.c **** *
 893:Generated_Source\PSoC4/CapSense_Structure.c **** *******************************************************************************/
 894:Generated_Source\PSoC4/CapSense_Structure.c **** uint32 CapSense_IsMatrixButtonsActive(uint32 widgetId)
 895:Generated_Source\PSoC4/CapSense_Structure.c **** {
 896:Generated_Source\PSoC4/CapSense_Structure.c ****     uint32 result = 0Lu;
 897:Generated_Source\PSoC4/CapSense_Structure.c ****     cystatus state = CYRET_SUCCESS;
 898:Generated_Source\PSoC4/CapSense_Structure.c ****     CapSense_FLASH_WD_STRUCT const *ptrFlashWdgt = 0u;
 899:Generated_Source\PSoC4/CapSense_Structure.c ****     
 900:Generated_Source\PSoC4/CapSense_Structure.c ****     #if (0u != CapSense_CSD_MATRIX_WIDGET_EN)
 901:Generated_Source\PSoC4/CapSense_Structure.c ****         CapSense_RAM_WD_CSD_MATRIX_STRUCT *wdCsdMatrix;
 902:Generated_Source\PSoC4/CapSense_Structure.c ****     #endif
 903:Generated_Source\PSoC4/CapSense_Structure.c ****   
 904:Generated_Source\PSoC4/CapSense_Structure.c ****     if (widgetId >= CapSense_TOTAL_WIDGETS)
 905:Generated_Source\PSoC4/CapSense_Structure.c ****     {
 906:Generated_Source\PSoC4/CapSense_Structure.c ****         state = CYRET_BAD_PARAM;
 907:Generated_Source\PSoC4/CapSense_Structure.c ****     }
 908:Generated_Source\PSoC4/CapSense_Structure.c ****     else
 909:Generated_Source\PSoC4/CapSense_Structure.c ****     {
 910:Generated_Source\PSoC4/CapSense_Structure.c ****         ptrFlashWdgt = &CapSense_dsFlash.wdgtArray[widgetId];
 911:Generated_Source\PSoC4/CapSense_Structure.c ****         
 912:Generated_Source\PSoC4/CapSense_Structure.c ****         if ((CapSense_WD_TYPE_ENUM)ptrFlashWdgt->wdgtType != CapSense_WD_MATRIX_BUTTON_E)
 913:Generated_Source\PSoC4/CapSense_Structure.c ****         {
 914:Generated_Source\PSoC4/CapSense_Structure.c ****             state = CYRET_BAD_PARAM;
 915:Generated_Source\PSoC4/CapSense_Structure.c ****         }
 916:Generated_Source\PSoC4/CapSense_Structure.c ****         else if (0u == CapSense_GET_WIDGET_ACTIVE_STATUS(widgetId))
 917:Generated_Source\PSoC4/CapSense_Structure.c ****         {
 918:Generated_Source\PSoC4/CapSense_Structure.c ****             state = CYRET_BAD_PARAM;
 919:Generated_Source\PSoC4/CapSense_Structure.c ****         }
 920:Generated_Source\PSoC4/CapSense_Structure.c ****         else
 921:Generated_Source\PSoC4/CapSense_Structure.c ****         {
 922:Generated_Source\PSoC4/CapSense_Structure.c ****             /* input parameters are OK */
 923:Generated_Source\PSoC4/CapSense_Structure.c ****         }
 924:Generated_Source\PSoC4/CapSense_Structure.c ****     }
 925:Generated_Source\PSoC4/CapSense_Structure.c ****        
 926:Generated_Source\PSoC4/CapSense_Structure.c ****     if (CYRET_SUCCESS == state)
 927:Generated_Source\PSoC4/CapSense_Structure.c ****     {
 928:Generated_Source\PSoC4/CapSense_Structure.c ****         switch(CapSense_GET_SENSE_METHOD(ptrFlashWdgt))
 929:Generated_Source\PSoC4/CapSense_Structure.c ****         {
 930:Generated_Source\PSoC4/CapSense_Structure.c ****         #if (0u != CapSense_CSD_MATRIX_WIDGET_EN)
 931:Generated_Source\PSoC4/CapSense_Structure.c ****             case CapSense_SENSE_METHOD_CSD_E:
 932:Generated_Source\PSoC4/CapSense_Structure.c ****                 wdCsdMatrix = ptrFlashWdgt->ptr2WdgtRam;
 933:Generated_Source\PSoC4/CapSense_Structure.c ****                 
 934:Generated_Source\PSoC4/CapSense_Structure.c ****                 result = CapSense_MATRIX_BUTTONS_TOUCHED | 
 935:Generated_Source\PSoC4/CapSense_Structure.c ****                          ((uint32)wdCsdMatrix->posSnsId << 16u)  |
 936:Generated_Source\PSoC4/CapSense_Structure.c ****                          ((uint32)wdCsdMatrix->posRow   << 8u)   |
ARM GAS  C:\Users\Jerry\AppData\Local\Temp\ccKYXNFX.s 			page 26


 937:Generated_Source\PSoC4/CapSense_Structure.c ****                          (uint32)wdCsdMatrix->posCol;
 938:Generated_Source\PSoC4/CapSense_Structure.c ****                 break;
 939:Generated_Source\PSoC4/CapSense_Structure.c ****         #endif /* #if (0u != CapSense_CSD_MATRIX_WIDGET_EN) */
 940:Generated_Source\PSoC4/CapSense_Structure.c ****         
 941:Generated_Source\PSoC4/CapSense_Structure.c ****         #if (0u != CapSense_CSX_MATRIX_WIDGET_EN)
 942:Generated_Source\PSoC4/CapSense_Structure.c ****             case CapSense_SENSE_METHOD_CSX_E:
 943:Generated_Source\PSoC4/CapSense_Structure.c ****                 result = CapSense_dsRam.snsStatus[widgetId];
 944:Generated_Source\PSoC4/CapSense_Structure.c ****                 break;
 945:Generated_Source\PSoC4/CapSense_Structure.c ****         #endif /* #if (0u != CapSense_CSX_MATRIX_WIDGET_EN) */
 946:Generated_Source\PSoC4/CapSense_Structure.c ****         
 947:Generated_Source\PSoC4/CapSense_Structure.c ****         default:
 948:Generated_Source\PSoC4/CapSense_Structure.c ****             CYASSERT(0u);
 949:Generated_Source\PSoC4/CapSense_Structure.c ****             break;
 950:Generated_Source\PSoC4/CapSense_Structure.c ****         }
 951:Generated_Source\PSoC4/CapSense_Structure.c ****     }
 952:Generated_Source\PSoC4/CapSense_Structure.c ****     
 953:Generated_Source\PSoC4/CapSense_Structure.c ****     return result;
 954:Generated_Source\PSoC4/CapSense_Structure.c **** }
 955:Generated_Source\PSoC4/CapSense_Structure.c **** #endif /* #if (0u != CapSense_MATRIX_WIDGET_EN) */
 956:Generated_Source\PSoC4/CapSense_Structure.c **** 
 957:Generated_Source\PSoC4/CapSense_Structure.c **** #if (0u != CapSense_PROXIMITY_WIDGET_EN)
 958:Generated_Source\PSoC4/CapSense_Structure.c **** /*******************************************************************************
 959:Generated_Source\PSoC4/CapSense_Structure.c **** * Function Name: CapSense_IsProximitySensorActive
 960:Generated_Source\PSoC4/CapSense_Structure.c **** ****************************************************************************//**
 961:Generated_Source\PSoC4/CapSense_Structure.c **** *
 962:Generated_Source\PSoC4/CapSense_Structure.c **** * \brief
 963:Generated_Source\PSoC4/CapSense_Structure.c **** *  Reports the finger detection status of the specified proximity widget/sensor.
 964:Generated_Source\PSoC4/CapSense_Structure.c **** *
 965:Generated_Source\PSoC4/CapSense_Structure.c **** * \details 
 966:Generated_Source\PSoC4/CapSense_Structure.c **** *  This function reports if the specified proximity sensor has detected a touch
 967:Generated_Source\PSoC4/CapSense_Structure.c **** *  or not by extracting the information from the wdgtStatus registers 
 968:Generated_Source\PSoC4/CapSense_Structure.c **** *  (CapSense_SNS_STATUS<WidgetId>_VALUE). This function should be used 
 969:Generated_Source\PSoC4/CapSense_Structure.c **** *  only with the proximity sensor widgets. This function does not process the 
 970:Generated_Source\PSoC4/CapSense_Structure.c **** *  widget but extracts the processed results from the \ref group_structures.
 971:Generated_Source\PSoC4/CapSense_Structure.c **** *
 972:Generated_Source\PSoC4/CapSense_Structure.c **** * \param widgetId  
 973:Generated_Source\PSoC4/CapSense_Structure.c **** *  Specify the ID number of the proximity widget.
 974:Generated_Source\PSoC4/CapSense_Structure.c **** *  A macro for the widget ID can be found in the CapSense Configuration header 
 975:Generated_Source\PSoC4/CapSense_Structure.c **** *  file defined as CapSense_<WidgetName>_WDGT_ID
 976:Generated_Source\PSoC4/CapSense_Structure.c **** *  
 977:Generated_Source\PSoC4/CapSense_Structure.c **** * \param proxId    
 978:Generated_Source\PSoC4/CapSense_Structure.c **** *  Specify the ID number of the proximity sensor within the proximity widget to 
 979:Generated_Source\PSoC4/CapSense_Structure.c **** *  get its touch detection status.
 980:Generated_Source\PSoC4/CapSense_Structure.c **** *  A macro for the proximity ID within a specified widget can be found in the
 981:Generated_Source\PSoC4/CapSense_Structure.c **** *  CapSense Configuration header file defined as 
 982:Generated_Source\PSoC4/CapSense_Structure.c **** *  CapSense_<WidgetName>_SNS<SensorNumber>_ID
 983:Generated_Source\PSoC4/CapSense_Structure.c **** *
 984:Generated_Source\PSoC4/CapSense_Structure.c **** * \return 
 985:Generated_Source\PSoC4/CapSense_Structure.c **** *  Returns the status of the specified sensor of proximity widget. Zero 
 986:Generated_Source\PSoC4/CapSense_Structure.c **** *  indicates that no touch is detected in the specified sensor / widget or a 
 987:Generated_Source\PSoC4/CapSense_Structure.c **** *  wrong widgetId / proxId is specified.
 988:Generated_Source\PSoC4/CapSense_Structure.c **** *    - Bits [31..2] is reserved.
 989:Generated_Source\PSoC4/CapSense_Structure.c **** *    - Bit [1] indicates that a touch is detected.
 990:Generated_Source\PSoC4/CapSense_Structure.c **** *    - Bit [0] indicates that a proximity is detected.
 991:Generated_Source\PSoC4/CapSense_Structure.c **** *
 992:Generated_Source\PSoC4/CapSense_Structure.c **** *******************************************************************************/
 993:Generated_Source\PSoC4/CapSense_Structure.c **** uint32 CapSense_IsProximitySensorActive(uint32 widgetId, uint32 proxId)
ARM GAS  C:\Users\Jerry\AppData\Local\Temp\ccKYXNFX.s 			page 27


 994:Generated_Source\PSoC4/CapSense_Structure.c **** {
 464              		.loc 1 994 0
 465              		.cfi_startproc
 466              	.LVL40:
 467              		.loc 1 994 0
 468 0000 031C     		mov	r3, r0
 995:Generated_Source\PSoC4/CapSense_Structure.c ****     uint32 result = 0Lu;
 469              		.loc 1 995 0
 470 0002 0020     		mov	r0, #0
 471              	.LVL41:
 996:Generated_Source\PSoC4/CapSense_Structure.c ****     
 997:Generated_Source\PSoC4/CapSense_Structure.c ****     if ((widgetId < CapSense_TOTAL_WIDGETS) && (proxId < CapSense_GET_SENSOR_COUNT(widgetId)) &&
 472              		.loc 1 997 0
 473 0004 8342     		cmp	r3, r0
 474 0006 05D1     		bne	.L59
 475              		.loc 1 997 0 is_stmt 0 discriminator 1
 476 0008 8142     		cmp	r1, r0
 477 000a 03D1     		bne	.L59
 478              	.LVL42:
 998:Generated_Source\PSoC4/CapSense_Structure.c ****         (CapSense_WD_PROXIMITY_E == 
 999:Generated_Source\PSoC4/CapSense_Structure.c ****             (CapSense_WD_TYPE_ENUM)CapSense_dsFlash.wdgtArray[widgetId].wdgtType))
1000:Generated_Source\PSoC4/CapSense_Structure.c ****     {
1001:Generated_Source\PSoC4/CapSense_Structure.c ****         result = CapSense_dsRam.snsStatus[widgetId];
 479              		.loc 1 1001 0 is_stmt 1 discriminator 2
 480 000c 024B     		ldr	r3, .L62
 481              	.LVL43:
1002:Generated_Source\PSoC4/CapSense_Structure.c ****         result >>= CapSense_PROX_STS_OFFSET(proxId);
1003:Generated_Source\PSoC4/CapSense_Structure.c ****         result &=  CapSense_PROX_STS_MASK;
 482              		.loc 1 1003 0 discriminator 2
 483 000e 187D     		ldrb	r0, [r3, #20]
 484 0010 0323     		mov	r3, #3
 485 0012 1840     		and	r0, r3
 486              	.LVL44:
 487              	.L59:
1004:Generated_Source\PSoC4/CapSense_Structure.c ****     }
1005:Generated_Source\PSoC4/CapSense_Structure.c ****     
1006:Generated_Source\PSoC4/CapSense_Structure.c ****     return result;
1007:Generated_Source\PSoC4/CapSense_Structure.c **** }
 488              		.loc 1 1007 0
 489              		@ sp needed
 490 0014 7047     		bx	lr
 491              	.L63:
 492 0016 C046     		.align	2
 493              	.L62:
 494 0018 00000000 		.word	CapSense_dsRam
 495              		.cfi_endproc
 496              	.LFE8:
 497              		.size	CapSense_IsProximitySensorActive, .-CapSense_IsProximitySensorActive
 498              		.global	CapSense_ioList
 499              		.global	CapSense_dsFlash
 500              		.comm	CapSense_dsRam,64,4
 501              		.section	.rodata
 502              		.align	2
 503              		.set	.LANCHOR0,. + 0
 504              		.type	CapSense_ramWidgetInit, %object
 505              		.size	CapSense_ramWidgetInit, 20
 506              	CapSense_ramWidgetInit:
ARM GAS  C:\Users\Jerry\AppData\Local\Temp\ccKYXNFX.s 			page 28


 507 0000 0C00     		.short	12
 508 0002 6400     		.short	100
 509 0004 28       		.byte	40
 510 0005 28       		.byte	40
 511 0006 0F       		.byte	15
 512 0007 03       		.byte	3
 513 0008 1E       		.byte	30
 514 0009 64       		.byte	100
 515 000a 20       		.byte	32
 516 000b 04       		.byte	4
 517 000c 00       		.byte	0
 518 000d 00       		.space	1
 519 000e C800     		.short	200
 520 0010 0000     		.short	0
 521 0012 C800     		.short	200
 522              		.type	CapSense_dsFlash, %object
 523              		.size	CapSense_dsFlash, 32
 524              	CapSense_dsFlash:
 525 0014 00000000 		.word	CapSense_ioList
 526 0018 1A000000 		.word	CapSense_dsRam+26
 527 001c 2E000000 		.word	CapSense_dsRam+46
 528 0020 00000000 		.word	0
 529 0024 0C000000 		.word	CapSense_debounceProximity0
 530 0028 0100     		.short	1
 531 002a 0100     		.short	1
 532 002c 06       		.byte	6
 533 002d 01       		.byte	1
 534 002e 0000     		.space	2
 535 0030 00000000 		.word	CapSense_noiseEnvlpProximity0
 536              		.type	CapSense_ioList, %object
 537              		.size	CapSense_ioList, 28
 538              	CapSense_ioList:
 539 0034 00000240 		.word	1073872896
 540 0038 08000440 		.word	1074003976
 541 003c 00000440 		.word	1074003968
 542 0040 04000440 		.word	1074003972
 543 0044 00F00000 		.word	61440
 544 0048 08000000 		.word	8
 545 004c 0C       		.byte	12
 546 004d 03       		.byte	3
 547 004e 09       		.byte	9
 548 004f 00       		.space	1
 549              		.bss
 550              		.align	1
 551              		.type	CapSense_noiseEnvlpProximity0, %object
 552              		.size	CapSense_noiseEnvlpProximity0, 12
 553              	CapSense_noiseEnvlpProximity0:
 554 0000 00000000 		.space	12
 554      00000000 
 554      00000000 
 555              		.type	CapSense_debounceProximity0, %object
 556              		.size	CapSense_debounceProximity0, 2
 557              	CapSense_debounceProximity0:
 558 000c 0000     		.space	2
 559              		.text
 560              	.Letext0:
 561              		.file 2 "Generated_Source\\PSoC4/cytypes.h"
ARM GAS  C:\Users\Jerry\AppData\Local\Temp\ccKYXNFX.s 			page 29


 562              		.file 3 "Generated_Source\\PSoC4\\CapSense_Configuration.h"
 563              		.file 4 "Generated_Source\\PSoC4\\CapSense_SmartSense_LL.h"
 564              		.file 5 "Generated_Source\\PSoC4\\CapSense_Structure.h"