ARM GAS  C:\Users\Jerry\AppData\Local\Temp\ccWYb1Fx.s 			page 1


   1              		.cpu cortex-m0plus
   2              		.fpu softvfp
   3              		.eabi_attribute 20, 1
   4              		.eabi_attribute 21, 1
   5              		.eabi_attribute 23, 3
   6              		.eabi_attribute 24, 1
   7              		.eabi_attribute 25, 1
   8              		.eabi_attribute 26, 1
   9              		.eabi_attribute 30, 4
  10              		.eabi_attribute 34, 0
  11              		.eabi_attribute 18, 4
  12              		.code	16
  13              		.file	"CapSense_Processing.c"
  14              		.text
  15              	.Ltext0:
  16              		.cfi_sections	.debug_frame
  17              		.section	.text.CapSense_DpInitialize,"ax",%progbits
  18              		.align	1
  19              		.global	CapSense_DpInitialize
  20              		.code	16
  21              		.thumb_func
  22              		.type	CapSense_DpInitialize, %function
  23              	CapSense_DpInitialize:
  24              	.LFB1:
  25              		.file 1 "Generated_Source\\PSoC4\\CapSense_Processing.c"
   1:Generated_Source\PSoC4/CapSense_Processing.c **** /***************************************************************************//**
   2:Generated_Source\PSoC4/CapSense_Processing.c **** * \file CapSense_Processing.c
   3:Generated_Source\PSoC4/CapSense_Processing.c **** * \version 3.10
   4:Generated_Source\PSoC4/CapSense_Processing.c **** *
   5:Generated_Source\PSoC4/CapSense_Processing.c **** * \brief
   6:Generated_Source\PSoC4/CapSense_Processing.c **** * This file provides the source code for the Data Processing module APIs
   7:Generated_Source\PSoC4/CapSense_Processing.c **** * of the component. The Data Processing module is responsible for the
   8:Generated_Source\PSoC4/CapSense_Processing.c **** * low level raw counts processing provided by the sensing module, maintaining
   9:Generated_Source\PSoC4/CapSense_Processing.c **** * baseline and difference values and performing high-level widget processing
  10:Generated_Source\PSoC4/CapSense_Processing.c **** * like updating button status or calculating slider position.
  11:Generated_Source\PSoC4/CapSense_Processing.c **** *
  12:Generated_Source\PSoC4/CapSense_Processing.c **** * \see CapSense P4 v3.10 Datasheet
  13:Generated_Source\PSoC4/CapSense_Processing.c **** *
  14:Generated_Source\PSoC4/CapSense_Processing.c **** *//*****************************************************************************
  15:Generated_Source\PSoC4/CapSense_Processing.c **** * Copyright (2016), Cypress Semiconductor Corporation.
  16:Generated_Source\PSoC4/CapSense_Processing.c **** ********************************************************************************
  17:Generated_Source\PSoC4/CapSense_Processing.c **** * This software is owned by Cypress Semiconductor Corporation (Cypress) and is
  18:Generated_Source\PSoC4/CapSense_Processing.c **** * protected by and subject to worldwide patent protection (United States and
  19:Generated_Source\PSoC4/CapSense_Processing.c **** * foreign), United States copyright laws and international treaty provisions.
  20:Generated_Source\PSoC4/CapSense_Processing.c **** * Cypress hereby grants to licensee a personal, non-exclusive, non-transferable
  21:Generated_Source\PSoC4/CapSense_Processing.c **** * license to copy, use, modify, create derivative works of, and compile the
  22:Generated_Source\PSoC4/CapSense_Processing.c **** * Cypress Source Code and derivative works for the sole purpose of creating
  23:Generated_Source\PSoC4/CapSense_Processing.c **** * custom software in support of licensee product to be used only in conjunction
  24:Generated_Source\PSoC4/CapSense_Processing.c **** * with a Cypress integrated circuit as specified in the applicable agreement.
  25:Generated_Source\PSoC4/CapSense_Processing.c **** * Any reproduction, modification, translation, compilation, or representation of
  26:Generated_Source\PSoC4/CapSense_Processing.c **** * this software except as specified above is prohibited without the express
  27:Generated_Source\PSoC4/CapSense_Processing.c **** * written permission of Cypress.
  28:Generated_Source\PSoC4/CapSense_Processing.c **** *
  29:Generated_Source\PSoC4/CapSense_Processing.c **** * Disclaimer: CYPRESS MAKES NO WARRANTY OF ANY KIND, EXPRESS OR IMPLIED, WITH
  30:Generated_Source\PSoC4/CapSense_Processing.c **** * REGARD TO THIS MATERIAL, INCLUDING, BUT NOT LIMITED TO, THE IMPLIED
  31:Generated_Source\PSoC4/CapSense_Processing.c **** * WARRANTIES OF MERCHANTABILITY AND FITNESS FOR A PARTICULAR PURPOSE.
  32:Generated_Source\PSoC4/CapSense_Processing.c **** * Cypress reserves the right to make changes without further notice to the
ARM GAS  C:\Users\Jerry\AppData\Local\Temp\ccWYb1Fx.s 			page 2


  33:Generated_Source\PSoC4/CapSense_Processing.c **** * materials described herein. Cypress does not assume any liability arising out
  34:Generated_Source\PSoC4/CapSense_Processing.c **** * of the application or use of any product or circuit described herein. Cypress
  35:Generated_Source\PSoC4/CapSense_Processing.c **** * does not authorize its products for use as critical components in life-support
  36:Generated_Source\PSoC4/CapSense_Processing.c **** * systems where a malfunction or failure may reasonably be expected to result in
  37:Generated_Source\PSoC4/CapSense_Processing.c **** * significant injury to the user. The inclusion of Cypress' product in a life-
  38:Generated_Source\PSoC4/CapSense_Processing.c **** * support systems application implies that the manufacturer assumes all risk of
  39:Generated_Source\PSoC4/CapSense_Processing.c **** * such use and in doing so indemnifies Cypress against all charges. Use may be
  40:Generated_Source\PSoC4/CapSense_Processing.c **** * limited by and subject to the applicable Cypress software license agreement.
  41:Generated_Source\PSoC4/CapSense_Processing.c **** *******************************************************************************/
  42:Generated_Source\PSoC4/CapSense_Processing.c **** 
  43:Generated_Source\PSoC4/CapSense_Processing.c **** #include "cytypes.h"
  44:Generated_Source\PSoC4/CapSense_Processing.c **** #include "CapSense_Configuration.h"
  45:Generated_Source\PSoC4/CapSense_Processing.c **** #include "CapSense_Processing.h"
  46:Generated_Source\PSoC4/CapSense_Processing.c **** #include "CapSense_Filter.h"
  47:Generated_Source\PSoC4/CapSense_Processing.c **** 
  48:Generated_Source\PSoC4/CapSense_Processing.c **** #if (0u != CapSense_CENTROID_EN)
  49:Generated_Source\PSoC4/CapSense_Processing.c ****     #include "CapSense_Centroid_LL.h"
  50:Generated_Source\PSoC4/CapSense_Processing.c **** #endif /* (0 != CapSense_CENTROID_EN) */
  51:Generated_Source\PSoC4/CapSense_Processing.c **** 
  52:Generated_Source\PSoC4/CapSense_Processing.c **** #if (0 != (CapSense_CSD_AUTOTUNE & CapSense_CSD_SS_TH_EN))
  53:Generated_Source\PSoC4/CapSense_Processing.c ****     #include "CapSense_SmartSense_LL.h"
  54:Generated_Source\PSoC4/CapSense_Processing.c **** #endif /* (0 != (CapSense_CSD_AUTOTUNE & CapSense_CSD_SS_TH_EN)) */
  55:Generated_Source\PSoC4/CapSense_Processing.c **** 
  56:Generated_Source\PSoC4/CapSense_Processing.c **** #if (CapSense_ENABLE == CapSense_SELF_TEST_EN)
  57:Generated_Source\PSoC4/CapSense_Processing.c ****     #include "CapSense_SelfTest.h"
  58:Generated_Source\PSoC4/CapSense_Processing.c **** #endif
  59:Generated_Source\PSoC4/CapSense_Processing.c **** 
  60:Generated_Source\PSoC4/CapSense_Processing.c **** #include "CyLib.h"
  61:Generated_Source\PSoC4/CapSense_Processing.c **** 
  62:Generated_Source\PSoC4/CapSense_Processing.c **** /**************************************************************************************************
  63:Generated_Source\PSoC4/CapSense_Processing.c **** * Local definition
  64:Generated_Source\PSoC4/CapSense_Processing.c **** ***************************************************************************************************
  65:Generated_Source\PSoC4/CapSense_Processing.c **** 
  66:Generated_Source\PSoC4/CapSense_Processing.c **** /* This definition resolves to TRUE if any of the FW filters for raw counts are enabled */
  67:Generated_Source\PSoC4/CapSense_Processing.c **** #define DP_FW_FILTER_EN                                 \
  68:Generated_Source\PSoC4/CapSense_Processing.c ****             (CapSense_REGULAR_RC_FILTER_EN |  \
  69:Generated_Source\PSoC4/CapSense_Processing.c ****              CapSense_PROX_RC_FILTER_EN)
  70:Generated_Source\PSoC4/CapSense_Processing.c **** 
  71:Generated_Source\PSoC4/CapSense_Processing.c **** /* This definition resolves to TRUE if any of the position filters are enabled */
  72:Generated_Source\PSoC4/CapSense_Processing.c **** #define DP_POSITION_FILTER_EN                           \
  73:Generated_Source\PSoC4/CapSense_Processing.c ****             (CapSense_POS_IIR_FILTER_EN      || \
  74:Generated_Source\PSoC4/CapSense_Processing.c ****              CapSense_POS_MEDIAN_FILTER_EN   || \
  75:Generated_Source\PSoC4/CapSense_Processing.c ****              CapSense_POS_AVERAGE_FILTER_EN  || \
  76:Generated_Source\PSoC4/CapSense_Processing.c ****              CapSense_POS_JITTER_FILTER_EN)
  77:Generated_Source\PSoC4/CapSense_Processing.c **** 
  78:Generated_Source\PSoC4/CapSense_Processing.c **** /* This definition resolves to TRUE if any of position filters are enabled and component has slider
  79:Generated_Source\PSoC4/CapSense_Processing.c ****  * The processing function of the CSD touchpad reuses the filtering function of the slider widget. 
  80:Generated_Source\PSoC4/CapSense_Processing.c **** #define DP_LINEAR_SLIDER_FILTER_EN                                             \
  81:Generated_Source\PSoC4/CapSense_Processing.c ****            (DP_POSITION_FILTER_EN && (CapSense_TOTAL_LINEAR_SLIDERS || \
  82:Generated_Source\PSoC4/CapSense_Processing.c ****                                       CapSense_CSD_TOUCHPAD_WIDGET_EN))
  83:Generated_Source\PSoC4/CapSense_Processing.c **** 
  84:Generated_Source\PSoC4/CapSense_Processing.c **** /* UINT32 constant with all odd bits set. It is used by the processing function of the Proximity wi
  85:Generated_Source\PSoC4/CapSense_Processing.c **** *  determine type of the status bit: odd bits report proximity status; even bits report touch statu
  86:Generated_Source\PSoC4/CapSense_Processing.c ****  */
  87:Generated_Source\PSoC4/CapSense_Processing.c **** #define UINT32_ODD_BITS_CONST       (0x55555555u)
  88:Generated_Source\PSoC4/CapSense_Processing.c **** 
  89:Generated_Source\PSoC4/CapSense_Processing.c **** /* Default value for the Off Debounce counter when the Off Debounce is disabled */
ARM GAS  C:\Users\Jerry\AppData\Local\Temp\ccWYb1Fx.s 			page 3


  90:Generated_Source\PSoC4/CapSense_Processing.c **** #define DEFAULT_OFF_DEBOUNCE_VALUE  (1u)
  91:Generated_Source\PSoC4/CapSense_Processing.c **** #define PERCENTAGE_100              (0x00000064Lu)
  92:Generated_Source\PSoC4/CapSense_Processing.c **** #define TEMP_BUFFER_MSB_SHIFT       (16)
  93:Generated_Source\PSoC4/CapSense_Processing.c **** 
  94:Generated_Source\PSoC4/CapSense_Processing.c **** /**************************************************************************************************
  95:Generated_Source\PSoC4/CapSense_Processing.c **** * Local variables
  96:Generated_Source\PSoC4/CapSense_Processing.c **** ***************************************************************************************************
  97:Generated_Source\PSoC4/CapSense_Processing.c **** #if (0u != CapSense_CSX_MULTIPHASE_TX_EN)
  98:Generated_Source\PSoC4/CapSense_Processing.c ****     static uint16 deconvRowData[CapSense_CSX_MAX_TX_PHASE_LENGTH];
  99:Generated_Source\PSoC4/CapSense_Processing.c **** #endif
 100:Generated_Source\PSoC4/CapSense_Processing.c **** 
 101:Generated_Source\PSoC4/CapSense_Processing.c **** 
 102:Generated_Source\PSoC4/CapSense_Processing.c **** /**************************************************************************************************
 103:Generated_Source\PSoC4/CapSense_Processing.c **** * Static Function Prototypes
 104:Generated_Source\PSoC4/CapSense_Processing.c **** ***************************************************************************************************
 105:Generated_Source\PSoC4/CapSense_Processing.c **** /**
 106:Generated_Source\PSoC4/CapSense_Processing.c **** * \if SECTION_CAPSENSE_INTERNAL
 107:Generated_Source\PSoC4/CapSense_Processing.c **** * \addtogroup group_capsense_internal
 108:Generated_Source\PSoC4/CapSense_Processing.c **** * \{
 109:Generated_Source\PSoC4/CapSense_Processing.c **** */
 110:Generated_Source\PSoC4/CapSense_Processing.c **** #if (0u != CapSense_TOTAL_LINEAR_SLIDERS)
 111:Generated_Source\PSoC4/CapSense_Processing.c ****     static CY_INLINE void DpUpdateLinSlider(
 112:Generated_Source\PSoC4/CapSense_Processing.c ****                         const uint16 newPos[], uint32 numTouches,
 113:Generated_Source\PSoC4/CapSense_Processing.c ****                         CapSense_FLASH_WD_STRUCT const *ptrFlashWdgt,
 114:Generated_Source\PSoC4/CapSense_Processing.c ****                         CapSense_RAM_WD_SLIDER_STRUCT *ptrRamWdgt);
 115:Generated_Source\PSoC4/CapSense_Processing.c **** #endif /* #if (0u != CapSense_TOTAL_LINEAR_SLIDERS) */
 116:Generated_Source\PSoC4/CapSense_Processing.c **** 
 117:Generated_Source\PSoC4/CapSense_Processing.c **** #if (0u != DP_LINEAR_SLIDER_FILTER_EN)
 118:Generated_Source\PSoC4/CapSense_Processing.c ****     static CY_INLINE void DpFilterLinSlider(
 119:Generated_Source\PSoC4/CapSense_Processing.c ****                         uint16 newPos, uint32 staticConfig, uint16 *ptrCurrPos,
 120:Generated_Source\PSoC4/CapSense_Processing.c ****                         CapSense_SLIDER_POS_HISTORY_STRUCT *ptrHistory);
 121:Generated_Source\PSoC4/CapSense_Processing.c **** #endif /* #if (0u != DP_LINEAR_SLIDER_FILTER_EN) */
 122:Generated_Source\PSoC4/CapSense_Processing.c **** 
 123:Generated_Source\PSoC4/CapSense_Processing.c **** #if (0u != CapSense_TOTAL_RADIAL_SLIDERS)
 124:Generated_Source\PSoC4/CapSense_Processing.c ****     static CY_INLINE void DpUpdateRadSlider(
 125:Generated_Source\PSoC4/CapSense_Processing.c ****                         const uint16 newPos[], uint32 numTouches,
 126:Generated_Source\PSoC4/CapSense_Processing.c ****                         CapSense_FLASH_WD_STRUCT const * ptrFlashWdgt,
 127:Generated_Source\PSoC4/CapSense_Processing.c ****                         CapSense_RAM_WD_SLIDER_STRUCT *ptrRamWdgt);
 128:Generated_Source\PSoC4/CapSense_Processing.c **** #endif /* #if (0u != CapSense_TOTAL_RADIAL_SLIDERS) */
 129:Generated_Source\PSoC4/CapSense_Processing.c **** 
 130:Generated_Source\PSoC4/CapSense_Processing.c **** #if (0u != CapSense_CSD_TOUCHPAD_WIDGET_EN)
 131:Generated_Source\PSoC4/CapSense_Processing.c ****     static CY_INLINE void CapSense_DpInitCsdTouchpad(CapSense_FLASH_WD_STRUCT const * ptrFlashWdgt)
 132:Generated_Source\PSoC4/CapSense_Processing.c **** #endif /* #if (0u != CapSense_CSD_TOUCHPAD_WIDGET_EN) */
 133:Generated_Source\PSoC4/CapSense_Processing.c **** 
 134:Generated_Source\PSoC4/CapSense_Processing.c **** #if (0u != CapSense_CSX_TOUCHPAD_WIDGET_EN)
 135:Generated_Source\PSoC4/CapSense_Processing.c ****     static CY_INLINE void CapSense_DpInitCsxTouchpad(CapSense_FLASH_WD_STRUCT const * ptrFlashWdgt)
 136:Generated_Source\PSoC4/CapSense_Processing.c **** #endif /* #if (0u != CapSense_CSX_TOUCHPAD_WIDGET_EN) */
 137:Generated_Source\PSoC4/CapSense_Processing.c **** 
 138:Generated_Source\PSoC4/CapSense_Processing.c **** #if (0u != CapSense_SLIDER_WIDGET_EN)
 139:Generated_Source\PSoC4/CapSense_Processing.c ****     static CY_INLINE void CapSense_DpInitSlider(CapSense_FLASH_WD_STRUCT const * ptrFlashWdgt);
 140:Generated_Source\PSoC4/CapSense_Processing.c **** #endif /* #if (0u != CapSense_SLIDER_WIDGET_EN) */
 141:Generated_Source\PSoC4/CapSense_Processing.c **** 
 142:Generated_Source\PSoC4/CapSense_Processing.c **** #if (0u != CapSense_CSD_MATRIX_WIDGET_EN)
 143:Generated_Source\PSoC4/CapSense_Processing.c ****     static CY_INLINE void CapSense_DpInitCsdMatrix(CapSense_FLASH_WD_STRUCT const * ptrFlashWdgt);
 144:Generated_Source\PSoC4/CapSense_Processing.c **** #endif /* #if (0u != CapSense_CSD_MATRIX_WIDGET_EN) */
 145:Generated_Source\PSoC4/CapSense_Processing.c **** 
 146:Generated_Source\PSoC4/CapSense_Processing.c **** /** \}
ARM GAS  C:\Users\Jerry\AppData\Local\Temp\ccWYb1Fx.s 			page 4


 147:Generated_Source\PSoC4/CapSense_Processing.c **** * \endif */
 148:Generated_Source\PSoC4/CapSense_Processing.c **** 
 149:Generated_Source\PSoC4/CapSense_Processing.c **** #if (0u != CapSense_CSD_TOUCHPAD_WIDGET_EN)
 150:Generated_Source\PSoC4/CapSense_Processing.c **** /*******************************************************************************
 151:Generated_Source\PSoC4/CapSense_Processing.c **** * Function Name: CapSense_DpInitCsdTouchpad
 152:Generated_Source\PSoC4/CapSense_Processing.c **** ****************************************************************************//**
 153:Generated_Source\PSoC4/CapSense_Processing.c **** *
 154:Generated_Source\PSoC4/CapSense_Processing.c **** * \brief
 155:Generated_Source\PSoC4/CapSense_Processing.c **** *  Performs initialization of the CSD touchpad widget.
 156:Generated_Source\PSoC4/CapSense_Processing.c **** *   - Resets the position data to NONE
 157:Generated_Source\PSoC4/CapSense_Processing.c **** *   - Initializes the median filter history if the appropriate position filter is enabled.
 158:Generated_Source\PSoC4/CapSense_Processing.c **** *
 159:Generated_Source\PSoC4/CapSense_Processing.c **** * \details
 160:Generated_Source\PSoC4/CapSense_Processing.c **** *  The position data is always reset to the CapSense_TOUCHPAD_POS_NONE value.
 161:Generated_Source\PSoC4/CapSense_Processing.c **** *  The same happens to the median filter history data if this type of filter is enabled.
 162:Generated_Source\PSoC4/CapSense_Processing.c **** *
 163:Generated_Source\PSoC4/CapSense_Processing.c **** *******************************************************************************/
 164:Generated_Source\PSoC4/CapSense_Processing.c **** static CY_INLINE void CapSense_DpInitCsdTouchpad(CapSense_FLASH_WD_STRUCT const * ptrFlashWdgt)
 165:Generated_Source\PSoC4/CapSense_Processing.c **** {
 166:Generated_Source\PSoC4/CapSense_Processing.c ****     CapSense_RAM_WD_CSD_TOUCHPAD_STRUCT *ptrWdTouchpad;
 167:Generated_Source\PSoC4/CapSense_Processing.c **** 
 168:Generated_Source\PSoC4/CapSense_Processing.c ****     #if (0u != CapSense_POS_MEDIAN_FILTER_EN)
 169:Generated_Source\PSoC4/CapSense_Processing.c ****         CapSense_TOUCHPAD_POS_HISTORY_STRUCT *ptrHistory;
 170:Generated_Source\PSoC4/CapSense_Processing.c ****     #endif  /* #if (0u != CapSense_POS_MEDIAN_FILTER_EN) */
 171:Generated_Source\PSoC4/CapSense_Processing.c **** 
 172:Generated_Source\PSoC4/CapSense_Processing.c ****     ptrWdTouchpad = ptrFlashWdgt->ptr2WdgtRam;
 173:Generated_Source\PSoC4/CapSense_Processing.c **** 
 174:Generated_Source\PSoC4/CapSense_Processing.c ****     /* Reset position data */
 175:Generated_Source\PSoC4/CapSense_Processing.c ****     ptrWdTouchpad->posX = CapSense_TOUCHPAD_POS_NONE;
 176:Generated_Source\PSoC4/CapSense_Processing.c ****     ptrWdTouchpad->posY = CapSense_TOUCHPAD_POS_NONE;
 177:Generated_Source\PSoC4/CapSense_Processing.c **** 
 178:Generated_Source\PSoC4/CapSense_Processing.c ****     /* Reset median filter */
 179:Generated_Source\PSoC4/CapSense_Processing.c ****     #if (0u != CapSense_POS_MEDIAN_FILTER_EN)
 180:Generated_Source\PSoC4/CapSense_Processing.c ****         ptrHistory = ptrFlashWdgt->ptr2PosHistory;
 181:Generated_Source\PSoC4/CapSense_Processing.c **** 
 182:Generated_Source\PSoC4/CapSense_Processing.c ****         if (NULL != ptrHistory)
 183:Generated_Source\PSoC4/CapSense_Processing.c ****         {
 184:Generated_Source\PSoC4/CapSense_Processing.c ****             ptrHistory->xPos.posMedianZ1 = CapSense_TOUCHPAD_POS_NONE;
 185:Generated_Source\PSoC4/CapSense_Processing.c ****             ptrHistory->xPos.posMedianZ2 = CapSense_TOUCHPAD_POS_NONE;
 186:Generated_Source\PSoC4/CapSense_Processing.c **** 
 187:Generated_Source\PSoC4/CapSense_Processing.c ****             ptrHistory->yPos.posMedianZ1 = CapSense_TOUCHPAD_POS_NONE;
 188:Generated_Source\PSoC4/CapSense_Processing.c ****             ptrHistory->yPos.posMedianZ2 = CapSense_TOUCHPAD_POS_NONE;
 189:Generated_Source\PSoC4/CapSense_Processing.c ****         }
 190:Generated_Source\PSoC4/CapSense_Processing.c ****     #endif /* #if (0u != CapSense_POS_MEDIAN_FILTER_EN) */
 191:Generated_Source\PSoC4/CapSense_Processing.c **** }
 192:Generated_Source\PSoC4/CapSense_Processing.c **** #endif /* #if (0u != CapSense_CSD_TOUCHPAD_WIDGET_EN) */
 193:Generated_Source\PSoC4/CapSense_Processing.c **** 
 194:Generated_Source\PSoC4/CapSense_Processing.c **** #if (0u != CapSense_CSX_TOUCHPAD_WIDGET_EN)
 195:Generated_Source\PSoC4/CapSense_Processing.c **** /*******************************************************************************
 196:Generated_Source\PSoC4/CapSense_Processing.c **** * Function Name: CapSense_DpInitCsxTouchpad
 197:Generated_Source\PSoC4/CapSense_Processing.c **** ****************************************************************************//**
 198:Generated_Source\PSoC4/CapSense_Processing.c **** *
 199:Generated_Source\PSoC4/CapSense_Processing.c **** * \brief
 200:Generated_Source\PSoC4/CapSense_Processing.c **** *  Performs initialization of the CSX touchpad widget i.e. Resets the position data to NONE.
 201:Generated_Source\PSoC4/CapSense_Processing.c **** *
 202:Generated_Source\PSoC4/CapSense_Processing.c **** * \details
 203:Generated_Source\PSoC4/CapSense_Processing.c **** *  The position data is always reset to the CapSense_TOUCHPAD_POS_NONE value.
ARM GAS  C:\Users\Jerry\AppData\Local\Temp\ccWYb1Fx.s 			page 5


 204:Generated_Source\PSoC4/CapSense_Processing.c **** *
 205:Generated_Source\PSoC4/CapSense_Processing.c **** *******************************************************************************/
 206:Generated_Source\PSoC4/CapSense_Processing.c **** static CY_INLINE void CapSense_DpInitCsxTouchpad(CapSense_FLASH_WD_STRUCT const * ptrFlashWdgt)
 207:Generated_Source\PSoC4/CapSense_Processing.c **** {
 208:Generated_Source\PSoC4/CapSense_Processing.c ****     CapSense_RAM_WD_CSX_TOUCHPAD_STRUCT *ptrWdTouchpad;
 209:Generated_Source\PSoC4/CapSense_Processing.c **** 
 210:Generated_Source\PSoC4/CapSense_Processing.c ****     ptrWdTouchpad = ptrFlashWdgt->ptr2WdgtRam;
 211:Generated_Source\PSoC4/CapSense_Processing.c **** 
 212:Generated_Source\PSoC4/CapSense_Processing.c ****     /* Reset position data for finger */
 213:Generated_Source\PSoC4/CapSense_Processing.c ****     ptrWdTouchpad->touch[0u].x = CapSense_TOUCHPAD_POS_NONE;
 214:Generated_Source\PSoC4/CapSense_Processing.c ****     ptrWdTouchpad->touch[0u].y = CapSense_TOUCHPAD_POS_NONE;
 215:Generated_Source\PSoC4/CapSense_Processing.c ****     ptrWdTouchpad->touch[0u].z = LO8(CapSense_TOUCHPAD_POS_NONE);
 216:Generated_Source\PSoC4/CapSense_Processing.c **** 
 217:Generated_Source\PSoC4/CapSense_Processing.c ****     #if (CapSense_CSX_MAX_FINGERS > 1u)
 218:Generated_Source\PSoC4/CapSense_Processing.c ****         ptrWdTouchpad->touch[1u].x = CapSense_TOUCHPAD_POS_NONE;
 219:Generated_Source\PSoC4/CapSense_Processing.c ****         ptrWdTouchpad->touch[1u].y = CapSense_TOUCHPAD_POS_NONE;
 220:Generated_Source\PSoC4/CapSense_Processing.c ****         ptrWdTouchpad->touch[1u].z = LO8(CapSense_TOUCHPAD_POS_NONE);
 221:Generated_Source\PSoC4/CapSense_Processing.c ****     #endif /* #if (CapSense_CSX_MAX_FINGERS > 1u) */
 222:Generated_Source\PSoC4/CapSense_Processing.c **** 
 223:Generated_Source\PSoC4/CapSense_Processing.c ****     #if (CapSense_CSX_MAX_FINGERS > 2u)
 224:Generated_Source\PSoC4/CapSense_Processing.c ****         ptrWdTouchpad->touch[2u].x = CapSense_TOUCHPAD_POS_NONE;
 225:Generated_Source\PSoC4/CapSense_Processing.c ****         ptrWdTouchpad->touch[2u].y = CapSense_TOUCHPAD_POS_NONE;
 226:Generated_Source\PSoC4/CapSense_Processing.c ****         ptrWdTouchpad->touch[2u].z = LO8(CapSense_TOUCHPAD_POS_NONE);
 227:Generated_Source\PSoC4/CapSense_Processing.c ****     #endif /* #if (CapSense_CSX_MAX_FINGERS > 2u) */
 228:Generated_Source\PSoC4/CapSense_Processing.c **** }
 229:Generated_Source\PSoC4/CapSense_Processing.c **** #endif /* #if (0u != CapSense_CSX_TOUCHPAD_WIDGET_EN) */
 230:Generated_Source\PSoC4/CapSense_Processing.c **** 
 231:Generated_Source\PSoC4/CapSense_Processing.c **** #if (0u != CapSense_SLIDER_WIDGET_EN)
 232:Generated_Source\PSoC4/CapSense_Processing.c **** /*******************************************************************************
 233:Generated_Source\PSoC4/CapSense_Processing.c **** * Function Name: CapSense_DpInitSlider
 234:Generated_Source\PSoC4/CapSense_Processing.c **** ****************************************************************************//**
 235:Generated_Source\PSoC4/CapSense_Processing.c **** *
 236:Generated_Source\PSoC4/CapSense_Processing.c **** * \brief
 237:Generated_Source\PSoC4/CapSense_Processing.c **** *  Performs initialization of the Radial and Linear Slider widget.
 238:Generated_Source\PSoC4/CapSense_Processing.c **** *   - Resets the position data to NONE
 239:Generated_Source\PSoC4/CapSense_Processing.c **** *   - Initializes the median filter history to NONE if it is enabled.
 240:Generated_Source\PSoC4/CapSense_Processing.c **** *
 241:Generated_Source\PSoC4/CapSense_Processing.c **** * \details
 242:Generated_Source\PSoC4/CapSense_Processing.c **** *  Position data is always reset to the CapSense_SLIDER_POS_NONE value.
 243:Generated_Source\PSoC4/CapSense_Processing.c **** *  The same happens to the median filter history data.
 244:Generated_Source\PSoC4/CapSense_Processing.c **** *
 245:Generated_Source\PSoC4/CapSense_Processing.c **** *******************************************************************************/
 246:Generated_Source\PSoC4/CapSense_Processing.c **** static CY_INLINE void CapSense_DpInitSlider(CapSense_FLASH_WD_STRUCT const * ptrFlashWdgt)
 247:Generated_Source\PSoC4/CapSense_Processing.c **** {
 248:Generated_Source\PSoC4/CapSense_Processing.c ****     uint32 idx;
 249:Generated_Source\PSoC4/CapSense_Processing.c ****     CapSense_RAM_WD_SLIDER_STRUCT *ptrWdSlider;
 250:Generated_Source\PSoC4/CapSense_Processing.c **** 
 251:Generated_Source\PSoC4/CapSense_Processing.c ****     #if (0u != CapSense_POS_MEDIAN_FILTER_EN)
 252:Generated_Source\PSoC4/CapSense_Processing.c ****         CapSense_SLIDER_POS_HISTORY_STRUCT *ptrHistory;
 253:Generated_Source\PSoC4/CapSense_Processing.c ****     #endif /* #if (0u != CapSense_POS_MEDIAN_FILTER_EN) */
 254:Generated_Source\PSoC4/CapSense_Processing.c **** 
 255:Generated_Source\PSoC4/CapSense_Processing.c ****     ptrWdSlider = ptrFlashWdgt->ptr2WdgtRam;
 256:Generated_Source\PSoC4/CapSense_Processing.c **** 
 257:Generated_Source\PSoC4/CapSense_Processing.c ****     /* Reset slider position data to NONE */
 258:Generated_Source\PSoC4/CapSense_Processing.c ****     for (idx = 0u; idx < CapSense_NUM_CENTROIDS; idx++)
 259:Generated_Source\PSoC4/CapSense_Processing.c ****     {
 260:Generated_Source\PSoC4/CapSense_Processing.c ****         ptrWdSlider->position[idx] = CapSense_SLIDER_POS_NONE;
ARM GAS  C:\Users\Jerry\AppData\Local\Temp\ccWYb1Fx.s 			page 6


 261:Generated_Source\PSoC4/CapSense_Processing.c **** 
 262:Generated_Source\PSoC4/CapSense_Processing.c ****         #if (0u != CapSense_POS_MEDIAN_FILTER_EN)
 263:Generated_Source\PSoC4/CapSense_Processing.c ****             ptrHistory = ptrFlashWdgt->ptr2PosHistory;
 264:Generated_Source\PSoC4/CapSense_Processing.c ****             
 265:Generated_Source\PSoC4/CapSense_Processing.c ****             if (NULL != ptrHistory)
 266:Generated_Source\PSoC4/CapSense_Processing.c ****             {
 267:Generated_Source\PSoC4/CapSense_Processing.c ****                 ptrHistory[idx].posMedianZ1 = CapSense_SLIDER_POS_NONE;
 268:Generated_Source\PSoC4/CapSense_Processing.c ****                 ptrHistory[idx].posMedianZ2 = CapSense_SLIDER_POS_NONE;
 269:Generated_Source\PSoC4/CapSense_Processing.c ****             }
 270:Generated_Source\PSoC4/CapSense_Processing.c ****         #endif /* #if (0u != CapSense_POS_MEDIAN_FILTER_EN) */
 271:Generated_Source\PSoC4/CapSense_Processing.c ****     }
 272:Generated_Source\PSoC4/CapSense_Processing.c **** }
 273:Generated_Source\PSoC4/CapSense_Processing.c **** #endif /* #if (0u != CapSense_SLIDER_WIDGET_EN) */
 274:Generated_Source\PSoC4/CapSense_Processing.c **** 
 275:Generated_Source\PSoC4/CapSense_Processing.c **** #if (0u != CapSense_CSD_MATRIX_WIDGET_EN)
 276:Generated_Source\PSoC4/CapSense_Processing.c **** /*******************************************************************************
 277:Generated_Source\PSoC4/CapSense_Processing.c **** * Function Name: CapSense_DpInitCsdMatrix
 278:Generated_Source\PSoC4/CapSense_Processing.c **** ****************************************************************************//**
 279:Generated_Source\PSoC4/CapSense_Processing.c **** *
 280:Generated_Source\PSoC4/CapSense_Processing.c **** * \brief
 281:Generated_Source\PSoC4/CapSense_Processing.c **** *  Performs initialization of the CSD Matrix Buttons widget.
 282:Generated_Source\PSoC4/CapSense_Processing.c **** *   - Resets the active button position data to NONE.
 283:Generated_Source\PSoC4/CapSense_Processing.c **** *
 284:Generated_Source\PSoC4/CapSense_Processing.c **** * \details
 285:Generated_Source\PSoC4/CapSense_Processing.c **** *  Position data is always reset to the CapSense_MATRIX_POS_NONE value.
 286:Generated_Source\PSoC4/CapSense_Processing.c **** *
 287:Generated_Source\PSoC4/CapSense_Processing.c **** *******************************************************************************/
 288:Generated_Source\PSoC4/CapSense_Processing.c **** static CY_INLINE void CapSense_DpInitCsdMatrix(CapSense_FLASH_WD_STRUCT const * ptrFlashWdgt)
 289:Generated_Source\PSoC4/CapSense_Processing.c **** {
 290:Generated_Source\PSoC4/CapSense_Processing.c ****     CapSense_RAM_WD_CSD_MATRIX_STRUCT *ptrRamWdgt;
 291:Generated_Source\PSoC4/CapSense_Processing.c **** 
 292:Generated_Source\PSoC4/CapSense_Processing.c ****     ptrRamWdgt = ptrFlashWdgt->ptr2WdgtRam;
 293:Generated_Source\PSoC4/CapSense_Processing.c **** 
 294:Generated_Source\PSoC4/CapSense_Processing.c ****     /* Reset sensor id, row and col registers in data structure */
 295:Generated_Source\PSoC4/CapSense_Processing.c ****     ptrRamWdgt->posRow   = CapSense_MATRIX_POS_NONE;
 296:Generated_Source\PSoC4/CapSense_Processing.c ****     ptrRamWdgt->posCol   = CapSense_MATRIX_POS_NONE;
 297:Generated_Source\PSoC4/CapSense_Processing.c ****     ptrRamWdgt->posSnsId = CapSense_MATRIX_POS_NONE;
 298:Generated_Source\PSoC4/CapSense_Processing.c **** }
 299:Generated_Source\PSoC4/CapSense_Processing.c **** #endif /* #if (0u != CapSense_CSD_MATRIX_WIDGET_EN) */
 300:Generated_Source\PSoC4/CapSense_Processing.c **** 
 301:Generated_Source\PSoC4/CapSense_Processing.c **** /*******************************************************************************
 302:Generated_Source\PSoC4/CapSense_Processing.c **** * Function Name: CapSense_DpInitialize
 303:Generated_Source\PSoC4/CapSense_Processing.c **** ****************************************************************************//**
 304:Generated_Source\PSoC4/CapSense_Processing.c **** *
 305:Generated_Source\PSoC4/CapSense_Processing.c **** * \brief
 306:Generated_Source\PSoC4/CapSense_Processing.c **** *  Performs initialization of the data processing FW module:
 307:Generated_Source\PSoC4/CapSense_Processing.c **** *   - Resets the de-bounce counters of all widgets
 308:Generated_Source\PSoC4/CapSense_Processing.c **** *   - Resets the position filter history for slider and touchpad widgets
 309:Generated_Source\PSoC4/CapSense_Processing.c **** *   - Clears widget and sensor statuses
 310:Generated_Source\PSoC4/CapSense_Processing.c **** *   - Enables all widgets.
 311:Generated_Source\PSoC4/CapSense_Processing.c **** *
 312:Generated_Source\PSoC4/CapSense_Processing.c **** * \details
 313:Generated_Source\PSoC4/CapSense_Processing.c **** *  The Button and Matrix Button widgets have individual de-bounce counter per
 314:Generated_Source\PSoC4/CapSense_Processing.c **** *  sensor for the CSD widgets and per node for the CSX widgets.
 315:Generated_Source\PSoC4/CapSense_Processing.c **** *
 316:Generated_Source\PSoC4/CapSense_Processing.c **** *  The Slider and Touchpad widgets have a single de-bounce counter per widget.
 317:Generated_Source\PSoC4/CapSense_Processing.c **** *
ARM GAS  C:\Users\Jerry\AppData\Local\Temp\ccWYb1Fx.s 			page 7


 318:Generated_Source\PSoC4/CapSense_Processing.c **** *  The Proximity widget has two de-bounce counters per sensor. One for the
 319:Generated_Source\PSoC4/CapSense_Processing.c **** *  proximity event and second for the touch event.
 320:Generated_Source\PSoC4/CapSense_Processing.c **** *
 321:Generated_Source\PSoC4/CapSense_Processing.c **** *  All debounce counters during initialization are set to the value of the
 322:Generated_Source\PSoC4/CapSense_Processing.c **** *  onDebounce widget parameter.
 323:Generated_Source\PSoC4/CapSense_Processing.c **** *
 324:Generated_Source\PSoC4/CapSense_Processing.c **** *******************************************************************************/
 325:Generated_Source\PSoC4/CapSense_Processing.c **** void CapSense_DpInitialize(void)
 326:Generated_Source\PSoC4/CapSense_Processing.c **** {
  26              		.loc 1 326 0
  27              		.cfi_startproc
  28              	.LVL0:
 327:Generated_Source\PSoC4/CapSense_Processing.c ****     uint32 wdgtId;
 328:Generated_Source\PSoC4/CapSense_Processing.c ****     CapSense_WD_TYPE_ENUM widgetType;
 329:Generated_Source\PSoC4/CapSense_Processing.c ****     CapSense_RAM_WD_BASE_STRUCT * ptrRamWdgt;
 330:Generated_Source\PSoC4/CapSense_Processing.c ****     CapSense_FLASH_WD_STRUCT const * ptrFlashWdgt;
 331:Generated_Source\PSoC4/CapSense_Processing.c **** 
 332:Generated_Source\PSoC4/CapSense_Processing.c ****     for (wdgtId = 0u; wdgtId < CapSense_WDGT_STATUS_WORDS; wdgtId++)
 333:Generated_Source\PSoC4/CapSense_Processing.c ****     {
 334:Generated_Source\PSoC4/CapSense_Processing.c ****         /* Clear widget status */
 335:Generated_Source\PSoC4/CapSense_Processing.c ****         CapSense_dsRam.wdgtStatus[wdgtId] = 0u;
 336:Generated_Source\PSoC4/CapSense_Processing.c **** 
 337:Generated_Source\PSoC4/CapSense_Processing.c ****         /* Enable all widgets */
 338:Generated_Source\PSoC4/CapSense_Processing.c ****         CapSense_dsRam.wdgtEnable[wdgtId] = 0xFFFFFFFFLu;
  29              		.loc 1 338 0
  30 0000 0123     		mov	r3, #1
 326:Generated_Source\PSoC4/CapSense_Processing.c ****     uint32 wdgtId;
  31              		.loc 1 326 0
  32 0002 07B5     		push	{r0, r1, r2, lr}
  33              		.cfi_def_cfa_offset 16
  34              		.cfi_offset 0, -16
  35              		.cfi_offset 1, -12
  36              		.cfi_offset 2, -8
  37              		.cfi_offset 14, -4
 335:Generated_Source\PSoC4/CapSense_Processing.c **** 
  38              		.loc 1 335 0
  39 0004 0021     		mov	r1, #0
  40 0006 0B4A     		ldr	r2, .L8
  41              		.loc 1 338 0
  42 0008 5B42     		neg	r3, r3
  43 000a D360     		str	r3, [r2, #12]
  44              	.LVL1:
 339:Generated_Source\PSoC4/CapSense_Processing.c **** 
 340:Generated_Source\PSoC4/CapSense_Processing.c ****         /* Set all widgets to working state if the Self-Test is not enabled */
 341:Generated_Source\PSoC4/CapSense_Processing.c ****         #if (0u != CapSense_SELF_TEST_EN)
 342:Generated_Source\PSoC4/CapSense_Processing.c ****             CapSense_dsRam.wdgtWorking[wdgtId] = 0xFFFFFFFFLu;
 343:Generated_Source\PSoC4/CapSense_Processing.c ****         #endif /* #if (0u == CapSense_SELF_TEST_EN) */
 344:Generated_Source\PSoC4/CapSense_Processing.c ****     }
 345:Generated_Source\PSoC4/CapSense_Processing.c **** 
 346:Generated_Source\PSoC4/CapSense_Processing.c ****     ptrFlashWdgt = CapSense_dsFlash.wdgtArray;
 347:Generated_Source\PSoC4/CapSense_Processing.c **** 
 348:Generated_Source\PSoC4/CapSense_Processing.c ****     for (wdgtId = CapSense_TOTAL_WIDGETS; wdgtId-- > 0u; )
 349:Generated_Source\PSoC4/CapSense_Processing.c ****     {
 350:Generated_Source\PSoC4/CapSense_Processing.c ****         ptrRamWdgt = ptrFlashWdgt->ptr2WdgtRam;
  45              		.loc 1 350 0
  46 000c 0A4B     		ldr	r3, .L8+4
 335:Generated_Source\PSoC4/CapSense_Processing.c **** 
ARM GAS  C:\Users\Jerry\AppData\Local\Temp\ccWYb1Fx.s 			page 8


  47              		.loc 1 335 0
  48 000e 1161     		str	r1, [r2, #16]
  49              		.loc 1 350 0
  50 0010 5868     		ldr	r0, [r3, #4]
 351:Generated_Source\PSoC4/CapSense_Processing.c ****         widgetType = (CapSense_WD_TYPE_ENUM)ptrFlashWdgt->wdgtType;
 352:Generated_Source\PSoC4/CapSense_Processing.c **** 
 353:Generated_Source\PSoC4/CapSense_Processing.c ****         /* Clear all sensor statuses */
 354:Generated_Source\PSoC4/CapSense_Processing.c ****         CapSense_dsRam.snsStatus[wdgtId] = 0u;
  51              		.loc 1 354 0
  52 0012 1175     		strb	r1, [r2, #20]
 350:Generated_Source\PSoC4/CapSense_Processing.c ****         widgetType = (CapSense_WD_TYPE_ENUM)ptrFlashWdgt->wdgtType;
  53              		.loc 1 350 0
  54 0014 0190     		str	r0, [sp, #4]
  55              	.LVL2:
 351:Generated_Source\PSoC4/CapSense_Processing.c ****         widgetType = (CapSense_WD_TYPE_ENUM)ptrFlashWdgt->wdgtType;
  56              		.loc 1 351 0
  57 0016 187E     		ldrb	r0, [r3, #24]
  58              	.LVL3:
 355:Generated_Source\PSoC4/CapSense_Processing.c **** 
 356:Generated_Source\PSoC4/CapSense_Processing.c ****         /* Reset de-bounce counters */
 357:Generated_Source\PSoC4/CapSense_Processing.c ****         switch (widgetType)
  59              		.loc 1 357 0
  60 0018 0628     		cmp	r0, #6
  61 001a 0AD1     		bne	.L1
 358:Generated_Source\PSoC4/CapSense_Processing.c ****         {
 359:Generated_Source\PSoC4/CapSense_Processing.c ****         #if (0u != CapSense_MATRIX_WIDGET_EN)
 360:Generated_Source\PSoC4/CapSense_Processing.c ****             case CapSense_WD_MATRIX_BUTTON_E:
 361:Generated_Source\PSoC4/CapSense_Processing.c ****                 #if (0u != CapSense_CSD_MATRIX_WIDGET_EN)
 362:Generated_Source\PSoC4/CapSense_Processing.c ****                     if (CapSense_SENSE_METHOD_CSD_E == CapSense_GET_SENSE_METHOD(ptrFlashWdgt))
 363:Generated_Source\PSoC4/CapSense_Processing.c ****                     {
 364:Generated_Source\PSoC4/CapSense_Processing.c ****                         CapSense_DpInitCsdMatrix(ptrFlashWdgt);
 365:Generated_Source\PSoC4/CapSense_Processing.c ****                     }
 366:Generated_Source\PSoC4/CapSense_Processing.c ****                 #endif /* #if (0u != CapSense_CSD_MATRIX_WIDGET_EN) */
 367:Generated_Source\PSoC4/CapSense_Processing.c ****                 
 368:Generated_Source\PSoC4/CapSense_Processing.c ****                 if (NULL != ptrFlashWdgt->ptr2DebounceArr)
 369:Generated_Source\PSoC4/CapSense_Processing.c ****                 {
 370:Generated_Source\PSoC4/CapSense_Processing.c ****                     /* Initialize array of debounce counters */
 371:Generated_Source\PSoC4/CapSense_Processing.c ****                     (void)memset(ptrFlashWdgt->ptr2DebounceArr, 
 372:Generated_Source\PSoC4/CapSense_Processing.c ****                                  (int32)ptrRamWdgt->onDebounce, 
 373:Generated_Source\PSoC4/CapSense_Processing.c ****                                  (size_t)ptrFlashWdgt->totalNumSns);
 374:Generated_Source\PSoC4/CapSense_Processing.c ****                 }
 375:Generated_Source\PSoC4/CapSense_Processing.c ****                 break;
 376:Generated_Source\PSoC4/CapSense_Processing.c ****         #endif /* #if (0u != CapSense_MATRIX_WIDGET_EN) */
 377:Generated_Source\PSoC4/CapSense_Processing.c ****         
 378:Generated_Source\PSoC4/CapSense_Processing.c ****         #if (0u != CapSense_BUTTON_WIDGET_EN)
 379:Generated_Source\PSoC4/CapSense_Processing.c ****             case CapSense_WD_BUTTON_E:
 380:Generated_Source\PSoC4/CapSense_Processing.c ****                 if (NULL != ptrFlashWdgt->ptr2DebounceArr)
 381:Generated_Source\PSoC4/CapSense_Processing.c ****                 {
 382:Generated_Source\PSoC4/CapSense_Processing.c ****                     /* Initialize array of debounce counters */
 383:Generated_Source\PSoC4/CapSense_Processing.c ****                     (void)memset(ptrFlashWdgt->ptr2DebounceArr, 
 384:Generated_Source\PSoC4/CapSense_Processing.c ****                                  (int32)ptrRamWdgt->onDebounce, 
 385:Generated_Source\PSoC4/CapSense_Processing.c ****                                  (size_t)ptrFlashWdgt->totalNumSns);
 386:Generated_Source\PSoC4/CapSense_Processing.c ****                 }
 387:Generated_Source\PSoC4/CapSense_Processing.c ****                 break;
 388:Generated_Source\PSoC4/CapSense_Processing.c ****         #endif /* #if (0u != CapSense_BUTTON_WIDGET_EN) */
 389:Generated_Source\PSoC4/CapSense_Processing.c **** 
 390:Generated_Source\PSoC4/CapSense_Processing.c ****         #if (0u != CapSense_SLIDER_WIDGET_EN)
ARM GAS  C:\Users\Jerry\AppData\Local\Temp\ccWYb1Fx.s 			page 9


 391:Generated_Source\PSoC4/CapSense_Processing.c ****             case CapSense_WD_LINEAR_SLIDER_E:
 392:Generated_Source\PSoC4/CapSense_Processing.c ****             case CapSense_WD_RADIAL_SLIDER_E:
 393:Generated_Source\PSoC4/CapSense_Processing.c ****                 if (NULL != ptrFlashWdgt->ptr2DebounceArr)
 394:Generated_Source\PSoC4/CapSense_Processing.c ****                 {
 395:Generated_Source\PSoC4/CapSense_Processing.c ****                     /* Initialize single debounce counter of slider */
 396:Generated_Source\PSoC4/CapSense_Processing.c ****                     *(uint8 *)(ptrFlashWdgt->ptr2DebounceArr) = ptrRamWdgt->onDebounce;
 397:Generated_Source\PSoC4/CapSense_Processing.c ****                 }
 398:Generated_Source\PSoC4/CapSense_Processing.c **** 
 399:Generated_Source\PSoC4/CapSense_Processing.c ****                 CapSense_DpInitSlider(ptrFlashWdgt);
 400:Generated_Source\PSoC4/CapSense_Processing.c **** 
 401:Generated_Source\PSoC4/CapSense_Processing.c ****                 break;
 402:Generated_Source\PSoC4/CapSense_Processing.c ****         #endif /* #if (0u != CapSense_SLIDER_WIDGET_EN) */
 403:Generated_Source\PSoC4/CapSense_Processing.c **** 
 404:Generated_Source\PSoC4/CapSense_Processing.c ****         #if (0u != CapSense_TOUCHPAD_WIDGET_EN)
 405:Generated_Source\PSoC4/CapSense_Processing.c ****             case CapSense_WD_TOUCHPAD_E:
 406:Generated_Source\PSoC4/CapSense_Processing.c ****                 if (NULL != ptrFlashWdgt->ptr2DebounceArr)
 407:Generated_Source\PSoC4/CapSense_Processing.c ****                 {
 408:Generated_Source\PSoC4/CapSense_Processing.c ****                     /* Initialize single debounce counter of touchpad */
 409:Generated_Source\PSoC4/CapSense_Processing.c ****                     *(uint8 *)(ptrFlashWdgt->ptr2DebounceArr) = ptrRamWdgt->onDebounce;
 410:Generated_Source\PSoC4/CapSense_Processing.c ****                 }
 411:Generated_Source\PSoC4/CapSense_Processing.c **** 
 412:Generated_Source\PSoC4/CapSense_Processing.c ****                 #if (0u != CapSense_CSD_TOUCHPAD_WIDGET_EN)
 413:Generated_Source\PSoC4/CapSense_Processing.c ****                     if (CapSense_SENSE_METHOD_CSD_E == CapSense_GET_SENSE_METHOD(ptrFlashWdgt))
 414:Generated_Source\PSoC4/CapSense_Processing.c ****                     {
 415:Generated_Source\PSoC4/CapSense_Processing.c ****                         CapSense_DpInitCsdTouchpad(ptrFlashWdgt);
 416:Generated_Source\PSoC4/CapSense_Processing.c ****                     }
 417:Generated_Source\PSoC4/CapSense_Processing.c ****                 #endif /* #if (0u != CapSense_CSD_TOUCHPAD_WIDGET_EN) */
 418:Generated_Source\PSoC4/CapSense_Processing.c **** 
 419:Generated_Source\PSoC4/CapSense_Processing.c ****                 #if (0u != CapSense_CSX_TOUCHPAD_WIDGET_EN)
 420:Generated_Source\PSoC4/CapSense_Processing.c ****                     if (CapSense_SENSE_METHOD_CSX_E == CapSense_GET_SENSE_METHOD(ptrFlashWdgt))
 421:Generated_Source\PSoC4/CapSense_Processing.c ****                     {
 422:Generated_Source\PSoC4/CapSense_Processing.c ****                         CapSense_DpInitCsxTouchpad(ptrFlashWdgt);
 423:Generated_Source\PSoC4/CapSense_Processing.c ****                     }
 424:Generated_Source\PSoC4/CapSense_Processing.c ****                 #endif /* #if (0u != CapSense_CSX_TOUCHPAD_WIDGET_EN) */
 425:Generated_Source\PSoC4/CapSense_Processing.c **** 
 426:Generated_Source\PSoC4/CapSense_Processing.c ****                 break;
 427:Generated_Source\PSoC4/CapSense_Processing.c ****         #endif /* #if (0u != CapSense_TOUCHPAD_WIDGET_EN) */
 428:Generated_Source\PSoC4/CapSense_Processing.c **** 
 429:Generated_Source\PSoC4/CapSense_Processing.c ****         #if (0u != CapSense_PROXIMITY_WIDGET_EN)
 430:Generated_Source\PSoC4/CapSense_Processing.c ****             case CapSense_WD_PROXIMITY_E:
 431:Generated_Source\PSoC4/CapSense_Processing.c ****                 if (NULL != ptrFlashWdgt->ptr2DebounceArr)
  62              		.loc 1 431 0
  63 001c 1A69     		ldr	r2, [r3, #16]
  64 001e 0092     		str	r2, [sp]
  65 0020 8A42     		cmp	r2, r1
  66 0022 06D0     		beq	.L1
 432:Generated_Source\PSoC4/CapSense_Processing.c ****                 {
 433:Generated_Source\PSoC4/CapSense_Processing.c ****                     /* Proximity widgets have 2 de-bounce counters per sensor. 
 434:Generated_Source\PSoC4/CapSense_Processing.c ****                      * Therefore the number of sensors is multiplied by 2. 
 435:Generated_Source\PSoC4/CapSense_Processing.c ****                      */
 436:Generated_Source\PSoC4/CapSense_Processing.c ****                    (void)memset(ptrFlashWdgt->ptr2DebounceArr, 
  67              		.loc 1 436 0
  68 0024 019A     		ldr	r2, [sp, #4]
  69 0026 0098     		ldr	r0, [sp]
  70              	.LVL4:
  71 0028 D179     		ldrb	r1, [r2, #7]
 437:Generated_Source\PSoC4/CapSense_Processing.c ****                                 (int32)ptrRamWdgt->onDebounce, 
ARM GAS  C:\Users\Jerry\AppData\Local\Temp\ccWYb1Fx.s 			page 10


 438:Generated_Source\PSoC4/CapSense_Processing.c ****                                 (size_t)ptrFlashWdgt->totalNumSns * 2u);
  72              		.loc 1 438 0
  73 002a DA8A     		ldrh	r2, [r3, #22]
 436:Generated_Source\PSoC4/CapSense_Processing.c ****                                 (int32)ptrRamWdgt->onDebounce, 
  74              		.loc 1 436 0
  75 002c 5200     		lsl	r2, r2, #1
  76 002e FFF7FEFF 		bl	memset
  77              	.LVL5:
  78              	.L1:
 439:Generated_Source\PSoC4/CapSense_Processing.c ****                 }
 440:Generated_Source\PSoC4/CapSense_Processing.c ****                 break;
 441:Generated_Source\PSoC4/CapSense_Processing.c ****         #endif /* #if (0u != CapSense_PROXIMITY_WIDGET_EN) */
 442:Generated_Source\PSoC4/CapSense_Processing.c ****                 
 443:Generated_Source\PSoC4/CapSense_Processing.c ****             default:
 444:Generated_Source\PSoC4/CapSense_Processing.c ****                 break;
 445:Generated_Source\PSoC4/CapSense_Processing.c ****         }
 446:Generated_Source\PSoC4/CapSense_Processing.c **** 
 447:Generated_Source\PSoC4/CapSense_Processing.c ****         /* Move to next widget */
 448:Generated_Source\PSoC4/CapSense_Processing.c ****         ptrFlashWdgt++;
 449:Generated_Source\PSoC4/CapSense_Processing.c ****     }
 450:Generated_Source\PSoC4/CapSense_Processing.c **** }
  79              		.loc 1 450 0
  80              		@ sp needed
  81 0032 07BD     		pop	{r0, r1, r2, pc}
  82              	.L9:
  83              		.align	2
  84              	.L8:
  85 0034 00000000 		.word	CapSense_dsRam
  86 0038 00000000 		.word	CapSense_dsFlash
  87              		.cfi_endproc
  88              	.LFE1:
  89              		.size	CapSense_DpInitialize, .-CapSense_DpInitialize
  90              		.section	.text.CapSense_DpUpdateThresholds,"ax",%progbits
  91              		.align	1
  92              		.global	CapSense_DpUpdateThresholds
  93              		.code	16
  94              		.thumb_func
  95              		.type	CapSense_DpUpdateThresholds, %function
  96              	CapSense_DpUpdateThresholds:
  97              	.LFB5:
 451:Generated_Source\PSoC4/CapSense_Processing.c **** 
 452:Generated_Source\PSoC4/CapSense_Processing.c **** #if (0u != CapSense_TOTAL_CSX_WIDGETS)
 453:Generated_Source\PSoC4/CapSense_Processing.c **** /*******************************************************************************
 454:Generated_Source\PSoC4/CapSense_Processing.c **** * Function Name: CapSense_DpProcessCsxWidgetRawCounts
 455:Generated_Source\PSoC4/CapSense_Processing.c **** ****************************************************************************//**
 456:Generated_Source\PSoC4/CapSense_Processing.c **** *
 457:Generated_Source\PSoC4/CapSense_Processing.c **** * \brief
 458:Generated_Source\PSoC4/CapSense_Processing.c **** *  Performs default processing of the CSX raw counts.
 459:Generated_Source\PSoC4/CapSense_Processing.c **** *
 460:Generated_Source\PSoC4/CapSense_Processing.c **** * \details
 461:Generated_Source\PSoC4/CapSense_Processing.c **** *  Performs default processing of the CSX raw counts:
 462:Generated_Source\PSoC4/CapSense_Processing.c **** *   - Run Filters
 463:Generated_Source\PSoC4/CapSense_Processing.c **** *   - Update Baselines
 464:Generated_Source\PSoC4/CapSense_Processing.c **** *   - Update Differences
 465:Generated_Source\PSoC4/CapSense_Processing.c **** *   - Update Status.
 466:Generated_Source\PSoC4/CapSense_Processing.c **** *  The same process is applied to all sensors of the specified widget.
 467:Generated_Source\PSoC4/CapSense_Processing.c **** *
ARM GAS  C:\Users\Jerry\AppData\Local\Temp\ccWYb1Fx.s 			page 11


 468:Generated_Source\PSoC4/CapSense_Processing.c **** * \param ptrFlashWdgt The pointer to the Flash widget structure.
 469:Generated_Source\PSoC4/CapSense_Processing.c **** *
 470:Generated_Source\PSoC4/CapSense_Processing.c **** * \return   
 471:Generated_Source\PSoC4/CapSense_Processing.c **** *  Returns the status of the specified widget processing operation:
 472:Generated_Source\PSoC4/CapSense_Processing.c **** *  - CYRET_SUCCESS if operation was successfully completed;
 473:Generated_Source\PSoC4/CapSense_Processing.c **** *  - CapSense_PROCESS_BASELINE_FAILED if baseline processing of any 
 474:Generated_Source\PSoC4/CapSense_Processing.c **** *    sensor of the specified widget failed. The result is concatenated with the index
 475:Generated_Source\PSoC4/CapSense_Processing.c **** *    of failed sensor.
 476:Generated_Source\PSoC4/CapSense_Processing.c **** *
 477:Generated_Source\PSoC4/CapSense_Processing.c **** *******************************************************************************/
 478:Generated_Source\PSoC4/CapSense_Processing.c **** uint32 CapSense_DpProcessCsxWidgetRawCounts(CapSense_FLASH_WD_STRUCT const *ptrFlashWdgt)
 479:Generated_Source\PSoC4/CapSense_Processing.c **** {
 480:Generated_Source\PSoC4/CapSense_Processing.c ****     uint32 result = CYRET_SUCCESS;
 481:Generated_Source\PSoC4/CapSense_Processing.c ****     uint32 widgetType;
 482:Generated_Source\PSoC4/CapSense_Processing.c ****     uint32 snsCount;
 483:Generated_Source\PSoC4/CapSense_Processing.c ****     CapSense_RAM_SNS_STRUCT *ptrSns;
 484:Generated_Source\PSoC4/CapSense_Processing.c ****     CapSense_RAM_WD_BASE_STRUCT *ptrRamWdgt;
 485:Generated_Source\PSoC4/CapSense_Processing.c **** 
 486:Generated_Source\PSoC4/CapSense_Processing.c ****     #if (0u != DP_FW_FILTER_EN)
 487:Generated_Source\PSoC4/CapSense_Processing.c ****         CapSense_PTR_FILTER_VARIANT fltrHistV;
 488:Generated_Source\PSoC4/CapSense_Processing.c ****         
 489:Generated_Source\PSoC4/CapSense_Processing.c ****         fltrHistV.ptr = ptrFlashWdgt->ptr2FltrHistory;
 490:Generated_Source\PSoC4/CapSense_Processing.c ****     #endif /* #if (0u != DP_FW_FILTER_EN) */
 491:Generated_Source\PSoC4/CapSense_Processing.c **** 
 492:Generated_Source\PSoC4/CapSense_Processing.c ****     ptrSns = ptrFlashWdgt->ptr2SnsRam;
 493:Generated_Source\PSoC4/CapSense_Processing.c ****     snsCount = ptrFlashWdgt->totalNumSns;
 494:Generated_Source\PSoC4/CapSense_Processing.c ****     ptrRamWdgt = ptrFlashWdgt->ptr2WdgtRam;
 495:Generated_Source\PSoC4/CapSense_Processing.c ****     widgetType = ptrFlashWdgt->wdgtType;
 496:Generated_Source\PSoC4/CapSense_Processing.c **** 
 497:Generated_Source\PSoC4/CapSense_Processing.c ****     /* Run deconvolution algorithm for the widgets with multiphase TX support */
 498:Generated_Source\PSoC4/CapSense_Processing.c ****     #if (0u != CapSense_CSX_MULTIPHASE_TX_EN)
 499:Generated_Source\PSoC4/CapSense_Processing.c ****         if (0u != (ptrFlashWdgt->staticConfig & CapSense_MULTIPHASE_TX_MASK))
 500:Generated_Source\PSoC4/CapSense_Processing.c ****         {
 501:Generated_Source\PSoC4/CapSense_Processing.c ****             CapSense_DpDeconvolution(ptrFlashWdgt);
 502:Generated_Source\PSoC4/CapSense_Processing.c ****         }
 503:Generated_Source\PSoC4/CapSense_Processing.c ****     #endif  /* #if (0u != CapSense_CSX_MULTIPHASE_TX_EN) */   
 504:Generated_Source\PSoC4/CapSense_Processing.c ****     
 505:Generated_Source\PSoC4/CapSense_Processing.c ****     for (;snsCount-- > 0u;)
 506:Generated_Source\PSoC4/CapSense_Processing.c ****     {
 507:Generated_Source\PSoC4/CapSense_Processing.c ****         #if (0u != CapSense_CSX_SKIP_OVSMPL_SPECIFIC_NODES)
 508:Generated_Source\PSoC4/CapSense_Processing.c ****             if (0u != ptrSns->resolution)
 509:Generated_Source\PSoC4/CapSense_Processing.c ****         #endif
 510:Generated_Source\PSoC4/CapSense_Processing.c ****         {
 511:Generated_Source\PSoC4/CapSense_Processing.c ****             #if (0u != DP_FW_FILTER_EN)
 512:Generated_Source\PSoC4/CapSense_Processing.c ****                 CapSense_FtRunEnabledFiltersInternal(fltrHistV, ptrSns, widgetType);
 513:Generated_Source\PSoC4/CapSense_Processing.c ****             #endif /* #if (0u != DP_FW_FILTER_EN) */
 514:Generated_Source\PSoC4/CapSense_Processing.c **** 
 515:Generated_Source\PSoC4/CapSense_Processing.c ****             result = CapSense_FtUpdateBaseline(ptrRamWdgt, ptrSns, widgetType);
 516:Generated_Source\PSoC4/CapSense_Processing.c ****             
 517:Generated_Source\PSoC4/CapSense_Processing.c ****             #if (CapSense_ENABLE == CapSense_TST_BSLN_DUPLICATION_EN)
 518:Generated_Source\PSoC4/CapSense_Processing.c ****                 if (CYRET_SUCCESS != result)
 519:Generated_Source\PSoC4/CapSense_Processing.c ****                 {
 520:Generated_Source\PSoC4/CapSense_Processing.c ****                     result = snsCount | CapSense_PROCESS_BASELINE_FAILED;
 521:Generated_Source\PSoC4/CapSense_Processing.c ****                 }
 522:Generated_Source\PSoC4/CapSense_Processing.c ****             #endif /* (CapSense_ENABLE == CapSense_TST_BSLN_DUPLICATION_EN) */
 523:Generated_Source\PSoC4/CapSense_Processing.c **** 
 524:Generated_Source\PSoC4/CapSense_Processing.c ****             CapSense_DpUpdateDifferences(ptrRamWdgt, ptrSns);
ARM GAS  C:\Users\Jerry\AppData\Local\Temp\ccWYb1Fx.s 			page 12


 525:Generated_Source\PSoC4/CapSense_Processing.c ****         }
 526:Generated_Source\PSoC4/CapSense_Processing.c ****         /* Move pointers to the next sensor and filter history objects */
 527:Generated_Source\PSoC4/CapSense_Processing.c ****         ptrSns++;
 528:Generated_Source\PSoC4/CapSense_Processing.c ****             
 529:Generated_Source\PSoC4/CapSense_Processing.c ****         #if (0u != DP_FW_FILTER_EN)
 530:Generated_Source\PSoC4/CapSense_Processing.c ****             CapSense_INC_FLTR_OBJ_VARIANT(0u, fltrHistV);
 531:Generated_Source\PSoC4/CapSense_Processing.c ****         #endif /* #if (0u != DP_FW_FILTER_EN) */
 532:Generated_Source\PSoC4/CapSense_Processing.c ****     }
 533:Generated_Source\PSoC4/CapSense_Processing.c ****     return result;
 534:Generated_Source\PSoC4/CapSense_Processing.c **** }
 535:Generated_Source\PSoC4/CapSense_Processing.c **** 
 536:Generated_Source\PSoC4/CapSense_Processing.c **** /*******************************************************************************
 537:Generated_Source\PSoC4/CapSense_Processing.c **** * Function Name: CapSense_DpProcessCsxSensorRawCountsExt
 538:Generated_Source\PSoC4/CapSense_Processing.c **** ****************************************************************************//**
 539:Generated_Source\PSoC4/CapSense_Processing.c **** *
 540:Generated_Source\PSoC4/CapSense_Processing.c **** * \brief
 541:Generated_Source\PSoC4/CapSense_Processing.c **** *   Performs customized processing of the CSX sensor raw counts.
 542:Generated_Source\PSoC4/CapSense_Processing.c **** *
 543:Generated_Source\PSoC4/CapSense_Processing.c **** * \details
 544:Generated_Source\PSoC4/CapSense_Processing.c **** *   Performs customized processing of the CSX sensor raw counts.
 545:Generated_Source\PSoC4/CapSense_Processing.c **** *
 546:Generated_Source\PSoC4/CapSense_Processing.c **** *   If all bits are set at once the default processing order will take place.
 547:Generated_Source\PSoC4/CapSense_Processing.c **** *   For the custom order this API can be called multiple times and execute one task at a time.
 548:Generated_Source\PSoC4/CapSense_Processing.c **** *
 549:Generated_Source\PSoC4/CapSense_Processing.c **** * \param ptrFlashWdgt The pointer to the Flash Widget Object.
 550:Generated_Source\PSoC4/CapSense_Processing.c **** * \param ptrSns       The pointer to the specific RAM Sensor Object.
 551:Generated_Source\PSoC4/CapSense_Processing.c **** * \param fltrHistV    The pointer to the Filter History Object in RAM associated with specific sens
 552:Generated_Source\PSoC4/CapSense_Processing.c **** * \param mode         The bit-mask with the data processing tasks to be executed.
 553:Generated_Source\PSoC4/CapSense_Processing.c **** *   The mode parameters can take the following values:
 554:Generated_Source\PSoC4/CapSense_Processing.c **** *    - CapSense_PROCESS_FILTER     (0x01) Run Firmware Filter
 555:Generated_Source\PSoC4/CapSense_Processing.c **** *    - CapSense_PROCESS_BASELINE   (0x02) Update Baselines
 556:Generated_Source\PSoC4/CapSense_Processing.c **** *    - CapSense_PROCESS_DIFFCOUNTS (0x04) Update Difference Counts
 557:Generated_Source\PSoC4/CapSense_Processing.c **** *    - CapSense_PROCESS_ALL               Execute all tasks
 558:Generated_Source\PSoC4/CapSense_Processing.c **** *
 559:Generated_Source\PSoC4/CapSense_Processing.c **** * \return   
 560:Generated_Source\PSoC4/CapSense_Processing.c **** *  Returns the status of the specified sensor processing operation:
 561:Generated_Source\PSoC4/CapSense_Processing.c **** *  - CYRET_SUCCESS if operation was successfully completed;
 562:Generated_Source\PSoC4/CapSense_Processing.c **** *  - CapSense_PROCESS_BASELINE_FAILED if baseline processing of any 
 563:Generated_Source\PSoC4/CapSense_Processing.c **** *    sensor of the specified widget failed. The result is concatenated with the index
 564:Generated_Source\PSoC4/CapSense_Processing.c **** *    of failed sensor.
 565:Generated_Source\PSoC4/CapSense_Processing.c **** *
 566:Generated_Source\PSoC4/CapSense_Processing.c **** *******************************************************************************/
 567:Generated_Source\PSoC4/CapSense_Processing.c **** uint32 CapSense_DpProcessCsxSensorRawCountsExt(
 568:Generated_Source\PSoC4/CapSense_Processing.c ****                 CapSense_FLASH_WD_STRUCT const *ptrFlashWdgt,
 569:Generated_Source\PSoC4/CapSense_Processing.c ****                 CapSense_RAM_SNS_STRUCT *ptrSns,
 570:Generated_Source\PSoC4/CapSense_Processing.c ****                 CapSense_PTR_FILTER_VARIANT fltrHistV,
 571:Generated_Source\PSoC4/CapSense_Processing.c ****                 uint32 mode)
 572:Generated_Source\PSoC4/CapSense_Processing.c **** {
 573:Generated_Source\PSoC4/CapSense_Processing.c ****     uint32  result = CYRET_SUCCESS;
 574:Generated_Source\PSoC4/CapSense_Processing.c ****     uint32  widgetType;
 575:Generated_Source\PSoC4/CapSense_Processing.c ****     CapSense_RAM_WD_BASE_STRUCT *ptrRamWdgt;
 576:Generated_Source\PSoC4/CapSense_Processing.c **** 
 577:Generated_Source\PSoC4/CapSense_Processing.c ****     widgetType = ptrFlashWdgt->wdgtType;
 578:Generated_Source\PSoC4/CapSense_Processing.c ****     ptrRamWdgt = ptrFlashWdgt->ptr2WdgtRam;
 579:Generated_Source\PSoC4/CapSense_Processing.c ****     
 580:Generated_Source\PSoC4/CapSense_Processing.c ****     #if (0u != DP_FW_FILTER_EN)
 581:Generated_Source\PSoC4/CapSense_Processing.c ****         if (0u != (mode & CapSense_PROCESS_FILTER))
ARM GAS  C:\Users\Jerry\AppData\Local\Temp\ccWYb1Fx.s 			page 13


 582:Generated_Source\PSoC4/CapSense_Processing.c ****         {
 583:Generated_Source\PSoC4/CapSense_Processing.c ****             CapSense_FtRunEnabledFiltersInternal(fltrHistV, ptrSns, widgetType);
 584:Generated_Source\PSoC4/CapSense_Processing.c ****         }
 585:Generated_Source\PSoC4/CapSense_Processing.c ****     #else
 586:Generated_Source\PSoC4/CapSense_Processing.c ****         (void)fltrHistV; /* This parameter is unused in such configurations */
 587:Generated_Source\PSoC4/CapSense_Processing.c ****     #endif /* #if (0u != DP_FW_FILTER_EN) */
 588:Generated_Source\PSoC4/CapSense_Processing.c **** 
 589:Generated_Source\PSoC4/CapSense_Processing.c ****     if (0u != (mode & CapSense_PROCESS_BASELINE))
 590:Generated_Source\PSoC4/CapSense_Processing.c ****     {
 591:Generated_Source\PSoC4/CapSense_Processing.c ****         result = CapSense_FtUpdateBaseline(ptrRamWdgt, ptrSns, widgetType);
 592:Generated_Source\PSoC4/CapSense_Processing.c ****     }
 593:Generated_Source\PSoC4/CapSense_Processing.c **** 
 594:Generated_Source\PSoC4/CapSense_Processing.c ****     if (0u != (mode & CapSense_PROCESS_DIFFCOUNTS))
 595:Generated_Source\PSoC4/CapSense_Processing.c ****     {
 596:Generated_Source\PSoC4/CapSense_Processing.c ****         CapSense_DpUpdateDifferences(ptrRamWdgt, ptrSns);
 597:Generated_Source\PSoC4/CapSense_Processing.c ****     }
 598:Generated_Source\PSoC4/CapSense_Processing.c ****     return result;
 599:Generated_Source\PSoC4/CapSense_Processing.c **** }
 600:Generated_Source\PSoC4/CapSense_Processing.c **** 
 601:Generated_Source\PSoC4/CapSense_Processing.c **** 
 602:Generated_Source\PSoC4/CapSense_Processing.c **** /*******************************************************************************
 603:Generated_Source\PSoC4/CapSense_Processing.c **** * Function Name: CapSense_DpProcessCsxWidgetStatus
 604:Generated_Source\PSoC4/CapSense_Processing.c **** ****************************************************************************//**
 605:Generated_Source\PSoC4/CapSense_Processing.c **** *
 606:Generated_Source\PSoC4/CapSense_Processing.c **** * \brief
 607:Generated_Source\PSoC4/CapSense_Processing.c **** *   Updates the status of the CSX widget in the Data Structure.
 608:Generated_Source\PSoC4/CapSense_Processing.c **** *
 609:Generated_Source\PSoC4/CapSense_Processing.c **** * \details
 610:Generated_Source\PSoC4/CapSense_Processing.c **** *  This API determines the type of widget and runs the appropriate function
 611:Generated_Source\PSoC4/CapSense_Processing.c **** *  that implements the status update algorithm for this type of widget.
 612:Generated_Source\PSoC4/CapSense_Processing.c **** *
 613:Generated_Source\PSoC4/CapSense_Processing.c **** *  When the widget-specific processing completes this API updates the snsStatus
 614:Generated_Source\PSoC4/CapSense_Processing.c **** *  and wdgtStatus registers in the data structure. The wdgtStatus register
 615:Generated_Source\PSoC4/CapSense_Processing.c **** *  is a bitmask were each bit corresponds to the specific widget identified by
 616:Generated_Source\PSoC4/CapSense_Processing.c **** *  the widget index. When the bit is set the widget is active (touched);
 617:Generated_Source\PSoC4/CapSense_Processing.c **** *
 618:Generated_Source\PSoC4/CapSense_Processing.c **** *  Depending on the type of widget the snsStatus register may contain either
 619:Generated_Source\PSoC4/CapSense_Processing.c **** *  status of each widget node (active/non-active) or in case of the CSX Touchpad
 620:Generated_Source\PSoC4/CapSense_Processing.c **** *  is contains the number of touches. In both cases 0 means that widget is not
 621:Generated_Source\PSoC4/CapSense_Processing.c **** *  active.
 622:Generated_Source\PSoC4/CapSense_Processing.c **** *
 623:Generated_Source\PSoC4/CapSense_Processing.c **** * \param wdgtId       The widget index number.
 624:Generated_Source\PSoC4/CapSense_Processing.c **** * \param ptrFlashWdgt The pointer to the Flash Widget Object.
 625:Generated_Source\PSoC4/CapSense_Processing.c **** *
 626:Generated_Source\PSoC4/CapSense_Processing.c **** *******************************************************************************/
 627:Generated_Source\PSoC4/CapSense_Processing.c **** void CapSense_DpProcessCsxWidgetStatus(uint32 wdgtId, CapSense_FLASH_WD_STRUCT const *ptrFlashWdgt)
 628:Generated_Source\PSoC4/CapSense_Processing.c **** {
 629:Generated_Source\PSoC4/CapSense_Processing.c ****     uint32 sensorStatus;
 630:Generated_Source\PSoC4/CapSense_Processing.c ****     uint32 wdStatusIndex;
 631:Generated_Source\PSoC4/CapSense_Processing.c ****     uint32 wdStatusMask;
 632:Generated_Source\PSoC4/CapSense_Processing.c ****     CapSense_WD_TYPE_ENUM widgetType;
 633:Generated_Source\PSoC4/CapSense_Processing.c **** 
 634:Generated_Source\PSoC4/CapSense_Processing.c ****     widgetType = (CapSense_WD_TYPE_ENUM)ptrFlashWdgt->wdgtType;
 635:Generated_Source\PSoC4/CapSense_Processing.c ****     sensorStatus = CapSense_dsRam.snsStatus[wdgtId];
 636:Generated_Source\PSoC4/CapSense_Processing.c **** 
 637:Generated_Source\PSoC4/CapSense_Processing.c ****     switch (widgetType)
 638:Generated_Source\PSoC4/CapSense_Processing.c ****     {
ARM GAS  C:\Users\Jerry\AppData\Local\Temp\ccWYb1Fx.s 			page 14


 639:Generated_Source\PSoC4/CapSense_Processing.c ****     #if (0u != CapSense_BUTTON_WIDGET_EN)
 640:Generated_Source\PSoC4/CapSense_Processing.c ****         case CapSense_WD_BUTTON_E:
 641:Generated_Source\PSoC4/CapSense_Processing.c ****             sensorStatus = CapSense_DpProcessButton(sensorStatus, ptrFlashWdgt);
 642:Generated_Source\PSoC4/CapSense_Processing.c ****             break;
 643:Generated_Source\PSoC4/CapSense_Processing.c ****     #endif /* #if (0u != CapSense_BUTTON_WIDGET_EN) */
 644:Generated_Source\PSoC4/CapSense_Processing.c **** 
 645:Generated_Source\PSoC4/CapSense_Processing.c ****     #if (0u != CapSense_CSX_MATRIX_WIDGET_EN)
 646:Generated_Source\PSoC4/CapSense_Processing.c ****         case CapSense_WD_MATRIX_BUTTON_E:
 647:Generated_Source\PSoC4/CapSense_Processing.c ****             sensorStatus = CapSense_DpProcessButton(sensorStatus, ptrFlashWdgt);
 648:Generated_Source\PSoC4/CapSense_Processing.c ****             break;
 649:Generated_Source\PSoC4/CapSense_Processing.c ****     #endif /* #if (0u != CapSense_CSX_MATRIX_WIDGET_EN) */
 650:Generated_Source\PSoC4/CapSense_Processing.c **** 
 651:Generated_Source\PSoC4/CapSense_Processing.c ****     #if (0u != CapSense_CSX_TOUCHPAD_WIDGET_EN)
 652:Generated_Source\PSoC4/CapSense_Processing.c ****         case CapSense_WD_TOUCHPAD_E:
 653:Generated_Source\PSoC4/CapSense_Processing.c ****             sensorStatus = CapSense_DpProcessCsxTouchpad(sensorStatus, ptrFlashWdgt);
 654:Generated_Source\PSoC4/CapSense_Processing.c ****             break;
 655:Generated_Source\PSoC4/CapSense_Processing.c ****     #endif /* #if (0u != CapSense_CSX_TOUCHPAD_WIDGET_EN) */
 656:Generated_Source\PSoC4/CapSense_Processing.c **** 
 657:Generated_Source\PSoC4/CapSense_Processing.c ****     default:
 658:Generated_Source\PSoC4/CapSense_Processing.c ****         CYASSERT(0u);
 659:Generated_Source\PSoC4/CapSense_Processing.c ****         break;
 660:Generated_Source\PSoC4/CapSense_Processing.c ****     }
 661:Generated_Source\PSoC4/CapSense_Processing.c **** 
 662:Generated_Source\PSoC4/CapSense_Processing.c ****     /* Update sensor status in the data structure */
 663:Generated_Source\PSoC4/CapSense_Processing.c ****     CapSense_dsRam.snsStatus[wdgtId] = (CapSense_SNS_STS_TYPE)sensorStatus;
 664:Generated_Source\PSoC4/CapSense_Processing.c **** 
 665:Generated_Source\PSoC4/CapSense_Processing.c ****     /* The next two lines calculate index and bitmask of the widget status bit in the wdgtStatus ar
 666:Generated_Source\PSoC4/CapSense_Processing.c ****     wdStatusIndex = CapSense_GET_WDGT_STATUS_INDEX(wdgtId);
 667:Generated_Source\PSoC4/CapSense_Processing.c ****     wdStatusMask = CapSense_GET_WDGT_STATUS_MASK(wdgtId);
 668:Generated_Source\PSoC4/CapSense_Processing.c **** 
 669:Generated_Source\PSoC4/CapSense_Processing.c ****     /* Check if there are active sensors and update widget status accordingly */
 670:Generated_Source\PSoC4/CapSense_Processing.c ****     if (0u == sensorStatus)
 671:Generated_Source\PSoC4/CapSense_Processing.c ****     {
 672:Generated_Source\PSoC4/CapSense_Processing.c ****         CapSense_dsRam.wdgtStatus[wdStatusIndex] &= ~wdStatusMask;
 673:Generated_Source\PSoC4/CapSense_Processing.c ****     }
 674:Generated_Source\PSoC4/CapSense_Processing.c ****     else
 675:Generated_Source\PSoC4/CapSense_Processing.c ****     {
 676:Generated_Source\PSoC4/CapSense_Processing.c ****         CapSense_dsRam.wdgtStatus[wdStatusIndex] |= wdStatusMask;
 677:Generated_Source\PSoC4/CapSense_Processing.c ****     }
 678:Generated_Source\PSoC4/CapSense_Processing.c **** }
 679:Generated_Source\PSoC4/CapSense_Processing.c **** #endif /* #if CapSense_TOTAL_CSX_WIDGETS */
 680:Generated_Source\PSoC4/CapSense_Processing.c **** 
 681:Generated_Source\PSoC4/CapSense_Processing.c **** #if (0u != CapSense_TOTAL_CSD_WIDGETS)
 682:Generated_Source\PSoC4/CapSense_Processing.c **** /*******************************************************************************
 683:Generated_Source\PSoC4/CapSense_Processing.c **** * Function Name: CapSense_DpProcessCsdWidgetRawCounts
 684:Generated_Source\PSoC4/CapSense_Processing.c **** ****************************************************************************//**
 685:Generated_Source\PSoC4/CapSense_Processing.c **** *
 686:Generated_Source\PSoC4/CapSense_Processing.c **** * \brief
 687:Generated_Source\PSoC4/CapSense_Processing.c **** *   Performs default processing for the CSD widget raw counts.
 688:Generated_Source\PSoC4/CapSense_Processing.c **** *
 689:Generated_Source\PSoC4/CapSense_Processing.c **** * \details
 690:Generated_Source\PSoC4/CapSense_Processing.c **** *   Performs default processing for the CSD widget raw counts:
 691:Generated_Source\PSoC4/CapSense_Processing.c **** *    - Run Filters
 692:Generated_Source\PSoC4/CapSense_Processing.c **** *    - Update Thresholds (FW Auto-tuning)
 693:Generated_Source\PSoC4/CapSense_Processing.c **** *    - Update Baselines
 694:Generated_Source\PSoC4/CapSense_Processing.c **** *    - Update Differences.
 695:Generated_Source\PSoC4/CapSense_Processing.c **** *   The process is applied to all widget's sensors.
ARM GAS  C:\Users\Jerry\AppData\Local\Temp\ccWYb1Fx.s 			page 15


 696:Generated_Source\PSoC4/CapSense_Processing.c **** *
 697:Generated_Source\PSoC4/CapSense_Processing.c **** * \param ptrFlashWdgt The pointer to the Flash Widget Object.
 698:Generated_Source\PSoC4/CapSense_Processing.c **** *
 699:Generated_Source\PSoC4/CapSense_Processing.c **** * \return   
 700:Generated_Source\PSoC4/CapSense_Processing.c **** *  Returns the status of the specified widget processing operation:
 701:Generated_Source\PSoC4/CapSense_Processing.c **** *  - CYRET_SUCCESS if operation was successfully completed;
 702:Generated_Source\PSoC4/CapSense_Processing.c **** *  - CapSense_PROCESS_BASELINE_FAILED if baseline processing of any 
 703:Generated_Source\PSoC4/CapSense_Processing.c **** *    sensor of the specified widget failed. The result is concatenated with the index
 704:Generated_Source\PSoC4/CapSense_Processing.c **** *    of failed sensor.
 705:Generated_Source\PSoC4/CapSense_Processing.c **** *
 706:Generated_Source\PSoC4/CapSense_Processing.c **** *******************************************************************************/
 707:Generated_Source\PSoC4/CapSense_Processing.c **** uint32 CapSense_DpProcessCsdWidgetRawCounts(CapSense_FLASH_WD_STRUCT const *ptrFlashWdgt)
 708:Generated_Source\PSoC4/CapSense_Processing.c **** {
 709:Generated_Source\PSoC4/CapSense_Processing.c ****     uint32  result = CYRET_SUCCESS;
 710:Generated_Source\PSoC4/CapSense_Processing.c ****     
 711:Generated_Source\PSoC4/CapSense_Processing.c ****     #if (CapSense_ENABLE == CapSense_TST_BSLN_DUPLICATION_EN)    
 712:Generated_Source\PSoC4/CapSense_Processing.c ****         uint32 bslnTstResult = CYRET_SUCCESS;
 713:Generated_Source\PSoC4/CapSense_Processing.c ****     #endif /* (CapSense_ENABLE == CapSense_TST_BSLN_DUPLICATION_EN) */
 714:Generated_Source\PSoC4/CapSense_Processing.c **** 
 715:Generated_Source\PSoC4/CapSense_Processing.c ****     uint32  widgetType;
 716:Generated_Source\PSoC4/CapSense_Processing.c ****     uint32  snsId;
 717:Generated_Source\PSoC4/CapSense_Processing.c ****     CapSense_RAM_SNS_STRUCT *ptrSns;
 718:Generated_Source\PSoC4/CapSense_Processing.c ****     CapSense_RAM_WD_BASE_STRUCT *ptrRamWdgt;
 719:Generated_Source\PSoC4/CapSense_Processing.c **** 
 720:Generated_Source\PSoC4/CapSense_Processing.c ****     #if (0u != (CapSense_CSD_AUTOTUNE & CapSense_CSD_SS_TH_EN))
 721:Generated_Source\PSoC4/CapSense_Processing.c ****         /* The noise envelope data is available only when Full CSD Auto-Tuning is enabled */
 722:Generated_Source\PSoC4/CapSense_Processing.c ****         SMARTSENSE_CSD_NOISE_ENVELOPE_STRUCT *ptrNoiseEnvelope;
 723:Generated_Source\PSoC4/CapSense_Processing.c ****         #if (CapSense_ENABLE == CapSense_PROXIMITY_WIDGET_EN)
 724:Generated_Source\PSoC4/CapSense_Processing.c ****             uint32  proximityThreshold;
 725:Generated_Source\PSoC4/CapSense_Processing.c ****         #endif /* (0 != CapSense_PROXIMITY_WIDGET_EN) */
 726:Generated_Source\PSoC4/CapSense_Processing.c ****     #endif /* #if (0u != (CapSense_CSD_AUTOTUNE & CapSense_CSD_SS_TH_EN)) */
 727:Generated_Source\PSoC4/CapSense_Processing.c **** 
 728:Generated_Source\PSoC4/CapSense_Processing.c ****     #if (0u != DP_FW_FILTER_EN)
 729:Generated_Source\PSoC4/CapSense_Processing.c ****         CapSense_PTR_FILTER_VARIANT fltrHistV;
 730:Generated_Source\PSoC4/CapSense_Processing.c ****     
 731:Generated_Source\PSoC4/CapSense_Processing.c ****         /* Determine if widget type is proximity */
 732:Generated_Source\PSoC4/CapSense_Processing.c ****         uint32 isProxWdgt = 
 733:Generated_Source\PSoC4/CapSense_Processing.c ****                     (CapSense_GET_WIDGET_TYPE(ptrFlashWdgt) == CapSense_WD_PROXIMITY_E) ? 1u : 0u;
 734:Generated_Source\PSoC4/CapSense_Processing.c ****                     
 735:Generated_Source\PSoC4/CapSense_Processing.c ****         /* Get pointer to the filter history object */
 736:Generated_Source\PSoC4/CapSense_Processing.c ****         fltrHistV.ptr = ptrFlashWdgt->ptr2FltrHistory;
 737:Generated_Source\PSoC4/CapSense_Processing.c ****     #endif /* #if (0u != DP_FW_FILTER_EN) */
 738:Generated_Source\PSoC4/CapSense_Processing.c ****     
 739:Generated_Source\PSoC4/CapSense_Processing.c ****     ptrSns = ptrFlashWdgt->ptr2SnsRam;
 740:Generated_Source\PSoC4/CapSense_Processing.c ****     ptrRamWdgt = ptrFlashWdgt->ptr2WdgtRam;
 741:Generated_Source\PSoC4/CapSense_Processing.c ****     widgetType = ptrFlashWdgt->wdgtType;
 742:Generated_Source\PSoC4/CapSense_Processing.c **** 
 743:Generated_Source\PSoC4/CapSense_Processing.c ****     #if (0u != (CapSense_CSD_AUTOTUNE & CapSense_CSD_SS_TH_EN))
 744:Generated_Source\PSoC4/CapSense_Processing.c ****         ptrNoiseEnvelope = ptrFlashWdgt->ptr2NoiseEnvlp;
 745:Generated_Source\PSoC4/CapSense_Processing.c ****     #endif /* #if (0u != (CapSense_CSD_AUTOTUNE & CapSense_CSD_SS_TH_EN)) */
 746:Generated_Source\PSoC4/CapSense_Processing.c **** 
 747:Generated_Source\PSoC4/CapSense_Processing.c ****     /* Iterate through all widget's sensors */
 748:Generated_Source\PSoC4/CapSense_Processing.c ****     for(snsId = 0u; snsId < ptrFlashWdgt->totalNumSns; snsId++)
 749:Generated_Source\PSoC4/CapSense_Processing.c ****     {
 750:Generated_Source\PSoC4/CapSense_Processing.c ****         /* Run all enabled filter on specified widget's sensor */
 751:Generated_Source\PSoC4/CapSense_Processing.c ****         #if (0u != DP_FW_FILTER_EN)
 752:Generated_Source\PSoC4/CapSense_Processing.c ****             CapSense_FtRunEnabledFiltersInternal(fltrHistV, ptrSns, widgetType);
ARM GAS  C:\Users\Jerry\AppData\Local\Temp\ccWYb1Fx.s 			page 16


 753:Generated_Source\PSoC4/CapSense_Processing.c ****         #endif /* #if (0u != DP_FW_FILTER_EN) */
 754:Generated_Source\PSoC4/CapSense_Processing.c **** 
 755:Generated_Source\PSoC4/CapSense_Processing.c ****         /* Run auto-tuning activities */
 756:Generated_Source\PSoC4/CapSense_Processing.c ****         #if (0u != (CapSense_CSD_AUTOTUNE & CapSense_CSD_SS_TH_EN))
 757:Generated_Source\PSoC4/CapSense_Processing.c ****             SmartSense_RunNoiseEnvelope(ptrSns->raw[0u], ptrRamWdgt->sigPFC, ptrNoiseEnvelope);
 758:Generated_Source\PSoC4/CapSense_Processing.c ****             CapSense_DpUpdateThresholds(ptrRamWdgt, ptrNoiseEnvelope, snsId);
 759:Generated_Source\PSoC4/CapSense_Processing.c **** 
 760:Generated_Source\PSoC4/CapSense_Processing.c ****             /* Calculate Proximity Touch Threshold in SmartSense mode based on Finger Threshold and
 761:Generated_Source\PSoC4/CapSense_Processing.c ****             #if (CapSense_ENABLE == CapSense_PROXIMITY_WIDGET_EN)
 762:Generated_Source\PSoC4/CapSense_Processing.c ****                 if (CapSense_WD_PROXIMITY_E == CapSense_GET_WIDGET_TYPE(ptrFlashWdgt))
 763:Generated_Source\PSoC4/CapSense_Processing.c ****                 {
 764:Generated_Source\PSoC4/CapSense_Processing.c ****                     proximityThreshold = ((uint32)ptrRamWdgt->fingerTh * CapSense_PROX_TOUCH_COEFF)
 765:Generated_Source\PSoC4/CapSense_Processing.c ****                     if ((((1Lu) << CapSense_THRESHOLD_SIZE) - 1u) < proximityThreshold)
 766:Generated_Source\PSoC4/CapSense_Processing.c ****                     {
 767:Generated_Source\PSoC4/CapSense_Processing.c ****                         proximityThreshold = ((1Lu) << CapSense_THRESHOLD_SIZE) - 1u;
 768:Generated_Source\PSoC4/CapSense_Processing.c ****                     }
 769:Generated_Source\PSoC4/CapSense_Processing.c ****                     ((CapSense_RAM_WD_PROXIMITY_STRUCT *)ptrFlashWdgt->ptr2WdgtRam)->proxTouchTh = 
 770:Generated_Source\PSoC4/CapSense_Processing.c ****                         (CapSense_THRESHOLD_TYPE)proximityThreshold;
 771:Generated_Source\PSoC4/CapSense_Processing.c ****                 }
 772:Generated_Source\PSoC4/CapSense_Processing.c ****             #endif /* (0 != CapSense_PROXIMITY_WIDGET_EN) */
 773:Generated_Source\PSoC4/CapSense_Processing.c ****             
 774:Generated_Source\PSoC4/CapSense_Processing.c ****             /* Move to next noise-envelope object */
 775:Generated_Source\PSoC4/CapSense_Processing.c ****             ptrNoiseEnvelope++;
 776:Generated_Source\PSoC4/CapSense_Processing.c ****         #endif /* (0u != (CapSense_CSD_AUTOTUNE & CapSense_CSD_SS_TH_EN)) */
 777:Generated_Source\PSoC4/CapSense_Processing.c **** 
 778:Generated_Source\PSoC4/CapSense_Processing.c ****         #if (CapSense_ENABLE == CapSense_TST_BSLN_DUPLICATION_EN)
 779:Generated_Source\PSoC4/CapSense_Processing.c ****             bslnTstResult = CapSense_FtUpdateBaseline(ptrRamWdgt, ptrSns, widgetType);
 780:Generated_Source\PSoC4/CapSense_Processing.c ****             if (CYRET_SUCCESS != bslnTstResult)
 781:Generated_Source\PSoC4/CapSense_Processing.c ****             {
 782:Generated_Source\PSoC4/CapSense_Processing.c ****                 if (CYRET_SUCCESS == result)
 783:Generated_Source\PSoC4/CapSense_Processing.c ****                 {
 784:Generated_Source\PSoC4/CapSense_Processing.c ****                     result = snsId | CapSense_PROCESS_BASELINE_FAILED;
 785:Generated_Source\PSoC4/CapSense_Processing.c ****                 }
 786:Generated_Source\PSoC4/CapSense_Processing.c ****             }
 787:Generated_Source\PSoC4/CapSense_Processing.c ****         #else /* (CapSense_ENABLE == CapSense_TST_BSLN_DUPLICATION_EN) */
 788:Generated_Source\PSoC4/CapSense_Processing.c ****             result = CapSense_FtUpdateBaseline(ptrRamWdgt, ptrSns, widgetType);
 789:Generated_Source\PSoC4/CapSense_Processing.c ****         #endif /* (CapSense_ENABLE == CapSense_TST_BSLN_DUPLICATION_EN) */
 790:Generated_Source\PSoC4/CapSense_Processing.c **** 
 791:Generated_Source\PSoC4/CapSense_Processing.c ****         CapSense_DpUpdateDifferences(ptrRamWdgt, ptrSns);
 792:Generated_Source\PSoC4/CapSense_Processing.c **** 
 793:Generated_Source\PSoC4/CapSense_Processing.c ****         /* Move to next sensor object */
 794:Generated_Source\PSoC4/CapSense_Processing.c ****         ptrSns++;
 795:Generated_Source\PSoC4/CapSense_Processing.c **** 
 796:Generated_Source\PSoC4/CapSense_Processing.c ****         #if (0u != DP_FW_FILTER_EN)
 797:Generated_Source\PSoC4/CapSense_Processing.c ****             /* Move to the next filter history object */
 798:Generated_Source\PSoC4/CapSense_Processing.c ****             CapSense_INC_FLTR_OBJ_VARIANT(isProxWdgt, fltrHistV);
 799:Generated_Source\PSoC4/CapSense_Processing.c ****         #endif /* #if (0u != DP_FW_FILTER_EN) */
 800:Generated_Source\PSoC4/CapSense_Processing.c ****     }
 801:Generated_Source\PSoC4/CapSense_Processing.c ****     return result;
 802:Generated_Source\PSoC4/CapSense_Processing.c **** }
 803:Generated_Source\PSoC4/CapSense_Processing.c **** 
 804:Generated_Source\PSoC4/CapSense_Processing.c **** 
 805:Generated_Source\PSoC4/CapSense_Processing.c **** /*******************************************************************************
 806:Generated_Source\PSoC4/CapSense_Processing.c **** * Function Name: CapSense_DpProcessCsdSensorRawCountsExt
 807:Generated_Source\PSoC4/CapSense_Processing.c **** ****************************************************************************//**
 808:Generated_Source\PSoC4/CapSense_Processing.c **** *
 809:Generated_Source\PSoC4/CapSense_Processing.c **** * \brief
ARM GAS  C:\Users\Jerry\AppData\Local\Temp\ccWYb1Fx.s 			page 17


 810:Generated_Source\PSoC4/CapSense_Processing.c **** *   Performs customized processing of the CSD sensor raw counts.
 811:Generated_Source\PSoC4/CapSense_Processing.c **** *
 812:Generated_Source\PSoC4/CapSense_Processing.c **** * \details
 813:Generated_Source\PSoC4/CapSense_Processing.c **** *   Performs customized processing of the CSD sensor raw counts.
 814:Generated_Source\PSoC4/CapSense_Processing.c **** *
 815:Generated_Source\PSoC4/CapSense_Processing.c **** *   Note that this API updates data associated only with the sensor. It cannot be used to update
 816:Generated_Source\PSoC4/CapSense_Processing.c **** *   widget status.
 817:Generated_Source\PSoC4/CapSense_Processing.c **** *
 818:Generated_Source\PSoC4/CapSense_Processing.c **** * \param ptrFlashWdgt The pointer to the Flash widget structure.
 819:Generated_Source\PSoC4/CapSense_Processing.c **** * \param ptrSns       The pointer to the sensor object in RAM.
 820:Generated_Source\PSoC4/CapSense_Processing.c **** * \param fltrHistV    The pointer to the Filter History Object in RAM.
 821:Generated_Source\PSoC4/CapSense_Processing.c **** * \param mode         The bit-mask with the data processing tasks to be executed.
 822:Generated_Source\PSoC4/CapSense_Processing.c **** *   The mode parameters can take the following values:
 823:Generated_Source\PSoC4/CapSense_Processing.c **** *    - CapSense_PROCESS_FILTER     (0x01) Run Firmware Filter
 824:Generated_Source\PSoC4/CapSense_Processing.c **** *    - CapSense_PROCESS_BASELINE   (0x02) Update Baselines
 825:Generated_Source\PSoC4/CapSense_Processing.c **** *    - CapSense_PROCESS_DIFFCOUNTS (0x04) Update Difference Counts
 826:Generated_Source\PSoC4/CapSense_Processing.c **** *    - CapSense_PROCESS_CALC_NOISE (0x08) Calculate Noise (only if FW Tuning is enabled)
 827:Generated_Source\PSoC4/CapSense_Processing.c **** *    - CapSense_PROCESS_THRESHOLDS (0x10) Update Thresholds (only if FW Tuning is enabled)
 828:Generated_Source\PSoC4/CapSense_Processing.c **** *    - CapSense_PROCESS_ALL               Execute all tasks
 829:Generated_Source\PSoC4/CapSense_Processing.c **** *
 830:Generated_Source\PSoC4/CapSense_Processing.c **** * \return   
 831:Generated_Source\PSoC4/CapSense_Processing.c **** *  Returns the status of the specified sensor processing operation:
 832:Generated_Source\PSoC4/CapSense_Processing.c **** *  - CYRET_SUCCESS if operation was successfully completed;
 833:Generated_Source\PSoC4/CapSense_Processing.c **** *  - CapSense_PROCESS_BASELINE_FAILED if baseline processing of any 
 834:Generated_Source\PSoC4/CapSense_Processing.c **** *    sensor of the specified widget failed. The result is concatenated with the index
 835:Generated_Source\PSoC4/CapSense_Processing.c **** *    of failed sensor.
 836:Generated_Source\PSoC4/CapSense_Processing.c **** *
 837:Generated_Source\PSoC4/CapSense_Processing.c **** *******************************************************************************/
 838:Generated_Source\PSoC4/CapSense_Processing.c **** uint32 CapSense_DpProcessCsdSensorRawCountsExt(
 839:Generated_Source\PSoC4/CapSense_Processing.c ****                 CapSense_FLASH_WD_STRUCT const *ptrFlashWdgt,
 840:Generated_Source\PSoC4/CapSense_Processing.c ****                 CapSense_RAM_SNS_STRUCT *ptrSns,
 841:Generated_Source\PSoC4/CapSense_Processing.c ****                 CapSense_PTR_FILTER_VARIANT fltrHistV,
 842:Generated_Source\PSoC4/CapSense_Processing.c ****                  uint32 mode)
 843:Generated_Source\PSoC4/CapSense_Processing.c **** {
 844:Generated_Source\PSoC4/CapSense_Processing.c ****     uint32 result = CYRET_SUCCESS;
 845:Generated_Source\PSoC4/CapSense_Processing.c ****     uint32  widgetType;
 846:Generated_Source\PSoC4/CapSense_Processing.c ****     CapSense_RAM_WD_BASE_STRUCT *ptrRamWdgt;
 847:Generated_Source\PSoC4/CapSense_Processing.c **** 
 848:Generated_Source\PSoC4/CapSense_Processing.c ****     #if (0u != (CapSense_CSD_AUTOTUNE & CapSense_CSD_SS_TH_EN))
 849:Generated_Source\PSoC4/CapSense_Processing.c ****         SMARTSENSE_CSD_NOISE_ENVELOPE_STRUCT *ptrNoiseEnvelope;
 850:Generated_Source\PSoC4/CapSense_Processing.c ****         #if (CapSense_ENABLE == CapSense_PROXIMITY_WIDGET_EN)
 851:Generated_Source\PSoC4/CapSense_Processing.c ****             uint32  proximityThreshold;
 852:Generated_Source\PSoC4/CapSense_Processing.c ****         #endif /* (0 != CapSense_PROXIMITY_WIDGET_EN) */
 853:Generated_Source\PSoC4/CapSense_Processing.c **** 
 854:Generated_Source\PSoC4/CapSense_Processing.c ****         /* Need to specify pointer to corresponding sensor's noise-envelope object.*/
 855:Generated_Source\PSoC4/CapSense_Processing.c ****         ptrNoiseEnvelope = ptrFlashWdgt->ptr2NoiseEnvlp;
 856:Generated_Source\PSoC4/CapSense_Processing.c ****     #endif /* (0u != (CapSense_CSD_AUTOTUNE & CapSense_CSD_SS_TH_EN)) */
 857:Generated_Source\PSoC4/CapSense_Processing.c **** 
 858:Generated_Source\PSoC4/CapSense_Processing.c ****     widgetType = ptrFlashWdgt->wdgtType;
 859:Generated_Source\PSoC4/CapSense_Processing.c ****     ptrRamWdgt = ptrFlashWdgt->ptr2WdgtRam;
 860:Generated_Source\PSoC4/CapSense_Processing.c **** 
 861:Generated_Source\PSoC4/CapSense_Processing.c ****     #if (0u != DP_FW_FILTER_EN)
 862:Generated_Source\PSoC4/CapSense_Processing.c ****         if (0u != (mode & CapSense_PROCESS_FILTER))
 863:Generated_Source\PSoC4/CapSense_Processing.c ****         {
 864:Generated_Source\PSoC4/CapSense_Processing.c ****             CapSense_FtRunEnabledFiltersInternal(fltrHistV, ptrSns, widgetType);
 865:Generated_Source\PSoC4/CapSense_Processing.c ****         }
 866:Generated_Source\PSoC4/CapSense_Processing.c ****     #else
ARM GAS  C:\Users\Jerry\AppData\Local\Temp\ccWYb1Fx.s 			page 18


 867:Generated_Source\PSoC4/CapSense_Processing.c ****         (void)fltrHistV; /* This parameter is unused in such configurations */
 868:Generated_Source\PSoC4/CapSense_Processing.c ****     #endif /* #if (0u != DP_FW_FILTER_EN) */
 869:Generated_Source\PSoC4/CapSense_Processing.c **** 
 870:Generated_Source\PSoC4/CapSense_Processing.c ****     #if (0u != (CapSense_CSD_AUTOTUNE & CapSense_CSD_SS_TH_EN))
 871:Generated_Source\PSoC4/CapSense_Processing.c ****         if (0u != (mode & CapSense_PROCESS_CALC_NOISE))
 872:Generated_Source\PSoC4/CapSense_Processing.c ****         {
 873:Generated_Source\PSoC4/CapSense_Processing.c ****             SmartSense_RunNoiseEnvelope(ptrSns->raw[0u], ptrRamWdgt->sigPFC, ptrNoiseEnvelope);
 874:Generated_Source\PSoC4/CapSense_Processing.c ****         }
 875:Generated_Source\PSoC4/CapSense_Processing.c **** 
 876:Generated_Source\PSoC4/CapSense_Processing.c ****         if (0u != (mode & CapSense_PROCESS_THRESHOLDS))
 877:Generated_Source\PSoC4/CapSense_Processing.c ****         {            
 878:Generated_Source\PSoC4/CapSense_Processing.c ****             CapSense_DpUpdateThresholds(ptrRamWdgt, ptrNoiseEnvelope, 0u);
 879:Generated_Source\PSoC4/CapSense_Processing.c ****             
 880:Generated_Source\PSoC4/CapSense_Processing.c ****             /* Calculate Proximity Touch Threshold in SmartSense mode based on Finger Threshold and
 881:Generated_Source\PSoC4/CapSense_Processing.c ****             #if (CapSense_ENABLE == CapSense_PROXIMITY_WIDGET_EN)
 882:Generated_Source\PSoC4/CapSense_Processing.c ****                 if (CapSense_WD_PROXIMITY_E == CapSense_GET_WIDGET_TYPE(ptrFlashWdgt))
 883:Generated_Source\PSoC4/CapSense_Processing.c ****                 {
 884:Generated_Source\PSoC4/CapSense_Processing.c ****                     proximityThreshold = ((uint32)ptrRamWdgt->fingerTh * CapSense_PROX_TOUCH_COEFF)
 885:Generated_Source\PSoC4/CapSense_Processing.c ****                     if ((((1Lu) << CapSense_THRESHOLD_SIZE) - 1u) < proximityThreshold)
 886:Generated_Source\PSoC4/CapSense_Processing.c ****                     {
 887:Generated_Source\PSoC4/CapSense_Processing.c ****                         proximityThreshold = ((1Lu) << CapSense_THRESHOLD_SIZE) - 1u;
 888:Generated_Source\PSoC4/CapSense_Processing.c ****                     }
 889:Generated_Source\PSoC4/CapSense_Processing.c ****                     ((CapSense_RAM_WD_PROXIMITY_STRUCT *)ptrFlashWdgt->ptr2WdgtRam)->proxTouchTh = 
 890:Generated_Source\PSoC4/CapSense_Processing.c ****                         (CapSense_THRESHOLD_TYPE)proximityThreshold;
 891:Generated_Source\PSoC4/CapSense_Processing.c ****                 }
 892:Generated_Source\PSoC4/CapSense_Processing.c ****             #endif /* (0 != CapSense_PROXIMITY_WIDGET_EN) */
 893:Generated_Source\PSoC4/CapSense_Processing.c ****         }
 894:Generated_Source\PSoC4/CapSense_Processing.c ****     #endif /* #if (0u != (CapSense_CSD_AUTOTUNE & CapSense_CSD_SS_TH_EN)) */
 895:Generated_Source\PSoC4/CapSense_Processing.c **** 
 896:Generated_Source\PSoC4/CapSense_Processing.c ****     if (0u != (mode & CapSense_PROCESS_BASELINE))
 897:Generated_Source\PSoC4/CapSense_Processing.c ****     {
 898:Generated_Source\PSoC4/CapSense_Processing.c ****         result = CapSense_FtUpdateBaseline(ptrRamWdgt, ptrSns, widgetType);
 899:Generated_Source\PSoC4/CapSense_Processing.c ****     }
 900:Generated_Source\PSoC4/CapSense_Processing.c **** 
 901:Generated_Source\PSoC4/CapSense_Processing.c ****     if (0u != (mode & CapSense_PROCESS_DIFFCOUNTS))
 902:Generated_Source\PSoC4/CapSense_Processing.c ****     {
 903:Generated_Source\PSoC4/CapSense_Processing.c ****         CapSense_DpUpdateDifferences(ptrRamWdgt, ptrSns);
 904:Generated_Source\PSoC4/CapSense_Processing.c ****     }
 905:Generated_Source\PSoC4/CapSense_Processing.c ****     return result;
 906:Generated_Source\PSoC4/CapSense_Processing.c **** }
 907:Generated_Source\PSoC4/CapSense_Processing.c **** 
 908:Generated_Source\PSoC4/CapSense_Processing.c **** /*******************************************************************************
 909:Generated_Source\PSoC4/CapSense_Processing.c **** * Function Name: CapSense_DpProcessCsdWidgetStatus
 910:Generated_Source\PSoC4/CapSense_Processing.c **** ****************************************************************************//**
 911:Generated_Source\PSoC4/CapSense_Processing.c **** *
 912:Generated_Source\PSoC4/CapSense_Processing.c **** * \brief
 913:Generated_Source\PSoC4/CapSense_Processing.c **** *  Runs the status processing of the CSD widget and updates it in the Data Structure.
 914:Generated_Source\PSoC4/CapSense_Processing.c **** *
 915:Generated_Source\PSoC4/CapSense_Processing.c **** * \details
 916:Generated_Source\PSoC4/CapSense_Processing.c **** *  This API determines the widget type and calls the appropriate low-level processing
 917:Generated_Source\PSoC4/CapSense_Processing.c **** *  function. Based on the returned results it updates the widget and sensor
 918:Generated_Source\PSoC4/CapSense_Processing.c **** *  status in the data structure. Any widget specific registers like the centroid
 919:Generated_Source\PSoC4/CapSense_Processing.c **** *  position are updated directly in the low-level processing function.
 920:Generated_Source\PSoC4/CapSense_Processing.c **** *
 921:Generated_Source\PSoC4/CapSense_Processing.c **** *  When the widget-specific processing completes this API updates the snsStatus
 922:Generated_Source\PSoC4/CapSense_Processing.c **** *  and wdgtStatus registers in the data structure. The wdgtStatus register
 923:Generated_Source\PSoC4/CapSense_Processing.c **** *  is a bitmask were each bit corresponds to the specific widget identified by
ARM GAS  C:\Users\Jerry\AppData\Local\Temp\ccWYb1Fx.s 			page 19


 924:Generated_Source\PSoC4/CapSense_Processing.c **** *  the widget index. When the bit is set the widget is active (touched);
 925:Generated_Source\PSoC4/CapSense_Processing.c **** *
 926:Generated_Source\PSoC4/CapSense_Processing.c **** *  The snsStatus register for CSD widgets contains status of each widget sensor
 927:Generated_Source\PSoC4/CapSense_Processing.c **** *  (active/non-active). Each bit corresponds to one sensor. In case of the
 928:Generated_Source\PSoC4/CapSense_Processing.c **** *  Proximity widget two bits are used per sensor: one for proximity status and
 929:Generated_Source\PSoC4/CapSense_Processing.c **** *  second for the touch status.
 930:Generated_Source\PSoC4/CapSense_Processing.c **** *
 931:Generated_Source\PSoC4/CapSense_Processing.c **** * \param wdgtId        The widget index number.
 932:Generated_Source\PSoC4/CapSense_Processing.c **** * \param ptrFlashWdgt  The pointer to the Flash widget structure.
 933:Generated_Source\PSoC4/CapSense_Processing.c **** *
 934:Generated_Source\PSoC4/CapSense_Processing.c **** *******************************************************************************/
 935:Generated_Source\PSoC4/CapSense_Processing.c **** void CapSense_DpProcessCsdWidgetStatus(uint32 wdgtId, CapSense_FLASH_WD_STRUCT const *ptrFlashWdgt)
 936:Generated_Source\PSoC4/CapSense_Processing.c **** {
 937:Generated_Source\PSoC4/CapSense_Processing.c ****     uint32 sensorStatus;
 938:Generated_Source\PSoC4/CapSense_Processing.c ****     uint32 wdStatusIndex;
 939:Generated_Source\PSoC4/CapSense_Processing.c ****     uint32 wdStatusMask;
 940:Generated_Source\PSoC4/CapSense_Processing.c ****     CapSense_WD_TYPE_ENUM widgetType;
 941:Generated_Source\PSoC4/CapSense_Processing.c **** 
 942:Generated_Source\PSoC4/CapSense_Processing.c ****     widgetType = (CapSense_WD_TYPE_ENUM)ptrFlashWdgt->wdgtType;
 943:Generated_Source\PSoC4/CapSense_Processing.c ****     sensorStatus = CapSense_dsRam.snsStatus[wdgtId];
 944:Generated_Source\PSoC4/CapSense_Processing.c **** 
 945:Generated_Source\PSoC4/CapSense_Processing.c ****     switch (widgetType)
 946:Generated_Source\PSoC4/CapSense_Processing.c ****     {
 947:Generated_Source\PSoC4/CapSense_Processing.c ****     #if (0u != CapSense_BUTTON_WIDGET_EN)
 948:Generated_Source\PSoC4/CapSense_Processing.c ****         case CapSense_WD_BUTTON_E:
 949:Generated_Source\PSoC4/CapSense_Processing.c ****             sensorStatus = CapSense_DpProcessButton(sensorStatus, ptrFlashWdgt);
 950:Generated_Source\PSoC4/CapSense_Processing.c ****             break;
 951:Generated_Source\PSoC4/CapSense_Processing.c ****     #endif /* #if (0u != CapSense_BUTTON_WIDGET_EN) */
 952:Generated_Source\PSoC4/CapSense_Processing.c **** 
 953:Generated_Source\PSoC4/CapSense_Processing.c ****     #if (0u != CapSense_SLIDER_WIDGET_EN)
 954:Generated_Source\PSoC4/CapSense_Processing.c ****         case CapSense_WD_LINEAR_SLIDER_E:
 955:Generated_Source\PSoC4/CapSense_Processing.c ****         case CapSense_WD_RADIAL_SLIDER_E:
 956:Generated_Source\PSoC4/CapSense_Processing.c ****             sensorStatus = CapSense_DpProcessSlider(sensorStatus, ptrFlashWdgt);
 957:Generated_Source\PSoC4/CapSense_Processing.c ****             break;
 958:Generated_Source\PSoC4/CapSense_Processing.c ****     #endif /* #if (0u != CapSense_SLIDER_WIDGET_EN) */
 959:Generated_Source\PSoC4/CapSense_Processing.c **** 
 960:Generated_Source\PSoC4/CapSense_Processing.c ****     #if (0u != CapSense_CSD_MATRIX_WIDGET_EN)
 961:Generated_Source\PSoC4/CapSense_Processing.c ****         case CapSense_WD_MATRIX_BUTTON_E:
 962:Generated_Source\PSoC4/CapSense_Processing.c ****             sensorStatus = CapSense_DpProcessCsdMatrix(sensorStatus, ptrFlashWdgt);
 963:Generated_Source\PSoC4/CapSense_Processing.c ****             break;
 964:Generated_Source\PSoC4/CapSense_Processing.c ****     #endif /* #if (0u != CapSense_CSD_MATRIX_WIDGET_EN) */
 965:Generated_Source\PSoC4/CapSense_Processing.c **** 
 966:Generated_Source\PSoC4/CapSense_Processing.c ****     #if (0u != CapSense_CSD_TOUCHPAD_WIDGET_EN)
 967:Generated_Source\PSoC4/CapSense_Processing.c ****         case CapSense_WD_TOUCHPAD_E:
 968:Generated_Source\PSoC4/CapSense_Processing.c ****             sensorStatus = CapSense_DpProcessCsdTouchpad(sensorStatus, ptrFlashWdgt);
 969:Generated_Source\PSoC4/CapSense_Processing.c ****             break;
 970:Generated_Source\PSoC4/CapSense_Processing.c ****     #endif /* #if (0u != CapSense_CSD_TOUCHPAD_WIDGET_EN) */
 971:Generated_Source\PSoC4/CapSense_Processing.c **** 
 972:Generated_Source\PSoC4/CapSense_Processing.c ****     #if (0u != CapSense_PROXIMITY_WIDGET_EN)
 973:Generated_Source\PSoC4/CapSense_Processing.c ****         case CapSense_WD_PROXIMITY_E:
 974:Generated_Source\PSoC4/CapSense_Processing.c ****             sensorStatus = CapSense_DpProcessProximity(sensorStatus, ptrFlashWdgt);
 975:Generated_Source\PSoC4/CapSense_Processing.c ****             break;
 976:Generated_Source\PSoC4/CapSense_Processing.c ****     #endif /* #if (0u != CapSense_PROXIMITY_WIDGET_EN) */
 977:Generated_Source\PSoC4/CapSense_Processing.c **** 
 978:Generated_Source\PSoC4/CapSense_Processing.c ****     default:
 979:Generated_Source\PSoC4/CapSense_Processing.c ****         CYASSERT(0u);
 980:Generated_Source\PSoC4/CapSense_Processing.c ****         break;
ARM GAS  C:\Users\Jerry\AppData\Local\Temp\ccWYb1Fx.s 			page 20


 981:Generated_Source\PSoC4/CapSense_Processing.c ****     }
 982:Generated_Source\PSoC4/CapSense_Processing.c **** 
 983:Generated_Source\PSoC4/CapSense_Processing.c ****     CapSense_dsRam.snsStatus[wdgtId] = (CapSense_SNS_STS_TYPE)sensorStatus;
 984:Generated_Source\PSoC4/CapSense_Processing.c **** 
 985:Generated_Source\PSoC4/CapSense_Processing.c ****     /* The next two lines calculate index and bitmask of the widget status bit in the wdgtStatus ar
 986:Generated_Source\PSoC4/CapSense_Processing.c ****     wdStatusIndex = CapSense_GET_WDGT_STATUS_INDEX(wdgtId);
 987:Generated_Source\PSoC4/CapSense_Processing.c ****     wdStatusMask = CapSense_GET_WDGT_STATUS_MASK(wdgtId);
 988:Generated_Source\PSoC4/CapSense_Processing.c **** 
 989:Generated_Source\PSoC4/CapSense_Processing.c ****     /* Check if there are active sensors and update widget status accordingly */
 990:Generated_Source\PSoC4/CapSense_Processing.c ****     if (0u == sensorStatus)
 991:Generated_Source\PSoC4/CapSense_Processing.c ****     {
 992:Generated_Source\PSoC4/CapSense_Processing.c ****         CapSense_dsRam.wdgtStatus[wdStatusIndex] &= ~wdStatusMask;
 993:Generated_Source\PSoC4/CapSense_Processing.c ****     }
 994:Generated_Source\PSoC4/CapSense_Processing.c ****     else
 995:Generated_Source\PSoC4/CapSense_Processing.c ****     {
 996:Generated_Source\PSoC4/CapSense_Processing.c ****         CapSense_dsRam.wdgtStatus[wdStatusIndex] |= wdStatusMask;
 997:Generated_Source\PSoC4/CapSense_Processing.c ****     }
 998:Generated_Source\PSoC4/CapSense_Processing.c **** }
 999:Generated_Source\PSoC4/CapSense_Processing.c **** #endif /* #if (0u != CapSense_TOTAL_CSD_WIDGETS) */
1000:Generated_Source\PSoC4/CapSense_Processing.c **** 
1001:Generated_Source\PSoC4/CapSense_Processing.c **** 
1002:Generated_Source\PSoC4/CapSense_Processing.c **** #if (0 != (CapSense_CSD_AUTOTUNE & CapSense_CSD_SS_TH_EN))
1003:Generated_Source\PSoC4/CapSense_Processing.c **** /*******************************************************************************
1004:Generated_Source\PSoC4/CapSense_Processing.c **** * Function Name: CapSense_DpUpdateThresholds
1005:Generated_Source\PSoC4/CapSense_Processing.c **** ****************************************************************************//**
1006:Generated_Source\PSoC4/CapSense_Processing.c **** *
1007:Generated_Source\PSoC4/CapSense_Processing.c **** * \brief
1008:Generated_Source\PSoC4/CapSense_Processing.c **** *   Updates noise and finger thresholds for a specified widget.
1009:Generated_Source\PSoC4/CapSense_Processing.c **** *
1010:Generated_Source\PSoC4/CapSense_Processing.c **** * \details
1011:Generated_Source\PSoC4/CapSense_Processing.c **** *   Updates noise and finger thresholds for a specified widget.
1012:Generated_Source\PSoC4/CapSense_Processing.c **** *   This algorithm is a part of Auto-tuning feature.
1013:Generated_Source\PSoC4/CapSense_Processing.c **** *
1014:Generated_Source\PSoC4/CapSense_Processing.c **** * \param ptrRamWdgt       The pointer to the RAM widget object.
1015:Generated_Source\PSoC4/CapSense_Processing.c **** * \param ptrNoiseEnvelope The pointer to the noise-envelope object in RAM.
1016:Generated_Source\PSoC4/CapSense_Processing.c **** * \param startFlag        The flag indicates when new widget is processed.
1017:Generated_Source\PSoC4/CapSense_Processing.c **** *
1018:Generated_Source\PSoC4/CapSense_Processing.c **** *******************************************************************************/
1019:Generated_Source\PSoC4/CapSense_Processing.c **** void CapSense_DpUpdateThresholds(CapSense_RAM_WD_BASE_STRUCT *ptrRamWdgt,
1020:Generated_Source\PSoC4/CapSense_Processing.c ****                                          SMARTSENSE_CSD_NOISE_ENVELOPE_STRUCT *ptrNoiseEnvelope,
1021:Generated_Source\PSoC4/CapSense_Processing.c ****                                          uint32 startFlag)
1022:Generated_Source\PSoC4/CapSense_Processing.c **** {
  98              		.loc 1 1022 0
  99              		.cfi_startproc
 100              	.LVL6:
 101 0000 13B5     		push	{r0, r1, r4, lr}
 102              		.cfi_def_cfa_offset 16
 103              		.cfi_offset 0, -16
 104              		.cfi_offset 1, -12
 105              		.cfi_offset 4, -8
 106              		.cfi_offset 14, -4
 107              	.LVL7:
 108              		.loc 1 1022 0
 109 0002 131C     		mov	r3, r2
 110 0004 041C     		mov	r4, r0
1023:Generated_Source\PSoC4/CapSense_Processing.c ****     SMARTSENSE_UPDATE_THRESHOLDS_STRUCT thresholds;    
1024:Generated_Source\PSoC4/CapSense_Processing.c ****     SMARTSENSE_UPDATE_THRESHOLDS_STRUCT *ptrThresholds = &thresholds;
ARM GAS  C:\Users\Jerry\AppData\Local\Temp\ccWYb1Fx.s 			page 21


1025:Generated_Source\PSoC4/CapSense_Processing.c ****     ptrThresholds->fingerTh = ptrRamWdgt->fingerTh;
 111              		.loc 1 1025 0
 112 0006 4288     		ldrh	r2, [r0, #2]
 113              	.LVL8:
 114 0008 6846     		mov	r0, sp
 115              	.LVL9:
 116 000a 0280     		strh	r2, [r0]
1026:Generated_Source\PSoC4/CapSense_Processing.c **** 
1027:Generated_Source\PSoC4/CapSense_Processing.c ****     SmartSense_UpdateThresholds(ptrNoiseEnvelope, ptrThresholds, ptrRamWdgt->sigPFC, startFlag);
 117              		.loc 1 1027 0
 118 000c 228A     		ldrh	r2, [r4, #16]
 119 000e 081C     		mov	r0, r1
 120 0010 6946     		mov	r1, sp
 121              	.LVL10:
 122 0012 FFF7FEFF 		bl	SmartSense_UpdateThresholds
 123              	.LVL11:
1028:Generated_Source\PSoC4/CapSense_Processing.c **** 
1029:Generated_Source\PSoC4/CapSense_Processing.c ****     ptrRamWdgt->fingerTh = ptrThresholds->fingerTh;
 124              		.loc 1 1029 0
 125 0016 6B46     		mov	r3, sp
 126 0018 1B88     		ldrh	r3, [r3]
1030:Generated_Source\PSoC4/CapSense_Processing.c ****     ptrRamWdgt->noiseTh = ptrThresholds->noiseTh;
1031:Generated_Source\PSoC4/CapSense_Processing.c ****     ptrRamWdgt->nNoiseTh = ptrThresholds->nNoiseTh;
1032:Generated_Source\PSoC4/CapSense_Processing.c ****     ptrRamWdgt->hysteresis = ptrThresholds->hysteresis;    
1033:Generated_Source\PSoC4/CapSense_Processing.c **** }
 127              		.loc 1 1033 0
 128              		@ sp needed
1029:Generated_Source\PSoC4/CapSense_Processing.c ****     ptrRamWdgt->noiseTh = ptrThresholds->noiseTh;
 129              		.loc 1 1029 0
 130 001a 6380     		strh	r3, [r4, #2]
1030:Generated_Source\PSoC4/CapSense_Processing.c ****     ptrRamWdgt->noiseTh = ptrThresholds->noiseTh;
 131              		.loc 1 1030 0
 132 001c 6B46     		mov	r3, sp
 133 001e 9B78     		ldrb	r3, [r3, #2]
 134 0020 2371     		strb	r3, [r4, #4]
1031:Generated_Source\PSoC4/CapSense_Processing.c ****     ptrRamWdgt->hysteresis = ptrThresholds->hysteresis;    
 135              		.loc 1 1031 0
 136 0022 6B46     		mov	r3, sp
 137 0024 DB78     		ldrb	r3, [r3, #3]
 138 0026 6371     		strb	r3, [r4, #5]
1032:Generated_Source\PSoC4/CapSense_Processing.c **** }
 139              		.loc 1 1032 0
 140 0028 6B46     		mov	r3, sp
 141 002a 1B79     		ldrb	r3, [r3, #4]
 142 002c A371     		strb	r3, [r4, #6]
 143              	.LVL12:
 144              		.loc 1 1033 0
 145 002e 13BD     		pop	{r0, r1, r4, pc}
 146              		.cfi_endproc
 147              	.LFE5:
 148              		.size	CapSense_DpUpdateThresholds, .-CapSense_DpUpdateThresholds
 149              		.section	.text.CapSense_DpUpdateDifferences,"ax",%progbits
 150              		.align	1
 151              		.global	CapSense_DpUpdateDifferences
 152              		.code	16
 153              		.thumb_func
 154              		.type	CapSense_DpUpdateDifferences, %function
ARM GAS  C:\Users\Jerry\AppData\Local\Temp\ccWYb1Fx.s 			page 22


 155              	CapSense_DpUpdateDifferences:
 156              	.LFB6:
1034:Generated_Source\PSoC4/CapSense_Processing.c **** #endif /* #if (0u != (CapSense_CSD_AUTOTUNE & CapSense_CSD_SS_TH_EN)) */
1035:Generated_Source\PSoC4/CapSense_Processing.c **** 
1036:Generated_Source\PSoC4/CapSense_Processing.c **** 
1037:Generated_Source\PSoC4/CapSense_Processing.c **** /*******************************************************************************
1038:Generated_Source\PSoC4/CapSense_Processing.c **** * Function Name: CapSense_DpUpdateDifferences
1039:Generated_Source\PSoC4/CapSense_Processing.c **** ****************************************************************************//**
1040:Generated_Source\PSoC4/CapSense_Processing.c **** *
1041:Generated_Source\PSoC4/CapSense_Processing.c **** * \brief
1042:Generated_Source\PSoC4/CapSense_Processing.c **** *   Calculates new difference values.
1043:Generated_Source\PSoC4/CapSense_Processing.c **** *   Also, executes the frequency hopping algorithm if it is enabled.
1044:Generated_Source\PSoC4/CapSense_Processing.c **** *
1045:Generated_Source\PSoC4/CapSense_Processing.c **** * \details
1046:Generated_Source\PSoC4/CapSense_Processing.c **** *   This API calculates the difference between the baseline and raw counts.
1047:Generated_Source\PSoC4/CapSense_Processing.c **** *   If the difference is positive (raw > baseline), and higher than the widget
1048:Generated_Source\PSoC4/CapSense_Processing.c **** *   noise threshold, it is saved into the data structure for further processing.
1049:Generated_Source\PSoC4/CapSense_Processing.c **** *   Otherwise the difference is set to zero. The final difference value is saved
1050:Generated_Source\PSoC4/CapSense_Processing.c **** *   with the subtracted noise threshold value.
1051:Generated_Source\PSoC4/CapSense_Processing.c **** *
1052:Generated_Source\PSoC4/CapSense_Processing.c **** *   If the frequency hopping algorithm is enabled, the difference is calculated
1053:Generated_Source\PSoC4/CapSense_Processing.c **** *   for the three sets of data available for each sensor. Then
1054:Generated_Source\PSoC4/CapSense_Processing.c **** *   the median filter selects the final difference value.
1055:Generated_Source\PSoC4/CapSense_Processing.c **** *
1056:Generated_Source\PSoC4/CapSense_Processing.c **** * \param ptrRamWdgt The pointer to the RAR Widget Object.
1057:Generated_Source\PSoC4/CapSense_Processing.c **** * \param ptrSns     The pointer to the sensor object in RAM.
1058:Generated_Source\PSoC4/CapSense_Processing.c **** *
1059:Generated_Source\PSoC4/CapSense_Processing.c **** *******************************************************************************/
1060:Generated_Source\PSoC4/CapSense_Processing.c **** void CapSense_DpUpdateDifferences(
1061:Generated_Source\PSoC4/CapSense_Processing.c ****                         CapSense_RAM_WD_BASE_STRUCT *ptrRamWdgt,
1062:Generated_Source\PSoC4/CapSense_Processing.c ****                         CapSense_RAM_SNS_STRUCT *ptrSns)
1063:Generated_Source\PSoC4/CapSense_Processing.c **** {
 157              		.loc 1 1063 0
 158              		.cfi_startproc
 159              	.LVL13:
1064:Generated_Source\PSoC4/CapSense_Processing.c ****     register int32 diffValue = 0;
1065:Generated_Source\PSoC4/CapSense_Processing.c **** 
1066:Generated_Source\PSoC4/CapSense_Processing.c ****     #if (0u != CapSense_MULTI_FREQ_SCAN_EN)
1067:Generated_Source\PSoC4/CapSense_Processing.c ****         register int32 diffValue_0 = 0;
1068:Generated_Source\PSoC4/CapSense_Processing.c ****         register int32 diffValue_2 = 0;
1069:Generated_Source\PSoC4/CapSense_Processing.c ****     #endif /* #if (0u != CapSense_MULTI_FREQ_SCAN_EN) */
1070:Generated_Source\PSoC4/CapSense_Processing.c **** 
1071:Generated_Source\PSoC4/CapSense_Processing.c ****     /* Calculate difference */
1072:Generated_Source\PSoC4/CapSense_Processing.c ****     diffValue = (int32)ptrSns->raw[0u] - (int32)ptrSns->bsln[0u];
 160              		.loc 1 1072 0
 161 0000 4A88     		ldrh	r2, [r1, #2]
 162 0002 0B88     		ldrh	r3, [r1]
 163 0004 9B1A     		sub	r3, r3, r2
 164              	.LVL14:
1073:Generated_Source\PSoC4/CapSense_Processing.c **** 
1074:Generated_Source\PSoC4/CapSense_Processing.c ****     #if (0u != CapSense_MULTI_FREQ_SCAN_EN)
1075:Generated_Source\PSoC4/CapSense_Processing.c ****         diffValue_0 = (int32)ptrSns->raw[1u] - (int32)ptrSns->bsln[1u];
1076:Generated_Source\PSoC4/CapSense_Processing.c ****         diffValue_2 = (int32)ptrSns->raw[2u] - (int32)ptrSns->bsln[2u];
1077:Generated_Source\PSoC4/CapSense_Processing.c **** 
1078:Generated_Source\PSoC4/CapSense_Processing.c ****         /* Find median and put it into [0u] element */
1079:Generated_Source\PSoC4/CapSense_Processing.c ****         if (diffValue_0 > diffValue)
1080:Generated_Source\PSoC4/CapSense_Processing.c ****         {
ARM GAS  C:\Users\Jerry\AppData\Local\Temp\ccWYb1Fx.s 			page 23


1081:Generated_Source\PSoC4/CapSense_Processing.c ****             register int32 swapv = diffValue_0;
1082:Generated_Source\PSoC4/CapSense_Processing.c ****             diffValue_0 = diffValue;
1083:Generated_Source\PSoC4/CapSense_Processing.c ****             diffValue = swapv;
1084:Generated_Source\PSoC4/CapSense_Processing.c ****         }
1085:Generated_Source\PSoC4/CapSense_Processing.c **** 
1086:Generated_Source\PSoC4/CapSense_Processing.c ****         if (diffValue > diffValue_2)
1087:Generated_Source\PSoC4/CapSense_Processing.c ****         {
1088:Generated_Source\PSoC4/CapSense_Processing.c ****             register int32 swapv = diffValue;
1089:Generated_Source\PSoC4/CapSense_Processing.c ****             diffValue = diffValue_2;
1090:Generated_Source\PSoC4/CapSense_Processing.c ****             diffValue_2 = swapv;
1091:Generated_Source\PSoC4/CapSense_Processing.c ****         }
1092:Generated_Source\PSoC4/CapSense_Processing.c **** 
1093:Generated_Source\PSoC4/CapSense_Processing.c ****         if (diffValue_0 > diffValue)
1094:Generated_Source\PSoC4/CapSense_Processing.c ****         {
1095:Generated_Source\PSoC4/CapSense_Processing.c ****             register int32 swapv = diffValue_0;
1096:Generated_Source\PSoC4/CapSense_Processing.c ****             diffValue_0 = diffValue;
1097:Generated_Source\PSoC4/CapSense_Processing.c ****             diffValue = swapv;
1098:Generated_Source\PSoC4/CapSense_Processing.c ****         }
1099:Generated_Source\PSoC4/CapSense_Processing.c ****     #endif /* #if (0u != CapSense_MULTI_FREQ_SCAN_EN) */
1100:Generated_Source\PSoC4/CapSense_Processing.c **** 
1101:Generated_Source\PSoC4/CapSense_Processing.c ****     ptrSns->diff = 0u;
 165              		.loc 1 1101 0
 166 0006 0022     		mov	r2, #0
 167 0008 CA80     		strh	r2, [r1, #6]
1102:Generated_Source\PSoC4/CapSense_Processing.c **** 
1103:Generated_Source\PSoC4/CapSense_Processing.c ****     if (diffValue > (int32)ptrRamWdgt->noiseTh)
 168              		.loc 1 1103 0
 169 000a 0279     		ldrb	r2, [r0, #4]
 170 000c 9342     		cmp	r3, r2
 171 000e 00DD     		ble	.L11
1104:Generated_Source\PSoC4/CapSense_Processing.c ****     {
1105:Generated_Source\PSoC4/CapSense_Processing.c ****         ptrSns->diff = (CapSense_THRESHOLD_TYPE) diffValue;
 172              		.loc 1 1105 0
 173 0010 CB80     		strh	r3, [r1, #6]
 174              	.L11:
1106:Generated_Source\PSoC4/CapSense_Processing.c ****     }
1107:Generated_Source\PSoC4/CapSense_Processing.c **** }
 175              		.loc 1 1107 0
 176              		@ sp needed
 177 0012 7047     		bx	lr
 178              		.cfi_endproc
 179              	.LFE6:
 180              		.size	CapSense_DpUpdateDifferences, .-CapSense_DpUpdateDifferences
 181              		.global	__aeabi_uidiv
 182              		.section	.text.CapSense_DpProcessCsdWidgetRawCounts,"ax",%progbits
 183              		.align	1
 184              		.global	CapSense_DpProcessCsdWidgetRawCounts
 185              		.code	16
 186              		.thumb_func
 187              		.type	CapSense_DpProcessCsdWidgetRawCounts, %function
 188              	CapSense_DpProcessCsdWidgetRawCounts:
 189              	.LFB2:
 708:Generated_Source\PSoC4/CapSense_Processing.c ****     uint32  result = CYRET_SUCCESS;
 190              		.loc 1 708 0
 191              		.cfi_startproc
 192              	.LVL15:
 193 0000 F0B5     		push	{r4, r5, r6, r7, lr}
ARM GAS  C:\Users\Jerry\AppData\Local\Temp\ccWYb1Fx.s 			page 24


 194              		.cfi_def_cfa_offset 20
 195              		.cfi_offset 4, -20
 196              		.cfi_offset 5, -16
 197              		.cfi_offset 6, -12
 198              		.cfi_offset 7, -8
 199              		.cfi_offset 14, -4
 748:Generated_Source\PSoC4/CapSense_Processing.c ****     {
 200              		.loc 1 748 0
 201 0002 0025     		mov	r5, #0
 708:Generated_Source\PSoC4/CapSense_Processing.c ****     uint32  result = CYRET_SUCCESS;
 202              		.loc 1 708 0
 203 0004 041C     		mov	r4, r0
 741:Generated_Source\PSoC4/CapSense_Processing.c **** 
 204              		.loc 1 741 0
 205 0006 037E     		ldrb	r3, [r0, #24]
 708:Generated_Source\PSoC4/CapSense_Processing.c ****     uint32  result = CYRET_SUCCESS;
 206              		.loc 1 708 0
 207 0008 85B0     		sub	sp, sp, #20
 208              		.cfi_def_cfa_offset 40
 741:Generated_Source\PSoC4/CapSense_Processing.c **** 
 209              		.loc 1 741 0
 210 000a 0293     		str	r3, [sp, #8]
 744:Generated_Source\PSoC4/CapSense_Processing.c ****     #endif /* #if (0u != (CapSense_CSD_AUTOTUNE & CapSense_CSD_SS_TH_EN)) */
 211              		.loc 1 744 0
 212 000c C369     		ldr	r3, [r0, #28]
 739:Generated_Source\PSoC4/CapSense_Processing.c ****     ptrRamWdgt = ptrFlashWdgt->ptr2WdgtRam;
 213              		.loc 1 739 0
 214 000e 8768     		ldr	r7, [r0, #8]
 215              	.LVL16:
 740:Generated_Source\PSoC4/CapSense_Processing.c ****     widgetType = ptrFlashWdgt->wdgtType;
 216              		.loc 1 740 0
 217 0010 4668     		ldr	r6, [r0, #4]
 218              	.LVL17:
 744:Generated_Source\PSoC4/CapSense_Processing.c ****     #endif /* #if (0u != (CapSense_CSD_AUTOTUNE & CapSense_CSD_SS_TH_EN)) */
 219              		.loc 1 744 0
 220 0012 0393     		str	r3, [sp, #12]
 221              	.LVL18:
 709:Generated_Source\PSoC4/CapSense_Processing.c ****     
 222              		.loc 1 709 0
 223 0014 0195     		str	r5, [sp, #4]
 224              	.LVL19:
 225              	.L14:
 226 0016 0C23     		mov	r3, #12
 227 0018 6B43     		mul	r3, r5
 228 001a 039A     		ldr	r2, [sp, #12]
 229 001c D318     		add	r3, r2, r3
 230 001e 0093     		str	r3, [sp]
 231              	.LVL20:
 748:Generated_Source\PSoC4/CapSense_Processing.c ****     {
 232              		.loc 1 748 0 discriminator 1
 233 0020 E38A     		ldrh	r3, [r4, #22]
 234              	.LVL21:
 235 0022 9D42     		cmp	r5, r3
 236 0024 26D2     		bcs	.L18
 757:Generated_Source\PSoC4/CapSense_Processing.c ****             CapSense_DpUpdateThresholds(ptrRamWdgt, ptrNoiseEnvelope, snsId);
 237              		.loc 1 757 0
 238 0026 3888     		ldrh	r0, [r7]
ARM GAS  C:\Users\Jerry\AppData\Local\Temp\ccWYb1Fx.s 			page 25


 239 0028 318A     		ldrh	r1, [r6, #16]
 240 002a 009A     		ldr	r2, [sp]
 241 002c FFF7FEFF 		bl	SmartSense_RunNoiseEnvelope
 242              	.LVL22:
 758:Generated_Source\PSoC4/CapSense_Processing.c **** 
 243              		.loc 1 758 0
 244 0030 301C     		mov	r0, r6
 245 0032 0099     		ldr	r1, [sp]
 246 0034 2A1C     		mov	r2, r5
 247 0036 FFF7FEFF 		bl	CapSense_DpUpdateThresholds
 248              	.LVL23:
 762:Generated_Source\PSoC4/CapSense_Processing.c ****                 {
 249              		.loc 1 762 0
 250 003a 237E     		ldrb	r3, [r4, #24]
 251 003c 062B     		cmp	r3, #6
 252 003e 0CD1     		bne	.L15
 764:Generated_Source\PSoC4/CapSense_Processing.c ****                     if ((((1Lu) << CapSense_THRESHOLD_SIZE) - 1u) < proximityThreshold)
 253              		.loc 1 764 0
 254 0040 7088     		ldrh	r0, [r6, #2]
 255 0042 2733     		add	r3, r3, #39
 256 0044 FF33     		add	r3, r3, #255
 257 0046 5843     		mul	r0, r3
 258 0048 6421     		mov	r1, #100
 259 004a FFF7FEFF 		bl	__aeabi_uidiv
 260              	.LVL24:
 261 004e 0B4B     		ldr	r3, .L19
 769:Generated_Source\PSoC4/CapSense_Processing.c ****                         (CapSense_THRESHOLD_TYPE)proximityThreshold;
 262              		.loc 1 769 0
 263 0050 6268     		ldr	r2, [r4, #4]
 264 0052 9842     		cmp	r0, r3
 265 0054 00D9     		bls	.L16
 266 0056 181C     		mov	r0, r3
 267              	.LVL25:
 268              	.L16:
 269 0058 5082     		strh	r0, [r2, #18]
 270              	.L15:
 271              	.LVL26:
 788:Generated_Source\PSoC4/CapSense_Processing.c ****         #endif /* (CapSense_ENABLE == CapSense_TST_BSLN_DUPLICATION_EN) */
 272              		.loc 1 788 0 discriminator 2
 273 005a 391C     		mov	r1, r7
 274 005c 029A     		ldr	r2, [sp, #8]
 275 005e 301C     		mov	r0, r6
 276 0060 FFF7FEFF 		bl	CapSense_FtUpdateBaseline
 277              	.LVL27:
 791:Generated_Source\PSoC4/CapSense_Processing.c **** 
 278              		.loc 1 791 0 discriminator 2
 279 0064 391C     		mov	r1, r7
 788:Generated_Source\PSoC4/CapSense_Processing.c ****         #endif /* (CapSense_ENABLE == CapSense_TST_BSLN_DUPLICATION_EN) */
 280              		.loc 1 788 0 discriminator 2
 281 0066 0190     		str	r0, [sp, #4]
 282              	.LVL28:
 791:Generated_Source\PSoC4/CapSense_Processing.c **** 
 283              		.loc 1 791 0 discriminator 2
 284 0068 301C     		mov	r0, r6
 285              	.LVL29:
 286 006a FFF7FEFF 		bl	CapSense_DpUpdateDifferences
 287              	.LVL30:
ARM GAS  C:\Users\Jerry\AppData\Local\Temp\ccWYb1Fx.s 			page 26


 794:Generated_Source\PSoC4/CapSense_Processing.c **** 
 288              		.loc 1 794 0 discriminator 2
 289 006e 0A37     		add	r7, r7, #10
 290              	.LVL31:
 748:Generated_Source\PSoC4/CapSense_Processing.c ****     {
 291              		.loc 1 748 0 discriminator 2
 292 0070 0135     		add	r5, r5, #1
 293              	.LVL32:
 294 0072 D0E7     		b	.L14
 295              	.LVL33:
 296              	.L18:
 802:Generated_Source\PSoC4/CapSense_Processing.c **** 
 297              		.loc 1 802 0
 298 0074 0198     		ldr	r0, [sp, #4]
 299 0076 05B0     		add	sp, sp, #20
 300              	.LVL34:
 301              		@ sp needed
 302              	.LVL35:
 303              	.LVL36:
 304              	.LVL37:
 305              	.LVL38:
 306 0078 F0BD     		pop	{r4, r5, r6, r7, pc}
 307              	.L20:
 308 007a C046     		.align	2
 309              	.L19:
 310 007c FFFF0000 		.word	65535
 311              		.cfi_endproc
 312              	.LFE2:
 313              		.size	CapSense_DpProcessCsdWidgetRawCounts, .-CapSense_DpProcessCsdWidgetRawCounts
 314              		.section	.text.CapSense_DpProcessCsdSensorRawCountsExt,"ax",%progbits
 315              		.align	1
 316              		.global	CapSense_DpProcessCsdSensorRawCountsExt
 317              		.code	16
 318              		.thumb_func
 319              		.type	CapSense_DpProcessCsdSensorRawCountsExt, %function
 320              	CapSense_DpProcessCsdSensorRawCountsExt:
 321              	.LFB3:
 843:Generated_Source\PSoC4/CapSense_Processing.c ****     uint32 result = CYRET_SUCCESS;
 322              		.loc 1 843 0
 323              		.cfi_startproc
 324              	.LVL39:
 325 0000 F7B5     		push	{r0, r1, r2, r4, r5, r6, r7, lr}
 326              		.cfi_def_cfa_offset 32
 327              		.cfi_offset 0, -32
 328              		.cfi_offset 1, -28
 329              		.cfi_offset 2, -24
 330              		.cfi_offset 4, -20
 331              		.cfi_offset 5, -16
 332              		.cfi_offset 6, -12
 333              		.cfi_offset 7, -8
 334              		.cfi_offset 14, -4
 335              	.LVL40:
 843:Generated_Source\PSoC4/CapSense_Processing.c ****     uint32 result = CYRET_SUCCESS;
 336              		.loc 1 843 0
 337 0002 1E1C     		mov	r6, r3
 855:Generated_Source\PSoC4/CapSense_Processing.c ****     #endif /* (0u != (CapSense_CSD_AUTOTUNE & CapSense_CSD_SS_TH_EN)) */
 338              		.loc 1 855 0
ARM GAS  C:\Users\Jerry\AppData\Local\Temp\ccWYb1Fx.s 			page 27


 339 0004 C369     		ldr	r3, [r0, #28]
 340              	.LVL41:
 843:Generated_Source\PSoC4/CapSense_Processing.c ****     uint32 result = CYRET_SUCCESS;
 341              		.loc 1 843 0
 342 0006 051C     		mov	r5, r0
 855:Generated_Source\PSoC4/CapSense_Processing.c ****     #endif /* (0u != (CapSense_CSD_AUTOTUNE & CapSense_CSD_SS_TH_EN)) */
 343              		.loc 1 855 0
 344 0008 0093     		str	r3, [sp]
 345              	.LVL42:
 858:Generated_Source\PSoC4/CapSense_Processing.c ****     ptrRamWdgt = ptrFlashWdgt->ptr2WdgtRam;
 346              		.loc 1 858 0
 347 000a 037E     		ldrb	r3, [r0, #24]
 348              	.LVL43:
 843:Generated_Source\PSoC4/CapSense_Processing.c ****     uint32 result = CYRET_SUCCESS;
 349              		.loc 1 843 0
 350 000c 0F1C     		mov	r7, r1
 858:Generated_Source\PSoC4/CapSense_Processing.c ****     ptrRamWdgt = ptrFlashWdgt->ptr2WdgtRam;
 351              		.loc 1 858 0
 352 000e 0193     		str	r3, [sp, #4]
 353              	.LVL44:
 859:Generated_Source\PSoC4/CapSense_Processing.c **** 
 354              		.loc 1 859 0
 355 0010 4468     		ldr	r4, [r0, #4]
 356              	.LVL45:
 871:Generated_Source\PSoC4/CapSense_Processing.c ****         {
 357              		.loc 1 871 0
 358 0012 3307     		lsl	r3, r6, #28
 359 0014 04D5     		bpl	.L22
 873:Generated_Source\PSoC4/CapSense_Processing.c ****         }
 360              		.loc 1 873 0
 361 0016 0888     		ldrh	r0, [r1]
 362              	.LVL46:
 363 0018 009A     		ldr	r2, [sp]
 364 001a 218A     		ldrh	r1, [r4, #16]
 365              	.LVL47:
 366 001c FFF7FEFF 		bl	SmartSense_RunNoiseEnvelope
 367              	.LVL48:
 368              	.L22:
 876:Generated_Source\PSoC4/CapSense_Processing.c ****         {            
 369              		.loc 1 876 0
 370 0020 F306     		lsl	r3, r6, #27
 371 0022 14D5     		bpl	.L24
 878:Generated_Source\PSoC4/CapSense_Processing.c ****             
 372              		.loc 1 878 0
 373 0024 201C     		mov	r0, r4
 374 0026 0099     		ldr	r1, [sp]
 375 0028 0022     		mov	r2, #0
 376 002a FFF7FEFF 		bl	CapSense_DpUpdateThresholds
 377              	.LVL49:
 882:Generated_Source\PSoC4/CapSense_Processing.c ****                 {
 378              		.loc 1 882 0
 379 002e 2B7E     		ldrb	r3, [r5, #24]
 380 0030 062B     		cmp	r3, #6
 381 0032 0CD1     		bne	.L24
 884:Generated_Source\PSoC4/CapSense_Processing.c ****                     if ((((1Lu) << CapSense_THRESHOLD_SIZE) - 1u) < proximityThreshold)
 382              		.loc 1 884 0
 383 0034 6088     		ldrh	r0, [r4, #2]
ARM GAS  C:\Users\Jerry\AppData\Local\Temp\ccWYb1Fx.s 			page 28


 384 0036 2733     		add	r3, r3, #39
 385 0038 FF33     		add	r3, r3, #255
 386 003a 5843     		mul	r0, r3
 387 003c 6421     		mov	r1, #100
 388 003e FFF7FEFF 		bl	__aeabi_uidiv
 389              	.LVL50:
 390 0042 0B4B     		ldr	r3, .L37
 889:Generated_Source\PSoC4/CapSense_Processing.c ****                         (CapSense_THRESHOLD_TYPE)proximityThreshold;
 391              		.loc 1 889 0
 392 0044 6A68     		ldr	r2, [r5, #4]
 393 0046 9842     		cmp	r0, r3
 394 0048 00D9     		bls	.L26
 395 004a 181C     		mov	r0, r3
 396              	.LVL51:
 397              	.L26:
 398 004c 5082     		strh	r0, [r2, #18]
 399              	.L24:
 844:Generated_Source\PSoC4/CapSense_Processing.c ****     uint32  widgetType;
 400              		.loc 1 844 0
 401 004e 0025     		mov	r5, #0
 402              	.LVL52:
 896:Generated_Source\PSoC4/CapSense_Processing.c ****     {
 403              		.loc 1 896 0
 404 0050 B307     		lsl	r3, r6, #30
 405 0052 05D5     		bpl	.L27
 898:Generated_Source\PSoC4/CapSense_Processing.c ****     }
 406              		.loc 1 898 0
 407 0054 201C     		mov	r0, r4
 408 0056 391C     		mov	r1, r7
 409 0058 019A     		ldr	r2, [sp, #4]
 410 005a FFF7FEFF 		bl	CapSense_FtUpdateBaseline
 411              	.LVL53:
 412 005e 051C     		mov	r5, r0
 413              	.LVL54:
 414              	.L27:
 901:Generated_Source\PSoC4/CapSense_Processing.c ****     {
 415              		.loc 1 901 0
 416 0060 7307     		lsl	r3, r6, #29
 417 0062 03D5     		bpl	.L28
 903:Generated_Source\PSoC4/CapSense_Processing.c ****     }
 418              		.loc 1 903 0
 419 0064 201C     		mov	r0, r4
 420 0066 391C     		mov	r1, r7
 421 0068 FFF7FEFF 		bl	CapSense_DpUpdateDifferences
 422              	.LVL55:
 423              	.L28:
 906:Generated_Source\PSoC4/CapSense_Processing.c **** 
 424              		.loc 1 906 0
 425 006c 281C     		mov	r0, r5
 426              		@ sp needed
 427              	.LVL56:
 428              	.LVL57:
 429              	.LVL58:
 430              	.LVL59:
 431 006e FEBD     		pop	{r1, r2, r3, r4, r5, r6, r7, pc}
 432              	.L38:
 433              		.align	2
ARM GAS  C:\Users\Jerry\AppData\Local\Temp\ccWYb1Fx.s 			page 29


 434              	.L37:
 435 0070 FFFF0000 		.word	65535
 436              		.cfi_endproc
 437              	.LFE3:
 438              		.size	CapSense_DpProcessCsdSensorRawCountsExt, .-CapSense_DpProcessCsdSensorRawCountsExt
 439              		.section	.text.CapSense_DpProcessProximity,"ax",%progbits
 440              		.align	1
 441              		.global	CapSense_DpProcessProximity
 442              		.code	16
 443              		.thumb_func
 444              		.type	CapSense_DpProcessProximity, %function
 445              	CapSense_DpProcessProximity:
 446              	.LFB7:
1108:Generated_Source\PSoC4/CapSense_Processing.c **** 
1109:Generated_Source\PSoC4/CapSense_Processing.c **** 
1110:Generated_Source\PSoC4/CapSense_Processing.c **** #if ((0u != CapSense_BUTTON_WIDGET_EN) || (0u != CapSense_CSX_MATRIX_WIDGET_EN))
1111:Generated_Source\PSoC4/CapSense_Processing.c **** /*******************************************************************************
1112:Generated_Source\PSoC4/CapSense_Processing.c **** * Function Name: CapSense_DpProcessButton
1113:Generated_Source\PSoC4/CapSense_Processing.c **** ****************************************************************************//**
1114:Generated_Source\PSoC4/CapSense_Processing.c **** *
1115:Generated_Source\PSoC4/CapSense_Processing.c **** * \brief
1116:Generated_Source\PSoC4/CapSense_Processing.c **** *   Processes the status of the Button widget.
1117:Generated_Source\PSoC4/CapSense_Processing.c **** *
1118:Generated_Source\PSoC4/CapSense_Processing.c **** * \details
1119:Generated_Source\PSoC4/CapSense_Processing.c **** *   This API processes the status of the CSD/CSX Button widget and
1120:Generated_Source\PSoC4/CapSense_Processing.c **** *   CSX Matrix Button widget. It applies the hysteresis and de-bounce algorithm
1121:Generated_Source\PSoC4/CapSense_Processing.c **** *   to each sensor difference value. This API is expected to be called
1122:Generated_Source\PSoC4/CapSense_Processing.c **** *   after each new widget scan. If it is called multiple times for the same
1123:Generated_Source\PSoC4/CapSense_Processing.c **** *   scan data, the de-bounce algorithm will not work properly.
1124:Generated_Source\PSoC4/CapSense_Processing.c **** *
1125:Generated_Source\PSoC4/CapSense_Processing.c **** *   This API does not update any Data Structure registers
1126:Generated_Source\PSoC4/CapSense_Processing.c **** *   except the de-bounce counters.
1127:Generated_Source\PSoC4/CapSense_Processing.c **** *
1128:Generated_Source\PSoC4/CapSense_Processing.c **** * \param currStatus   The current status of the widget sensors.
1129:Generated_Source\PSoC4/CapSense_Processing.c **** * \param ptrFlashWdgt The pointer to the Flash Widget Object.
1130:Generated_Source\PSoC4/CapSense_Processing.c **** *
1131:Generated_Source\PSoC4/CapSense_Processing.c **** * \return Returns the status of the widget's sensors. Bit #0 - corresponds to Sensor #0.
1132:Generated_Source\PSoC4/CapSense_Processing.c **** *
1133:Generated_Source\PSoC4/CapSense_Processing.c **** *******************************************************************************/
1134:Generated_Source\PSoC4/CapSense_Processing.c **** uint32 CapSense_DpProcessButton(uint32 currStatus, CapSense_FLASH_WD_STRUCT const *ptrFlashWdgt)
1135:Generated_Source\PSoC4/CapSense_Processing.c **** {
1136:Generated_Source\PSoC4/CapSense_Processing.c ****     uint32 snsCnt;
1137:Generated_Source\PSoC4/CapSense_Processing.c ****     uint32 snsMask;
1138:Generated_Source\PSoC4/CapSense_Processing.c ****     uint32 newStatus;
1139:Generated_Source\PSoC4/CapSense_Processing.c ****     uint32 touchTh;
1140:Generated_Source\PSoC4/CapSense_Processing.c ****     CapSense_RAM_SNS_STRUCT *ptrSns;
1141:Generated_Source\PSoC4/CapSense_Processing.c ****     CapSense_RAM_WD_BASE_STRUCT *ptrRamWdgt;
1142:Generated_Source\PSoC4/CapSense_Processing.c ****     uint8 * ptrDebounceCnt;
1143:Generated_Source\PSoC4/CapSense_Processing.c **** 
1144:Generated_Source\PSoC4/CapSense_Processing.c ****     snsCnt = ptrFlashWdgt->totalNumSns;
1145:Generated_Source\PSoC4/CapSense_Processing.c ****     ptrSns = ptrFlashWdgt->ptr2SnsRam;
1146:Generated_Source\PSoC4/CapSense_Processing.c ****     ptrRamWdgt = ptrFlashWdgt->ptr2WdgtRam;
1147:Generated_Source\PSoC4/CapSense_Processing.c ****     ptrDebounceCnt = ptrFlashWdgt->ptr2DebounceArr;
1148:Generated_Source\PSoC4/CapSense_Processing.c **** 
1149:Generated_Source\PSoC4/CapSense_Processing.c ****     /* Go through all widget's sensors */
1150:Generated_Source\PSoC4/CapSense_Processing.c ****     snsMask = 1Lu;
1151:Generated_Source\PSoC4/CapSense_Processing.c ****     for (; snsCnt-- > 0u; )
ARM GAS  C:\Users\Jerry\AppData\Local\Temp\ccWYb1Fx.s 			page 30


1152:Generated_Source\PSoC4/CapSense_Processing.c ****     {
1153:Generated_Source\PSoC4/CapSense_Processing.c ****         /* Calculate touch threshold taking into account hysteresis
1154:Generated_Source\PSoC4/CapSense_Processing.c ****            and current sensor state. */
1155:Generated_Source\PSoC4/CapSense_Processing.c ****         touchTh = (0u == (currStatus & snsMask)) ?
1156:Generated_Source\PSoC4/CapSense_Processing.c ****                   ((uint32)ptrRamWdgt->fingerTh + ptrRamWdgt->hysteresis) :
1157:Generated_Source\PSoC4/CapSense_Processing.c ****                   ((uint32)ptrRamWdgt->fingerTh - ptrRamWdgt->hysteresis);
1158:Generated_Source\PSoC4/CapSense_Processing.c **** 
1159:Generated_Source\PSoC4/CapSense_Processing.c ****         /* Determine new potential sensor state */
1160:Generated_Source\PSoC4/CapSense_Processing.c ****         newStatus = (ptrSns->diff > touchTh) ? snsMask : 0u;
1161:Generated_Source\PSoC4/CapSense_Processing.c **** 
1162:Generated_Source\PSoC4/CapSense_Processing.c ****         /* Sensor state changed ? */
1163:Generated_Source\PSoC4/CapSense_Processing.c ****         if (newStatus != (currStatus & snsMask))
1164:Generated_Source\PSoC4/CapSense_Processing.c ****         {
1165:Generated_Source\PSoC4/CapSense_Processing.c ****             /* Decrement de-bounce counter */
1166:Generated_Source\PSoC4/CapSense_Processing.c ****             (*ptrDebounceCnt)--;
1167:Generated_Source\PSoC4/CapSense_Processing.c ****         }
1168:Generated_Source\PSoC4/CapSense_Processing.c **** 
1169:Generated_Source\PSoC4/CapSense_Processing.c ****         /* This piece of code has two objectives:
1170:Generated_Source\PSoC4/CapSense_Processing.c ****            1. Reset de-bounce counter if the sensor state did not change.
1171:Generated_Source\PSoC4/CapSense_Processing.c ****               (It is possible that during previous processing cycles sensor
1172:Generated_Source\PSoC4/CapSense_Processing.c ****                was active and de-bounce counter was decremented.)
1173:Generated_Source\PSoC4/CapSense_Processing.c ****            2. Set new sensor state after successful de-bounce.
1174:Generated_Source\PSoC4/CapSense_Processing.c ****          */
1175:Generated_Source\PSoC4/CapSense_Processing.c ****         if ((newStatus == (currStatus & snsMask)) || (0u == (*ptrDebounceCnt)))
1176:Generated_Source\PSoC4/CapSense_Processing.c ****         {
1177:Generated_Source\PSoC4/CapSense_Processing.c ****             /* Set new sensor status */
1178:Generated_Source\PSoC4/CapSense_Processing.c ****             currStatus &= ~snsMask;
1179:Generated_Source\PSoC4/CapSense_Processing.c ****             currStatus |= newStatus;
1180:Generated_Source\PSoC4/CapSense_Processing.c **** 
1181:Generated_Source\PSoC4/CapSense_Processing.c ****             /* Reset de-bounce counter */
1182:Generated_Source\PSoC4/CapSense_Processing.c ****             #if (0u != CapSense_OFF_DEBOUNCE_EN)
1183:Generated_Source\PSoC4/CapSense_Processing.c ****                 *ptrDebounceCnt = (0Lu == newStatus) ? ptrRamWdgt->onDebounce : ptrRamWdgt->offDebo
1184:Generated_Source\PSoC4/CapSense_Processing.c ****             #else
1185:Generated_Source\PSoC4/CapSense_Processing.c ****                 *ptrDebounceCnt = (0Lu == newStatus) ? ptrRamWdgt->onDebounce : DEFAULT_OFF_DEBOUNC
1186:Generated_Source\PSoC4/CapSense_Processing.c ****             #endif /* #if (0u != CapSense_OFF_DEBOUNCE_EN) */
1187:Generated_Source\PSoC4/CapSense_Processing.c ****         }
1188:Generated_Source\PSoC4/CapSense_Processing.c ****         
1189:Generated_Source\PSoC4/CapSense_Processing.c ****         /* Move mask to the next sensor */
1190:Generated_Source\PSoC4/CapSense_Processing.c ****         snsMask <<= 1u;
1191:Generated_Source\PSoC4/CapSense_Processing.c ****         
1192:Generated_Source\PSoC4/CapSense_Processing.c ****         ptrSns++;
1193:Generated_Source\PSoC4/CapSense_Processing.c ****         ptrDebounceCnt++;
1194:Generated_Source\PSoC4/CapSense_Processing.c ****     }
1195:Generated_Source\PSoC4/CapSense_Processing.c **** 
1196:Generated_Source\PSoC4/CapSense_Processing.c ****     return currStatus;
1197:Generated_Source\PSoC4/CapSense_Processing.c **** }
1198:Generated_Source\PSoC4/CapSense_Processing.c **** #endif /* #if ((0u != CapSense_BUTTON_WIDGET_EN) || (0u != CapSense_CSX_MATRIX_WIDGET_EN)) */
1199:Generated_Source\PSoC4/CapSense_Processing.c **** 
1200:Generated_Source\PSoC4/CapSense_Processing.c **** 
1201:Generated_Source\PSoC4/CapSense_Processing.c **** #if (0u != CapSense_PROXIMITY_WIDGET_EN)
1202:Generated_Source\PSoC4/CapSense_Processing.c **** /*******************************************************************************
1203:Generated_Source\PSoC4/CapSense_Processing.c **** * Function Name: CapSense_DpProcessProximity
1204:Generated_Source\PSoC4/CapSense_Processing.c **** ****************************************************************************//**
1205:Generated_Source\PSoC4/CapSense_Processing.c **** *
1206:Generated_Source\PSoC4/CapSense_Processing.c **** * \brief
1207:Generated_Source\PSoC4/CapSense_Processing.c **** *   Processes the status of the Proximity widget.
1208:Generated_Source\PSoC4/CapSense_Processing.c **** *
ARM GAS  C:\Users\Jerry\AppData\Local\Temp\ccWYb1Fx.s 			page 31


1209:Generated_Source\PSoC4/CapSense_Processing.c **** * \details
1210:Generated_Source\PSoC4/CapSense_Processing.c **** *   This API processes the status of the CSD Proximity widget. It applies the
1211:Generated_Source\PSoC4/CapSense_Processing.c **** *   hysteresis and debounce algorithm to each sensor difference value.
1212:Generated_Source\PSoC4/CapSense_Processing.c **** *   The proximity and touch events are considered independently so debounce and
1213:Generated_Source\PSoC4/CapSense_Processing.c **** *   hysteresis are also applied independently.
1214:Generated_Source\PSoC4/CapSense_Processing.c **** *
1215:Generated_Source\PSoC4/CapSense_Processing.c **** *   This API is expected to be called after each new widget scan. If it is
1216:Generated_Source\PSoC4/CapSense_Processing.c **** *   called multiple times for the same scan data the debounce algorithm
1217:Generated_Source\PSoC4/CapSense_Processing.c **** *   will not work properly.
1218:Generated_Source\PSoC4/CapSense_Processing.c **** *
1219:Generated_Source\PSoC4/CapSense_Processing.c **** *   This API does not update any Data Structure registers
1220:Generated_Source\PSoC4/CapSense_Processing.c **** *   except the debounce counters.
1221:Generated_Source\PSoC4/CapSense_Processing.c **** *
1222:Generated_Source\PSoC4/CapSense_Processing.c **** * \param currStatus   The value with the current widget status.
1223:Generated_Source\PSoC4/CapSense_Processing.c **** * \param ptrFlashWdgt The pointer to the Flash Widget Object.
1224:Generated_Source\PSoC4/CapSense_Processing.c **** *
1225:Generated_Source\PSoC4/CapSense_Processing.c **** * \return
1226:Generated_Source\PSoC4/CapSense_Processing.c **** *  Returns the status of the proximity sensors. Each sensor is represented by two bits
1227:Generated_Source\PSoC4/CapSense_Processing.c **** *  that can take the following values:
1228:Generated_Source\PSoC4/CapSense_Processing.c **** *   - 00b not active
1229:Generated_Source\PSoC4/CapSense_Processing.c **** *   - 01b proximity is detected (signal is above finger threshold)
1230:Generated_Source\PSoC4/CapSense_Processing.c **** *   - 11b finger touch is detected (signal is above the touch threshold)
1231:Generated_Source\PSoC4/CapSense_Processing.c **** *
1232:Generated_Source\PSoC4/CapSense_Processing.c **** *******************************************************************************/
1233:Generated_Source\PSoC4/CapSense_Processing.c **** uint32 CapSense_DpProcessProximity(uint32 currStatus, CapSense_FLASH_WD_STRUCT const *ptrFlashWdgt)
1234:Generated_Source\PSoC4/CapSense_Processing.c **** {
 447              		.loc 1 1234 0
 448              		.cfi_startproc
 449              	.LVL60:
 450 0000 F7B5     		push	{r0, r1, r2, r4, r5, r6, r7, lr}
 451              		.cfi_def_cfa_offset 32
 452              		.cfi_offset 0, -32
 453              		.cfi_offset 1, -28
 454              		.cfi_offset 2, -24
 455              		.cfi_offset 4, -20
 456              		.cfi_offset 5, -16
 457              		.cfi_offset 6, -12
 458              		.cfi_offset 7, -8
 459              		.cfi_offset 14, -4
1235:Generated_Source\PSoC4/CapSense_Processing.c ****     uint32 currTh;
1236:Generated_Source\PSoC4/CapSense_Processing.c ****     uint32 snsCnt;
1237:Generated_Source\PSoC4/CapSense_Processing.c ****     uint32 snsMask;
1238:Generated_Source\PSoC4/CapSense_Processing.c ****     uint32 newStatus;
1239:Generated_Source\PSoC4/CapSense_Processing.c ****     uint32 difference;
1240:Generated_Source\PSoC4/CapSense_Processing.c **** 
1241:Generated_Source\PSoC4/CapSense_Processing.c ****     uint8 *ptrDebounceCnt;
1242:Generated_Source\PSoC4/CapSense_Processing.c ****     CapSense_RAM_SNS_STRUCT *ptrSns;
1243:Generated_Source\PSoC4/CapSense_Processing.c ****     CapSense_RAM_WD_PROXIMITY_STRUCT *ptrRamWdgt;
1244:Generated_Source\PSoC4/CapSense_Processing.c **** 
1245:Generated_Source\PSoC4/CapSense_Processing.c ****     /* Mask for proximity status bits. (All odd bits.) */
1246:Generated_Source\PSoC4/CapSense_Processing.c ****     const uint32 proxMask = UINT32_ODD_BITS_CONST;
1247:Generated_Source\PSoC4/CapSense_Processing.c **** 
1248:Generated_Source\PSoC4/CapSense_Processing.c ****     ptrSns = ptrFlashWdgt->ptr2SnsRam;
1249:Generated_Source\PSoC4/CapSense_Processing.c ****     ptrRamWdgt = ptrFlashWdgt->ptr2WdgtRam;
1250:Generated_Source\PSoC4/CapSense_Processing.c ****     ptrDebounceCnt = ptrFlashWdgt->ptr2DebounceArr;
1251:Generated_Source\PSoC4/CapSense_Processing.c **** 
1252:Generated_Source\PSoC4/CapSense_Processing.c ****     /* Get number of sensors and multiply it by 2 - proximity and touch statuses per sensor. */
ARM GAS  C:\Users\Jerry\AppData\Local\Temp\ccWYb1Fx.s 			page 32


1253:Generated_Source\PSoC4/CapSense_Processing.c ****     snsCnt = (uint32)ptrFlashWdgt->totalNumSns << 1u;
 460              		.loc 1 1253 0
 461 0002 CA8A     		ldrh	r2, [r1, #22]
1250:Generated_Source\PSoC4/CapSense_Processing.c **** 
 462              		.loc 1 1250 0
 463 0004 0B69     		ldr	r3, [r1, #16]
 464              		.loc 1 1253 0
 465 0006 5200     		lsl	r2, r2, #1
 466 0008 9A18     		add	r2, r3, r2
 467 000a 0192     		str	r2, [sp, #4]
1254:Generated_Source\PSoC4/CapSense_Processing.c **** 
1255:Generated_Source\PSoC4/CapSense_Processing.c ****     /* Go through all sensor's status bits */
1256:Generated_Source\PSoC4/CapSense_Processing.c ****     snsMask = 1Lu;
 468              		.loc 1 1256 0
 469 000c 0122     		mov	r2, #1
1248:Generated_Source\PSoC4/CapSense_Processing.c ****     ptrRamWdgt = ptrFlashWdgt->ptr2WdgtRam;
 470              		.loc 1 1248 0
 471 000e 8F68     		ldr	r7, [r1, #8]
 472              	.LVL61:
1249:Generated_Source\PSoC4/CapSense_Processing.c ****     ptrDebounceCnt = ptrFlashWdgt->ptr2DebounceArr;
 473              		.loc 1 1249 0
 474 0010 4D68     		ldr	r5, [r1, #4]
 475              	.LVL62:
 476              	.L40:
1257:Generated_Source\PSoC4/CapSense_Processing.c ****     for (; snsCnt-- > 0u;)
 477              		.loc 1 1257 0
 478 0012 0199     		ldr	r1, [sp, #4]
 479 0014 8B42     		cmp	r3, r1
 480 0016 27D0     		beq	.L52
1258:Generated_Source\PSoC4/CapSense_Processing.c ****     {
1259:Generated_Source\PSoC4/CapSense_Processing.c ****         difference = ptrSns->diff;
 481              		.loc 1 1259 0
 482 0018 F988     		ldrh	r1, [r7, #6]
1260:Generated_Source\PSoC4/CapSense_Processing.c **** 
1261:Generated_Source\PSoC4/CapSense_Processing.c ****         /* Determine current event (proximity - odd; touch - even) and get appropriate threshold. *
1262:Generated_Source\PSoC4/CapSense_Processing.c ****         currTh = ptrRamWdgt->fingerTh;
1263:Generated_Source\PSoC4/CapSense_Processing.c **** 
1264:Generated_Source\PSoC4/CapSense_Processing.c ****         if (0u == (snsMask & proxMask))
 483              		.loc 1 1264 0
 484 001a 144C     		ldr	r4, .L53
1259:Generated_Source\PSoC4/CapSense_Processing.c **** 
 485              		.loc 1 1259 0
 486 001c 8C46     		mov	ip, r1
 487              	.LVL63:
1262:Generated_Source\PSoC4/CapSense_Processing.c **** 
 488              		.loc 1 1262 0
 489 001e 6988     		ldrh	r1, [r5, #2]
 490              	.LVL64:
 491              		.loc 1 1264 0
 492 0020 2242     		tst	r2, r4
 493 0022 01D1     		bne	.L42
1265:Generated_Source\PSoC4/CapSense_Processing.c ****         {
1266:Generated_Source\PSoC4/CapSense_Processing.c ****             currTh = ptrRamWdgt->proxTouchTh;
 494              		.loc 1 1266 0
 495 0024 698A     		ldrh	r1, [r5, #18]
 496              	.LVL65:
1267:Generated_Source\PSoC4/CapSense_Processing.c ****             ptrSns++;
ARM GAS  C:\Users\Jerry\AppData\Local\Temp\ccWYb1Fx.s 			page 33


 497              		.loc 1 1267 0
 498 0026 0A37     		add	r7, r7, #10
 499              	.LVL66:
 500              	.L42:
1268:Generated_Source\PSoC4/CapSense_Processing.c ****         }
1269:Generated_Source\PSoC4/CapSense_Processing.c **** 
1270:Generated_Source\PSoC4/CapSense_Processing.c ****         /* Calculate finger threshold applying hysteresis based on current sensor state. */
1271:Generated_Source\PSoC4/CapSense_Processing.c ****         currTh = (0u == (currStatus & snsMask)) ? (currTh + ptrRamWdgt->hysteresis) : (currTh - ptr
 501              		.loc 1 1271 0
 502 0028 041C     		mov	r4, r0
 503 002a AE79     		ldrb	r6, [r5, #6]
 504 002c 1440     		and	r4, r2
 505 002e 03D1     		bne	.L43
 506              	.LVL67:
 507              		.loc 1 1271 0 is_stmt 0 discriminator 1
 508 0030 8919     		add	r1, r1, r6
 509              	.LVL68:
1272:Generated_Source\PSoC4/CapSense_Processing.c **** 
1273:Generated_Source\PSoC4/CapSense_Processing.c ****         /* Determine new potential sensor state before de-bounce */
1274:Generated_Source\PSoC4/CapSense_Processing.c ****         newStatus = (difference > currTh) ? snsMask : 0Lu;
 510              		.loc 1 1274 0 is_stmt 1 discriminator 1
 511 0032 8C45     		cmp	ip, r1
 512 0034 03D8     		bhi	.L44
 513 0036 0DE0     		b	.L45
 514              	.L43:
 515              	.LVL69:
1271:Generated_Source\PSoC4/CapSense_Processing.c **** 
 516              		.loc 1 1271 0 discriminator 2
 517 0038 891B     		sub	r1, r1, r6
 518              	.LVL70:
 519              		.loc 1 1274 0 discriminator 2
 520 003a 8C45     		cmp	ip, r1
 521 003c 03D9     		bls	.L50
 522              	.L44:
 523              	.LVL71:
1275:Generated_Source\PSoC4/CapSense_Processing.c **** 
1276:Generated_Source\PSoC4/CapSense_Processing.c ****         /* Sensor state changed ? */
1277:Generated_Source\PSoC4/CapSense_Processing.c ****         if (newStatus != (currStatus & snsMask))
 524              		.loc 1 1277 0 discriminator 4
 525 003e A242     		cmp	r2, r4
 526 0040 08D0     		beq	.L45
 527 0042 141C     		mov	r4, r2
 528 0044 00E0     		b	.L46
 529              	.LVL72:
 530              	.L50:
1274:Generated_Source\PSoC4/CapSense_Processing.c **** 
 531              		.loc 1 1274 0
 532 0046 0024     		mov	r4, #0
 533              	.L46:
 534              	.LVL73:
1278:Generated_Source\PSoC4/CapSense_Processing.c ****         {
1279:Generated_Source\PSoC4/CapSense_Processing.c ****             /* Decrement de-bounce counter */
1280:Generated_Source\PSoC4/CapSense_Processing.c ****             (*ptrDebounceCnt)--;
 535              		.loc 1 1280 0
 536 0048 1978     		ldrb	r1, [r3]
 537 004a 0139     		sub	r1, r1, #1
 538 004c C9B2     		uxtb	r1, r1
ARM GAS  C:\Users\Jerry\AppData\Local\Temp\ccWYb1Fx.s 			page 34


 539 004e 1970     		strb	r1, [r3]
1281:Generated_Source\PSoC4/CapSense_Processing.c ****         }
1282:Generated_Source\PSoC4/CapSense_Processing.c **** 
1283:Generated_Source\PSoC4/CapSense_Processing.c ****         /* This piece of code has two objectives:
1284:Generated_Source\PSoC4/CapSense_Processing.c ****            1. Reset de-bounce counter if new sensor state has not changed.
1285:Generated_Source\PSoC4/CapSense_Processing.c ****               (It is possible that during previous processing cycles the sensor
1286:Generated_Source\PSoC4/CapSense_Processing.c ****                state was different which caused de-bounce counter change.)
1287:Generated_Source\PSoC4/CapSense_Processing.c ****            2. Set new sensor state after successful de-bounce.
1288:Generated_Source\PSoC4/CapSense_Processing.c ****          */
1289:Generated_Source\PSoC4/CapSense_Processing.c ****         if ((newStatus == (currStatus & snsMask)) || (0u == (*ptrDebounceCnt)))
 540              		.loc 1 1289 0
 541 0050 0029     		cmp	r1, #0
 542 0052 06D1     		bne	.L47
 543              	.LVL74:
 544              	.L45:
1290:Generated_Source\PSoC4/CapSense_Processing.c ****         {
1291:Generated_Source\PSoC4/CapSense_Processing.c ****             /* Set new sensor status */
1292:Generated_Source\PSoC4/CapSense_Processing.c ****             currStatus &= ~snsMask;
 545              		.loc 1 1292 0
 546 0054 9043     		bic	r0, r2
 547              	.LVL75:
1293:Generated_Source\PSoC4/CapSense_Processing.c ****             currStatus |= newStatus;
 548              		.loc 1 1293 0
 549 0056 2043     		orr	r0, r4
 550              	.LVL76:
1294:Generated_Source\PSoC4/CapSense_Processing.c **** 
1295:Generated_Source\PSoC4/CapSense_Processing.c ****             /* Reset de-bounce counter */
1296:Generated_Source\PSoC4/CapSense_Processing.c ****             #if (0u != CapSense_OFF_DEBOUNCE_EN)
1297:Generated_Source\PSoC4/CapSense_Processing.c ****                 *ptrDebounceCnt = (0Lu == newStatus) ? ptrRamWdgt->onDebounce : ptrRamWdgt->offDebo
1298:Generated_Source\PSoC4/CapSense_Processing.c ****             #else
1299:Generated_Source\PSoC4/CapSense_Processing.c ****                 *ptrDebounceCnt = (0Lu == newStatus) ? ptrRamWdgt->onDebounce : DEFAULT_OFF_DEBOUNC
 551              		.loc 1 1299 0
 552 0058 0121     		mov	r1, #1
 553 005a 002C     		cmp	r4, #0
 554 005c 00D1     		bne	.L48
 555              		.loc 1 1299 0 is_stmt 0 discriminator 1
 556 005e E979     		ldrb	r1, [r5, #7]
 557              	.L48:
 558              		.loc 1 1299 0 discriminator 4
 559 0060 1970     		strb	r1, [r3]
 560              	.L47:
1300:Generated_Source\PSoC4/CapSense_Processing.c ****             #endif /* #if (0u != CapSense_OFF_DEBOUNCE_EN) */
1301:Generated_Source\PSoC4/CapSense_Processing.c ****         }
1302:Generated_Source\PSoC4/CapSense_Processing.c **** 
1303:Generated_Source\PSoC4/CapSense_Processing.c ****         ptrDebounceCnt++;
 561              		.loc 1 1303 0 is_stmt 1
 562 0062 0133     		add	r3, r3, #1
 563              	.LVL77:
1304:Generated_Source\PSoC4/CapSense_Processing.c ****         
1305:Generated_Source\PSoC4/CapSense_Processing.c ****         /* Move sensor mask to the next sensor */
1306:Generated_Source\PSoC4/CapSense_Processing.c ****         snsMask <<= 1u;
 564              		.loc 1 1306 0
 565 0064 5200     		lsl	r2, r2, #1
 566              	.LVL78:
 567 0066 D4E7     		b	.L40
 568              	.LVL79:
 569              	.L52:
ARM GAS  C:\Users\Jerry\AppData\Local\Temp\ccWYb1Fx.s 			page 35


1307:Generated_Source\PSoC4/CapSense_Processing.c ****     }
1308:Generated_Source\PSoC4/CapSense_Processing.c **** 
1309:Generated_Source\PSoC4/CapSense_Processing.c ****     return currStatus;
1310:Generated_Source\PSoC4/CapSense_Processing.c **** }
 570              		.loc 1 1310 0
 571              		@ sp needed
 572              	.LVL80:
 573              	.LVL81:
 574 0068 FEBD     		pop	{r1, r2, r3, r4, r5, r6, r7, pc}
 575              	.L54:
 576 006a C046     		.align	2
 577              	.L53:
 578 006c 55555555 		.word	1431655765
 579              		.cfi_endproc
 580              	.LFE7:
 581              		.size	CapSense_DpProcessProximity, .-CapSense_DpProcessProximity
 582              		.section	.text.CapSense_DpProcessCsdWidgetStatus,"ax",%progbits
 583              		.align	1
 584              		.global	CapSense_DpProcessCsdWidgetStatus
 585              		.code	16
 586              		.thumb_func
 587              		.type	CapSense_DpProcessCsdWidgetStatus, %function
 588              	CapSense_DpProcessCsdWidgetStatus:
 589              	.LFB4:
 936:Generated_Source\PSoC4/CapSense_Processing.c ****     uint32 sensorStatus;
 590              		.loc 1 936 0
 591              		.cfi_startproc
 592              	.LVL82:
 593 0000 38B5     		push	{r3, r4, r5, lr}
 594              		.cfi_def_cfa_offset 16
 595              		.cfi_offset 3, -16
 596              		.cfi_offset 4, -12
 597              		.cfi_offset 5, -8
 598              		.cfi_offset 14, -4
 943:Generated_Source\PSoC4/CapSense_Processing.c **** 
 599              		.loc 1 943 0
 600 0002 0E4C     		ldr	r4, .L61
 936:Generated_Source\PSoC4/CapSense_Processing.c ****     uint32 sensorStatus;
 601              		.loc 1 936 0
 602 0004 051C     		mov	r5, r0
 943:Generated_Source\PSoC4/CapSense_Processing.c **** 
 603              		.loc 1 943 0
 604 0006 2318     		add	r3, r4, r0
 605 0008 187D     		ldrb	r0, [r3, #20]
 606              	.LVL83:
 945:Generated_Source\PSoC4/CapSense_Processing.c ****     {
 607              		.loc 1 945 0
 608 000a 0B7E     		ldrb	r3, [r1, #24]
 609 000c 062B     		cmp	r3, #6
 610 000e 01D1     		bne	.L56
 974:Generated_Source\PSoC4/CapSense_Processing.c ****             break;
 611              		.loc 1 974 0
 612 0010 FFF7FEFF 		bl	CapSense_DpProcessProximity
 613              	.LVL84:
 614              	.L56:
 987:Generated_Source\PSoC4/CapSense_Processing.c **** 
 615              		.loc 1 987 0
ARM GAS  C:\Users\Jerry\AppData\Local\Temp\ccWYb1Fx.s 			page 36


 616 0014 1F22     		mov	r2, #31
 617 0016 0121     		mov	r1, #1
 983:Generated_Source\PSoC4/CapSense_Processing.c **** 
 618              		.loc 1 983 0
 619 0018 6319     		add	r3, r4, r5
 620 001a 1875     		strb	r0, [r3, #20]
 986:Generated_Source\PSoC4/CapSense_Processing.c ****     wdStatusMask = CapSense_GET_WDGT_STATUS_MASK(wdgtId);
 621              		.loc 1 986 0
 622 001c 6B09     		lsr	r3, r5, #5
 623              	.LVL85:
 987:Generated_Source\PSoC4/CapSense_Processing.c **** 
 624              		.loc 1 987 0
 625 001e 1540     		and	r5, r2
 626              	.LVL86:
 627 0020 0A1C     		mov	r2, r1
 628 0022 0433     		add	r3, r3, #4
 629              	.LVL87:
 992:Generated_Source\PSoC4/CapSense_Processing.c ****     }
 630              		.loc 1 992 0
 631 0024 9B00     		lsl	r3, r3, #2
 632              	.LVL88:
 987:Generated_Source\PSoC4/CapSense_Processing.c **** 
 633              		.loc 1 987 0
 634 0026 AA40     		lsl	r2, r2, r5
 635              	.LVL89:
 992:Generated_Source\PSoC4/CapSense_Processing.c ****     }
 636              		.loc 1 992 0
 637 0028 E158     		ldr	r1, [r4, r3]
 990:Generated_Source\PSoC4/CapSense_Processing.c ****     {
 638              		.loc 1 990 0
 639 002a 0028     		cmp	r0, #0
 640 002c 02D1     		bne	.L58
 992:Generated_Source\PSoC4/CapSense_Processing.c ****     }
 641              		.loc 1 992 0
 642 002e 9143     		bic	r1, r2
 643 0030 0A1C     		mov	r2, r1
 644              	.LVL90:
 645 0032 00E0     		b	.L60
 646              	.LVL91:
 647              	.L58:
 996:Generated_Source\PSoC4/CapSense_Processing.c ****     }
 648              		.loc 1 996 0
 649 0034 0A43     		orr	r2, r1
 650              	.LVL92:
 651              	.L60:
 652 0036 E250     		str	r2, [r4, r3]
 998:Generated_Source\PSoC4/CapSense_Processing.c **** #endif /* #if (0u != CapSense_TOTAL_CSD_WIDGETS) */
 653              		.loc 1 998 0
 654              		@ sp needed
 655              	.LVL93:
 656 0038 38BD     		pop	{r3, r4, r5, pc}
 657              	.L62:
 658 003a C046     		.align	2
 659              	.L61:
 660 003c 00000000 		.word	CapSense_dsRam
 661              		.cfi_endproc
 662              	.LFE4:
ARM GAS  C:\Users\Jerry\AppData\Local\Temp\ccWYb1Fx.s 			page 37


 663              		.size	CapSense_DpProcessCsdWidgetStatus, .-CapSense_DpProcessCsdWidgetStatus
 664              		.text
 665              	.Letext0:
 666              		.file 2 "Generated_Source\\PSoC4\\cytypes.h"
 667              		.file 3 "Generated_Source\\PSoC4\\CapSense_Configuration.h"
 668              		.file 4 "Generated_Source\\PSoC4\\CapSense_SmartSense_LL.h"
 669              		.file 5 "Generated_Source\\PSoC4\\CapSense_Structure.h"
 670              		.file 6 "c:\\program files (x86)\\cypress\\psoc creator\\4.0\\psoc creator\\import\\gnu\\arm\\4.9.
 671              		.file 7 "Generated_Source\\PSoC4\\CapSense_Filter.h"
 672              		.file 8 "c:\\program files (x86)\\cypress\\psoc creator\\4.0\\psoc creator\\import\\gnu\\arm\\4.9.