ARM GAS  C:\Users\Jerry\AppData\Local\Temp\cc2mbs0O.s 			page 1


   1              		.cpu cortex-m0plus
   2              		.fpu softvfp
   3              		.eabi_attribute 20, 1
   4              		.eabi_attribute 21, 1
   5              		.eabi_attribute 23, 3
   6              		.eabi_attribute 24, 1
   7              		.eabi_attribute 25, 1
   8              		.eabi_attribute 26, 1
   9              		.eabi_attribute 30, 4
  10              		.eabi_attribute 34, 0
  11              		.eabi_attribute 18, 4
  12              		.code	16
  13              		.file	"CapSense_SensingCSD_LL.c"
  14              		.text
  15              	.Ltext0:
  16              		.cfi_sections	.debug_frame
  17              		.section	.text.CapSense_SsCSDSetModeSnsClockDivider,"ax",%progbits
  18              		.align	1
  19              		.global	CapSense_SsCSDSetModeSnsClockDivider
  20              		.code	16
  21              		.thumb_func
  22              		.type	CapSense_SsCSDSetModeSnsClockDivider, %function
  23              	CapSense_SsCSDSetModeSnsClockDivider:
  24              	.LFB1:
  25              		.file 1 "Generated_Source\\PSoC4\\CapSense_SensingCSD_LL.c"
   1:Generated_Source\PSoC4/CapSense_SensingCSD_LL.c **** /***************************************************************************//**
   2:Generated_Source\PSoC4/CapSense_SensingCSD_LL.c **** * \file CapSense_SensingCSD_LL.c
   3:Generated_Source\PSoC4/CapSense_SensingCSD_LL.c **** * \version 3.10
   4:Generated_Source\PSoC4/CapSense_SensingCSD_LL.c **** *
   5:Generated_Source\PSoC4/CapSense_SensingCSD_LL.c **** * \brief
   6:Generated_Source\PSoC4/CapSense_SensingCSD_LL.c **** *   This file defines the data structure global variables and provides
   7:Generated_Source\PSoC4/CapSense_SensingCSD_LL.c **** *   implementation for the low-level APIs of the CSD part of
   8:Generated_Source\PSoC4/CapSense_SensingCSD_LL.c **** *   the Sensing module. The file contains the APIs used for the CSD block
   9:Generated_Source\PSoC4/CapSense_SensingCSD_LL.c **** *   initialization, calibration, and scanning.
  10:Generated_Source\PSoC4/CapSense_SensingCSD_LL.c **** *
  11:Generated_Source\PSoC4/CapSense_SensingCSD_LL.c **** * \see CapSense P4 v3.10 Datasheet
  12:Generated_Source\PSoC4/CapSense_SensingCSD_LL.c **** *
  13:Generated_Source\PSoC4/CapSense_SensingCSD_LL.c **** *//*****************************************************************************
  14:Generated_Source\PSoC4/CapSense_SensingCSD_LL.c **** * Copyright (2016), Cypress Semiconductor Corporation.
  15:Generated_Source\PSoC4/CapSense_SensingCSD_LL.c **** ********************************************************************************
  16:Generated_Source\PSoC4/CapSense_SensingCSD_LL.c **** * This software is owned by Cypress Semiconductor Corporation (Cypress) and is
  17:Generated_Source\PSoC4/CapSense_SensingCSD_LL.c **** * protected by and subject to worldwide patent protection (United States and
  18:Generated_Source\PSoC4/CapSense_SensingCSD_LL.c **** * foreign), United States copyright laws and international treaty provisions.
  19:Generated_Source\PSoC4/CapSense_SensingCSD_LL.c **** * Cypress hereby grants to licensee a personal, non-exclusive, non-transferable
  20:Generated_Source\PSoC4/CapSense_SensingCSD_LL.c **** * license to copy, use, modify, create derivative works of, and compile the
  21:Generated_Source\PSoC4/CapSense_SensingCSD_LL.c **** * Cypress Source Code and derivative works for the sole purpose of creating
  22:Generated_Source\PSoC4/CapSense_SensingCSD_LL.c **** * custom software in support of licensee product to be used only in conjunction
  23:Generated_Source\PSoC4/CapSense_SensingCSD_LL.c **** * with a Cypress integrated circuit as specified in the applicable agreement.
  24:Generated_Source\PSoC4/CapSense_SensingCSD_LL.c **** * Any reproduction, modification, translation, compilation, or representation of
  25:Generated_Source\PSoC4/CapSense_SensingCSD_LL.c **** * this software except as specified above is prohibited without the express
  26:Generated_Source\PSoC4/CapSense_SensingCSD_LL.c **** * written permission of Cypress.
  27:Generated_Source\PSoC4/CapSense_SensingCSD_LL.c **** *
  28:Generated_Source\PSoC4/CapSense_SensingCSD_LL.c **** * Disclaimer: CYPRESS MAKES NO WARRANTY OF ANY KIND, EXPRESS OR IMPLIED, WITH
  29:Generated_Source\PSoC4/CapSense_SensingCSD_LL.c **** * REGARD TO THIS MATERIAL, INCLUDING, BUT NOT LIMITED TO, THE IMPLIED
  30:Generated_Source\PSoC4/CapSense_SensingCSD_LL.c **** * WARRANTIES OF MERCHANTABILITY AND FITNESS FOR A PARTICULAR PURPOSE.
  31:Generated_Source\PSoC4/CapSense_SensingCSD_LL.c **** * Cypress reserves the right to make changes without further notice to the
  32:Generated_Source\PSoC4/CapSense_SensingCSD_LL.c **** * materials described herein. Cypress does not assume any liability arising out
ARM GAS  C:\Users\Jerry\AppData\Local\Temp\cc2mbs0O.s 			page 2


  33:Generated_Source\PSoC4/CapSense_SensingCSD_LL.c **** * of the application or use of any product or circuit described herein. Cypress
  34:Generated_Source\PSoC4/CapSense_SensingCSD_LL.c **** * does not authorize its products for use as critical components in life-support
  35:Generated_Source\PSoC4/CapSense_SensingCSD_LL.c **** * systems where a malfunction or failure may reasonably be expected to result in
  36:Generated_Source\PSoC4/CapSense_SensingCSD_LL.c **** * significant injury to the user. The inclusion of Cypress' product in a life-
  37:Generated_Source\PSoC4/CapSense_SensingCSD_LL.c **** * support systems application implies that the manufacturer assumes all risk of
  38:Generated_Source\PSoC4/CapSense_SensingCSD_LL.c **** * such use and in doing so indemnifies Cypress against all charges. Use may be
  39:Generated_Source\PSoC4/CapSense_SensingCSD_LL.c **** * limited by and subject to the applicable Cypress software license agreement.
  40:Generated_Source\PSoC4/CapSense_SensingCSD_LL.c **** *******************************************************************************/
  41:Generated_Source\PSoC4/CapSense_SensingCSD_LL.c **** #include "CapSense_Structure.h"
  42:Generated_Source\PSoC4/CapSense_SensingCSD_LL.c **** #include "CapSense_Configuration.h"
  43:Generated_Source\PSoC4/CapSense_SensingCSD_LL.c **** #include "CapSense_SensingCSD_LL.h"
  44:Generated_Source\PSoC4/CapSense_SensingCSD_LL.c **** #include "CapSense_Sensing.h"
  45:Generated_Source\PSoC4/CapSense_SensingCSD_LL.c **** #include "cyapicallbacks.h"
  46:Generated_Source\PSoC4/CapSense_SensingCSD_LL.c **** 
  47:Generated_Source\PSoC4/CapSense_SensingCSD_LL.c **** #if (CapSense_ENABLE == CapSense_CSD_EN)
  48:Generated_Source\PSoC4/CapSense_SensingCSD_LL.c **** 
  49:Generated_Source\PSoC4/CapSense_SensingCSD_LL.c **** /***************************************
  50:Generated_Source\PSoC4/CapSense_SensingCSD_LL.c **** * API Constants
  51:Generated_Source\PSoC4/CapSense_SensingCSD_LL.c **** ***************************************/
  52:Generated_Source\PSoC4/CapSense_SensingCSD_LL.c **** #define CapSense_MOD_CSD_CLK_12MHZ                      (12000000uL)
  53:Generated_Source\PSoC4/CapSense_SensingCSD_LL.c **** #define CapSense_MOD_CSD_CLK_24MHZ                      (24000000uL)
  54:Generated_Source\PSoC4/CapSense_SensingCSD_LL.c **** #define CapSense_MOD_CSD_CLK_48MHZ                      (48000000uL)
  55:Generated_Source\PSoC4/CapSense_SensingCSD_LL.c **** 
  56:Generated_Source\PSoC4/CapSense_SensingCSD_LL.c **** #define CapSense_COARSE_INIT_WATCHDOG_TIME              (3u)
  57:Generated_Source\PSoC4/CapSense_SensingCSD_LL.c **** #define CapSense_COARSE_INIT_WATCHDOG_CYCLES_CALC       (CapSense_COARSE_INIT_WATCHDOG_TIME * CYDEV
  58:Generated_Source\PSoC4/CapSense_SensingCSD_LL.c **** 
  59:Generated_Source\PSoC4/CapSense_SensingCSD_LL.c **** #if(CapSense_COARSE_INIT_WATCHDOG_CYCLES_CALC >= CapSense_DELAY_EXTRACYCLES_NUM)
  60:Generated_Source\PSoC4/CapSense_SensingCSD_LL.c ****     #define CapSense_COARSE_INIT_WATCHDOG_CYCLES        (CapSense_COARSE_INIT_WATCHDOG_CYCLES_CALC 
  61:Generated_Source\PSoC4/CapSense_SensingCSD_LL.c ****                                                                  CapSense_DELAY_EXTRACYCLES_NUM)
  62:Generated_Source\PSoC4/CapSense_SensingCSD_LL.c **** #else
  63:Generated_Source\PSoC4/CapSense_SensingCSD_LL.c ****     #define CapSense_COARSE_INIT_WATCHDOG_CYCLES        (CapSense_COARSE_INIT_WATCHDOG_CYCLES_CALC)
  64:Generated_Source\PSoC4/CapSense_SensingCSD_LL.c **** #endif /* (CapSense_COARSE_INIT_WATCHDOG_CYCLES_CALC >= CapSense_DELAY_EXTRACYCLES_NUM) */
  65:Generated_Source\PSoC4/CapSense_SensingCSD_LL.c **** 
  66:Generated_Source\PSoC4/CapSense_SensingCSD_LL.c **** #if (CapSense_ENABLE == CapSense_CSDV2)
  67:Generated_Source\PSoC4/CapSense_SensingCSD_LL.c ****     #if (CapSense_CMOD_PAD == CapSense_CMOD_CONNECTION)
  68:Generated_Source\PSoC4/CapSense_SensingCSD_LL.c ****         #define CapSense_SW_DSI_SEL_CMODPAD                (CapSense_SW_DSI_CMOD)
  69:Generated_Source\PSoC4/CapSense_SensingCSD_LL.c ****         #define CapSense_CSD_SW_FW_MOD_SEL_INIT            (CapSense_SW_FW_MOD_SEL_SW_F1PM_STATIC_C
  70:Generated_Source\PSoC4/CapSense_SensingCSD_LL.c ****                                                                     CapSense_SW_FW_MOD_SEL_SW_F1MA_
  71:Generated_Source\PSoC4/CapSense_SensingCSD_LL.c ****                                                                     CapSense_SW_FW_MOD_SEL_SW_F1CA_
  72:Generated_Source\PSoC4/CapSense_SensingCSD_LL.c ****     #elif (CapSense_CSH_TANK_PAD == CapSense_CMOD_CONNECTION)
  73:Generated_Source\PSoC4/CapSense_SensingCSD_LL.c ****         #define CapSense_SW_DSI_SEL_CMODPAD                (CapSense_SW_DSI_CTANK)
  74:Generated_Source\PSoC4/CapSense_SensingCSD_LL.c ****         #define CapSense_CSD_SW_FW_MOD_SEL_INIT            (0x00000000uL)
  75:Generated_Source\PSoC4/CapSense_SensingCSD_LL.c ****     #else
  76:Generated_Source\PSoC4/CapSense_SensingCSD_LL.c ****         #define CapSense_SW_DSI_SEL_CMODPAD                (0x00000000uL)
  77:Generated_Source\PSoC4/CapSense_SensingCSD_LL.c ****         #define CapSense_CSD_SW_FW_MOD_SEL_INIT            (0x00000000uL)
  78:Generated_Source\PSoC4/CapSense_SensingCSD_LL.c ****     #endif /* (CapSense_CMOD_PAD == CapSense_CMOD_CONNECTION) */
  79:Generated_Source\PSoC4/CapSense_SensingCSD_LL.c **** 
  80:Generated_Source\PSoC4/CapSense_SensingCSD_LL.c ****     #if (CapSense_CSH_TANK_PAD == CapSense_CTANK_CONNECTION)
  81:Generated_Source\PSoC4/CapSense_SensingCSD_LL.c ****         #define CapSense_SW_DSI_SEL_TANKPAD                (CapSense_SW_DSI_CTANK)
  82:Generated_Source\PSoC4/CapSense_SensingCSD_LL.c ****         #define CapSense_CSD_SW_FW_TANK_SEL_INIT           (CapSense_SW_FW_TANK_SEL_SW_F2PT_STATIC_
  83:Generated_Source\PSoC4/CapSense_SensingCSD_LL.c ****                                                                     CapSense_SW_FW_TANK_SEL_SW_F2MA
  84:Generated_Source\PSoC4/CapSense_SensingCSD_LL.c ****                                                                     CapSense_SW_FW_TANK_SEL_SW_F2CA
  85:Generated_Source\PSoC4/CapSense_SensingCSD_LL.c ****     #elif (CapSense_CMOD_PAD == CapSense_CTANK_CONNECTION)
  86:Generated_Source\PSoC4/CapSense_SensingCSD_LL.c ****         #define CapSense_SW_DSI_SEL_TANKPAD                (CapSense_SW_DSI_CMOD)
  87:Generated_Source\PSoC4/CapSense_SensingCSD_LL.c ****         #define CapSense_CSD_SW_FW_TANK_SEL_INIT           (0x00000000uL)
  88:Generated_Source\PSoC4/CapSense_SensingCSD_LL.c ****     #else
  89:Generated_Source\PSoC4/CapSense_SensingCSD_LL.c ****         #define CapSense_SW_DSI_SEL_TANKPAD                (0x00000000uL)
ARM GAS  C:\Users\Jerry\AppData\Local\Temp\cc2mbs0O.s 			page 3


  90:Generated_Source\PSoC4/CapSense_SensingCSD_LL.c ****         #define CapSense_CSD_SW_FW_TANK_SEL_INIT           (0x00000000uL)
  91:Generated_Source\PSoC4/CapSense_SensingCSD_LL.c ****     #endif /* ((CapSense_CSH_TANK_PAD == CapSense_CMOD_CONNECTION) || \
  92:Generated_Source\PSoC4/CapSense_SensingCSD_LL.c ****                (CapSense_CSH_TANK_PAD == CapSense_CTANK_CONNECTION)) */
  93:Generated_Source\PSoC4/CapSense_SensingCSD_LL.c **** 
  94:Generated_Source\PSoC4/CapSense_SensingCSD_LL.c ****     /* SW_FW_MOD_SEL switches state for Coarse initialization of CMOD (sense path) */
  95:Generated_Source\PSoC4/CapSense_SensingCSD_LL.c ****     #define CapSense_CSD_SW_FW_MOD_SEL_SCAN                (0x00000000uL)
  96:Generated_Source\PSoC4/CapSense_SensingCSD_LL.c **** 
  97:Generated_Source\PSoC4/CapSense_SensingCSD_LL.c ****     #if ((CapSense_ENABLE == CapSense_CSD_SHIELD_EN) && \
  98:Generated_Source\PSoC4/CapSense_SensingCSD_LL.c ****          (CapSense_ENABLE == CapSense_CSD_SHIELD_TANK_EN) && \
  99:Generated_Source\PSoC4/CapSense_SensingCSD_LL.c ****          (CapSense_CSH_TANK_PAD == CapSense_CTANK_CONNECTION))
 100:Generated_Source\PSoC4/CapSense_SensingCSD_LL.c ****         #define CapSense_CSD_SW_FW_TANK_SEL_SCAN            (CapSense_SW_FW_TANK_SEL_SW_F2PT_STATIC
 101:Generated_Source\PSoC4/CapSense_SensingCSD_LL.c ****         #if (CapSense_IDAC_SINKING == CapSense_CSD_IDAC_CONFIG)
 102:Generated_Source\PSoC4/CapSense_SensingCSD_LL.c ****             #define CapSense_DEFAULT_SW_SHIELD_SEL          (CapSense_SW_SHIELD_SEL_SW_HCBG_HSCMP)
 103:Generated_Source\PSoC4/CapSense_SensingCSD_LL.c ****         #else
 104:Generated_Source\PSoC4/CapSense_SensingCSD_LL.c ****             #define CapSense_DEFAULT_SW_SHIELD_SEL          (CapSense_SW_SHIELD_SEL_SW_HCBV_HSCMP)
 105:Generated_Source\PSoC4/CapSense_SensingCSD_LL.c ****         #endif /* (CapSense_IDAC_SINKING == CapSense_CSD_IDAC_CONFIG) */
 106:Generated_Source\PSoC4/CapSense_SensingCSD_LL.c ****     #elif((CapSense_ENABLE == CapSense_CSD_SHIELD_EN) && \
 107:Generated_Source\PSoC4/CapSense_SensingCSD_LL.c ****           (CapSense_ENABLE == CapSense_CSD_SHIELD_TANK_EN))
 108:Generated_Source\PSoC4/CapSense_SensingCSD_LL.c ****         #define CapSense_CSD_SW_FW_TANK_SEL_SCAN            (0x00000000uL)
 109:Generated_Source\PSoC4/CapSense_SensingCSD_LL.c ****         #if (CapSense_IDAC_SINKING == CapSense_CSD_IDAC_CONFIG)
 110:Generated_Source\PSoC4/CapSense_SensingCSD_LL.c ****             #define CapSense_DEFAULT_SW_SHIELD_SEL          (CapSense_SW_SHIELD_SEL_SW_HCBG_HSCMP)
 111:Generated_Source\PSoC4/CapSense_SensingCSD_LL.c ****         #else
 112:Generated_Source\PSoC4/CapSense_SensingCSD_LL.c ****             #define CapSense_DEFAULT_SW_SHIELD_SEL          (CapSense_SW_SHIELD_SEL_SW_HCBV_HSCMP)
 113:Generated_Source\PSoC4/CapSense_SensingCSD_LL.c ****         #endif /* (CapSense_IDAC_SINKING == CapSense_CSD_IDAC_CONFIG) */
 114:Generated_Source\PSoC4/CapSense_SensingCSD_LL.c ****     #elif(CapSense_ENABLE == CapSense_CSD_SHIELD_EN)
 115:Generated_Source\PSoC4/CapSense_SensingCSD_LL.c ****         #define CapSense_CSD_SW_FW_TANK_SEL_SCAN            (0x00000000uL)
 116:Generated_Source\PSoC4/CapSense_SensingCSD_LL.c ****         #if (CapSense_IDAC_SINKING == CapSense_CSD_IDAC_CONFIG)
 117:Generated_Source\PSoC4/CapSense_SensingCSD_LL.c ****             #define CapSense_DEFAULT_SW_SHIELD_SEL          (CapSense_SW_SHIELD_SEL_SW_HCBV_PHI1 | 
 118:Generated_Source\PSoC4/CapSense_SensingCSD_LL.c ****         #else
 119:Generated_Source\PSoC4/CapSense_SensingCSD_LL.c ****             #define CapSense_DEFAULT_SW_SHIELD_SEL          (CapSense_SW_SHIELD_SEL_SW_HCBG_PHI1 | 
 120:Generated_Source\PSoC4/CapSense_SensingCSD_LL.c ****         #endif /* (CapSense_IDAC_SINKING == CapSense_CSD_IDAC_CONFIG) */
 121:Generated_Source\PSoC4/CapSense_SensingCSD_LL.c ****     #else
 122:Generated_Source\PSoC4/CapSense_SensingCSD_LL.c ****         #define CapSense_CSD_SW_FW_TANK_SEL_SCAN            (0x00000000uL)
 123:Generated_Source\PSoC4/CapSense_SensingCSD_LL.c ****         #define CapSense_DEFAULT_SW_SHIELD_SEL              (0x00000000uL)
 124:Generated_Source\PSoC4/CapSense_SensingCSD_LL.c ****     #endif /* ((CapSense_ENABLE == CapSense_CSD_SHIELD_EN) && \
 125:Generated_Source\PSoC4/CapSense_SensingCSD_LL.c ****                (0u != CapSense_CSD_SHIELD_TANK_EN) && \
 126:Generated_Source\PSoC4/CapSense_SensingCSD_LL.c ****                (CapSense_CSH_TANK_PAD == CapSense_CTANK_CONNECTION)) */
 127:Generated_Source\PSoC4/CapSense_SensingCSD_LL.c **** 
 128:Generated_Source\PSoC4/CapSense_SensingCSD_LL.c ****     #define CapSense_DEFAULT_CSD_SW_DSI_SEL                 (CapSense_SW_DSI_SEL_CMODPAD | CapSense
 129:Generated_Source\PSoC4/CapSense_SensingCSD_LL.c **** 
 130:Generated_Source\PSoC4/CapSense_SensingCSD_LL.c ****     #define CapSense_CSD_SW_RES_INIT                        (CapSense_CSD_INIT_SWITCH_RES << CYFLD_
 131:Generated_Source\PSoC4/CapSense_SensingCSD_LL.c ****     #define CapSense_CSD_SW_RES_SCAN                        ((CapSense_CSD_SHIELD_SWITCH_RES << CYF
 132:Generated_Source\PSoC4/CapSense_SensingCSD_LL.c ****                                                                      (CapSense_CSD_SHIELD_SWITCH_RE
 133:Generated_Source\PSoC4/CapSense_SensingCSD_LL.c **** 
 134:Generated_Source\PSoC4/CapSense_SensingCSD_LL.c ****     #if (CapSense_ENABLE == CapSense_CSD_AUTO_ZERO_EN)
 135:Generated_Source\PSoC4/CapSense_SensingCSD_LL.c ****         #if (CapSense_IDAC_SINKING == CapSense_CSD_IDAC_CONFIG)
 136:Generated_Source\PSoC4/CapSense_SensingCSD_LL.c ****             #define CapSense_HSCMP_SCAN_MASK                (CapSense_HSCMP_EN_MASK | \
 137:Generated_Source\PSoC4/CapSense_SensingCSD_LL.c ****                                                                      CapSense_CSD_AZ_EN_MASK |\
 138:Generated_Source\PSoC4/CapSense_SensingCSD_LL.c ****                                                                      CapSense_HSCMP_INVERT_MASK)
 139:Generated_Source\PSoC4/CapSense_SensingCSD_LL.c ****         #else
 140:Generated_Source\PSoC4/CapSense_SensingCSD_LL.c ****             #define CapSense_HSCMP_SCAN_MASK                (CapSense_HSCMP_EN_MASK | \
 141:Generated_Source\PSoC4/CapSense_SensingCSD_LL.c ****                                                                      CapSense_CSD_AZ_EN_MASK)
 142:Generated_Source\PSoC4/CapSense_SensingCSD_LL.c ****         #endif /* (CapSense_IDAC_SINKING == CapSense_CSD_IDAC_CONFIG) */
 143:Generated_Source\PSoC4/CapSense_SensingCSD_LL.c **** 
 144:Generated_Source\PSoC4/CapSense_SensingCSD_LL.c ****         #define CapSense_HSCMP_INIT_MASK                    (CapSense_HSCMP_EN_MASK | \
 145:Generated_Source\PSoC4/CapSense_SensingCSD_LL.c ****                                                                      CapSense_CSD_AZ_EN_MASK)
 146:Generated_Source\PSoC4/CapSense_SensingCSD_LL.c ****     #else
ARM GAS  C:\Users\Jerry\AppData\Local\Temp\cc2mbs0O.s 			page 4


 147:Generated_Source\PSoC4/CapSense_SensingCSD_LL.c ****         #if (CapSense_IDAC_SINKING == CapSense_CSD_IDAC_CONFIG)
 148:Generated_Source\PSoC4/CapSense_SensingCSD_LL.c ****             #define CapSense_HSCMP_SCAN_MASK                (CapSense_HSCMP_EN_MASK | \
 149:Generated_Source\PSoC4/CapSense_SensingCSD_LL.c ****                                                                      CapSense_HSCMP_INVERT_MASK)
 150:Generated_Source\PSoC4/CapSense_SensingCSD_LL.c ****         #else
 151:Generated_Source\PSoC4/CapSense_SensingCSD_LL.c ****             #define CapSense_HSCMP_SCAN_MASK                (CapSense_HSCMP_EN_MASK)
 152:Generated_Source\PSoC4/CapSense_SensingCSD_LL.c ****         #endif /* (CapSense_IDAC_SINKING == CapSense_CSD_IDAC_CONFIG) */
 153:Generated_Source\PSoC4/CapSense_SensingCSD_LL.c **** 
 154:Generated_Source\PSoC4/CapSense_SensingCSD_LL.c ****         #define CapSense_HSCMP_INIT_MASK                    (CapSense_HSCMP_EN_MASK)
 155:Generated_Source\PSoC4/CapSense_SensingCSD_LL.c ****     #endif /* ((CapSense_ENABLE == CapSense_CSD_AUTO_ZERO_EN) */
 156:Generated_Source\PSoC4/CapSense_SensingCSD_LL.c **** 
 157:Generated_Source\PSoC4/CapSense_SensingCSD_LL.c ****     #define CapSense_DEFAULT_CSD_INTR_SET                   (0x00000000uL)
 158:Generated_Source\PSoC4/CapSense_SensingCSD_LL.c ****     #define CapSense_DEFAULT_SW_HS_P_SEL                    (0x00000000uL)
 159:Generated_Source\PSoC4/CapSense_SensingCSD_LL.c ****     #define CapSense_DEFAULT_SW_HS_N_SEL                    (0X00000000uL)
 160:Generated_Source\PSoC4/CapSense_SensingCSD_LL.c ****     #define CapSense_DEFAULT_CSD_SW_FW_TANK_SEL             (0x00000000uL)
 161:Generated_Source\PSoC4/CapSense_SensingCSD_LL.c ****     #define CapSense_DEFAULT_CSD_ADC_CTL                    (0x00000000uL)
 162:Generated_Source\PSoC4/CapSense_SensingCSD_LL.c ****     #define CapSense_DEFAULT_HSCMP_CFG                      (0x00000000uL)
 163:Generated_Source\PSoC4/CapSense_SensingCSD_LL.c **** 
 164:Generated_Source\PSoC4/CapSense_SensingCSD_LL.c ****     #define CapSense_CSD_ON_DELAY_TIME                      (3u)
 165:Generated_Source\PSoC4/CapSense_SensingCSD_LL.c ****     #define CapSense_CSD_ON_DELAY                           (CapSense_CSD_ON_DELAY_TIME * CYDEV_BCL
 166:Generated_Source\PSoC4/CapSense_SensingCSD_LL.c **** 
 167:Generated_Source\PSoC4/CapSense_SensingCSD_LL.c ****     #define CapSense_HSCMP_ON_DELAY_TIME                    (1u)
 168:Generated_Source\PSoC4/CapSense_SensingCSD_LL.c ****     #define CapSense_HSCMP_ON_DELAY                         (CapSense_HSCMP_ON_DELAY_TIME * CYDEV_B
 169:Generated_Source\PSoC4/CapSense_SensingCSD_LL.c **** 
 170:Generated_Source\PSoC4/CapSense_SensingCSD_LL.c **** #else
 171:Generated_Source\PSoC4/CapSense_SensingCSD_LL.c **** 
 172:Generated_Source\PSoC4/CapSense_SensingCSD_LL.c ****     /* Set IDAC ranges */
 173:Generated_Source\PSoC4/CapSense_SensingCSD_LL.c ****     #if (CapSense_IDAC_GAIN_8X == CapSense_CSD_IDAC_GAIN)
 174:Generated_Source\PSoC4/CapSense_SensingCSD_LL.c ****         #define CapSense_DEFAULT_IDAC_MOD_RANGE         (CapSense_IDAC_MOD_RANGE_MASK)
 175:Generated_Source\PSoC4/CapSense_SensingCSD_LL.c ****         #define CapSense_DEFAULT_IDAC_COMP_RANGE        (CapSense_IDAC_COMP_RANGE_MASK)
 176:Generated_Source\PSoC4/CapSense_SensingCSD_LL.c ****     #else
 177:Generated_Source\PSoC4/CapSense_SensingCSD_LL.c ****         #define CapSense_DEFAULT_IDAC_MOD_RANGE         (0u)
 178:Generated_Source\PSoC4/CapSense_SensingCSD_LL.c ****         #define CapSense_DEFAULT_IDAC_COMP_RANGE        (0u)
 179:Generated_Source\PSoC4/CapSense_SensingCSD_LL.c ****     #endif /* (CapSense_IDAC_GAIN_8X == CapSense_CSD_IDAC_GAIN) */
 180:Generated_Source\PSoC4/CapSense_SensingCSD_LL.c **** 
 181:Generated_Source\PSoC4/CapSense_SensingCSD_LL.c ****     /* Defining default IDACs configuration according to settings in customizer. */
 182:Generated_Source\PSoC4/CapSense_SensingCSD_LL.c ****     #if (CapSense_ENABLE == CapSense_CSD_IDAC_COMP_EN)
 183:Generated_Source\PSoC4/CapSense_SensingCSD_LL.c ****         #define CapSense_DEFAULT_CSD_IDAC_CONFIG        (CapSense_IDAC_MOD_MODE_VARIABLE |\
 184:Generated_Source\PSoC4/CapSense_SensingCSD_LL.c ****                                                                  CapSense_IDAC_COMP_MODE_FIXED |\
 185:Generated_Source\PSoC4/CapSense_SensingCSD_LL.c ****                                                                  CapSense_DEFAULT_IDAC_MOD_RANGE |\
 186:Generated_Source\PSoC4/CapSense_SensingCSD_LL.c ****                                                                  CapSense_DEFAULT_IDAC_COMP_RANGE)
 187:Generated_Source\PSoC4/CapSense_SensingCSD_LL.c ****     #else
 188:Generated_Source\PSoC4/CapSense_SensingCSD_LL.c ****         #define CapSense_DEFAULT_CSD_IDAC_CONFIG        (CapSense_IDAC_MOD_MODE_VARIABLE |\
 189:Generated_Source\PSoC4/CapSense_SensingCSD_LL.c ****                                                                  CapSense_DEFAULT_IDAC_MOD_RANGE)
 190:Generated_Source\PSoC4/CapSense_SensingCSD_LL.c ****     #endif /* (CapSense_ENABLE == CapSense_CSD_IDAC_COMP_EN) */
 191:Generated_Source\PSoC4/CapSense_SensingCSD_LL.c **** 
 192:Generated_Source\PSoC4/CapSense_SensingCSD_LL.c **** #endif /* (CapSense_ENABLE == CapSense_CSDV2) */
 193:Generated_Source\PSoC4/CapSense_SensingCSD_LL.c **** 
 194:Generated_Source\PSoC4/CapSense_SensingCSD_LL.c **** /***************************************
 195:Generated_Source\PSoC4/CapSense_SensingCSD_LL.c **** * Variables
 196:Generated_Source\PSoC4/CapSense_SensingCSD_LL.c **** ***************************************/
 197:Generated_Source\PSoC4/CapSense_SensingCSD_LL.c **** 
 198:Generated_Source\PSoC4/CapSense_SensingCSD_LL.c **** #if (CapSense_ENABLE == CapSense_CSDV2)
 199:Generated_Source\PSoC4/CapSense_SensingCSD_LL.c ****     uint32 CapSense_configCsd = CapSense_DEFAULT_CSD_CONFIG;
 200:Generated_Source\PSoC4/CapSense_SensingCSD_LL.c **** #else
 201:Generated_Source\PSoC4/CapSense_SensingCSD_LL.c ****     uint32 CapSense_configCsd = CapSense_DEFAULT_CSD_CONFIG | CapSense_DEFAULT_MODULATION_MODE;
 202:Generated_Source\PSoC4/CapSense_SensingCSD_LL.c ****     static uint32 CapSense_counterResolution = CapSense_CNT_RESOLUTION_12_BITS;
 203:Generated_Source\PSoC4/CapSense_SensingCSD_LL.c **** #endif /* (CapSense_ENABLE == CapSense_CSDV2) */
ARM GAS  C:\Users\Jerry\AppData\Local\Temp\cc2mbs0O.s 			page 5


 204:Generated_Source\PSoC4/CapSense_SensingCSD_LL.c **** /* Flag to indicate electrodes that were connected previously */
 205:Generated_Source\PSoC4/CapSense_SensingCSD_LL.c **** static uint8 CapSense_eleCsdDisconnectFlag = 0u;
 206:Generated_Source\PSoC4/CapSense_SensingCSD_LL.c **** #if ((CapSense_ENABLE == CapSense_CSDV2) && (CapSense_ENABLE == CapSense_CSD_NOISE_METRIC_EN))
 207:Generated_Source\PSoC4/CapSense_SensingCSD_LL.c ****     /* Number of re-samplings when the bad conversion occurs */
 208:Generated_Source\PSoC4/CapSense_SensingCSD_LL.c ****     uint8 CapSense_badConversionsNum = CapSense_BAD_CONVERSIONS_NUM;
 209:Generated_Source\PSoC4/CapSense_SensingCSD_LL.c **** #endif /* ((CapSense_ENABLE == CapSense_CSDV2) && (CapSense_ENABLE == CapSense_CSD_NOISE_METRIC_EN)
 210:Generated_Source\PSoC4/CapSense_SensingCSD_LL.c **** 
 211:Generated_Source\PSoC4/CapSense_SensingCSD_LL.c **** /*******************************************************************************
 212:Generated_Source\PSoC4/CapSense_SensingCSD_LL.c **** * Static Function Prototypes
 213:Generated_Source\PSoC4/CapSense_SensingCSD_LL.c **** *******************************************************************************/
 214:Generated_Source\PSoC4/CapSense_SensingCSD_LL.c **** /**
 215:Generated_Source\PSoC4/CapSense_SensingCSD_LL.c **** * \if SECTION_CAPSENSE_INTERNAL
 216:Generated_Source\PSoC4/CapSense_SensingCSD_LL.c **** * \addtogroup group_capsense_internal
 217:Generated_Source\PSoC4/CapSense_SensingCSD_LL.c **** * \{
 218:Generated_Source\PSoC4/CapSense_SensingCSD_LL.c **** */
 219:Generated_Source\PSoC4/CapSense_SensingCSD_LL.c **** 
 220:Generated_Source\PSoC4/CapSense_SensingCSD_LL.c **** #if (CapSense_ENABLE == CapSense_CSD_SHIELD_EN)
 221:Generated_Source\PSoC4/CapSense_SensingCSD_LL.c ****     static void CapSense_SsSetShieldDelay(uint32 delay);
 222:Generated_Source\PSoC4/CapSense_SensingCSD_LL.c ****     #if (CapSense_ENABLE == CapSense_CSD_SHIELD_TANK_EN)
 223:Generated_Source\PSoC4/CapSense_SensingCSD_LL.c ****         static void CapSense_SsCSDEnableShieldTank(void);
 224:Generated_Source\PSoC4/CapSense_SensingCSD_LL.c ****     #endif /* (CapSense_ENABLE == CapSense_CSD_SHIELD_TANK_EN) */
 225:Generated_Source\PSoC4/CapSense_SensingCSD_LL.c ****     #if (0u != CapSense_CSD_TOTAL_SHIELD_COUNT)
 226:Generated_Source\PSoC4/CapSense_SensingCSD_LL.c ****         static void CapSense_SsCSDEnableShieldElectrodes(void);
 227:Generated_Source\PSoC4/CapSense_SensingCSD_LL.c ****     #endif /* (0u != CapSense_CSD_TOTAL_SHIELD_COUNT) */
 228:Generated_Source\PSoC4/CapSense_SensingCSD_LL.c **** #endif /* (CapSense_ENABLE == CapSense_CSD_SHIELD_EN) */
 229:Generated_Source\PSoC4/CapSense_SensingCSD_LL.c **** 
 230:Generated_Source\PSoC4/CapSense_SensingCSD_LL.c **** #if ((CapSense_CSD_SS_DIS != CapSense_CSD_AUTOTUNE) || \
 231:Generated_Source\PSoC4/CapSense_SensingCSD_LL.c ****      (CapSense_ENABLE == CapSense_CSD_IDAC_AUTOCAL_EN))
 232:Generated_Source\PSoC4/CapSense_SensingCSD_LL.c ****     static cystatus CapSense_SsCSDCalibrateCheck(CapSense_RAM_WD_BASE_STRUCT const *ptrWdgt, uint32
 233:Generated_Source\PSoC4/CapSense_SensingCSD_LL.c ****     #if (CapSense_ENABLE == CapSense_CSD_IDAC_COMP_EN)
 234:Generated_Source\PSoC4/CapSense_SensingCSD_LL.c ****         static void CapSense_SsCSDRestoreIdacMode(void);
 235:Generated_Source\PSoC4/CapSense_SensingCSD_LL.c ****     #endif /* (CapSense_ENABLE == CapSense_CSD_IDAC_COMP_EN) */
 236:Generated_Source\PSoC4/CapSense_SensingCSD_LL.c ****     static cystatus CapSense_SsCSDCalibrateOneSensor(uint32 rawLevel,
 237:Generated_Source\PSoC4/CapSense_SensingCSD_LL.c ****                                                              uint8 *ptrIdac,
 238:Generated_Source\PSoC4/CapSense_SensingCSD_LL.c ****                                                              uint8 *iDAC8Max);
 239:Generated_Source\PSoC4/CapSense_SensingCSD_LL.c **** #endif /* ((CapSense_CSD_SS_DIS != CapSense_CSD_AUTOTUNE) || \
 240:Generated_Source\PSoC4/CapSense_SensingCSD_LL.c ****            (CapSense_ENABLE == CapSense_CSD_IDAC_AUTOCAL_EN))  */
 241:Generated_Source\PSoC4/CapSense_SensingCSD_LL.c **** #if (CapSense_ENABLE == CapSense_CSDV2)
 242:Generated_Source\PSoC4/CapSense_SensingCSD_LL.c ****     static void CapSense_SsCSDSetFilterDelay(void);
 243:Generated_Source\PSoC4/CapSense_SensingCSD_LL.c **** #else
 244:Generated_Source\PSoC4/CapSense_SensingCSD_LL.c ****     CY_INLINE static void CapSense_SsCSDClockRestart(void);
 245:Generated_Source\PSoC4/CapSense_SensingCSD_LL.c **** #endif /* (CapSense_ENABLE == CapSense_CSDV2) */
 246:Generated_Source\PSoC4/CapSense_SensingCSD_LL.c **** CY_INLINE static void CapSense_SsCSDCmodPrecharge(void);
 247:Generated_Source\PSoC4/CapSense_SensingCSD_LL.c **** CY_INLINE static void CapSense_SsCSDTriggerScan(void);
 248:Generated_Source\PSoC4/CapSense_SensingCSD_LL.c **** static void CapSense_SsCSDConfigIDACs(void);
 249:Generated_Source\PSoC4/CapSense_SensingCSD_LL.c **** 
 250:Generated_Source\PSoC4/CapSense_SensingCSD_LL.c **** /** \}
 251:Generated_Source\PSoC4/CapSense_SensingCSD_LL.c **** * \endif */
 252:Generated_Source\PSoC4/CapSense_SensingCSD_LL.c **** 
 253:Generated_Source\PSoC4/CapSense_SensingCSD_LL.c **** 
 254:Generated_Source\PSoC4/CapSense_SensingCSD_LL.c **** #if (CapSense_ENABLE == CapSense_CSD_SHIELD_EN)
 255:Generated_Source\PSoC4/CapSense_SensingCSD_LL.c ****     /*******************************************************************************
 256:Generated_Source\PSoC4/CapSense_SensingCSD_LL.c ****     * Function Name: CapSense_SsSetShieldDelay
 257:Generated_Source\PSoC4/CapSense_SensingCSD_LL.c ****     ****************************************************************************//**
 258:Generated_Source\PSoC4/CapSense_SensingCSD_LL.c ****     *
 259:Generated_Source\PSoC4/CapSense_SensingCSD_LL.c ****     * \brief
 260:Generated_Source\PSoC4/CapSense_SensingCSD_LL.c ****     *   This is an internal function that sets a shield delay.
ARM GAS  C:\Users\Jerry\AppData\Local\Temp\cc2mbs0O.s 			page 6


 261:Generated_Source\PSoC4/CapSense_SensingCSD_LL.c ****     *
 262:Generated_Source\PSoC4/CapSense_SensingCSD_LL.c ****     * \details
 263:Generated_Source\PSoC4/CapSense_SensingCSD_LL.c ****     *   The function updates the CSD configuration register bits that define the shield
 264:Generated_Source\PSoC4/CapSense_SensingCSD_LL.c ****     *   signal delay relatively to the sense signal.
 265:Generated_Source\PSoC4/CapSense_SensingCSD_LL.c ****     *
 266:Generated_Source\PSoC4/CapSense_SensingCSD_LL.c ****     * \param delay
 267:Generated_Source\PSoC4/CapSense_SensingCSD_LL.c ****     *   Specifies the shield delay value:
 268:Generated_Source\PSoC4/CapSense_SensingCSD_LL.c ****     *                               0 - no delay
 269:Generated_Source\PSoC4/CapSense_SensingCSD_LL.c ****     *                               1 - 5ns delay (50 ns for CSDv1 block)
 270:Generated_Source\PSoC4/CapSense_SensingCSD_LL.c ****     *                               2 - 10ns delay (100 ns for CSDv1 block)
 271:Generated_Source\PSoC4/CapSense_SensingCSD_LL.c ****     *                               3 - 20ns delay
 272:Generated_Source\PSoC4/CapSense_SensingCSD_LL.c ****     *
 273:Generated_Source\PSoC4/CapSense_SensingCSD_LL.c ****     *******************************************************************************/
 274:Generated_Source\PSoC4/CapSense_SensingCSD_LL.c ****     static void CapSense_SsSetShieldDelay(uint32 delay)
 275:Generated_Source\PSoC4/CapSense_SensingCSD_LL.c ****     {
 276:Generated_Source\PSoC4/CapSense_SensingCSD_LL.c ****         /* Update CSD config register shield delay bits with shield delay value */
 277:Generated_Source\PSoC4/CapSense_SensingCSD_LL.c ****         CapSense_configCsd &= (uint32)(~CapSense_CONFIG_SHIELD_DELAY_MASK);
 278:Generated_Source\PSoC4/CapSense_SensingCSD_LL.c ****         CapSense_configCsd |= (delay << CapSense_SHIELD_DELAY_SHIFT);
 279:Generated_Source\PSoC4/CapSense_SensingCSD_LL.c ****     }
 280:Generated_Source\PSoC4/CapSense_SensingCSD_LL.c **** 
 281:Generated_Source\PSoC4/CapSense_SensingCSD_LL.c ****     #if (CapSense_ENABLE == CapSense_CSD_SHIELD_TANK_EN)
 282:Generated_Source\PSoC4/CapSense_SensingCSD_LL.c ****         /*******************************************************************************
 283:Generated_Source\PSoC4/CapSense_SensingCSD_LL.c ****         * Function Name: CapSense_SsCSDEnableShieldTank
 284:Generated_Source\PSoC4/CapSense_SensingCSD_LL.c ****         ****************************************************************************//**
 285:Generated_Source\PSoC4/CapSense_SensingCSD_LL.c ****         *
 286:Generated_Source\PSoC4/CapSense_SensingCSD_LL.c ****         * \brief
 287:Generated_Source\PSoC4/CapSense_SensingCSD_LL.c ****         *   This function configures Csh pin
 288:Generated_Source\PSoC4/CapSense_SensingCSD_LL.c ****         *
 289:Generated_Source\PSoC4/CapSense_SensingCSD_LL.c ****         * \details
 290:Generated_Source\PSoC4/CapSense_SensingCSD_LL.c ****         *   The function updates the CSH_HSIOM register to connect Csh to AMUXBUS-B.
 291:Generated_Source\PSoC4/CapSense_SensingCSD_LL.c ****         *   For CSD v1 IP HW block it additionally sets Strong drive mode for Csh
 292:Generated_Source\PSoC4/CapSense_SensingCSD_LL.c ****         *   and applies High level to Csh pin when precharge is set to IO buffer.
 293:Generated_Source\PSoC4/CapSense_SensingCSD_LL.c ****         *
 294:Generated_Source\PSoC4/CapSense_SensingCSD_LL.c ****         *******************************************************************************/
 295:Generated_Source\PSoC4/CapSense_SensingCSD_LL.c ****         static void CapSense_SsCSDEnableShieldTank(void)
 296:Generated_Source\PSoC4/CapSense_SensingCSD_LL.c ****         {
 297:Generated_Source\PSoC4/CapSense_SensingCSD_LL.c ****             uint32 newRegValue;
 298:Generated_Source\PSoC4/CapSense_SensingCSD_LL.c **** 
 299:Generated_Source\PSoC4/CapSense_SensingCSD_LL.c ****             /* Update the CSH_HSIOM register to connect Csh to AMUXBUS-B */
 300:Generated_Source\PSoC4/CapSense_SensingCSD_LL.c ****             newRegValue = CY_GET_REG32(CapSense_CSH_HSIOM_PTR);
 301:Generated_Source\PSoC4/CapSense_SensingCSD_LL.c ****             newRegValue &= (uint32)(~(uint32)CapSense_CSH_HSIOM_MASK);
 302:Generated_Source\PSoC4/CapSense_SensingCSD_LL.c ****             newRegValue |= (CapSense_CSH_TO_AMUXBUS_B_MASK << CapSense_CSH_HSIOM_SHIFT);
 303:Generated_Source\PSoC4/CapSense_SensingCSD_LL.c ****             CY_SET_REG32(CapSense_CSH_HSIOM_PTR, newRegValue);
 304:Generated_Source\PSoC4/CapSense_SensingCSD_LL.c **** 
 305:Generated_Source\PSoC4/CapSense_SensingCSD_LL.c ****             #if ((CapSense_CSH_PRECHARGE_IO_BUF == CapSense_CSD_CSH_PRECHARGE_SRC) &&\
 306:Generated_Source\PSoC4/CapSense_SensingCSD_LL.c ****                  (CapSense_DISABLE == CapSense_CSDV2))
 307:Generated_Source\PSoC4/CapSense_SensingCSD_LL.c ****                 /* Set Strong drive mode for Csh */
 308:Generated_Source\PSoC4/CapSense_SensingCSD_LL.c ****                 newRegValue = CY_GET_REG32(CapSense_CSH_PC_PTR);
 309:Generated_Source\PSoC4/CapSense_SensingCSD_LL.c ****                 newRegValue &= (uint32)(~(CapSense_CSH_PC_MASK << CapSense_CSH_PC_SHIFT));
 310:Generated_Source\PSoC4/CapSense_SensingCSD_LL.c ****                 newRegValue |= (CapSense_CSH_PC_STRONG_MODE << CapSense_CSH_PC_SHIFT);
 311:Generated_Source\PSoC4/CapSense_SensingCSD_LL.c ****                 CY_SET_REG32(CapSense_CSH_PC_PTR, newRegValue);
 312:Generated_Source\PSoC4/CapSense_SensingCSD_LL.c **** 
 313:Generated_Source\PSoC4/CapSense_SensingCSD_LL.c ****                 /* Appliy High level to Csh pin for Csh */
 314:Generated_Source\PSoC4/CapSense_SensingCSD_LL.c ****                 newRegValue = CY_GET_REG32(CapSense_CSH_DR_PTR);
 315:Generated_Source\PSoC4/CapSense_SensingCSD_LL.c ****                 newRegValue &= (uint32)(~(CapSense_DR_MASK << CapSense_CSH_SHIFT));
 316:Generated_Source\PSoC4/CapSense_SensingCSD_LL.c ****                 newRegValue |= (uint32)CapSense_CSH_DR_CONFIG;
 317:Generated_Source\PSoC4/CapSense_SensingCSD_LL.c ****                 CY_SET_REG32(CapSense_CSH_DR_PTR, newRegValue);
ARM GAS  C:\Users\Jerry\AppData\Local\Temp\cc2mbs0O.s 			page 7


 318:Generated_Source\PSoC4/CapSense_SensingCSD_LL.c ****             #endif /* ((CapSense_CSH_PRECHARGE_IO_BUF == CapSense_CSD_CSH_PRECHARGE_SRC) &&\
 319:Generated_Source\PSoC4/CapSense_SensingCSD_LL.c ****                        (CapSense_DISABLE == CapSense_CSDV2)) */
 320:Generated_Source\PSoC4/CapSense_SensingCSD_LL.c ****         }
 321:Generated_Source\PSoC4/CapSense_SensingCSD_LL.c ****     #endif /* (CapSense_ENABLE == CapSense_CSD_SHIELD_TANK_EN) */
 322:Generated_Source\PSoC4/CapSense_SensingCSD_LL.c **** 
 323:Generated_Source\PSoC4/CapSense_SensingCSD_LL.c ****     #if (0u != CapSense_CSD_TOTAL_SHIELD_COUNT)
 324:Generated_Source\PSoC4/CapSense_SensingCSD_LL.c ****         /*******************************************************************************
 325:Generated_Source\PSoC4/CapSense_SensingCSD_LL.c ****         * Function Name: CapSense_SsCSDEnableShieldElectrodes
 326:Generated_Source\PSoC4/CapSense_SensingCSD_LL.c ****         ****************************************************************************//**
 327:Generated_Source\PSoC4/CapSense_SensingCSD_LL.c ****         *
 328:Generated_Source\PSoC4/CapSense_SensingCSD_LL.c ****         * \brief
 329:Generated_Source\PSoC4/CapSense_SensingCSD_LL.c ****         *   This internal function initializes Shield Electrodes.
 330:Generated_Source\PSoC4/CapSense_SensingCSD_LL.c ****         *
 331:Generated_Source\PSoC4/CapSense_SensingCSD_LL.c ****         * \details
 332:Generated_Source\PSoC4/CapSense_SensingCSD_LL.c ****         *   The function sets the bit in the HSIOM register which enables the shield electrode
 333:Generated_Source\PSoC4/CapSense_SensingCSD_LL.c ****         *   functionality on the pin. The port and pin configurations are stored in
 334:Generated_Source\PSoC4/CapSense_SensingCSD_LL.c ****         *   the CapSense_shieldIoList structure.
 335:Generated_Source\PSoC4/CapSense_SensingCSD_LL.c ****         *
 336:Generated_Source\PSoC4/CapSense_SensingCSD_LL.c ****         *******************************************************************************/
 337:Generated_Source\PSoC4/CapSense_SensingCSD_LL.c ****         static void CapSense_SsCSDEnableShieldElectrodes(void)
 338:Generated_Source\PSoC4/CapSense_SensingCSD_LL.c ****         {
 339:Generated_Source\PSoC4/CapSense_SensingCSD_LL.c ****             uint32 newRegValue;
 340:Generated_Source\PSoC4/CapSense_SensingCSD_LL.c ****             uint32 shieldIndex;
 341:Generated_Source\PSoC4/CapSense_SensingCSD_LL.c **** 
 342:Generated_Source\PSoC4/CapSense_SensingCSD_LL.c ****             for (shieldIndex = 0u; shieldIndex < CapSense_CSD_TOTAL_SHIELD_COUNT; shieldIndex++)
 343:Generated_Source\PSoC4/CapSense_SensingCSD_LL.c ****             {
 344:Generated_Source\PSoC4/CapSense_SensingCSD_LL.c ****                 /* Set drive mode to Analog */
 345:Generated_Source\PSoC4/CapSense_SensingCSD_LL.c ****                 CY_SET_REG32(CapSense_shieldIoList[shieldIndex].pcPtr, CY_GET_REG32(CapSense_shield
 346:Generated_Source\PSoC4/CapSense_SensingCSD_LL.c ****                            ~(CapSense_GPIO_PC_MASK <<(CapSense_shieldIoList[shieldIndex].shift)));
 347:Generated_Source\PSoC4/CapSense_SensingCSD_LL.c **** 
 348:Generated_Source\PSoC4/CapSense_SensingCSD_LL.c ****                 /* Set HSIOM register mode to CSD_SHIELD or AMUXBUS B connection */
 349:Generated_Source\PSoC4/CapSense_SensingCSD_LL.c ****                 newRegValue = CY_GET_REG32(CapSense_shieldIoList[shieldIndex].hsiomPtr);
 350:Generated_Source\PSoC4/CapSense_SensingCSD_LL.c ****                 newRegValue &= ~(CapSense_HSIOM_SEL_MASK << (CapSense_shieldIoList[shieldIndex].hsi
 351:Generated_Source\PSoC4/CapSense_SensingCSD_LL.c **** 
 352:Generated_Source\PSoC4/CapSense_SensingCSD_LL.c ****                 /* Set HSIOM register mode to CSD_SHIELD */
 353:Generated_Source\PSoC4/CapSense_SensingCSD_LL.c ****                 newRegValue |= (CapSense_HSIOM_SEL_CSD_SHIELD << (CapSense_shieldIoList[shieldIndex
 354:Generated_Source\PSoC4/CapSense_SensingCSD_LL.c **** 
 355:Generated_Source\PSoC4/CapSense_SensingCSD_LL.c ****                 CY_SET_REG32(CapSense_shieldIoList[shieldIndex].hsiomPtr, newRegValue);
 356:Generated_Source\PSoC4/CapSense_SensingCSD_LL.c ****             }
 357:Generated_Source\PSoC4/CapSense_SensingCSD_LL.c ****         }
 358:Generated_Source\PSoC4/CapSense_SensingCSD_LL.c **** 
 359:Generated_Source\PSoC4/CapSense_SensingCSD_LL.c **** 
 360:Generated_Source\PSoC4/CapSense_SensingCSD_LL.c ****         /*******************************************************************************
 361:Generated_Source\PSoC4/CapSense_SensingCSD_LL.c ****         * Function Name: CapSense_SsCSDDisableShieldElectrodes
 362:Generated_Source\PSoC4/CapSense_SensingCSD_LL.c ****         ****************************************************************************//**
 363:Generated_Source\PSoC4/CapSense_SensingCSD_LL.c ****         *
 364:Generated_Source\PSoC4/CapSense_SensingCSD_LL.c ****         * \brief
 365:Generated_Source\PSoC4/CapSense_SensingCSD_LL.c ****         *   This internal function disables Shield Electrodes.
 366:Generated_Source\PSoC4/CapSense_SensingCSD_LL.c ****         *
 367:Generated_Source\PSoC4/CapSense_SensingCSD_LL.c ****         * \details
 368:Generated_Source\PSoC4/CapSense_SensingCSD_LL.c ****         *   The function resets the bit in the HSIOM register which disables the shield
 369:Generated_Source\PSoC4/CapSense_SensingCSD_LL.c ****         *   electrode functionality on the pin. The port and pin configurations are
 370:Generated_Source\PSoC4/CapSense_SensingCSD_LL.c ****         *   stored in  the CapSense_shieldIoList structure.
 371:Generated_Source\PSoC4/CapSense_SensingCSD_LL.c ****         *
 372:Generated_Source\PSoC4/CapSense_SensingCSD_LL.c ****         *******************************************************************************/
 373:Generated_Source\PSoC4/CapSense_SensingCSD_LL.c ****         void CapSense_SsCSDDisableShieldElectrodes(void)
 374:Generated_Source\PSoC4/CapSense_SensingCSD_LL.c ****         {
ARM GAS  C:\Users\Jerry\AppData\Local\Temp\cc2mbs0O.s 			page 8


 375:Generated_Source\PSoC4/CapSense_SensingCSD_LL.c ****             uint32 newRegValue;
 376:Generated_Source\PSoC4/CapSense_SensingCSD_LL.c ****             uint32 shieldIndex;
 377:Generated_Source\PSoC4/CapSense_SensingCSD_LL.c **** 
 378:Generated_Source\PSoC4/CapSense_SensingCSD_LL.c ****             for (shieldIndex = 0u; shieldIndex < CapSense_CSD_TOTAL_SHIELD_COUNT; shieldIndex++)
 379:Generated_Source\PSoC4/CapSense_SensingCSD_LL.c ****             {
 380:Generated_Source\PSoC4/CapSense_SensingCSD_LL.c ****                 /* Reset HSIOM register (to GPIO state) */
 381:Generated_Source\PSoC4/CapSense_SensingCSD_LL.c ****                 CY_SET_REG32(CapSense_shieldIoList[shieldIndex].hsiomPtr, CY_GET_REG32(CapSense_shi
 382:Generated_Source\PSoC4/CapSense_SensingCSD_LL.c ****                              (uint32)~(uint32)(CapSense_HSIOM_SEL_MASK << CapSense_shieldIoList[shi
 383:Generated_Source\PSoC4/CapSense_SensingCSD_LL.c **** 
 384:Generated_Source\PSoC4/CapSense_SensingCSD_LL.c ****                 /* Update port configuration register (drive mode to ground)  */
 385:Generated_Source\PSoC4/CapSense_SensingCSD_LL.c ****                 newRegValue = CY_GET_REG32(CapSense_shieldIoList[shieldIndex].pcPtr);
 386:Generated_Source\PSoC4/CapSense_SensingCSD_LL.c ****                 newRegValue &= ~(CapSense_GPIO_PC_MASK << CapSense_shieldIoList[shieldIndex].shift)
 387:Generated_Source\PSoC4/CapSense_SensingCSD_LL.c ****                 newRegValue |= (CapSense_SNS_GROUND_CONNECT << CapSense_shieldIoList[shieldIndex].s
 388:Generated_Source\PSoC4/CapSense_SensingCSD_LL.c ****                 CY_SET_REG32(CapSense_shieldIoList[shieldIndex].pcPtr, newRegValue);
 389:Generated_Source\PSoC4/CapSense_SensingCSD_LL.c **** 
 390:Generated_Source\PSoC4/CapSense_SensingCSD_LL.c ****                 /* Set logic 0 to port data register */
 391:Generated_Source\PSoC4/CapSense_SensingCSD_LL.c ****                 CY_SET_REG32(CapSense_shieldIoList[shieldIndex].drPtr, CY_GET_REG32(CapSense_shield
 392:Generated_Source\PSoC4/CapSense_SensingCSD_LL.c ****                            (uint32)~(uint32)((uint32)1u << CapSense_shieldIoList[shieldIndex].drShi
 393:Generated_Source\PSoC4/CapSense_SensingCSD_LL.c ****             }
 394:Generated_Source\PSoC4/CapSense_SensingCSD_LL.c ****         }
 395:Generated_Source\PSoC4/CapSense_SensingCSD_LL.c ****     #endif /* (0u != CapSense_CSD_TOTAL_SHIELD_COUNT) */
 396:Generated_Source\PSoC4/CapSense_SensingCSD_LL.c **** #endif /* (CapSense_ENABLE == CapSense_CSD_SHIELD_EN) */
 397:Generated_Source\PSoC4/CapSense_SensingCSD_LL.c **** 
 398:Generated_Source\PSoC4/CapSense_SensingCSD_LL.c **** 
 399:Generated_Source\PSoC4/CapSense_SensingCSD_LL.c **** /*******************************************************************************
 400:Generated_Source\PSoC4/CapSense_SensingCSD_LL.c **** * Function Name: CapSense_SsCSDSetModeSnsClockDivider
 401:Generated_Source\PSoC4/CapSense_SensingCSD_LL.c **** ****************************************************************************//**
 402:Generated_Source\PSoC4/CapSense_SensingCSD_LL.c **** *
 403:Generated_Source\PSoC4/CapSense_SensingCSD_LL.c **** * \brief
 404:Generated_Source\PSoC4/CapSense_SensingCSD_LL.c **** *   Sets sense source and Sense Clock Divider
 405:Generated_Source\PSoC4/CapSense_SensingCSD_LL.c **** *
 406:Generated_Source\PSoC4/CapSense_SensingCSD_LL.c **** * \details
 407:Generated_Source\PSoC4/CapSense_SensingCSD_LL.c **** *   For CSDv2: Updates CapSense_SENSE_PERIOD register with
 408:Generated_Source\PSoC4/CapSense_SensingCSD_LL.c **** *   sense source and Sense Clock Divider.
 409:Generated_Source\PSoC4/CapSense_SensingCSD_LL.c **** *   For CSDv1: Updates CapSense_configCsd variable with
 410:Generated_Source\PSoC4/CapSense_SensingCSD_LL.c **** *   sense source and sets sense clock divider.
 411:Generated_Source\PSoC4/CapSense_SensingCSD_LL.c **** *
 412:Generated_Source\PSoC4/CapSense_SensingCSD_LL.c **** * \param
 413:Generated_Source\PSoC4/CapSense_SensingCSD_LL.c **** *   snsClkSource The sense source for the sense clock.
 414:Generated_Source\PSoC4/CapSense_SensingCSD_LL.c **** * \param
 415:Generated_Source\PSoC4/CapSense_SensingCSD_LL.c **** *   snsClkDivider The divider value for the sense clock.
 416:Generated_Source\PSoC4/CapSense_SensingCSD_LL.c **** *
 417:Generated_Source\PSoC4/CapSense_SensingCSD_LL.c **** *******************************************************************************/
 418:Generated_Source\PSoC4/CapSense_SensingCSD_LL.c **** void CapSense_SsCSDSetModeSnsClockDivider(uint32 snsClkSource, uint32 snsClkDivider)
 419:Generated_Source\PSoC4/CapSense_SensingCSD_LL.c **** {
  26              		.loc 1 419 0
  27              		.cfi_startproc
  28              	.LVL0:
 420:Generated_Source\PSoC4/CapSense_SensingCSD_LL.c ****     #if (CapSense_ENABLE == CapSense_CSDV2)
 421:Generated_Source\PSoC4/CapSense_SensingCSD_LL.c ****         /* Update reg value with divider and configuration */
 422:Generated_Source\PSoC4/CapSense_SensingCSD_LL.c ****         CY_SET_REG32(CapSense_SENSE_PERIOD_PTR, snsClkSource | (snsClkDivider - 1u));
  29              		.loc 1 422 0
  30 0000 0139     		sub	r1, r1, #1
  31              	.LVL1:
  32 0002 024B     		ldr	r3, .L2
  33 0004 0843     		orr	r0, r1
  34              	.LVL2:
ARM GAS  C:\Users\Jerry\AppData\Local\Temp\cc2mbs0O.s 			page 9


  35 0006 1860     		str	r0, [r3]
 423:Generated_Source\PSoC4/CapSense_SensingCSD_LL.c ****     #else
 424:Generated_Source\PSoC4/CapSense_SensingCSD_LL.c ****         /* Set configuration */
 425:Generated_Source\PSoC4/CapSense_SensingCSD_LL.c ****         CapSense_configCsd &= ~(CapSense_CONFIG_PRS_SELECT_MASK | CapSense_CSD_PRS_12_BIT);
 426:Generated_Source\PSoC4/CapSense_SensingCSD_LL.c ****         CapSense_configCsd |= snsClkSource;
 427:Generated_Source\PSoC4/CapSense_SensingCSD_LL.c **** 
 428:Generated_Source\PSoC4/CapSense_SensingCSD_LL.c ****         /* Set sense clock divider */
 429:Generated_Source\PSoC4/CapSense_SensingCSD_LL.c ****         CapSense_SsSetSnsClockDivider(snsClkDivider);
 430:Generated_Source\PSoC4/CapSense_SensingCSD_LL.c ****     #endif /* (CapSense_ENABLE == CapSense_CSDV2) */
 431:Generated_Source\PSoC4/CapSense_SensingCSD_LL.c **** }
  36              		.loc 1 431 0
  37              		@ sp needed
  38 0008 7047     		bx	lr
  39              	.L3:
  40 000a C046     		.align	2
  41              	.L2:
  42 000c 00020C40 		.word	1074528768
  43              		.cfi_endproc
  44              	.LFE1:
  45              		.size	CapSense_SsCSDSetModeSnsClockDivider, .-CapSense_SsCSDSetModeSnsClockDivider
  46              		.global	__aeabi_uidiv
  47              		.section	.text.CapSense_SsCSDInitialize,"ax",%progbits
  48              		.align	1
  49              		.global	CapSense_SsCSDInitialize
  50              		.code	16
  51              		.thumb_func
  52              		.type	CapSense_SsCSDInitialize, %function
  53              	CapSense_SsCSDInitialize:
  54              	.LFB4:
 432:Generated_Source\PSoC4/CapSense_SensingCSD_LL.c **** 
 433:Generated_Source\PSoC4/CapSense_SensingCSD_LL.c **** 
 434:Generated_Source\PSoC4/CapSense_SensingCSD_LL.c **** #if (CapSense_ENABLE == CapSense_CSDV2)
 435:Generated_Source\PSoC4/CapSense_SensingCSD_LL.c ****     /*******************************************************************************
 436:Generated_Source\PSoC4/CapSense_SensingCSD_LL.c ****     * Function Name: CapSense_SsCSDSetFilterDelay
 437:Generated_Source\PSoC4/CapSense_SensingCSD_LL.c ****     ****************************************************************************//**
 438:Generated_Source\PSoC4/CapSense_SensingCSD_LL.c ****     *
 439:Generated_Source\PSoC4/CapSense_SensingCSD_LL.c ****     * \brief
 440:Generated_Source\PSoC4/CapSense_SensingCSD_LL.c ****     *   Sets the filter delay for CSDv2 HW IP block.
 441:Generated_Source\PSoC4/CapSense_SensingCSD_LL.c ****     *
 442:Generated_Source\PSoC4/CapSense_SensingCSD_LL.c ****     * \details
 443:Generated_Source\PSoC4/CapSense_SensingCSD_LL.c ****     *   This function updates CSDv2 configuration variable CapSense_configCsd
 444:Generated_Source\PSoC4/CapSense_SensingCSD_LL.c ****     *   with the filter delay which depends on the sample clock frequency.
 445:Generated_Source\PSoC4/CapSense_SensingCSD_LL.c ****     *   This variable is written into CSDv2 CONFIG register during enabling
 446:Generated_Source\PSoC4/CapSense_SensingCSD_LL.c ****     *   to CSDv2 block.
 447:Generated_Source\PSoC4/CapSense_SensingCSD_LL.c ****     *
 448:Generated_Source\PSoC4/CapSense_SensingCSD_LL.c ****     *******************************************************************************/
 449:Generated_Source\PSoC4/CapSense_SensingCSD_LL.c ****     static void CapSense_SsCSDSetFilterDelay(void)
 450:Generated_Source\PSoC4/CapSense_SensingCSD_LL.c ****     {
 451:Generated_Source\PSoC4/CapSense_SensingCSD_LL.c ****         #if (CapSense_MOD_CSD_CLK_12MHZ < CYDEV_BCLK__HFCLK__HZ)
 452:Generated_Source\PSoC4/CapSense_SensingCSD_LL.c ****             uint32 sampleClkFreqHz;
 453:Generated_Source\PSoC4/CapSense_SensingCSD_LL.c ****         #endif /* (CapSense_MOD_CSD_CLK_12MHZ < CYDEV_BCLK__HFCLK__HZ) */
 454:Generated_Source\PSoC4/CapSense_SensingCSD_LL.c **** 
 455:Generated_Source\PSoC4/CapSense_SensingCSD_LL.c ****         CapSense_configCsd &= ~CapSense_CONFIG_FILTER_DELAY_MASK;
 456:Generated_Source\PSoC4/CapSense_SensingCSD_LL.c **** 
 457:Generated_Source\PSoC4/CapSense_SensingCSD_LL.c ****         #if (CapSense_MOD_CSD_CLK_12MHZ < CYDEV_BCLK__HFCLK__HZ)
 458:Generated_Source\PSoC4/CapSense_SensingCSD_LL.c ****             sampleClkFreqHz = CYDEV_BCLK__HFCLK__HZ / (uint32)CapSense_dsRam.modCsdClk;
 459:Generated_Source\PSoC4/CapSense_SensingCSD_LL.c ****             if(sampleClkFreqHz <= CapSense_MOD_CSD_CLK_12MHZ)
ARM GAS  C:\Users\Jerry\AppData\Local\Temp\cc2mbs0O.s 			page 10


 460:Generated_Source\PSoC4/CapSense_SensingCSD_LL.c ****             {
 461:Generated_Source\PSoC4/CapSense_SensingCSD_LL.c ****                 CapSense_configCsd |= CapSense_CONFIG_FILTER_DELAY_12MHZ;
 462:Generated_Source\PSoC4/CapSense_SensingCSD_LL.c ****             }
 463:Generated_Source\PSoC4/CapSense_SensingCSD_LL.c ****             else if(sampleClkFreqHz <= CapSense_MOD_CSD_CLK_24MHZ)
 464:Generated_Source\PSoC4/CapSense_SensingCSD_LL.c ****             {
 465:Generated_Source\PSoC4/CapSense_SensingCSD_LL.c ****                 CapSense_configCsd |= CapSense_CONFIG_FILTER_DELAY_24MHZ;
 466:Generated_Source\PSoC4/CapSense_SensingCSD_LL.c ****             }
 467:Generated_Source\PSoC4/CapSense_SensingCSD_LL.c ****             else
 468:Generated_Source\PSoC4/CapSense_SensingCSD_LL.c ****             {
 469:Generated_Source\PSoC4/CapSense_SensingCSD_LL.c ****                 CapSense_configCsd |= CapSense_CONFIG_FILTER_DELAY_48MHZ;
 470:Generated_Source\PSoC4/CapSense_SensingCSD_LL.c ****             }
 471:Generated_Source\PSoC4/CapSense_SensingCSD_LL.c ****         #else
 472:Generated_Source\PSoC4/CapSense_SensingCSD_LL.c ****             CapSense_configCsd |= CapSense_CONFIG_FILTER_DELAY_12MHZ;
 473:Generated_Source\PSoC4/CapSense_SensingCSD_LL.c ****         #endif /* (CapSense_MOD_CSD_CLK_12MHZ < CYDEV_BCLK__HFCLK__HZ) */
 474:Generated_Source\PSoC4/CapSense_SensingCSD_LL.c ****     }
 475:Generated_Source\PSoC4/CapSense_SensingCSD_LL.c **** #endif /* (CapSense_ENABLE == CapSense_CSD_GANGED_SNS_EN)  */
 476:Generated_Source\PSoC4/CapSense_SensingCSD_LL.c **** 
 477:Generated_Source\PSoC4/CapSense_SensingCSD_LL.c **** 
 478:Generated_Source\PSoC4/CapSense_SensingCSD_LL.c **** /*******************************************************************************
 479:Generated_Source\PSoC4/CapSense_SensingCSD_LL.c **** * Function Name: CapSense_SsCSDConfigIDACs
 480:Generated_Source\PSoC4/CapSense_SensingCSD_LL.c **** ****************************************************************************//**
 481:Generated_Source\PSoC4/CapSense_SensingCSD_LL.c **** *
 482:Generated_Source\PSoC4/CapSense_SensingCSD_LL.c **** * \brief
 483:Generated_Source\PSoC4/CapSense_SensingCSD_LL.c **** *   Configures the mode for IDAC registers
 484:Generated_Source\PSoC4/CapSense_SensingCSD_LL.c **** *
 485:Generated_Source\PSoC4/CapSense_SensingCSD_LL.c **** * \details
 486:Generated_Source\PSoC4/CapSense_SensingCSD_LL.c **** *   This function configures the IDAC modes depend on Compensation IDAC
 487:Generated_Source\PSoC4/CapSense_SensingCSD_LL.c **** *   enabled or disabled.
 488:Generated_Source\PSoC4/CapSense_SensingCSD_LL.c **** *
 489:Generated_Source\PSoC4/CapSense_SensingCSD_LL.c **** *******************************************************************************/
 490:Generated_Source\PSoC4/CapSense_SensingCSD_LL.c **** static void CapSense_SsCSDConfigIDACs(void)
 491:Generated_Source\PSoC4/CapSense_SensingCSD_LL.c **** {
 492:Generated_Source\PSoC4/CapSense_SensingCSD_LL.c ****     #if (CapSense_ENABLE == CapSense_CSDV2)
 493:Generated_Source\PSoC4/CapSense_SensingCSD_LL.c ****         CY_SET_REG32(CapSense_IDAC_MOD_PTR, CapSense_DEFAULT_IDAC_MOD);
 494:Generated_Source\PSoC4/CapSense_SensingCSD_LL.c ****         #if ((CapSense_ENABLE == CapSense_CSD_IDAC_COMP_EN) && \
 495:Generated_Source\PSoC4/CapSense_SensingCSD_LL.c ****              (CapSense_ENABLE == CapSense_CSD_DEDICATED_IDAC_COMP_EN))
 496:Generated_Source\PSoC4/CapSense_SensingCSD_LL.c ****             CY_SET_REG32(CapSense_IDAC_COMP_PTR, (uint32)CapSense_DEFAULT_IDAC_COMP);
 497:Generated_Source\PSoC4/CapSense_SensingCSD_LL.c ****         #endif /* ((CapSense_ENABLE == CapSense_CSD_IDAC_COMP_EN) && \
 498:Generated_Source\PSoC4/CapSense_SensingCSD_LL.c ****                    (CapSense_ENABLE == CapSense_CSD_DEDICATED_IDAC_COMP_EN)) */
 499:Generated_Source\PSoC4/CapSense_SensingCSD_LL.c ****     #else
 500:Generated_Source\PSoC4/CapSense_SensingCSD_LL.c ****         #if (CapSense_ENABLE == CapSense_CSD_IDAC_COMP_EN)
 501:Generated_Source\PSoC4/CapSense_SensingCSD_LL.c ****             CY_SET_REG32(CapSense_IDAC_PTR, CapSense_DEFAULT_CSD_IDAC_CONFIG);
 502:Generated_Source\PSoC4/CapSense_SensingCSD_LL.c ****         #else
 503:Generated_Source\PSoC4/CapSense_SensingCSD_LL.c ****             CY_SET_REG32(CapSense_IDAC_PTR, CY_GET_REG32(CapSense_IDAC_PTR) &
 504:Generated_Source\PSoC4/CapSense_SensingCSD_LL.c ****                                                                 ~(CapSense_IDAC_MOD_MODE_MASK |
 505:Generated_Source\PSoC4/CapSense_SensingCSD_LL.c ****                                                                   CapSense_IDAC_MOD_MASK));
 506:Generated_Source\PSoC4/CapSense_SensingCSD_LL.c ****             CY_SET_REG32(CapSense_IDAC_PTR, CY_GET_REG32(CapSense_IDAC_PTR) |
 507:Generated_Source\PSoC4/CapSense_SensingCSD_LL.c ****                                                                  CapSense_DEFAULT_CSD_IDAC_CONFIG);
 508:Generated_Source\PSoC4/CapSense_SensingCSD_LL.c ****         #endif /* (CapSense_ENABLE == CapSense_CSD_IDAC_COMP_EN) */
 509:Generated_Source\PSoC4/CapSense_SensingCSD_LL.c ****     #endif /* (CapSense_ENABLE == CapSense_CSDV2) */
 510:Generated_Source\PSoC4/CapSense_SensingCSD_LL.c **** }
 511:Generated_Source\PSoC4/CapSense_SensingCSD_LL.c **** 
 512:Generated_Source\PSoC4/CapSense_SensingCSD_LL.c **** 
 513:Generated_Source\PSoC4/CapSense_SensingCSD_LL.c **** /*******************************************************************************
 514:Generated_Source\PSoC4/CapSense_SensingCSD_LL.c **** * Function Name: CapSense_SsCSDInitialize
 515:Generated_Source\PSoC4/CapSense_SensingCSD_LL.c **** ****************************************************************************//**
 516:Generated_Source\PSoC4/CapSense_SensingCSD_LL.c **** *
ARM GAS  C:\Users\Jerry\AppData\Local\Temp\cc2mbs0O.s 			page 11


 517:Generated_Source\PSoC4/CapSense_SensingCSD_LL.c **** * \brief
 518:Generated_Source\PSoC4/CapSense_SensingCSD_LL.c **** *   This API initializes the CSD module.
 519:Generated_Source\PSoC4/CapSense_SensingCSD_LL.c **** *
 520:Generated_Source\PSoC4/CapSense_SensingCSD_LL.c **** * \details
 521:Generated_Source\PSoC4/CapSense_SensingCSD_LL.c **** *   The function performs the following steps for CSDv2 HW block:
 522:Generated_Source\PSoC4/CapSense_SensingCSD_LL.c **** *   1) Sets GPIO output to "0" for all sensor pins;
 523:Generated_Source\PSoC4/CapSense_SensingCSD_LL.c **** *   2) Connects CMOD to AMUXBUS-A and to CSDBUS-A;
 524:Generated_Source\PSoC4/CapSense_SensingCSD_LL.c **** *   3) Connects CMOD to (sense path) to CSDCOMP;
 525:Generated_Source\PSoC4/CapSense_SensingCSD_LL.c **** *   4) Connects Csh_tank to AMUXBUS-B and to CSDBUS-B;
 526:Generated_Source\PSoC4/CapSense_SensingCSD_LL.c **** *   5) Connects VREF to REFGEN;
 527:Generated_Source\PSoC4/CapSense_SensingCSD_LL.c **** *   6) Configures REFGEN and sets the reference voltage;
 528:Generated_Source\PSoC4/CapSense_SensingCSD_LL.c **** *   7) Connects VREF to CSDCOMP and HSCOMP;
 529:Generated_Source\PSoC4/CapSense_SensingCSD_LL.c **** *   8) Configures IDAC and connect to CSDBUS-A (to drive CMOD);
 530:Generated_Source\PSoC4/CapSense_SensingCSD_LL.c **** *   9) Configures ModClk;
 531:Generated_Source\PSoC4/CapSense_SensingCSD_LL.c **** *   10) Configure SnsClk source;
 532:Generated_Source\PSoC4/CapSense_SensingCSD_LL.c **** *   11) Sets other CSD configurations (Csd Auto Zero time,
 533:Generated_Source\PSoC4/CapSense_SensingCSD_LL.c **** *       Sample Init period, interrupts,
 534:Generated_Source\PSoC4/CapSense_SensingCSD_LL.c **** *       CMOD and Csh_tank/shield initialization switch resistance).
 535:Generated_Source\PSoC4/CapSense_SensingCSD_LL.c **** *
 536:Generated_Source\PSoC4/CapSense_SensingCSD_LL.c **** *   The function performs the following steps for CSDv1 HW block:
 537:Generated_Source\PSoC4/CapSense_SensingCSD_LL.c **** *   1) Sets all the sensors to the inactive state;
 538:Generated_Source\PSoC4/CapSense_SensingCSD_LL.c **** *   2) Enables Shield Electrodes;
 539:Generated_Source\PSoC4/CapSense_SensingCSD_LL.c **** *   3) Configures the CSD block and IDACs;
 540:Generated_Source\PSoC4/CapSense_SensingCSD_LL.c **** *   4) Connects Cmod to AMUXBUS-A;
 541:Generated_Source\PSoC4/CapSense_SensingCSD_LL.c **** *   5) Enables the clocks;
 542:Generated_Source\PSoC4/CapSense_SensingCSD_LL.c **** *   6) Sets the shield delay;
 543:Generated_Source\PSoC4/CapSense_SensingCSD_LL.c **** *   7) Enables the CSD block; connects Vref Buffer to the AMUX bus.
 544:Generated_Source\PSoC4/CapSense_SensingCSD_LL.c **** *
 545:Generated_Source\PSoC4/CapSense_SensingCSD_LL.c **** *******************************************************************************/
 546:Generated_Source\PSoC4/CapSense_SensingCSD_LL.c **** void CapSense_SsCSDInitialize(void)
 547:Generated_Source\PSoC4/CapSense_SensingCSD_LL.c **** {
  55              		.loc 1 547 0
  56              		.cfi_startproc
  57 0000 70B5     		push	{r4, r5, r6, lr}
  58              		.cfi_def_cfa_offset 16
  59              		.cfi_offset 4, -16
  60              		.cfi_offset 5, -12
  61              		.cfi_offset 6, -8
  62              		.cfi_offset 14, -4
 548:Generated_Source\PSoC4/CapSense_SensingCSD_LL.c ****     uint32 newRegValue;
 549:Generated_Source\PSoC4/CapSense_SensingCSD_LL.c **** 
 550:Generated_Source\PSoC4/CapSense_SensingCSD_LL.c ****     /* Set all sensors to inactive state */
 551:Generated_Source\PSoC4/CapSense_SensingCSD_LL.c ****     CapSense_SsClearCSDSensors();
  63              		.loc 1 551 0
  64 0002 FFF7FEFF 		bl	CapSense_SsClearCSDSensors
  65              	.LVL3:
 552:Generated_Source\PSoC4/CapSense_SensingCSD_LL.c **** 
 553:Generated_Source\PSoC4/CapSense_SensingCSD_LL.c ****     #if (CapSense_ENABLE == CapSense_CSD_SHIELD_EN)
 554:Generated_Source\PSoC4/CapSense_SensingCSD_LL.c ****         /* Connect shields to AMUX-B bus (config HSIOM regs) */
 555:Generated_Source\PSoC4/CapSense_SensingCSD_LL.c ****         #if (0u != CapSense_CSD_TOTAL_SHIELD_COUNT)
 556:Generated_Source\PSoC4/CapSense_SensingCSD_LL.c ****             CapSense_SsCSDEnableShieldElectrodes();
 557:Generated_Source\PSoC4/CapSense_SensingCSD_LL.c ****         #endif /* (0u != CapSense_CSD_TOTAL_SHIELD_COUNT) */
 558:Generated_Source\PSoC4/CapSense_SensingCSD_LL.c **** 
 559:Generated_Source\PSoC4/CapSense_SensingCSD_LL.c ****         #if (CapSense_ENABLE == CapSense_CSD_SHIELD_TANK_EN)
 560:Generated_Source\PSoC4/CapSense_SensingCSD_LL.c ****             /* Configure Csh */
 561:Generated_Source\PSoC4/CapSense_SensingCSD_LL.c ****             CapSense_SsCSDEnableShieldTank();
 562:Generated_Source\PSoC4/CapSense_SensingCSD_LL.c ****         #endif /* (CapSense_ENABLE == CapSense_CSD_SHIELD_TANK_EN) */
ARM GAS  C:\Users\Jerry\AppData\Local\Temp\cc2mbs0O.s 			page 12


 563:Generated_Source\PSoC4/CapSense_SensingCSD_LL.c ****     #endif /* (CapSense_ENABLE == CapSense_CSD_SHIELD_EN) */
 564:Generated_Source\PSoC4/CapSense_SensingCSD_LL.c **** 
 565:Generated_Source\PSoC4/CapSense_SensingCSD_LL.c ****     #if (CapSense_ENABLE == CapSense_CSDV2)
 566:Generated_Source\PSoC4/CapSense_SensingCSD_LL.c **** 
 567:Generated_Source\PSoC4/CapSense_SensingCSD_LL.c ****         /* Initialize the unused CSD IP registers to defaut state */
 568:Generated_Source\PSoC4/CapSense_SensingCSD_LL.c ****         CY_SET_REG32(CapSense_INTR_SET_PTR,         CapSense_DEFAULT_CSD_INTR_SET);
  66              		.loc 1 568 0
  67 0006 0023     		mov	r3, #0
 569:Generated_Source\PSoC4/CapSense_SensingCSD_LL.c ****         CY_SET_REG32(CapSense_SW_FW_TANK_SEL_PTR,   CapSense_DEFAULT_CSD_SW_FW_TANK_SEL);
 570:Generated_Source\PSoC4/CapSense_SensingCSD_LL.c ****         CY_SET_REG32(CapSense_SW_DSI_SEL_PTR,       CapSense_DEFAULT_CSD_SW_DSI_SEL);
 571:Generated_Source\PSoC4/CapSense_SensingCSD_LL.c ****         CY_SET_REG32(CapSense_ADC_CTL_PTR,          CapSense_DEFAULT_CSD_ADC_CTL);
 572:Generated_Source\PSoC4/CapSense_SensingCSD_LL.c ****         CY_SET_REG32(CapSense_AMBUF_PTR,            CapSense_AMBUF_PWR_MODE_OFF);
 573:Generated_Source\PSoC4/CapSense_SensingCSD_LL.c ****         CY_SET_REG32(CapSense_SW_SHIELD_SEL_PTR,    CapSense_DEFAULT_SW_SHIELD_SEL);
 574:Generated_Source\PSoC4/CapSense_SensingCSD_LL.c ****         CY_SET_REG32(CapSense_SW_HS_P_SEL_PTR,      CapSense_DEFAULT_SW_HS_P_SEL);
 575:Generated_Source\PSoC4/CapSense_SensingCSD_LL.c ****         CY_SET_REG32(CapSense_SW_HS_N_SEL_PTR,      CapSense_DEFAULT_SW_HS_N_SEL);
 576:Generated_Source\PSoC4/CapSense_SensingCSD_LL.c ****         CY_SET_REG32(CapSense_HSCMP_PTR,            CapSense_DEFAULT_HSCMP_CFG);
 577:Generated_Source\PSoC4/CapSense_SensingCSD_LL.c **** 
 578:Generated_Source\PSoC4/CapSense_SensingCSD_LL.c ****         /* Connect CMOD to AMUXBUS-A */
 579:Generated_Source\PSoC4/CapSense_SensingCSD_LL.c ****         newRegValue = CY_GET_REG32(CapSense_CMOD_HSIOM_PTR);
 580:Generated_Source\PSoC4/CapSense_SensingCSD_LL.c ****         newRegValue &= (uint32)(~(uint32)CapSense_CMOD_HSIOM_MASK);
  68              		.loc 1 580 0
  69 0008 0F20     		mov	r0, #15
 568:Generated_Source\PSoC4/CapSense_SensingCSD_LL.c ****         CY_SET_REG32(CapSense_SW_FW_TANK_SEL_PTR,   CapSense_DEFAULT_CSD_SW_FW_TANK_SEL);
  70              		.loc 1 568 0
  71 000a 324A     		ldr	r2, .L9
 576:Generated_Source\PSoC4/CapSense_SensingCSD_LL.c **** 
  72              		.loc 1 576 0
  73 000c 3249     		ldr	r1, .L9+4
 568:Generated_Source\PSoC4/CapSense_SensingCSD_LL.c ****         CY_SET_REG32(CapSense_SW_FW_TANK_SEL_PTR,   CapSense_DEFAULT_CSD_SW_FW_TANK_SEL);
  74              		.loc 1 568 0
  75 000e 1360     		str	r3, [r2]
 569:Generated_Source\PSoC4/CapSense_SensingCSD_LL.c ****         CY_SET_REG32(CapSense_SW_FW_TANK_SEL_PTR,   CapSense_DEFAULT_CSD_SW_FW_TANK_SEL);
  76              		.loc 1 569 0
  77 0010 324A     		ldr	r2, .L9+8
 581:Generated_Source\PSoC4/CapSense_SensingCSD_LL.c ****         newRegValue |= (CapSense_HSIOM_SEL_AMUXA << CapSense_CMOD_HSIOM_SHIFT);
 582:Generated_Source\PSoC4/CapSense_SensingCSD_LL.c ****         CY_SET_REG32(CapSense_CMOD_HSIOM_PTR, newRegValue);
 583:Generated_Source\PSoC4/CapSense_SensingCSD_LL.c **** 
 584:Generated_Source\PSoC4/CapSense_SensingCSD_LL.c ****         /* Connect AMUXBUS-A to CSDBUS-A */
 585:Generated_Source\PSoC4/CapSense_SensingCSD_LL.c ****         newRegValue = CY_GET_REG32(CapSense_SW_BYP_SEL_PTR);
 586:Generated_Source\PSoC4/CapSense_SensingCSD_LL.c ****         newRegValue |= CapSense_SW_BYP_SEL_SW_BYA_MASK;
 587:Generated_Source\PSoC4/CapSense_SensingCSD_LL.c ****         CY_SET_REG32(CapSense_SW_BYP_SEL_PTR, newRegValue);
 588:Generated_Source\PSoC4/CapSense_SensingCSD_LL.c **** 
 589:Generated_Source\PSoC4/CapSense_SensingCSD_LL.c ****         /* Connect CMOD to (sense path) to CSDCOMP */
 590:Generated_Source\PSoC4/CapSense_SensingCSD_LL.c ****         #if (CapSense_CMOD_PAD == CapSense_CMOD_CONNECTION)
 591:Generated_Source\PSoC4/CapSense_SensingCSD_LL.c ****             CY_SET_REG32(CapSense_SW_CMP_P_SEL_PTR, CapSense_SW_CMP_P_SEL_SW_SFPM_STATIC_CLOSE);
 592:Generated_Source\PSoC4/CapSense_SensingCSD_LL.c ****         #elif (CapSense_CSHIELD_PAD == CapSense_CMOD_CONNECTION)
 593:Generated_Source\PSoC4/CapSense_SensingCSD_LL.c ****             CY_SET_REG32(CapSense_SW_CMP_P_SEL_PTR, CapSense_SW_CMP_P_SEL_SW_SFPS_STATIC_CLOSE);
 594:Generated_Source\PSoC4/CapSense_SensingCSD_LL.c ****         #else
 595:Generated_Source\PSoC4/CapSense_SensingCSD_LL.c ****             CY_SET_REG32(CapSense_SW_CMP_P_SEL_PTR, CapSense_SW_CMP_P_SEL_SW_SFPT_STATIC_CLOSE);
 596:Generated_Source\PSoC4/CapSense_SensingCSD_LL.c ****         #endif /* (CapSense_CMOD_PAD == CapSense_CMOD_CONNECTION) */
 597:Generated_Source\PSoC4/CapSense_SensingCSD_LL.c **** 
 598:Generated_Source\PSoC4/CapSense_SensingCSD_LL.c ****         /* Configure shield driving path */
 599:Generated_Source\PSoC4/CapSense_SensingCSD_LL.c ****         #if (CapSense_ENABLE == CapSense_CSD_SHIELD_EN)
 600:Generated_Source\PSoC4/CapSense_SensingCSD_LL.c ****             /* Connect AMUXBUS-B to CSDBUS-B (and AMUXBUS-A to CSDBUS-A ) */
 601:Generated_Source\PSoC4/CapSense_SensingCSD_LL.c ****             CY_SET_REG32(CapSense_SW_BYP_SEL_PTR, CapSense_SW_BYP_SEL_SW_BYA_MASK | CapSense_SW_BYP
 602:Generated_Source\PSoC4/CapSense_SensingCSD_LL.c **** 
 603:Generated_Source\PSoC4/CapSense_SensingCSD_LL.c ****             /* Connect AMUXBUS-B to HSCMP positive input */
ARM GAS  C:\Users\Jerry\AppData\Local\Temp\cc2mbs0O.s 			page 13


 604:Generated_Source\PSoC4/CapSense_SensingCSD_LL.c ****             CY_SET_REG32(CapSense_SW_HS_P_SEL_PTR, CapSense_SW_HS_P_SEL_SW_HMMB_STATIC_CLOSE);
 605:Generated_Source\PSoC4/CapSense_SensingCSD_LL.c ****         #endif /* (CapSense_ENABLE == CapSense_CSD_SHIELD_EN) */
 606:Generated_Source\PSoC4/CapSense_SensingCSD_LL.c **** 
 607:Generated_Source\PSoC4/CapSense_SensingCSD_LL.c ****         /* Configure VREF */
 608:Generated_Source\PSoC4/CapSense_SensingCSD_LL.c ****         #if (CapSense_ENABLE == CapSense_CSD_IDAC_COMP_EN) && (CapSense_ENABLE == CapSense_CSD_DEDI
 609:Generated_Source\PSoC4/CapSense_SensingCSD_LL.c ****             /* Connect VREF to REFGEN. Connect IDACB to CSDBUSA */
 610:Generated_Source\PSoC4/CapSense_SensingCSD_LL.c ****             newRegValue = CY_GET_REG32(CapSense_SW_REFGEN_SEL_PTR);
 611:Generated_Source\PSoC4/CapSense_SensingCSD_LL.c ****             newRegValue |= CapSense_SW_REFGEN_SEL_SW_SGR_MASK | CapSense_SW_REFGEN_SEL_SW_IAIB_MASK
 612:Generated_Source\PSoC4/CapSense_SensingCSD_LL.c ****             CY_SET_REG32(CapSense_SW_REFGEN_SEL_PTR, newRegValue);
 613:Generated_Source\PSoC4/CapSense_SensingCSD_LL.c ****         #else
 614:Generated_Source\PSoC4/CapSense_SensingCSD_LL.c ****             /* Connect VREF to REFGEN (IAIB switch is open) */
 615:Generated_Source\PSoC4/CapSense_SensingCSD_LL.c ****             newRegValue = CY_GET_REG32(CapSense_SW_REFGEN_SEL_PTR);
 616:Generated_Source\PSoC4/CapSense_SensingCSD_LL.c ****             newRegValue |= CapSense_SW_REFGEN_SEL_SW_SGR_MASK;
 617:Generated_Source\PSoC4/CapSense_SensingCSD_LL.c ****             CY_SET_REG32(CapSense_SW_REFGEN_SEL_PTR, newRegValue);
 618:Generated_Source\PSoC4/CapSense_SensingCSD_LL.c ****         #endif /* (CapSense_ENABLE == CapSense_CSD_IDAC_COMP_EN) && (CapSense_ENABLE == CapSense_CS
 619:Generated_Source\PSoC4/CapSense_SensingCSD_LL.c **** 
 620:Generated_Source\PSoC4/CapSense_SensingCSD_LL.c ****         #if (CapSense_2000_MV > CapSense_CYDEV_VDDA_MV)
 621:Generated_Source\PSoC4/CapSense_SensingCSD_LL.c **** 
 622:Generated_Source\PSoC4/CapSense_SensingCSD_LL.c ****             /* Connect VREFLOW (from AMBUF and RefGen is in bypass mode) to CSDCOMP when Vdda < 2 V
 623:Generated_Source\PSoC4/CapSense_SensingCSD_LL.c ****             CY_SET_REG32(CapSense_SW_CMP_N_SEL_PTR, CapSense_SW_CMP_N_SEL_SW_SCRL_STATIC_CLOSE);
 624:Generated_Source\PSoC4/CapSense_SensingCSD_LL.c **** 
 625:Generated_Source\PSoC4/CapSense_SensingCSD_LL.c ****             /* Configure REFGEN to BYPASS mode when Vdda < 2 V */
 626:Generated_Source\PSoC4/CapSense_SensingCSD_LL.c ****             CY_SET_REG32(CapSense_REFGEN_PTR, CapSense_REFGEN_REFGEN_EN_MASK |
 627:Generated_Source\PSoC4/CapSense_SensingCSD_LL.c ****                                                       CapSense_REFGEN_BYPASS_MASK |
 628:Generated_Source\PSoC4/CapSense_SensingCSD_LL.c ****                                                       CapSense_REFGEN_VREFLO_INT_MASK);
 629:Generated_Source\PSoC4/CapSense_SensingCSD_LL.c **** 
 630:Generated_Source\PSoC4/CapSense_SensingCSD_LL.c ****             /*  Connect Vrefhi to AMUBUF positive input when Vdaa < 2V
 631:Generated_Source\PSoC4/CapSense_SensingCSD_LL.c ****              *  Connect AMUBUF to SCDCMP negative input when Vdaa < 2V
 632:Generated_Source\PSoC4/CapSense_SensingCSD_LL.c ****              */
 633:Generated_Source\PSoC4/CapSense_SensingCSD_LL.c ****             CY_SET_REG32(CapSense_SW_AMUXBUF_SEL_PTR, CapSense_SW_AMUXBUF_SEL_SW_IRH_STATIC_CLOSE |
 634:Generated_Source\PSoC4/CapSense_SensingCSD_LL.c ****                                                               CapSense_SW_AMUXBUF_SEL_SW_IRLB_STATI
 635:Generated_Source\PSoC4/CapSense_SensingCSD_LL.c **** 
 636:Generated_Source\PSoC4/CapSense_SensingCSD_LL.c ****             /* Turn on CSD_AMBUF normal power level when Vdaa < 2V */
 637:Generated_Source\PSoC4/CapSense_SensingCSD_LL.c ****             CY_SET_REG32(CapSense_AMBUF_PTR, CapSense_AMBUF_PWR_MODE_NORM);
 638:Generated_Source\PSoC4/CapSense_SensingCSD_LL.c ****         #else
 639:Generated_Source\PSoC4/CapSense_SensingCSD_LL.c **** 
 640:Generated_Source\PSoC4/CapSense_SensingCSD_LL.c ****             /* Connect VREFHI (from RefGen) to CSDCOMP when Vdda >= 2 V */
 641:Generated_Source\PSoC4/CapSense_SensingCSD_LL.c ****             CY_SET_REG32(CapSense_SW_CMP_N_SEL_PTR, CapSense_SW_CMP_N_SEL_SW_SCRH_STATIC_CLOSE);
 642:Generated_Source\PSoC4/CapSense_SensingCSD_LL.c **** 
 643:Generated_Source\PSoC4/CapSense_SensingCSD_LL.c ****             #if (CapSense_ENABLE == CapSense_CSD_SHIELD_EN)
 644:Generated_Source\PSoC4/CapSense_SensingCSD_LL.c **** 
 645:Generated_Source\PSoC4/CapSense_SensingCSD_LL.c ****                 /* Configure REFGEN. Set reference voltage when Vdda >= 2 V */
 646:Generated_Source\PSoC4/CapSense_SensingCSD_LL.c ****                 CY_SET_REG32(CapSense_REFGEN_PTR, CapSense_REFGEN_WITH_SHIELD);
 647:Generated_Source\PSoC4/CapSense_SensingCSD_LL.c **** 
 648:Generated_Source\PSoC4/CapSense_SensingCSD_LL.c ****                 /* Turn on CSD_AMBUF high power level when Vdaa >= 2V */
 649:Generated_Source\PSoC4/CapSense_SensingCSD_LL.c ****                 CY_SET_REG32(CapSense_AMBUF_PTR, CapSense_AMBUF_PWR_MODE_HI);
 650:Generated_Source\PSoC4/CapSense_SensingCSD_LL.c ****             #else
 651:Generated_Source\PSoC4/CapSense_SensingCSD_LL.c **** 
 652:Generated_Source\PSoC4/CapSense_SensingCSD_LL.c ****                 /* Configure REFGEN. Set reference voltage when Vdda >= 2 V */
 653:Generated_Source\PSoC4/CapSense_SensingCSD_LL.c ****                 CY_SET_REG32(CapSense_REFGEN_PTR, CapSense_REFGEN_NO_SHIELD);
 654:Generated_Source\PSoC4/CapSense_SensingCSD_LL.c **** 
 655:Generated_Source\PSoC4/CapSense_SensingCSD_LL.c ****                 /* Connect VREFHI to HSCOMP */
 656:Generated_Source\PSoC4/CapSense_SensingCSD_LL.c ****                 CY_SET_REG32(CapSense_SW_HS_N_SEL_PTR, CapSense_SW_HS_N_SEL_SW_HCRH_STATIC_CLOSE);
 657:Generated_Source\PSoC4/CapSense_SensingCSD_LL.c ****             #endif /* (CapSense_ENABLE == CapSense_CSD_SHIELD_EN) */
 658:Generated_Source\PSoC4/CapSense_SensingCSD_LL.c **** 
 659:Generated_Source\PSoC4/CapSense_SensingCSD_LL.c ****             /* Make sure that CSD_AMBUF is unconnected from Vrefhi and from Vreflo */
 660:Generated_Source\PSoC4/CapSense_SensingCSD_LL.c ****             CY_SET_REG32(CapSense_SW_AMUXBUF_SEL_PTR, CapSense_SW_AMUXBUF_SEL_SW_DEFAULT);
ARM GAS  C:\Users\Jerry\AppData\Local\Temp\cc2mbs0O.s 			page 14


 661:Generated_Source\PSoC4/CapSense_SensingCSD_LL.c **** 
 662:Generated_Source\PSoC4/CapSense_SensingCSD_LL.c ****         #endif /* (CapSense_2000_MV > CapSense_CYDEV_VDDA_MV) */
 663:Generated_Source\PSoC4/CapSense_SensingCSD_LL.c **** 
 664:Generated_Source\PSoC4/CapSense_SensingCSD_LL.c ****         /* Configure IDACs mode */
 665:Generated_Source\PSoC4/CapSense_SensingCSD_LL.c ****         CapSense_SsCSDConfigIDACs();
 666:Generated_Source\PSoC4/CapSense_SensingCSD_LL.c **** 
 667:Generated_Source\PSoC4/CapSense_SensingCSD_LL.c ****         /* Configure ModClk */
 668:Generated_Source\PSoC4/CapSense_SensingCSD_LL.c ****         CapSense_SsSetModClkClockDivider((uint32)CapSense_dsRam.modCsdClk);
  78              		.loc 1 668 0
  79 0012 334E     		ldr	r6, .L9+12
 569:Generated_Source\PSoC4/CapSense_SensingCSD_LL.c ****         CY_SET_REG32(CapSense_SW_DSI_SEL_PTR,       CapSense_DEFAULT_CSD_SW_DSI_SEL);
  80              		.loc 1 569 0
  81 0014 1360     		str	r3, [r2]
 570:Generated_Source\PSoC4/CapSense_SensingCSD_LL.c ****         CY_SET_REG32(CapSense_ADC_CTL_PTR,          CapSense_DEFAULT_CSD_ADC_CTL);
  82              		.loc 1 570 0
  83 0016 334A     		ldr	r2, .L9+16
  84 0018 1360     		str	r3, [r2]
 571:Generated_Source\PSoC4/CapSense_SensingCSD_LL.c ****         CY_SET_REG32(CapSense_AMBUF_PTR,            CapSense_AMBUF_PWR_MODE_OFF);
  85              		.loc 1 571 0
  86 001a 334A     		ldr	r2, .L9+20
  87 001c 1360     		str	r3, [r2]
 572:Generated_Source\PSoC4/CapSense_SensingCSD_LL.c ****         CY_SET_REG32(CapSense_SW_SHIELD_SEL_PTR,    CapSense_DEFAULT_SW_SHIELD_SEL);
  88              		.loc 1 572 0
  89 001e 334A     		ldr	r2, .L9+24
  90 0020 1360     		str	r3, [r2]
 573:Generated_Source\PSoC4/CapSense_SensingCSD_LL.c ****         CY_SET_REG32(CapSense_SW_HS_P_SEL_PTR,      CapSense_DEFAULT_SW_HS_P_SEL);
  91              		.loc 1 573 0
  92 0022 334A     		ldr	r2, .L9+28
  93 0024 1360     		str	r3, [r2]
 574:Generated_Source\PSoC4/CapSense_SensingCSD_LL.c ****         CY_SET_REG32(CapSense_SW_HS_N_SEL_PTR,      CapSense_DEFAULT_SW_HS_N_SEL);
  94              		.loc 1 574 0
  95 0026 334A     		ldr	r2, .L9+32
  96 0028 1360     		str	r3, [r2]
 575:Generated_Source\PSoC4/CapSense_SensingCSD_LL.c ****         CY_SET_REG32(CapSense_HSCMP_PTR,            CapSense_DEFAULT_HSCMP_CFG);
  97              		.loc 1 575 0
  98 002a 334A     		ldr	r2, .L9+36
  99 002c 1360     		str	r3, [r2]
 576:Generated_Source\PSoC4/CapSense_SensingCSD_LL.c **** 
 100              		.loc 1 576 0
 101 002e 0B60     		str	r3, [r1]
 579:Generated_Source\PSoC4/CapSense_SensingCSD_LL.c ****         newRegValue &= (uint32)(~(uint32)CapSense_CMOD_HSIOM_MASK);
 102              		.loc 1 579 0
 103 0030 3249     		ldr	r1, .L9+40
 104 0032 0B68     		ldr	r3, [r1]
 105              	.LVL4:
 580:Generated_Source\PSoC4/CapSense_SensingCSD_LL.c ****         newRegValue |= (CapSense_HSIOM_SEL_AMUXA << CapSense_CMOD_HSIOM_SHIFT);
 106              		.loc 1 580 0
 107 0034 8343     		bic	r3, r0
 108              	.LVL5:
 581:Generated_Source\PSoC4/CapSense_SensingCSD_LL.c ****         CY_SET_REG32(CapSense_CMOD_HSIOM_PTR, newRegValue);
 109              		.loc 1 581 0
 110 0036 0938     		sub	r0, r0, #9
 111 0038 0343     		orr	r3, r0
 112              	.LVL6:
 586:Generated_Source\PSoC4/CapSense_SensingCSD_LL.c ****         CY_SET_REG32(CapSense_SW_BYP_SEL_PTR, newRegValue);
 113              		.loc 1 586 0
 114 003a 8020     		mov	r0, #128
ARM GAS  C:\Users\Jerry\AppData\Local\Temp\cc2mbs0O.s 			page 15


 582:Generated_Source\PSoC4/CapSense_SensingCSD_LL.c **** 
 115              		.loc 1 582 0
 116 003c 0B60     		str	r3, [r1]
 585:Generated_Source\PSoC4/CapSense_SensingCSD_LL.c ****         newRegValue |= CapSense_SW_BYP_SEL_SW_BYA_MASK;
 117              		.loc 1 585 0
 118 003e 3049     		ldr	r1, .L9+44
 586:Generated_Source\PSoC4/CapSense_SensingCSD_LL.c ****         CY_SET_REG32(CapSense_SW_BYP_SEL_PTR, newRegValue);
 119              		.loc 1 586 0
 120 0040 4001     		lsl	r0, r0, #5
 585:Generated_Source\PSoC4/CapSense_SensingCSD_LL.c ****         newRegValue |= CapSense_SW_BYP_SEL_SW_BYA_MASK;
 121              		.loc 1 585 0
 122 0042 0B68     		ldr	r3, [r1]
 123              	.LVL7:
 586:Generated_Source\PSoC4/CapSense_SensingCSD_LL.c ****         CY_SET_REG32(CapSense_SW_BYP_SEL_PTR, newRegValue);
 124              		.loc 1 586 0
 125 0044 0343     		orr	r3, r0
 126              	.LVL8:
 587:Generated_Source\PSoC4/CapSense_SensingCSD_LL.c **** 
 127              		.loc 1 587 0
 128 0046 0B60     		str	r3, [r1]
 593:Generated_Source\PSoC4/CapSense_SensingCSD_LL.c ****         #else
 129              		.loc 1 593 0
 130 0048 8021     		mov	r1, #128
 131 004a 2E4B     		ldr	r3, .L9+48
 132              	.LVL9:
 133 004c 4900     		lsl	r1, r1, #1
 134 004e 1960     		str	r1, [r3]
 135              	.LVL10:
 610:Generated_Source\PSoC4/CapSense_SensingCSD_LL.c ****             newRegValue |= CapSense_SW_REFGEN_SEL_SW_SGR_MASK | CapSense_SW_REFGEN_SEL_SW_IAIB_MASK
 136              		.loc 1 610 0
 137 0050 2D49     		ldr	r1, .L9+52
 611:Generated_Source\PSoC4/CapSense_SensingCSD_LL.c ****             CY_SET_REG32(CapSense_SW_REFGEN_SEL_PTR, newRegValue);
 138              		.loc 1 611 0
 139 0052 2E48     		ldr	r0, .L9+56
 610:Generated_Source\PSoC4/CapSense_SensingCSD_LL.c ****             newRegValue |= CapSense_SW_REFGEN_SEL_SW_SGR_MASK | CapSense_SW_REFGEN_SEL_SW_IAIB_MASK
 140              		.loc 1 610 0
 141 0054 0B68     		ldr	r3, [r1]
 142              	.LVL11:
 611:Generated_Source\PSoC4/CapSense_SensingCSD_LL.c ****             CY_SET_REG32(CapSense_SW_REFGEN_SEL_PTR, newRegValue);
 143              		.loc 1 611 0
 144 0056 0343     		orr	r3, r0
 145              	.LVL12:
 612:Generated_Source\PSoC4/CapSense_SensingCSD_LL.c ****         #else
 146              		.loc 1 612 0
 147 0058 0B60     		str	r3, [r1]
 641:Generated_Source\PSoC4/CapSense_SensingCSD_LL.c **** 
 148              		.loc 1 641 0
 149 005a 8023     		mov	r3, #128
 150              	.LVL13:
 151 005c 2C49     		ldr	r1, .L9+60
 152              	.LVL14:
 153 005e 5B04     		lsl	r3, r3, #17
 154 0060 0B60     		str	r3, [r1]
 155              	.LVL15:
 653:Generated_Source\PSoC4/CapSense_SensingCSD_LL.c **** 
 156              		.loc 1 653 0
 157 0062 2C48     		ldr	r0, .L9+64
ARM GAS  C:\Users\Jerry\AppData\Local\Temp\cc2mbs0O.s 			page 16


 158 0064 2C49     		ldr	r1, .L9+68
 159 0066 0860     		str	r0, [r1]
 656:Generated_Source\PSoC4/CapSense_SensingCSD_LL.c ****             #endif /* (CapSense_ENABLE == CapSense_CSD_SHIELD_EN) */
 160              		.loc 1 656 0
 161 0068 1360     		str	r3, [r2]
 660:Generated_Source\PSoC4/CapSense_SensingCSD_LL.c **** 
 162              		.loc 1 660 0
 163 006a 2C4A     		ldr	r2, .L9+72
 164 006c 2C4B     		ldr	r3, .L9+76
 165 006e 1A60     		str	r2, [r3]
 166              	.LBB8:
 167              	.LBB9:
 493:Generated_Source\PSoC4/CapSense_SensingCSD_LL.c ****         #if ((CapSense_ENABLE == CapSense_CSD_IDAC_COMP_EN) && \
 168              		.loc 1 493 0
 169 0070 2C4A     		ldr	r2, .L9+80
 170 0072 2D4B     		ldr	r3, .L9+84
 171 0074 1A60     		str	r2, [r3]
 496:Generated_Source\PSoC4/CapSense_SensingCSD_LL.c ****         #endif /* ((CapSense_ENABLE == CapSense_CSD_IDAC_COMP_EN) && \
 172              		.loc 1 496 0
 173 0076 C122     		mov	r2, #193
 174 0078 2C4B     		ldr	r3, .L9+88
 175 007a 5204     		lsl	r2, r2, #17
 176 007c 1A60     		str	r2, [r3]
 177              	.LBE9:
 178              	.LBE8:
 179              		.loc 1 668 0
 180 007e 307E     		ldrb	r0, [r6, #24]
 181 0080 FFF7FEFF 		bl	CapSense_SsSetModClkClockDivider
 182              	.LVL16:
 183              	.LBB10:
 184              	.LBB11:
 455:Generated_Source\PSoC4/CapSense_SensingCSD_LL.c **** 
 185              		.loc 1 455 0
 186 0084 7023     		mov	r3, #112
 187 0086 2A4C     		ldr	r4, .L9+92
 458:Generated_Source\PSoC4/CapSense_SensingCSD_LL.c ****             if(sampleClkFreqHz <= CapSense_MOD_CSD_CLK_12MHZ)
 188              		.loc 1 458 0
 189 0088 317E     		ldrb	r1, [r6, #24]
 455:Generated_Source\PSoC4/CapSense_SensingCSD_LL.c **** 
 190              		.loc 1 455 0
 191 008a 2568     		ldr	r5, [r4]
 458:Generated_Source\PSoC4/CapSense_SensingCSD_LL.c ****             if(sampleClkFreqHz <= CapSense_MOD_CSD_CLK_12MHZ)
 192              		.loc 1 458 0
 193 008c 2948     		ldr	r0, .L9+96
 455:Generated_Source\PSoC4/CapSense_SensingCSD_LL.c **** 
 194              		.loc 1 455 0
 195 008e 9D43     		bic	r5, r3
 196              	.LVL17:
 458:Generated_Source\PSoC4/CapSense_SensingCSD_LL.c ****             if(sampleClkFreqHz <= CapSense_MOD_CSD_CLK_12MHZ)
 197              		.loc 1 458 0
 198 0090 FFF7FEFF 		bl	__aeabi_uidiv
 199              	.LVL18:
 459:Generated_Source\PSoC4/CapSense_SensingCSD_LL.c ****             {
 200              		.loc 1 459 0
 201 0094 284A     		ldr	r2, .L9+100
 202 0096 231C     		mov	r3, r4
 203 0098 9042     		cmp	r0, r2
ARM GAS  C:\Users\Jerry\AppData\Local\Temp\cc2mbs0O.s 			page 17


 204 009a 01D8     		bhi	.L5
 461:Generated_Source\PSoC4/CapSense_SensingCSD_LL.c ****             }
 205              		.loc 1 461 0
 206 009c 2022     		mov	r2, #32
 207 009e 00E0     		b	.L7
 208              	.L5:
 465:Generated_Source\PSoC4/CapSense_SensingCSD_LL.c ****             }
 209              		.loc 1 465 0
 210 00a0 3022     		mov	r2, #48
 211              	.L7:
 212 00a2 1543     		orr	r5, r2
 213 00a4 1D60     		str	r5, [r3]
 214              	.LBE11:
 215              	.LBE10:
 669:Generated_Source\PSoC4/CapSense_SensingCSD_LL.c **** 
 670:Generated_Source\PSoC4/CapSense_SensingCSD_LL.c ****         /* Set other CSD configurations */
 671:Generated_Source\PSoC4/CapSense_SensingCSD_LL.c ****         #if (CapSense_ENABLE == CapSense_CSD_SHIELD_EN)
 672:Generated_Source\PSoC4/CapSense_SensingCSD_LL.c ****             CapSense_SsSetShieldDelay(CapSense_CSD_SHIELD_DELAY);
 673:Generated_Source\PSoC4/CapSense_SensingCSD_LL.c ****         #endif /* (CapSense_ENABLE == CapSense_CSD_SHIELD_EN) */
 674:Generated_Source\PSoC4/CapSense_SensingCSD_LL.c **** 
 675:Generated_Source\PSoC4/CapSense_SensingCSD_LL.c ****         /* Configure CSDv2 filter delay */
 676:Generated_Source\PSoC4/CapSense_SensingCSD_LL.c ****         CapSense_SsCSDSetFilterDelay();
 677:Generated_Source\PSoC4/CapSense_SensingCSD_LL.c **** 
 678:Generated_Source\PSoC4/CapSense_SensingCSD_LL.c ****         #if (CapSense_DISABLE == CapSense_BLOCK_OFF_AFTER_SCAN_EN)
 679:Generated_Source\PSoC4/CapSense_SensingCSD_LL.c ****             /* Enable power to sub-blocks */
 680:Generated_Source\PSoC4/CapSense_SensingCSD_LL.c ****             CY_SET_REG32(CapSense_CONFIG_PTR, CapSense_configCsd |
 216              		.loc 1 680 0
 217 00a6 1B68     		ldr	r3, [r3]
 218 00a8 244A     		ldr	r2, .L9+104
 681:Generated_Source\PSoC4/CapSense_SensingCSD_LL.c ****                                                       CapSense_CONFIG_SENSE_EN_MASK |
 682:Generated_Source\PSoC4/CapSense_SensingCSD_LL.c ****                                                       CapSense_CONFIG_ENABLE_MASK);
 683:Generated_Source\PSoC4/CapSense_SensingCSD_LL.c **** 
 684:Generated_Source\PSoC4/CapSense_SensingCSD_LL.c ****             /*  Wait until CSD block powers ON */
 685:Generated_Source\PSoC4/CapSense_SensingCSD_LL.c ****             CyDelayCycles(CapSense_CSD_ON_DELAY);
 219              		.loc 1 685 0
 220 00aa 4820     		mov	r0, #72
 680:Generated_Source\PSoC4/CapSense_SensingCSD_LL.c ****                                                       CapSense_CONFIG_SENSE_EN_MASK |
 221              		.loc 1 680 0
 222 00ac 1343     		orr	r3, r2
 223 00ae 244A     		ldr	r2, .L9+108
 686:Generated_Source\PSoC4/CapSense_SensingCSD_LL.c ****         #endif /* (CapSense_ENABLE == CapSense_BLOCK_OFF_AFTER_SCAN_EN) */
 687:Generated_Source\PSoC4/CapSense_SensingCSD_LL.c **** 
 688:Generated_Source\PSoC4/CapSense_SensingCSD_LL.c ****         /* Set Csd Auto Zero time (set AZ_TIME bitmask) */
 689:Generated_Source\PSoC4/CapSense_SensingCSD_LL.c ****         CY_SET_REG32(CapSense_SEQ_TIME_PTR, CapSense_CSD_AUTO_ZERO_TIME);
 690:Generated_Source\PSoC4/CapSense_SensingCSD_LL.c **** 
 691:Generated_Source\PSoC4/CapSense_SensingCSD_LL.c ****         /* Select CMOD and Csh_tank/shield initialization switch resistance */
 692:Generated_Source\PSoC4/CapSense_SensingCSD_LL.c ****         CY_SET_REG32(CapSense_SW_RES_PTR, 0x00000000);
 693:Generated_Source\PSoC4/CapSense_SensingCSD_LL.c **** 
 694:Generated_Source\PSoC4/CapSense_SensingCSD_LL.c ****         /* Set the number of dummy fine initialization cycles */
 695:Generated_Source\PSoC4/CapSense_SensingCSD_LL.c ****         CY_SET_REG32(CapSense_SEQ_INIT_CNT_PTR, CapSense_SEQ_INIT_CNT_CONV_CNT_FINE_INIT);
 696:Generated_Source\PSoC4/CapSense_SensingCSD_LL.c **** 
 697:Generated_Source\PSoC4/CapSense_SensingCSD_LL.c ****         /* Set Phi1 and Phi2 switches to non-overlapping (no low EMI)*/
 698:Generated_Source\PSoC4/CapSense_SensingCSD_LL.c ****         CY_SET_REG32(CapSense_SENSE_DUTY_PTR, CapSense_SENSE_DUTY_OVERLAP_PHI1_MASK |
 699:Generated_Source\PSoC4/CapSense_SensingCSD_LL.c ****                                                       CapSense_SENSE_DUTY_OVERLAP_PHI2_MASK);
 700:Generated_Source\PSoC4/CapSense_SensingCSD_LL.c ****     #endif /* (CapSense_ENABLE == CapSense_CSDV2) */
 701:Generated_Source\PSoC4/CapSense_SensingCSD_LL.c **** 
 702:Generated_Source\PSoC4/CapSense_SensingCSD_LL.c ****     #if (CapSense_DISABLE == CapSense_CSDV2)
ARM GAS  C:\Users\Jerry\AppData\Local\Temp\cc2mbs0O.s 			page 18


 703:Generated_Source\PSoC4/CapSense_SensingCSD_LL.c **** 
 704:Generated_Source\PSoC4/CapSense_SensingCSD_LL.c ****         /* Configure IDACs mode */
 705:Generated_Source\PSoC4/CapSense_SensingCSD_LL.c ****         CapSense_SsCSDConfigIDACs();
 706:Generated_Source\PSoC4/CapSense_SensingCSD_LL.c **** 
 707:Generated_Source\PSoC4/CapSense_SensingCSD_LL.c ****         /* Connect Cmod to AMUXBUS-A using HSIOM registers */
 708:Generated_Source\PSoC4/CapSense_SensingCSD_LL.c ****         newRegValue = CY_GET_REG32(CapSense_CMOD_HSIOM_PTR);
 709:Generated_Source\PSoC4/CapSense_SensingCSD_LL.c ****         newRegValue &= (uint32)(~(uint32)CapSense_CMOD_HSIOM_MASK);
 710:Generated_Source\PSoC4/CapSense_SensingCSD_LL.c ****         newRegValue |= (CapSense_HSIOM_SEL_AMUXA << CapSense_CMOD_HSIOM_SHIFT);
 711:Generated_Source\PSoC4/CapSense_SensingCSD_LL.c ****         CY_SET_REG32(CapSense_CMOD_HSIOM_PTR, newRegValue);
 712:Generated_Source\PSoC4/CapSense_SensingCSD_LL.c **** 
 713:Generated_Source\PSoC4/CapSense_SensingCSD_LL.c ****         #if (CapSense_ENABLE == CapSense_CSD_SHIELD_EN)
 714:Generated_Source\PSoC4/CapSense_SensingCSD_LL.c ****             CapSense_SsSetShieldDelay(CapSense_CSD_SHIELD_DELAY);
 715:Generated_Source\PSoC4/CapSense_SensingCSD_LL.c ****         #endif /* (CapSense_ENABLE == CapSense_CSD_SHIELD_EN) */
 716:Generated_Source\PSoC4/CapSense_SensingCSD_LL.c **** 
 717:Generated_Source\PSoC4/CapSense_SensingCSD_LL.c ****         /* Enable CSD block. Connect Vref Buffer to AMUX bus to make sure that Cmod is charged befo
 718:Generated_Source\PSoC4/CapSense_SensingCSD_LL.c ****         #if (CapSense_ENABLE == CapSense_BLOCK_OFF_AFTER_SCAN_EN)
 719:Generated_Source\PSoC4/CapSense_SensingCSD_LL.c ****             CY_SET_REG32(CapSense_CONFIG_PTR, CapSense_configCsd);
 720:Generated_Source\PSoC4/CapSense_SensingCSD_LL.c ****         #else
 721:Generated_Source\PSoC4/CapSense_SensingCSD_LL.c ****             CY_SET_REG32(CapSense_CONFIG_PTR, CapSense_configCsd | CapSense_CTANK_PRECHARGE_CONFIG_
 722:Generated_Source\PSoC4/CapSense_SensingCSD_LL.c ****         #endif /* (CapSense_ENABLE == CapSense_BLOCK_OFF_AFTER_SCAN_EN) */
 723:Generated_Source\PSoC4/CapSense_SensingCSD_LL.c ****     #endif /* (CapSense_DISABLE == CapSense_CSDV2) */
 724:Generated_Source\PSoC4/CapSense_SensingCSD_LL.c **** 
 725:Generated_Source\PSoC4/CapSense_SensingCSD_LL.c ****     #if ((CapSense_ENABLE == CapSense_CSD_COMMON_SNS_CLK_EN) &&\
 726:Generated_Source\PSoC4/CapSense_SensingCSD_LL.c ****          (CapSense_CLK_SOURCE_DIRECT == CapSense_CSD_SNS_CLK_SOURCE))
 727:Generated_Source\PSoC4/CapSense_SensingCSD_LL.c ****          /* Set clock dividers and clock source mode */
 728:Generated_Source\PSoC4/CapSense_SensingCSD_LL.c ****         CapSense_SsCSDConfigClock();
 729:Generated_Source\PSoC4/CapSense_SensingCSD_LL.c ****     #endif /* ((CapSense_ENABLE == CapSense_CSD_COMMON_SNS_CLK_EN) &&\
 730:Generated_Source\PSoC4/CapSense_SensingCSD_LL.c ****                (CapSense_CLK_SOURCE_DIRECT == CapSense_CSD_SNS_CLK_SOURCE)) */
 731:Generated_Source\PSoC4/CapSense_SensingCSD_LL.c **** }
 224              		.loc 1 731 0
 225              		@ sp needed
 680:Generated_Source\PSoC4/CapSense_SensingCSD_LL.c ****                                                       CapSense_CONFIG_SENSE_EN_MASK |
 226              		.loc 1 680 0
 227 00b0 1360     		str	r3, [r2]
 685:Generated_Source\PSoC4/CapSense_SensingCSD_LL.c ****         #endif /* (CapSense_ENABLE == CapSense_BLOCK_OFF_AFTER_SCAN_EN) */
 228              		.loc 1 685 0
 229 00b2 FFF7FEFF 		bl	CyDelayCycles
 230              	.LVL19:
 689:Generated_Source\PSoC4/CapSense_SensingCSD_LL.c **** 
 231              		.loc 1 689 0
 232 00b6 0F22     		mov	r2, #15
 233 00b8 224B     		ldr	r3, .L9+112
 234 00ba 1A60     		str	r2, [r3]
 692:Generated_Source\PSoC4/CapSense_SensingCSD_LL.c **** 
 235              		.loc 1 692 0
 236 00bc 0022     		mov	r2, #0
 237 00be 224B     		ldr	r3, .L9+116
 238 00c0 1A60     		str	r2, [r3]
 695:Generated_Source\PSoC4/CapSense_SensingCSD_LL.c **** 
 239              		.loc 1 695 0
 240 00c2 224B     		ldr	r3, .L9+120
 241 00c4 0A32     		add	r2, r2, #10
 242 00c6 1A60     		str	r2, [r3]
 698:Generated_Source\PSoC4/CapSense_SensingCSD_LL.c ****                                                       CapSense_SENSE_DUTY_OVERLAP_PHI2_MASK);
 243              		.loc 1 698 0
 244 00c8 C022     		mov	r2, #192
 245 00ca 214B     		ldr	r3, .L9+124
ARM GAS  C:\Users\Jerry\AppData\Local\Temp\cc2mbs0O.s 			page 19


 246 00cc 1203     		lsl	r2, r2, #12
 247 00ce 1A60     		str	r2, [r3]
 248              		.loc 1 731 0
 249 00d0 70BD     		pop	{r4, r5, r6, pc}
 250              	.L10:
 251 00d2 C046     		.align	2
 252              	.L9:
 253 00d4 F4000C40 		.word	1074528500
 254 00d8 80010C40 		.word	1074528640
 255 00dc B4020C40 		.word	1074528948
 256 00e0 00000000 		.word	CapSense_dsRam
 257 00e4 C0020C40 		.word	1074528960
 258 00e8 20030C40 		.word	1074529056
 259 00ec 84010C40 		.word	1074528644
 260 00f0 88020C40 		.word	1074528904
 261 00f4 80020C40 		.word	1074528896
 262 00f8 84020C40 		.word	1074528900
 263 00fc 00050240 		.word	1073874176
 264 0100 94020C40 		.word	1074528916
 265 0104 A0020C40 		.word	1074528928
 266 0108 A8020C40 		.word	1074528936
 267 010c 01000010 		.word	268435457
 268 0110 A4020C40 		.word	1074528932
 269 0114 41120000 		.word	4673
 270 0118 88010C40 		.word	1074528648
 271 011c 00000301 		.word	16973824
 272 0120 90020C40 		.word	1074528912
 273 0124 00008301 		.word	25362432
 274 0128 C0010C40 		.word	1074528704
 275 012c C4010C40 		.word	1074528708
 276 0130 00000000 		.word	.LANCHOR0
 277 0134 00366E01 		.word	24000000
 278 0138 001BB700 		.word	12000000
 279 013c 00100080 		.word	-2147479552
 280 0140 00000C40 		.word	1074528256
 281 0144 00030C40 		.word	1074529024
 282 0148 F0010C40 		.word	1074528752
 283 014c 10030C40 		.word	1074529040
 284 0150 04020C40 		.word	1074528772
 285              		.cfi_endproc
 286              	.LFE4:
 287              		.size	CapSense_SsCSDInitialize, .-CapSense_SsCSDInitialize
 288              		.section	.text.CapSense_SsCSDSetUpIdacs,"ax",%progbits
 289              		.align	1
 290              		.global	CapSense_SsCSDSetUpIdacs
 291              		.code	16
 292              		.thumb_func
 293              		.type	CapSense_SsCSDSetUpIdacs, %function
 294              	CapSense_SsCSDSetUpIdacs:
 295              	.LFB6:
 732:Generated_Source\PSoC4/CapSense_SensingCSD_LL.c **** 
 733:Generated_Source\PSoC4/CapSense_SensingCSD_LL.c **** 
 734:Generated_Source\PSoC4/CapSense_SensingCSD_LL.c **** /*******************************************************************************
 735:Generated_Source\PSoC4/CapSense_SensingCSD_LL.c **** * Function Name: CapSense_SsCSDElectrodeCheck
 736:Generated_Source\PSoC4/CapSense_SensingCSD_LL.c **** ****************************************************************************//**
 737:Generated_Source\PSoC4/CapSense_SensingCSD_LL.c **** *
 738:Generated_Source\PSoC4/CapSense_SensingCSD_LL.c **** * \brief
ARM GAS  C:\Users\Jerry\AppData\Local\Temp\cc2mbs0O.s 			page 20


 739:Generated_Source\PSoC4/CapSense_SensingCSD_LL.c **** *   Checks if electrodes were previously connected using
 740:Generated_Source\PSoC4/CapSense_SensingCSD_LL.c ****  * CapSense_CSDSetupWidgetExt() API and if yes disconnects them.
 741:Generated_Source\PSoC4/CapSense_SensingCSD_LL.c **** *
 742:Generated_Source\PSoC4/CapSense_SensingCSD_LL.c **** * \details
 743:Generated_Source\PSoC4/CapSense_SensingCSD_LL.c **** *   This function checks if CapSense_eleCsdDisconnectFlag is set.
 744:Generated_Source\PSoC4/CapSense_SensingCSD_LL.c **** *   If it set, the function disconnects the previously connected electrode.
 745:Generated_Source\PSoC4/CapSense_SensingCSD_LL.c **** *   The previous IO is contained in CapSense_curSnsIOPtr and
 746:Generated_Source\PSoC4/CapSense_SensingCSD_LL.c **** *   CapSense_curFlashSnsPtr contains the previous data for Ganged
 747:Generated_Source\PSoC4/CapSense_SensingCSD_LL.c **** *   sensors.
 748:Generated_Source\PSoC4/CapSense_SensingCSD_LL.c **** *
 749:Generated_Source\PSoC4/CapSense_SensingCSD_LL.c **** *******************************************************************************/
 750:Generated_Source\PSoC4/CapSense_SensingCSD_LL.c **** void CapSense_SsCSDElectrodeCheck(void)
 751:Generated_Source\PSoC4/CapSense_SensingCSD_LL.c **** {
 752:Generated_Source\PSoC4/CapSense_SensingCSD_LL.c ****     #if (CapSense_ENABLE == CapSense_CSD_GANGED_SNS_EN)
 753:Generated_Source\PSoC4/CapSense_SensingCSD_LL.c ****         uint32 tempVal;
 754:Generated_Source\PSoC4/CapSense_SensingCSD_LL.c ****     #endif /* (CapSense_ENABLE == CapSense_CSD_GANGED_SNS_EN) */
 755:Generated_Source\PSoC4/CapSense_SensingCSD_LL.c **** 
 756:Generated_Source\PSoC4/CapSense_SensingCSD_LL.c ****     if (CapSense_ENABLE == CapSense_eleCsdDisconnectFlag)
 757:Generated_Source\PSoC4/CapSense_SensingCSD_LL.c ****     {
 758:Generated_Source\PSoC4/CapSense_SensingCSD_LL.c ****         /* Disconnect if electrodes were previous connected by CSDSetupWidgetExt() API */
 759:Generated_Source\PSoC4/CapSense_SensingCSD_LL.c ****         #if (CapSense_ENABLE == CapSense_CSD_GANGED_SNS_EN)
 760:Generated_Source\PSoC4/CapSense_SensingCSD_LL.c ****             /* Check ganged sns flag  */
 761:Generated_Source\PSoC4/CapSense_SensingCSD_LL.c ****             if (CapSense_GANGED_SNS_MASK == (CapSense_curFlashWdgtPtr->staticConfig & CapSense_GANG
 762:Generated_Source\PSoC4/CapSense_SensingCSD_LL.c ****             {
 763:Generated_Source\PSoC4/CapSense_SensingCSD_LL.c ****                 /* Get number of ganged pins */
 764:Generated_Source\PSoC4/CapSense_SensingCSD_LL.c ****                 tempVal = CapSense_curFlashSnsPtr->numPins;
 765:Generated_Source\PSoC4/CapSense_SensingCSD_LL.c **** 
 766:Generated_Source\PSoC4/CapSense_SensingCSD_LL.c ****                 /* Get IO pointer  */
 767:Generated_Source\PSoC4/CapSense_SensingCSD_LL.c ****                 CapSense_curSnsIOPtr = &CapSense_ioList[CapSense_curFlashSnsPtr->firstPinId];
 768:Generated_Source\PSoC4/CapSense_SensingCSD_LL.c **** 
 769:Generated_Source\PSoC4/CapSense_SensingCSD_LL.c ****                 /* Disconnect all ganged sensors */
 770:Generated_Source\PSoC4/CapSense_SensingCSD_LL.c ****                 do
 771:Generated_Source\PSoC4/CapSense_SensingCSD_LL.c ****                 {
 772:Generated_Source\PSoC4/CapSense_SensingCSD_LL.c ****                     CapSense_CSDDisconnectSns(CapSense_curSnsIOPtr);
 773:Generated_Source\PSoC4/CapSense_SensingCSD_LL.c ****                     CapSense_curSnsIOPtr++;
 774:Generated_Source\PSoC4/CapSense_SensingCSD_LL.c ****                     tempVal--;
 775:Generated_Source\PSoC4/CapSense_SensingCSD_LL.c ****                 } while (0u != tempVal);
 776:Generated_Source\PSoC4/CapSense_SensingCSD_LL.c ****             }
 777:Generated_Source\PSoC4/CapSense_SensingCSD_LL.c ****             else
 778:Generated_Source\PSoC4/CapSense_SensingCSD_LL.c ****             {
 779:Generated_Source\PSoC4/CapSense_SensingCSD_LL.c ****                 /* Disconnect ganged sensor */
 780:Generated_Source\PSoC4/CapSense_SensingCSD_LL.c ****                 CapSense_CSDDisconnectSns(CapSense_curSnsIOPtr);
 781:Generated_Source\PSoC4/CapSense_SensingCSD_LL.c ****             }
 782:Generated_Source\PSoC4/CapSense_SensingCSD_LL.c ****         #else
 783:Generated_Source\PSoC4/CapSense_SensingCSD_LL.c ****             /* Disable sensor */
 784:Generated_Source\PSoC4/CapSense_SensingCSD_LL.c ****             CapSense_CSDDisconnectSns(CapSense_curSnsIOPtr);
 785:Generated_Source\PSoC4/CapSense_SensingCSD_LL.c ****         #endif /* (CapSense_ENABLE == CapSense_CSD_GANGED_SNS_EN)  */
 786:Generated_Source\PSoC4/CapSense_SensingCSD_LL.c **** 
 787:Generated_Source\PSoC4/CapSense_SensingCSD_LL.c ****         CapSense_eleCsdDisconnectFlag = 0u;
 788:Generated_Source\PSoC4/CapSense_SensingCSD_LL.c ****     }
 789:Generated_Source\PSoC4/CapSense_SensingCSD_LL.c **** }
 790:Generated_Source\PSoC4/CapSense_SensingCSD_LL.c **** 
 791:Generated_Source\PSoC4/CapSense_SensingCSD_LL.c **** 
 792:Generated_Source\PSoC4/CapSense_SensingCSD_LL.c **** /*******************************************************************************
 793:Generated_Source\PSoC4/CapSense_SensingCSD_LL.c **** * Function Name: CapSense_SsCSDSetUpIdacs
 794:Generated_Source\PSoC4/CapSense_SensingCSD_LL.c **** ****************************************************************************//**
 795:Generated_Source\PSoC4/CapSense_SensingCSD_LL.c **** *
ARM GAS  C:\Users\Jerry\AppData\Local\Temp\cc2mbs0O.s 			page 21


 796:Generated_Source\PSoC4/CapSense_SensingCSD_LL.c **** * \brief
 797:Generated_Source\PSoC4/CapSense_SensingCSD_LL.c **** *  This internal function changes the IDACs values.
 798:Generated_Source\PSoC4/CapSense_SensingCSD_LL.c **** *
 799:Generated_Source\PSoC4/CapSense_SensingCSD_LL.c **** * \details
 800:Generated_Source\PSoC4/CapSense_SensingCSD_LL.c **** *  If Compensation IDAC is enabled, it updates two IDACs.
 801:Generated_Source\PSoC4/CapSense_SensingCSD_LL.c **** *  The Modulator IDAC is common for all the sensors of the widget.
 802:Generated_Source\PSoC4/CapSense_SensingCSD_LL.c **** *  The Compensation IDAC is updated for the sensor of the widget which
 803:Generated_Source\PSoC4/CapSense_SensingCSD_LL.c **** *  is available in the RAM_SNS_STRUCT structure.
 804:Generated_Source\PSoC4/CapSense_SensingCSD_LL.c **** *  If the Compensation IDAC is disabled, the function updates the Modulator IDAC
 805:Generated_Source\PSoC4/CapSense_SensingCSD_LL.c **** *  value only in the RAM_WD_BASE_STRUCT structure.
 806:Generated_Source\PSoC4/CapSense_SensingCSD_LL.c **** *
 807:Generated_Source\PSoC4/CapSense_SensingCSD_LL.c **** * \param
 808:Generated_Source\PSoC4/CapSense_SensingCSD_LL.c **** *  ptrWdgt The pointer to the RAM_WD_BASE_STRUCT structure.
 809:Generated_Source\PSoC4/CapSense_SensingCSD_LL.c **** *
 810:Generated_Source\PSoC4/CapSense_SensingCSD_LL.c **** *******************************************************************************/
 811:Generated_Source\PSoC4/CapSense_SensingCSD_LL.c **** void CapSense_SsCSDSetUpIdacs(CapSense_RAM_WD_BASE_STRUCT const *ptrWdgt)
 812:Generated_Source\PSoC4/CapSense_SensingCSD_LL.c **** {
 296              		.loc 1 812 0
 297              		.cfi_startproc
 298              	.LVL20:
 299 0000 38B5     		push	{r3, r4, r5, lr}
 300              		.cfi_def_cfa_offset 16
 301              		.cfi_offset 3, -16
 302              		.cfi_offset 4, -12
 303              		.cfi_offset 5, -8
 304              		.cfi_offset 14, -4
 305              		.loc 1 812 0
 306 0002 041C     		mov	r4, r0
 813:Generated_Source\PSoC4/CapSense_SensingCSD_LL.c **** 
 814:Generated_Source\PSoC4/CapSense_SensingCSD_LL.c ****     uint8 interruptState;
 815:Generated_Source\PSoC4/CapSense_SensingCSD_LL.c **** 
 816:Generated_Source\PSoC4/CapSense_SensingCSD_LL.c **** #if (CapSense_ENABLE == CapSense_CSDV2)
 817:Generated_Source\PSoC4/CapSense_SensingCSD_LL.c ****     uint32 idacARegValue;
 818:Generated_Source\PSoC4/CapSense_SensingCSD_LL.c ****     #if ((CapSense_ENABLE == CapSense_CSD_IDAC_COMP_EN) && \
 819:Generated_Source\PSoC4/CapSense_SensingCSD_LL.c ****          (CapSense_ENABLE == CapSense_CSD_DEDICATED_IDAC_COMP_EN))
 820:Generated_Source\PSoC4/CapSense_SensingCSD_LL.c ****         uint32 idacBRegValue;
 821:Generated_Source\PSoC4/CapSense_SensingCSD_LL.c ****     #endif /* ((CapSense_ENABLE == CapSense_CSD_IDAC_COMP_EN) && \
 822:Generated_Source\PSoC4/CapSense_SensingCSD_LL.c ****                (CapSense_ENABLE == CapSense_CSD_DEDICATED_IDAC_COMP_EN)) */
 823:Generated_Source\PSoC4/CapSense_SensingCSD_LL.c **** 
 824:Generated_Source\PSoC4/CapSense_SensingCSD_LL.c ****     interruptState = CyEnterCriticalSection();
 307              		.loc 1 824 0
 308 0004 FFF7FEFF 		bl	CyEnterCriticalSection
 309              	.LVL21:
 825:Generated_Source\PSoC4/CapSense_SensingCSD_LL.c **** 
 826:Generated_Source\PSoC4/CapSense_SensingCSD_LL.c ****     /* Get IDACA Value */
 827:Generated_Source\PSoC4/CapSense_SensingCSD_LL.c ****     idacARegValue = CY_GET_REG32(CapSense_IDAC_MOD_PTR);
 828:Generated_Source\PSoC4/CapSense_SensingCSD_LL.c **** 
 829:Generated_Source\PSoC4/CapSense_SensingCSD_LL.c ****     /* Set IDACA Value mask */
 830:Generated_Source\PSoC4/CapSense_SensingCSD_LL.c ****     idacARegValue &= ~(CapSense_IDAC_MOD_VAL_MASK);
 310              		.loc 1 830 0
 311 0008 7F21     		mov	r1, #127
 831:Generated_Source\PSoC4/CapSense_SensingCSD_LL.c **** 
 832:Generated_Source\PSoC4/CapSense_SensingCSD_LL.c ****     /* Set IDACA value */
 833:Generated_Source\PSoC4/CapSense_SensingCSD_LL.c ****     #if (CapSense_CSD_MATRIX_WIDGET_EN | CapSense_CSD_TOUCHPAD_WIDGET_EN)
 834:Generated_Source\PSoC4/CapSense_SensingCSD_LL.c ****         if (CapSense_dsFlash.wdgtArray[(CapSense_widgetIndex)].numCols <= CapSense_sensorIndex)
 835:Generated_Source\PSoC4/CapSense_SensingCSD_LL.c ****         {
 836:Generated_Source\PSoC4/CapSense_SensingCSD_LL.c ****             idacARegValue |= (uint32)ptrWdgt->rowIdacMod[CapSense_scanFreqIndex];
ARM GAS  C:\Users\Jerry\AppData\Local\Temp\cc2mbs0O.s 			page 22


 837:Generated_Source\PSoC4/CapSense_SensingCSD_LL.c ****         }
 838:Generated_Source\PSoC4/CapSense_SensingCSD_LL.c ****         else
 839:Generated_Source\PSoC4/CapSense_SensingCSD_LL.c ****         {
 840:Generated_Source\PSoC4/CapSense_SensingCSD_LL.c ****             idacARegValue |= (uint32)ptrWdgt->idacMod[CapSense_scanFreqIndex];
 841:Generated_Source\PSoC4/CapSense_SensingCSD_LL.c ****         }
 842:Generated_Source\PSoC4/CapSense_SensingCSD_LL.c ****     #else
 843:Generated_Source\PSoC4/CapSense_SensingCSD_LL.c ****         idacARegValue |= (uint32)ptrWdgt->idacMod[CapSense_scanFreqIndex];
 312              		.loc 1 843 0
 313 000a 0A4A     		ldr	r2, .L12
 827:Generated_Source\PSoC4/CapSense_SensingCSD_LL.c **** 
 314              		.loc 1 827 0
 315 000c 0A4D     		ldr	r5, .L12+4
 316              		.loc 1 843 0
 317 000e 1278     		ldrb	r2, [r2]
 827:Generated_Source\PSoC4/CapSense_SensingCSD_LL.c **** 
 318              		.loc 1 827 0
 319 0010 2B68     		ldr	r3, [r5]
 320              	.LVL22:
 321              		.loc 1 843 0
 322 0012 A418     		add	r4, r4, r2
 323              	.LVL23:
 324 0014 A47A     		ldrb	r4, [r4, #10]
 830:Generated_Source\PSoC4/CapSense_SensingCSD_LL.c **** 
 325              		.loc 1 830 0
 326 0016 8B43     		bic	r3, r1
 327              	.LVL24:
 328              		.loc 1 843 0
 329 0018 2343     		orr	r3, r4
 330              	.LVL25:
 844:Generated_Source\PSoC4/CapSense_SensingCSD_LL.c ****     #endif /* (CapSense_CSD_MATRIX_WIDGET_EN | CapSense_CSD_TOUCHPAD_WIDGET_EN) */
 845:Generated_Source\PSoC4/CapSense_SensingCSD_LL.c **** 
 846:Generated_Source\PSoC4/CapSense_SensingCSD_LL.c ****     /* Update IDACA register with new value */
 847:Generated_Source\PSoC4/CapSense_SensingCSD_LL.c ****     CY_SET_REG32(CapSense_IDAC_MOD_PTR, idacARegValue);
 848:Generated_Source\PSoC4/CapSense_SensingCSD_LL.c **** 
 849:Generated_Source\PSoC4/CapSense_SensingCSD_LL.c ****     #if ((CapSense_ENABLE == CapSense_CSD_IDAC_COMP_EN) && \
 850:Generated_Source\PSoC4/CapSense_SensingCSD_LL.c ****          (CapSense_ENABLE == CapSense_CSD_DEDICATED_IDAC_COMP_EN))
 851:Generated_Source\PSoC4/CapSense_SensingCSD_LL.c ****         /* Get IDACB Value */
 852:Generated_Source\PSoC4/CapSense_SensingCSD_LL.c ****         idacBRegValue = CY_GET_REG32(CapSense_IDAC_COMP_PTR);
 331              		.loc 1 852 0
 332 001a 084C     		ldr	r4, .L12+8
 847:Generated_Source\PSoC4/CapSense_SensingCSD_LL.c **** 
 333              		.loc 1 847 0
 334 001c 2B60     		str	r3, [r5]
 335              		.loc 1 852 0
 336 001e 2368     		ldr	r3, [r4]
 337              	.LVL26:
 853:Generated_Source\PSoC4/CapSense_SensingCSD_LL.c **** 
 854:Generated_Source\PSoC4/CapSense_SensingCSD_LL.c ****         /* Set IDACB Value mask */
 855:Generated_Source\PSoC4/CapSense_SensingCSD_LL.c ****         idacBRegValue &= ~(CapSense_IDAC_COMP_VAL_MASK);
 856:Generated_Source\PSoC4/CapSense_SensingCSD_LL.c **** 
 857:Generated_Source\PSoC4/CapSense_SensingCSD_LL.c ****         /* Set IDACB value */
 858:Generated_Source\PSoC4/CapSense_SensingCSD_LL.c ****         idacBRegValue |= (uint32)CapSense_curRamSnsPtr->idacComp[CapSense_scanFreqIndex];
 859:Generated_Source\PSoC4/CapSense_SensingCSD_LL.c **** 
 860:Generated_Source\PSoC4/CapSense_SensingCSD_LL.c ****         /* Update IDACA register with new value */
 861:Generated_Source\PSoC4/CapSense_SensingCSD_LL.c ****         CY_SET_REG32(CapSense_IDAC_COMP_PTR, idacBRegValue);
 862:Generated_Source\PSoC4/CapSense_SensingCSD_LL.c ****     #endif /* ((CapSense_ENABLE == CapSense_CSD_IDAC_COMP_EN) && \
 863:Generated_Source\PSoC4/CapSense_SensingCSD_LL.c ****                (CapSense_ENABLE == CapSense_CSD_DEDICATED_IDAC_COMP_EN)) */
ARM GAS  C:\Users\Jerry\AppData\Local\Temp\cc2mbs0O.s 			page 23


 864:Generated_Source\PSoC4/CapSense_SensingCSD_LL.c **** 
 865:Generated_Source\PSoC4/CapSense_SensingCSD_LL.c ****     CyExitCriticalSection(interruptState);
 866:Generated_Source\PSoC4/CapSense_SensingCSD_LL.c **** 
 867:Generated_Source\PSoC4/CapSense_SensingCSD_LL.c **** #else
 868:Generated_Source\PSoC4/CapSense_SensingCSD_LL.c **** 
 869:Generated_Source\PSoC4/CapSense_SensingCSD_LL.c ****     uint32 newRegValue;
 870:Generated_Source\PSoC4/CapSense_SensingCSD_LL.c ****     uint8 const *ptrIdacMod = ptrWdgt->idacMod;
 871:Generated_Source\PSoC4/CapSense_SensingCSD_LL.c **** 
 872:Generated_Source\PSoC4/CapSense_SensingCSD_LL.c ****     #if (CapSense_CSD_MATRIX_WIDGET_EN  | CapSense_CSD_TOUCHPAD_WIDGET_EN)
 873:Generated_Source\PSoC4/CapSense_SensingCSD_LL.c ****         if (CapSense_dsFlash.wdgtArray[(CapSense_widgetIndex)].numCols <= CapSense_sensorIndex)
 874:Generated_Source\PSoC4/CapSense_SensingCSD_LL.c ****         {
 875:Generated_Source\PSoC4/CapSense_SensingCSD_LL.c ****             ptrIdacMod = &ptrWdgt->rowIdacMod[0u];
 876:Generated_Source\PSoC4/CapSense_SensingCSD_LL.c ****         }
 877:Generated_Source\PSoC4/CapSense_SensingCSD_LL.c ****     #endif /* (CapSense_CSD_MATRIX_WIDGET_EN  | CapSense_CSD_TOUCHPAD_WIDGET_EN) */
 878:Generated_Source\PSoC4/CapSense_SensingCSD_LL.c **** 
 879:Generated_Source\PSoC4/CapSense_SensingCSD_LL.c ****     interruptState = CyEnterCriticalSection();
 880:Generated_Source\PSoC4/CapSense_SensingCSD_LL.c **** 
 881:Generated_Source\PSoC4/CapSense_SensingCSD_LL.c ****     /* Get Idac Value */
 882:Generated_Source\PSoC4/CapSense_SensingCSD_LL.c ****     newRegValue = CY_GET_REG32(CapSense_IDAC_PTR);
 883:Generated_Source\PSoC4/CapSense_SensingCSD_LL.c **** 
 884:Generated_Source\PSoC4/CapSense_SensingCSD_LL.c ****     /* Set Idac Value mask */
 885:Generated_Source\PSoC4/CapSense_SensingCSD_LL.c ****     #if (CapSense_ENABLE == CapSense_CSD_IDAC_COMP_EN)
 886:Generated_Source\PSoC4/CapSense_SensingCSD_LL.c ****         newRegValue &= ~(CapSense_IDAC_MOD_MASK | CapSense_IDAC_COMP_MASK);
 887:Generated_Source\PSoC4/CapSense_SensingCSD_LL.c ****     #else
 888:Generated_Source\PSoC4/CapSense_SensingCSD_LL.c ****         newRegValue &= ~(CapSense_IDAC_MOD_MASK);
 889:Generated_Source\PSoC4/CapSense_SensingCSD_LL.c ****     #endif /* (CapSense_ENABLE == CapSense_CSD_IDAC_COMP_EN) */
 890:Generated_Source\PSoC4/CapSense_SensingCSD_LL.c **** 
 891:Generated_Source\PSoC4/CapSense_SensingCSD_LL.c ****     /* Set Idac value */
 892:Generated_Source\PSoC4/CapSense_SensingCSD_LL.c ****     #if (CapSense_ENABLE == CapSense_CSD_IDAC_COMP_EN)
 893:Generated_Source\PSoC4/CapSense_SensingCSD_LL.c ****         newRegValue |= (ptrIdacMod[CapSense_scanFreqIndex] |
 894:Generated_Source\PSoC4/CapSense_SensingCSD_LL.c ****                        (uint32)((uint32)CapSense_curRamSnsPtr->idacComp[CapSense_scanFreqIndex] <<
 895:Generated_Source\PSoC4/CapSense_SensingCSD_LL.c ****                        CapSense_IDAC_COMP_DATA_OFFSET));
 896:Generated_Source\PSoC4/CapSense_SensingCSD_LL.c ****     #else
 897:Generated_Source\PSoC4/CapSense_SensingCSD_LL.c ****         newRegValue |= ptrIdacMod[CapSense_scanFreqIndex];
 898:Generated_Source\PSoC4/CapSense_SensingCSD_LL.c ****     #endif /* (CapSense_ENABLE == CapSense_CSD_IDAC_COMP_EN) */
 899:Generated_Source\PSoC4/CapSense_SensingCSD_LL.c ****     CY_SET_REG32(CapSense_IDAC_PTR, newRegValue);
 900:Generated_Source\PSoC4/CapSense_SensingCSD_LL.c **** 
 901:Generated_Source\PSoC4/CapSense_SensingCSD_LL.c ****     CyExitCriticalSection(interruptState);
 902:Generated_Source\PSoC4/CapSense_SensingCSD_LL.c **** 
 903:Generated_Source\PSoC4/CapSense_SensingCSD_LL.c **** #endif /* (CapSense_ENABLE == CapSense_CSDV2) */
 904:Generated_Source\PSoC4/CapSense_SensingCSD_LL.c **** }
 338              		.loc 1 904 0
 339              		@ sp needed
 855:Generated_Source\PSoC4/CapSense_SensingCSD_LL.c **** 
 340              		.loc 1 855 0
 341 0020 8B43     		bic	r3, r1
 342              	.LVL27:
 858:Generated_Source\PSoC4/CapSense_SensingCSD_LL.c **** 
 343              		.loc 1 858 0
 344 0022 0749     		ldr	r1, .L12+12
 345 0024 0968     		ldr	r1, [r1]
 346 0026 8A18     		add	r2, r1, r2
 347 0028 527A     		ldrb	r2, [r2, #9]
 348 002a 1343     		orr	r3, r2
 349              	.LVL28:
 861:Generated_Source\PSoC4/CapSense_SensingCSD_LL.c ****     #endif /* ((CapSense_ENABLE == CapSense_CSD_IDAC_COMP_EN) && \
 350              		.loc 1 861 0
ARM GAS  C:\Users\Jerry\AppData\Local\Temp\cc2mbs0O.s 			page 24


 351 002c 2360     		str	r3, [r4]
 352              	.LVL29:
 865:Generated_Source\PSoC4/CapSense_SensingCSD_LL.c **** 
 353              		.loc 1 865 0
 354 002e FFF7FEFF 		bl	CyExitCriticalSection
 355              	.LVL30:
 356              		.loc 1 904 0
 357 0032 38BD     		pop	{r3, r4, r5, pc}
 358              	.L13:
 359              		.align	2
 360              	.L12:
 361 0034 00000000 		.word	CapSense_scanFreqIndex
 362 0038 C0010C40 		.word	1074528704
 363 003c C4010C40 		.word	1074528708
 364 0040 00000000 		.word	CapSense_curRamSnsPtr
 365              		.cfi_endproc
 366              	.LFE6:
 367              		.size	CapSense_SsCSDSetUpIdacs, .-CapSense_SsCSDSetUpIdacs
 368              		.section	.text.CapSense_SsCSDGetNumberOfConversions,"ax",%progbits
 369              		.align	1
 370              		.global	CapSense_SsCSDGetNumberOfConversions
 371              		.code	16
 372              		.thumb_func
 373              		.type	CapSense_SsCSDGetNumberOfConversions, %function
 374              	CapSense_SsCSDGetNumberOfConversions:
 375              	.LFB7:
 905:Generated_Source\PSoC4/CapSense_SensingCSD_LL.c **** 
 906:Generated_Source\PSoC4/CapSense_SensingCSD_LL.c **** 
 907:Generated_Source\PSoC4/CapSense_SensingCSD_LL.c **** #if (CapSense_ENABLE == CapSense_CSDV2)
 908:Generated_Source\PSoC4/CapSense_SensingCSD_LL.c ****     /*******************************************************************************
 909:Generated_Source\PSoC4/CapSense_SensingCSD_LL.c ****     * Function Name: CapSense_SsCSDGetNumberOfConversions
 910:Generated_Source\PSoC4/CapSense_SensingCSD_LL.c ****     ****************************************************************************//**
 911:Generated_Source\PSoC4/CapSense_SensingCSD_LL.c ****     *
 912:Generated_Source\PSoC4/CapSense_SensingCSD_LL.c ****     * \brief
 913:Generated_Source\PSoC4/CapSense_SensingCSD_LL.c ****     *  This function gets Number of conversions.
 914:Generated_Source\PSoC4/CapSense_SensingCSD_LL.c ****     *
 915:Generated_Source\PSoC4/CapSense_SensingCSD_LL.c ****     * \details
 916:Generated_Source\PSoC4/CapSense_SensingCSD_LL.c ****     *  This function gets Number of conversions using foll.owing equation:
 917:Generated_Source\PSoC4/CapSense_SensingCSD_LL.c ****     *   conversionsNum = (2^resolution - 1) / snsClkDivider.
 918:Generated_Source\PSoC4/CapSense_SensingCSD_LL.c ****     *
 919:Generated_Source\PSoC4/CapSense_SensingCSD_LL.c ****     * \param
 920:Generated_Source\PSoC4/CapSense_SensingCSD_LL.c ****     *  snsClkDivider The divider value for the sense clock.
 921:Generated_Source\PSoC4/CapSense_SensingCSD_LL.c ****     *  resolution The widget resolution.
 922:Generated_Source\PSoC4/CapSense_SensingCSD_LL.c ****     *  snsClkSrc The current Sense Clock Source.
 923:Generated_Source\PSoC4/CapSense_SensingCSD_LL.c ****     *
 924:Generated_Source\PSoC4/CapSense_SensingCSD_LL.c ****     * \return Returns the Number of conversions.
 925:Generated_Source\PSoC4/CapSense_SensingCSD_LL.c ****     *
 926:Generated_Source\PSoC4/CapSense_SensingCSD_LL.c ****     *******************************************************************************/
 927:Generated_Source\PSoC4/CapSense_SensingCSD_LL.c ****     uint32 CapSense_SsCSDGetNumberOfConversions(uint32 snsClkDivider, uint32 resolution, uint32 sns
 928:Generated_Source\PSoC4/CapSense_SensingCSD_LL.c ****     {
 376              		.loc 1 928 0
 377              		.cfi_startproc
 378              	.LVL31:
 379 0000 70B5     		push	{r4, r5, r6, lr}
 380              		.cfi_def_cfa_offset 16
 381              		.cfi_offset 4, -16
 382              		.cfi_offset 5, -12
ARM GAS  C:\Users\Jerry\AppData\Local\Temp\cc2mbs0O.s 			page 25


 383              		.cfi_offset 6, -8
 384              		.cfi_offset 14, -4
 385              		.loc 1 928 0
 386 0002 051C     		mov	r5, r0
 929:Generated_Source\PSoC4/CapSense_SensingCSD_LL.c ****         uint32 conversionsNum;
 930:Generated_Source\PSoC4/CapSense_SensingCSD_LL.c ****         #if ((CapSense_MOD_CSD_CLK_12MHZ < CYDEV_BCLK__HFCLK__HZ) && (CapSense_ENABLE != CapSense_C
 931:Generated_Source\PSoC4/CapSense_SensingCSD_LL.c ****             uint32 sampleClkFreqHz;
 932:Generated_Source\PSoC4/CapSense_SensingCSD_LL.c ****         #endif /* ((CapSense_MOD_CSD_CLK_12MHZ < CYDEV_BCLK__HFCLK__HZ) && (CapSense_ENABLE != CapS
 933:Generated_Source\PSoC4/CapSense_SensingCSD_LL.c **** 
 934:Generated_Source\PSoC4/CapSense_SensingCSD_LL.c ****         /* Calculate scanning resolution value in register */
 935:Generated_Source\PSoC4/CapSense_SensingCSD_LL.c ****         conversionsNum = (uint32)((1uL << resolution) - 1uL);
 387              		.loc 1 935 0
 388 0004 0120     		mov	r0, #1
 389              	.LVL32:
 390 0006 8840     		lsl	r0, r0, r1
 928:Generated_Source\PSoC4/CapSense_SensingCSD_LL.c ****         uint32 conversionsNum;
 391              		.loc 1 928 0
 392 0008 161C     		mov	r6, r2
 393              		.loc 1 935 0
 394 000a 0138     		sub	r0, r0, #1
 395              	.LVL33:
 936:Generated_Source\PSoC4/CapSense_SensingCSD_LL.c **** 
 937:Generated_Source\PSoC4/CapSense_SensingCSD_LL.c ****         #if(CapSense_ENABLE != CapSense_CSDV2_REF9P6UA_EN)
 938:Generated_Source\PSoC4/CapSense_SensingCSD_LL.c ****             /* Apply correction to oveflow for 16 bit resolution */
 939:Generated_Source\PSoC4/CapSense_SensingCSD_LL.c ****             if (CapSense_RES16BIT == resolution)
 396              		.loc 1 939 0
 397 000c 1029     		cmp	r1, #16
 398 000e 0DD1     		bne	.L15
 940:Generated_Source\PSoC4/CapSense_SensingCSD_LL.c ****             {
 941:Generated_Source\PSoC4/CapSense_SensingCSD_LL.c ****                 conversionsNum -= ((snsClkDivider + 1u) >> 1u);
 942:Generated_Source\PSoC4/CapSense_SensingCSD_LL.c **** 
 943:Generated_Source\PSoC4/CapSense_SensingCSD_LL.c ****                 #if (CapSense_MOD_CSD_CLK_12MHZ < CYDEV_BCLK__HFCLK__HZ)
 944:Generated_Source\PSoC4/CapSense_SensingCSD_LL.c ****                     sampleClkFreqHz = CYDEV_BCLK__HFCLK__HZ / (uint32)CapSense_dsRam.modCsdClk;
 399              		.loc 1 944 0
 400 0010 104B     		ldr	r3, .L22
 941:Generated_Source\PSoC4/CapSense_SensingCSD_LL.c **** 
 401              		.loc 1 941 0
 402 0012 6C1C     		add	r4, r5, #1
 403 0014 6408     		lsr	r4, r4, #1
 404 0016 041B     		sub	r4, r0, r4
 405              	.LVL34:
 406              		.loc 1 944 0
 407 0018 197E     		ldrb	r1, [r3, #24]
 408              	.LVL35:
 409 001a 0F48     		ldr	r0, .L22+4
 410 001c FFF7FEFF 		bl	__aeabi_uidiv
 411              	.LVL36:
 945:Generated_Source\PSoC4/CapSense_SensingCSD_LL.c **** 
 946:Generated_Source\PSoC4/CapSense_SensingCSD_LL.c ****                     if (sampleClkFreqHz <= CapSense_MOD_CSD_CLK_12MHZ)
 412              		.loc 1 946 0
 413 0020 0E4B     		ldr	r3, .L22+8
 944:Generated_Source\PSoC4/CapSense_SensingCSD_LL.c **** 
 414              		.loc 1 944 0
 415 0022 021C     		mov	r2, r0
 947:Generated_Source\PSoC4/CapSense_SensingCSD_LL.c ****                     {
 948:Generated_Source\PSoC4/CapSense_SensingCSD_LL.c ****                         conversionsNum -= CapSense_CONFIG_FILTER_DELAY_2_CYCLES;
 949:Generated_Source\PSoC4/CapSense_SensingCSD_LL.c ****                     }
ARM GAS  C:\Users\Jerry\AppData\Local\Temp\cc2mbs0O.s 			page 26


 950:Generated_Source\PSoC4/CapSense_SensingCSD_LL.c ****                     else if (sampleClkFreqHz <= CapSense_MOD_CSD_CLK_24MHZ)
 951:Generated_Source\PSoC4/CapSense_SensingCSD_LL.c ****                     {
 952:Generated_Source\PSoC4/CapSense_SensingCSD_LL.c ****                         conversionsNum -= CapSense_CONFIG_FILTER_DELAY_3_CYCLES;
 416              		.loc 1 952 0
 417 0024 E01E     		sub	r0, r4, #3
 946:Generated_Source\PSoC4/CapSense_SensingCSD_LL.c ****                     {
 418              		.loc 1 946 0
 419 0026 9A42     		cmp	r2, r3
 420 0028 00D8     		bhi	.L15
 948:Generated_Source\PSoC4/CapSense_SensingCSD_LL.c ****                     }
 421              		.loc 1 948 0
 422 002a A01E     		sub	r0, r4, #2
 423              	.LVL37:
 424              	.L15:
 953:Generated_Source\PSoC4/CapSense_SensingCSD_LL.c ****                     }
 954:Generated_Source\PSoC4/CapSense_SensingCSD_LL.c ****                     else
 955:Generated_Source\PSoC4/CapSense_SensingCSD_LL.c ****                     {
 956:Generated_Source\PSoC4/CapSense_SensingCSD_LL.c ****                         conversionsNum -= CapSense_CONFIG_FILTER_DELAY_4_CYCLES;
 957:Generated_Source\PSoC4/CapSense_SensingCSD_LL.c ****                     }
 958:Generated_Source\PSoC4/CapSense_SensingCSD_LL.c ****                 #else
 959:Generated_Source\PSoC4/CapSense_SensingCSD_LL.c ****                     conversionsNum -= CapSense_CONFIG_FILTER_DELAY_2_CYCLES;
 960:Generated_Source\PSoC4/CapSense_SensingCSD_LL.c ****                 #endif /* (INSTANCE_NAME`_MOD_CSD_CLK_12MHZ < CYDEV_BCLK__HFCLK__HZ) */
 961:Generated_Source\PSoC4/CapSense_SensingCSD_LL.c ****             }
 962:Generated_Source\PSoC4/CapSense_SensingCSD_LL.c ****         #endif /* (CapSense_ENABLE != CapSense_CSDV2_REF9P6UA_EN) */
 963:Generated_Source\PSoC4/CapSense_SensingCSD_LL.c **** 
 964:Generated_Source\PSoC4/CapSense_SensingCSD_LL.c ****         if (0u < snsClkDivider)
 425              		.loc 1 964 0
 426 002c 002D     		cmp	r5, #0
 427 002e 02D0     		beq	.L17
 965:Generated_Source\PSoC4/CapSense_SensingCSD_LL.c ****         {
 966:Generated_Source\PSoC4/CapSense_SensingCSD_LL.c ****             conversionsNum /= snsClkDivider;
 428              		.loc 1 966 0
 429 0030 291C     		mov	r1, r5
 430 0032 FFF7FEFF 		bl	__aeabi_uidiv
 431              	.LVL38:
 432              	.L17:
 967:Generated_Source\PSoC4/CapSense_SensingCSD_LL.c ****         }
 968:Generated_Source\PSoC4/CapSense_SensingCSD_LL.c **** 
 969:Generated_Source\PSoC4/CapSense_SensingCSD_LL.c ****         #if (CapSense_CSD_SS_DIS != CapSense_CSD_AUTOTUNE)
 970:Generated_Source\PSoC4/CapSense_SensingCSD_LL.c ****             /* Use direct clock if pre-scalers have not been tuned */
 971:Generated_Source\PSoC4/CapSense_SensingCSD_LL.c ****             if (CapSense_ENABLE == CapSense_prescalersTuningDone)
 433              		.loc 1 971 0
 434 0036 0A4B     		ldr	r3, .L22+12
 435 0038 1B78     		ldrb	r3, [r3]
 436 003a 012B     		cmp	r3, #1
 437 003c 08D1     		bne	.L18
 972:Generated_Source\PSoC4/CapSense_SensingCSD_LL.c ****             {
 973:Generated_Source\PSoC4/CapSense_SensingCSD_LL.c ****         #endif /* (CapSense_CSD_SS_DIS != CapSense_CSD_AUTOTUNE) */
 974:Generated_Source\PSoC4/CapSense_SensingCSD_LL.c ****             #if ((CapSense_CLK_SOURCE_PRS12 == CapSense_CSD_SNS_CLK_SOURCE) || \
 975:Generated_Source\PSoC4/CapSense_SensingCSD_LL.c ****                  (CapSense_CLK_SOURCE_PRS8 == CapSense_CSD_SNS_CLK_SOURCE))
 976:Generated_Source\PSoC4/CapSense_SensingCSD_LL.c ****                  /* Divide by 4 for PRS8/PRS12 mode */
 977:Generated_Source\PSoC4/CapSense_SensingCSD_LL.c ****                  conversionsNum >>= 2u;
 978:Generated_Source\PSoC4/CapSense_SensingCSD_LL.c ****             #elif (CapSense_CLK_SOURCE_PRSAUTO == CapSense_CSD_SNS_CLK_SOURCE)
 979:Generated_Source\PSoC4/CapSense_SensingCSD_LL.c ****                  snsClkDivider = snsClkDivider * (uint32)CapSense_dsRam.modCsdClk;
 438              		.loc 1 979 0
 439 003e 054B     		ldr	r3, .L22
 980:Generated_Source\PSoC4/CapSense_SensingCSD_LL.c **** 
ARM GAS  C:\Users\Jerry\AppData\Local\Temp\cc2mbs0O.s 			page 27


 981:Generated_Source\PSoC4/CapSense_SensingCSD_LL.c ****                  /* Check if PRS8/12 mode was set */
 982:Generated_Source\PSoC4/CapSense_SensingCSD_LL.c ****                  if (((CapSense_CLK_SOURCE_PRS8 == snsClkSrc) ||
 440              		.loc 1 982 0
 441 0040 053E     		sub	r6, r6, #5
 442              	.LVL39:
 979:Generated_Source\PSoC4/CapSense_SensingCSD_LL.c **** 
 443              		.loc 1 979 0
 444 0042 1B7E     		ldrb	r3, [r3, #24]
 445              	.LVL40:
 446              		.loc 1 982 0
 447 0044 012E     		cmp	r6, #1
 448 0046 03D8     		bhi	.L18
 979:Generated_Source\PSoC4/CapSense_SensingCSD_LL.c **** 
 449              		.loc 1 979 0
 450 0048 5D43     		mul	r5, r3
 451              	.LVL41:
 983:Generated_Source\PSoC4/CapSense_SensingCSD_LL.c ****                       (CapSense_CLK_SOURCE_PRS12 == snsClkSrc)) &&
 452              		.loc 1 983 0
 453 004a A02D     		cmp	r5, #160
 454 004c 00D8     		bhi	.L18
 984:Generated_Source\PSoC4/CapSense_SensingCSD_LL.c ****                      (CapSense_HFCLK_SNSCLK_FACTOR >= snsClkDivider))
 985:Generated_Source\PSoC4/CapSense_SensingCSD_LL.c ****                  {
 986:Generated_Source\PSoC4/CapSense_SensingCSD_LL.c ****                      /* Divide by 4 for PRS8/PRS12 mode */
 987:Generated_Source\PSoC4/CapSense_SensingCSD_LL.c ****                      conversionsNum >>= 2u;
 455              		.loc 1 987 0
 456 004e 8008     		lsr	r0, r0, #2
 457              	.LVL42:
 458              	.L18:
 988:Generated_Source\PSoC4/CapSense_SensingCSD_LL.c ****                  }
 989:Generated_Source\PSoC4/CapSense_SensingCSD_LL.c ****             #else
 990:Generated_Source\PSoC4/CapSense_SensingCSD_LL.c ****                  /* SSC or Direct Clock mode  */
 991:Generated_Source\PSoC4/CapSense_SensingCSD_LL.c ****             #endif /* ((CapSense_CLK_SOURCE_PRS12 == CapSense_CSD_SNS_CLK_SOURCE) || \
 992:Generated_Source\PSoC4/CapSense_SensingCSD_LL.c ****                        (CapSense_CLK_SOURCE_PRS8 == CapSense_CSD_SNS_CLK_SOURCE)) */
 993:Generated_Source\PSoC4/CapSense_SensingCSD_LL.c ****         #if (CapSense_CSD_SS_DIS != CapSense_CSD_AUTOTUNE)
 994:Generated_Source\PSoC4/CapSense_SensingCSD_LL.c ****             }
 995:Generated_Source\PSoC4/CapSense_SensingCSD_LL.c ****         #endif /* (CapSense_CSD_SS_DIS != CapSense_CSD_AUTOTUNE) */
 996:Generated_Source\PSoC4/CapSense_SensingCSD_LL.c **** 
 997:Generated_Source\PSoC4/CapSense_SensingCSD_LL.c ****         return conversionsNum;
 998:Generated_Source\PSoC4/CapSense_SensingCSD_LL.c ****     }
 459              		.loc 1 998 0
 460              		@ sp needed
 461 0050 70BD     		pop	{r4, r5, r6, pc}
 462              	.L23:
 463 0052 C046     		.align	2
 464              	.L22:
 465 0054 00000000 		.word	CapSense_dsRam
 466 0058 00366E01 		.word	24000000
 467 005c 001BB700 		.word	12000000
 468 0060 00000000 		.word	CapSense_prescalersTuningDone
 469              		.cfi_endproc
 470              	.LFE7:
 471              		.size	CapSense_SsCSDGetNumberOfConversions, .-CapSense_SsCSDGetNumberOfConversions
 472              		.section	.text.CapSense_SsCSDConfigClock,"ax",%progbits
 473              		.align	1
 474              		.global	CapSense_SsCSDConfigClock
 475              		.code	16
 476              		.thumb_func
ARM GAS  C:\Users\Jerry\AppData\Local\Temp\cc2mbs0O.s 			page 28


 477              		.type	CapSense_SsCSDConfigClock, %function
 478              	CapSense_SsCSDConfigClock:
 479              	.LFB8:
 999:Generated_Source\PSoC4/CapSense_SensingCSD_LL.c **** #endif /* (CapSense_ENABLE == CapSense_CSDV2) */
1000:Generated_Source\PSoC4/CapSense_SensingCSD_LL.c **** 
1001:Generated_Source\PSoC4/CapSense_SensingCSD_LL.c **** 
1002:Generated_Source\PSoC4/CapSense_SensingCSD_LL.c **** /*******************************************************************************
1003:Generated_Source\PSoC4/CapSense_SensingCSD_LL.c **** * Function Name: CapSense_SsCSDConfigClock
1004:Generated_Source\PSoC4/CapSense_SensingCSD_LL.c **** ****************************************************************************//**
1005:Generated_Source\PSoC4/CapSense_SensingCSD_LL.c **** *
1006:Generated_Source\PSoC4/CapSense_SensingCSD_LL.c **** * \brief
1007:Generated_Source\PSoC4/CapSense_SensingCSD_LL.c **** *  This function configure sense clock for different modes.
1008:Generated_Source\PSoC4/CapSense_SensingCSD_LL.c **** *
1009:Generated_Source\PSoC4/CapSense_SensingCSD_LL.c **** * \details
1010:Generated_Source\PSoC4/CapSense_SensingCSD_LL.c **** *  Function sets the clock divider and configures the mode based on configuration.
1011:Generated_Source\PSoC4/CapSense_SensingCSD_LL.c **** *
1012:Generated_Source\PSoC4/CapSense_SensingCSD_LL.c **** *******************************************************************************/
1013:Generated_Source\PSoC4/CapSense_SensingCSD_LL.c **** void CapSense_SsCSDConfigClock(void)
1014:Generated_Source\PSoC4/CapSense_SensingCSD_LL.c **** {
 480              		.loc 1 1014 0
 481              		.cfi_startproc
 482 0000 08B5     		push	{r3, lr}
 483              		.cfi_def_cfa_offset 8
 484              		.cfi_offset 3, -8
 485              		.cfi_offset 14, -4
1015:Generated_Source\PSoC4/CapSense_SensingCSD_LL.c ****     uint32 snsClkDivider;
1016:Generated_Source\PSoC4/CapSense_SensingCSD_LL.c ****     uint32 newRegValue;
1017:Generated_Source\PSoC4/CapSense_SensingCSD_LL.c **** 
1018:Generated_Source\PSoC4/CapSense_SensingCSD_LL.c ****     #if ((CapSense_DISABLE == CapSense_CSD_COMMON_SNS_CLK_EN) || \
1019:Generated_Source\PSoC4/CapSense_SensingCSD_LL.c ****          (CapSense_CLK_SOURCE_PRSAUTO == CapSense_CSD_SNS_CLK_SOURCE))
1020:Generated_Source\PSoC4/CapSense_SensingCSD_LL.c ****         CapSense_RAM_WD_BASE_STRUCT const *ptrWdgt = (CapSense_RAM_WD_BASE_STRUCT *)
1021:Generated_Source\PSoC4/CapSense_SensingCSD_LL.c ****                  CapSense_dsFlash.wdgtArray[CapSense_widgetIndex].ptr2WdgtRam;
 486              		.loc 1 1021 0
 487 0002 0D4B     		ldr	r3, .L29
1020:Generated_Source\PSoC4/CapSense_SensingCSD_LL.c ****                  CapSense_dsFlash.wdgtArray[CapSense_widgetIndex].ptr2WdgtRam;
 488              		.loc 1 1020 0
 489 0004 0D4A     		ldr	r2, .L29+4
 490              		.loc 1 1021 0
 491 0006 1B78     		ldrb	r3, [r3]
1020:Generated_Source\PSoC4/CapSense_SensingCSD_LL.c ****                  CapSense_dsFlash.wdgtArray[CapSense_widgetIndex].ptr2WdgtRam;
 492              		.loc 1 1020 0
 493 0008 5B01     		lsl	r3, r3, #5
 494 000a D318     		add	r3, r2, r3
 495 000c 5B68     		ldr	r3, [r3, #4]
 496              	.LVL43:
1022:Generated_Source\PSoC4/CapSense_SensingCSD_LL.c ****     #endif /* ((CapSense_DISABLE == CapSense_CSD_COMMON_SNS_CLK_EN) || \
1023:Generated_Source\PSoC4/CapSense_SensingCSD_LL.c ****                (CapSense_CLK_SOURCE_PRSAUTO == CapSense_CSD_SNS_CLK_SOURCE)) */
1024:Generated_Source\PSoC4/CapSense_SensingCSD_LL.c **** 
1025:Generated_Source\PSoC4/CapSense_SensingCSD_LL.c ****     /* Get sense divider based on configuration */
1026:Generated_Source\PSoC4/CapSense_SensingCSD_LL.c ****     #if (CapSense_ENABLE == CapSense_CSD_COMMON_SNS_CLK_EN)
1027:Generated_Source\PSoC4/CapSense_SensingCSD_LL.c ****         snsClkDivider = (uint32)CapSense_dsRam.snsCsdClk;
1028:Generated_Source\PSoC4/CapSense_SensingCSD_LL.c ****     #else
1029:Generated_Source\PSoC4/CapSense_SensingCSD_LL.c ****         #if (CapSense_ENABLE == (CapSense_CSD_MATRIX_WIDGET_EN | \
1030:Generated_Source\PSoC4/CapSense_SensingCSD_LL.c ****                                          CapSense_CSD_TOUCHPAD_WIDGET_EN))
1031:Generated_Source\PSoC4/CapSense_SensingCSD_LL.c ****             /*  Get SnsClck divider for rows or columns */
1032:Generated_Source\PSoC4/CapSense_SensingCSD_LL.c ****             if (CapSense_dsFlash.wdgtArray[CapSense_widgetIndex].numCols <= CapSense_sensorIndex)
1033:Generated_Source\PSoC4/CapSense_SensingCSD_LL.c ****             {
ARM GAS  C:\Users\Jerry\AppData\Local\Temp\cc2mbs0O.s 			page 29


1034:Generated_Source\PSoC4/CapSense_SensingCSD_LL.c ****                 snsClkDivider = (uint32)(ptrWdgt->rowSnsClk);
1035:Generated_Source\PSoC4/CapSense_SensingCSD_LL.c ****             }
1036:Generated_Source\PSoC4/CapSense_SensingCSD_LL.c ****             else
1037:Generated_Source\PSoC4/CapSense_SensingCSD_LL.c ****             {
1038:Generated_Source\PSoC4/CapSense_SensingCSD_LL.c ****                 snsClkDivider = (uint32)(ptrWdgt->snsClk);
1039:Generated_Source\PSoC4/CapSense_SensingCSD_LL.c ****             }
1040:Generated_Source\PSoC4/CapSense_SensingCSD_LL.c ****         #else
1041:Generated_Source\PSoC4/CapSense_SensingCSD_LL.c ****             snsClkDivider = (uint32)(ptrWdgt->snsClk);
 497              		.loc 1 1041 0
 498 000e D87A     		ldrb	r0, [r3, #11]
 499              	.LVL44:
1042:Generated_Source\PSoC4/CapSense_SensingCSD_LL.c ****         #endif /*  (CapSense_ENABLE == (CapSense_CSD_MATRIX_WIDGET_EN | \
1043:Generated_Source\PSoC4/CapSense_SensingCSD_LL.c ****                                                 CapSense_CSD_TOUCHPAD_WIDGET_EN)) */
1044:Generated_Source\PSoC4/CapSense_SensingCSD_LL.c ****     #endif /* (CapSense_ENABLE == CapSense_CSD_COMMON_SNS_CLK_EN) */
1045:Generated_Source\PSoC4/CapSense_SensingCSD_LL.c **** 
1046:Generated_Source\PSoC4/CapSense_SensingCSD_LL.c ****     #if (CapSense_CLK_SOURCE_PRSAUTO == CapSense_CSD_SNS_CLK_SOURCE)
1047:Generated_Source\PSoC4/CapSense_SensingCSD_LL.c ****         /* Get sense clk source calculated in CapSense_SsCSDInitialize() before */
1048:Generated_Source\PSoC4/CapSense_SensingCSD_LL.c ****         #if (CapSense_ENABLE == (CapSense_CSD_MATRIX_WIDGET_EN | \
1049:Generated_Source\PSoC4/CapSense_SensingCSD_LL.c ****                                          CapSense_CSD_TOUCHPAD_WIDGET_EN))
1050:Generated_Source\PSoC4/CapSense_SensingCSD_LL.c ****             /*  Get SnsClc Source for rows or columns */
1051:Generated_Source\PSoC4/CapSense_SensingCSD_LL.c ****             if (CapSense_dsFlash.wdgtArray[CapSense_widgetIndex].numCols <= CapSense_sensorIndex)
1052:Generated_Source\PSoC4/CapSense_SensingCSD_LL.c ****             {
1053:Generated_Source\PSoC4/CapSense_SensingCSD_LL.c ****                 newRegValue = (uint32)ptrWdgt->rowSnsClkSource;
1054:Generated_Source\PSoC4/CapSense_SensingCSD_LL.c ****             }
1055:Generated_Source\PSoC4/CapSense_SensingCSD_LL.c ****             else
1056:Generated_Source\PSoC4/CapSense_SensingCSD_LL.c ****             {
1057:Generated_Source\PSoC4/CapSense_SensingCSD_LL.c ****                 newRegValue = (uint32)ptrWdgt->snsClkSource;
1058:Generated_Source\PSoC4/CapSense_SensingCSD_LL.c ****             }
1059:Generated_Source\PSoC4/CapSense_SensingCSD_LL.c ****         #else
1060:Generated_Source\PSoC4/CapSense_SensingCSD_LL.c ****             newRegValue = (uint32)ptrWdgt->snsClkSource;
 500              		.loc 1 1060 0
 501 0010 1B7B     		ldrb	r3, [r3, #12]
 502              	.LVL45:
1061:Generated_Source\PSoC4/CapSense_SensingCSD_LL.c ****         #endif /*  (CapSense_ENABLE == (CapSense_CSD_MATRIX_WIDGET_EN | \
1062:Generated_Source\PSoC4/CapSense_SensingCSD_LL.c ****                                                 CapSense_CSD_TOUCHPAD_WIDGET_EN)) */
1063:Generated_Source\PSoC4/CapSense_SensingCSD_LL.c ****     #else
1064:Generated_Source\PSoC4/CapSense_SensingCSD_LL.c ****         newRegValue = CapSense_DEFAULT_MODULATION_MODE;
1065:Generated_Source\PSoC4/CapSense_SensingCSD_LL.c ****     #endif /* (CapSense_CLK_SOURCE_PRSAUTO == CapSense_CSD_SNS_CLK_SOURCE) */
1066:Generated_Source\PSoC4/CapSense_SensingCSD_LL.c **** 
1067:Generated_Source\PSoC4/CapSense_SensingCSD_LL.c ****     #if (CapSense_ENABLE == CapSense_CSDV2)
1068:Generated_Source\PSoC4/CapSense_SensingCSD_LL.c ****         #if (CapSense_CLK_SOURCE_PRSAUTO == CapSense_CSD_SNS_CLK_SOURCE)
1069:Generated_Source\PSoC4/CapSense_SensingCSD_LL.c ****             if ((CapSense_CLK_SOURCE_PRS8 == newRegValue) ||
 503              		.loc 1 1069 0
 504 0012 5A1F     		sub	r2, r3, #5
 505 0014 1B04     		lsl	r3, r3, #16
 506              	.LVL46:
 507 0016 012A     		cmp	r2, #1
 508 0018 02D8     		bhi	.L26
1070:Generated_Source\PSoC4/CapSense_SensingCSD_LL.c ****                 (CapSense_CLK_SOURCE_PRS12 == newRegValue))
1071:Generated_Source\PSoC4/CapSense_SensingCSD_LL.c ****             {
1072:Generated_Source\PSoC4/CapSense_SensingCSD_LL.c ****                 newRegValue = (newRegValue << CapSense_SENSE_PERIOD_LFSR_SIZE_SHIFT) |
 509              		.loc 1 1072 0
 510 001a 8022     		mov	r2, #128
 511              	.LVL47:
 512 001c 9204     		lsl	r2, r2, #18
 513 001e 1343     		orr	r3, r2
 514              	.LVL48:
ARM GAS  C:\Users\Jerry\AppData\Local\Temp\cc2mbs0O.s 			page 30


 515              	.L26:
1073:Generated_Source\PSoC4/CapSense_SensingCSD_LL.c ****                                CapSense_SENSE_PERIOD_SEL_LFSR_MSB_MASK;
1074:Generated_Source\PSoC4/CapSense_SensingCSD_LL.c ****             }
1075:Generated_Source\PSoC4/CapSense_SensingCSD_LL.c ****             else
1076:Generated_Source\PSoC4/CapSense_SensingCSD_LL.c ****             {
1077:Generated_Source\PSoC4/CapSense_SensingCSD_LL.c ****                 newRegValue = (newRegValue << CapSense_SENSE_PERIOD_LFSR_SIZE_SHIFT);
1078:Generated_Source\PSoC4/CapSense_SensingCSD_LL.c ****             }
1079:Generated_Source\PSoC4/CapSense_SensingCSD_LL.c ****         #elif (CapSense_CLK_SOURCE_PRS8 == CapSense_CSD_SNS_CLK_SOURCE)
1080:Generated_Source\PSoC4/CapSense_SensingCSD_LL.c ****             newRegValue = (newRegValue << CapSense_SENSE_PERIOD_LFSR_SIZE_SHIFT) |
1081:Generated_Source\PSoC4/CapSense_SensingCSD_LL.c ****                            CapSense_SENSE_PERIOD_SEL_LFSR_MSB_MASK;
1082:Generated_Source\PSoC4/CapSense_SensingCSD_LL.c ****         #elif (CapSense_CLK_SOURCE_PRS12 == CapSense_CSD_SNS_CLK_SOURCE)
1083:Generated_Source\PSoC4/CapSense_SensingCSD_LL.c ****             newRegValue = (newRegValue << CapSense_SENSE_PERIOD_LFSR_SIZE_SHIFT) |
1084:Generated_Source\PSoC4/CapSense_SensingCSD_LL.c ****                            CapSense_SENSE_PERIOD_SEL_LFSR_MSB_MASK;
1085:Generated_Source\PSoC4/CapSense_SensingCSD_LL.c ****         #else    
1086:Generated_Source\PSoC4/CapSense_SensingCSD_LL.c ****             newRegValue = (newRegValue << CapSense_SENSE_PERIOD_LFSR_SIZE_SHIFT);
1087:Generated_Source\PSoC4/CapSense_SensingCSD_LL.c ****         #endif /* (CapSense_CLK_SOURCE_PRSAUTO == CapSense_CSD_SNS_CLK_SOURCE) */
1088:Generated_Source\PSoC4/CapSense_SensingCSD_LL.c ****     #endif /* (CapSense_ENABLE == CapSense_CSDV2) */
1089:Generated_Source\PSoC4/CapSense_SensingCSD_LL.c **** 
1090:Generated_Source\PSoC4/CapSense_SensingCSD_LL.c ****     #if (CapSense_CSD_SS_DIS != CapSense_CSD_AUTOTUNE)
1091:Generated_Source\PSoC4/CapSense_SensingCSD_LL.c ****         /* Use direct clock if pre-scalers have not been tuned */
1092:Generated_Source\PSoC4/CapSense_SensingCSD_LL.c ****         if (CapSense_ENABLE == CapSense_prescalersTuningDone)
 516              		.loc 1 1092 0
 517 0020 074A     		ldr	r2, .L29+8
 518 0022 1278     		ldrb	r2, [r2]
 519 0024 012A     		cmp	r2, #1
 520 0026 04D1     		bne	.L27
 521              	.LVL49:
 522              	.LBB12:
 523              	.LBB13:
 422:Generated_Source\PSoC4/CapSense_SensingCSD_LL.c ****     #else
 524              		.loc 1 422 0
 525 0028 0138     		sub	r0, r0, #1
 526              	.LVL50:
 527 002a 1843     		orr	r0, r3
 528              	.LVL51:
 529 002c 054B     		ldr	r3, .L29+12
 530              	.LVL52:
 531 002e 1860     		str	r0, [r3]
 532 0030 01E0     		b	.L24
 533              	.LVL53:
 534              	.L27:
 535              	.LBE13:
 536              	.LBE12:
1093:Generated_Source\PSoC4/CapSense_SensingCSD_LL.c ****         {
1094:Generated_Source\PSoC4/CapSense_SensingCSD_LL.c ****             CapSense_SsCSDSetModeSnsClockDivider(newRegValue, snsClkDivider);
1095:Generated_Source\PSoC4/CapSense_SensingCSD_LL.c ****         }
1096:Generated_Source\PSoC4/CapSense_SensingCSD_LL.c ****         else
1097:Generated_Source\PSoC4/CapSense_SensingCSD_LL.c ****         {
1098:Generated_Source\PSoC4/CapSense_SensingCSD_LL.c ****             CapSense_SsSetSnsClockDivider(snsClkDivider);
 537              		.loc 1 1098 0
 538 0032 FFF7FEFF 		bl	CapSense_SsSetSnsClockDivider
 539              	.LVL54:
 540              	.L24:
1099:Generated_Source\PSoC4/CapSense_SensingCSD_LL.c ****         }
1100:Generated_Source\PSoC4/CapSense_SensingCSD_LL.c ****     #else
1101:Generated_Source\PSoC4/CapSense_SensingCSD_LL.c ****         CapSense_SsCSDSetModeSnsClockDivider(newRegValue, snsClkDivider);
1102:Generated_Source\PSoC4/CapSense_SensingCSD_LL.c ****     #endif /* (CapSense_CSD_SS_DIS != CapSense_CSD_AUTOTUNE) */
ARM GAS  C:\Users\Jerry\AppData\Local\Temp\cc2mbs0O.s 			page 31


1103:Generated_Source\PSoC4/CapSense_SensingCSD_LL.c **** }
 541              		.loc 1 1103 0
 542              		@ sp needed
 543 0036 08BD     		pop	{r3, pc}
 544              	.L30:
 545              		.align	2
 546              	.L29:
 547 0038 00000000 		.word	CapSense_widgetIndex
 548 003c 00000000 		.word	CapSense_dsFlash
 549 0040 00000000 		.word	CapSense_prescalersTuningDone
 550 0044 00020C40 		.word	1074528768
 551              		.cfi_endproc
 552              	.LFE8:
 553              		.size	CapSense_SsCSDConfigClock, .-CapSense_SsCSDConfigClock
 554              		.section	.text.CapSense_SsCSDCalculateScanDuration,"ax",%progbits
 555              		.align	1
 556              		.global	CapSense_SsCSDCalculateScanDuration
 557              		.code	16
 558              		.thumb_func
 559              		.type	CapSense_SsCSDCalculateScanDuration, %function
 560              	CapSense_SsCSDCalculateScanDuration:
 561              	.LFB9:
1104:Generated_Source\PSoC4/CapSense_SensingCSD_LL.c **** 
1105:Generated_Source\PSoC4/CapSense_SensingCSD_LL.c **** 
1106:Generated_Source\PSoC4/CapSense_SensingCSD_LL.c **** /*******************************************************************************
1107:Generated_Source\PSoC4/CapSense_SensingCSD_LL.c **** * Function Name: CapSense_SsCSDCalculateScanDuration
1108:Generated_Source\PSoC4/CapSense_SensingCSD_LL.c **** ****************************************************************************//**
1109:Generated_Source\PSoC4/CapSense_SensingCSD_LL.c **** *
1110:Generated_Source\PSoC4/CapSense_SensingCSD_LL.c **** * \brief
1111:Generated_Source\PSoC4/CapSense_SensingCSD_LL.c **** *   Calculates Scan Duration which is defined by scan resolution
1112:Generated_Source\PSoC4/CapSense_SensingCSD_LL.c **** *
1113:Generated_Source\PSoC4/CapSense_SensingCSD_LL.c **** * \details
1114:Generated_Source\PSoC4/CapSense_SensingCSD_LL.c **** *   For CSDv2: The function calculates the number of conversions and updates
1115:Generated_Source\PSoC4/CapSense_SensingCSD_LL.c **** *   SEQ_NORM_CNT register. The number of conversions depends on resolution and
1116:Generated_Source\PSoC4/CapSense_SensingCSD_LL.c **** *   snsClk divider.
1117:Generated_Source\PSoC4/CapSense_SensingCSD_LL.c **** *   For CSDv1: The function recalculate the resolution using following equation:
1118:Generated_Source\PSoC4/CapSense_SensingCSD_LL.c **** *   2^resolution - 1. The calculated value is contained in
1119:Generated_Source\PSoC4/CapSense_SensingCSD_LL.c **** *   CapSense_counterResolution global variable and used in
1120:Generated_Source\PSoC4/CapSense_SensingCSD_LL.c **** *   CapSense_SsCSDStartSample() function to trigger the scan process.
1121:Generated_Source\PSoC4/CapSense_SensingCSD_LL.c **** *
1122:Generated_Source\PSoC4/CapSense_SensingCSD_LL.c **** * \param  wdgtIndex
1123:Generated_Source\PSoC4/CapSense_SensingCSD_LL.c **** *  ptrWdgt The pointer to the RAM_WD_BASE_STRUCT structure.
1124:Generated_Source\PSoC4/CapSense_SensingCSD_LL.c **** *
1125:Generated_Source\PSoC4/CapSense_SensingCSD_LL.c **** *******************************************************************************/
1126:Generated_Source\PSoC4/CapSense_SensingCSD_LL.c **** void CapSense_SsCSDCalculateScanDuration(CapSense_RAM_WD_BASE_STRUCT const *ptrWdgt)
1127:Generated_Source\PSoC4/CapSense_SensingCSD_LL.c **** {
 562              		.loc 1 1127 0
 563              		.cfi_startproc
 564              	.LVL55:
 565 0000 08B5     		push	{r3, lr}
 566              		.cfi_def_cfa_offset 8
 567              		.cfi_offset 3, -8
 568              		.cfi_offset 14, -4
 569              		.loc 1 1127 0
 570 0002 031C     		mov	r3, r0
1128:Generated_Source\PSoC4/CapSense_SensingCSD_LL.c ****     #if (CapSense_ENABLE == CapSense_CSDV2)
1129:Generated_Source\PSoC4/CapSense_SensingCSD_LL.c ****         uint32 conversionsNum;
ARM GAS  C:\Users\Jerry\AppData\Local\Temp\cc2mbs0O.s 			page 32


1130:Generated_Source\PSoC4/CapSense_SensingCSD_LL.c ****         uint32 snsClkDivider;
1131:Generated_Source\PSoC4/CapSense_SensingCSD_LL.c **** 
1132:Generated_Source\PSoC4/CapSense_SensingCSD_LL.c ****         /* Get Number Of Conversions */
1133:Generated_Source\PSoC4/CapSense_SensingCSD_LL.c ****         #if (CapSense_ENABLE == CapSense_CSD_COMMON_SNS_CLK_EN)
1134:Generated_Source\PSoC4/CapSense_SensingCSD_LL.c ****             snsClkDivider = CapSense_dsRam.snsCsdClk;
1135:Generated_Source\PSoC4/CapSense_SensingCSD_LL.c ****         #else
1136:Generated_Source\PSoC4/CapSense_SensingCSD_LL.c ****             #if (CapSense_ENABLE == (CapSense_CSD_MATRIX_WIDGET_EN | CapSense_CSD_TOUCHPAD_WIDGET_E
1137:Generated_Source\PSoC4/CapSense_SensingCSD_LL.c ****                 /*  Get SnsClck divider for rows or columns */
1138:Generated_Source\PSoC4/CapSense_SensingCSD_LL.c ****                 if (CapSense_dsFlash.wdgtArray[CapSense_widgetIndex].numCols <= CapSense_sensorInde
1139:Generated_Source\PSoC4/CapSense_SensingCSD_LL.c ****                 {
1140:Generated_Source\PSoC4/CapSense_SensingCSD_LL.c ****                     snsClkDivider = (uint32)(ptrWdgt->rowSnsClk);
1141:Generated_Source\PSoC4/CapSense_SensingCSD_LL.c ****                 }
1142:Generated_Source\PSoC4/CapSense_SensingCSD_LL.c ****                 else
1143:Generated_Source\PSoC4/CapSense_SensingCSD_LL.c ****                 {
1144:Generated_Source\PSoC4/CapSense_SensingCSD_LL.c ****                     snsClkDivider = (uint32)(ptrWdgt->snsClk);
1145:Generated_Source\PSoC4/CapSense_SensingCSD_LL.c ****                 }
1146:Generated_Source\PSoC4/CapSense_SensingCSD_LL.c ****             #else
1147:Generated_Source\PSoC4/CapSense_SensingCSD_LL.c ****                 snsClkDivider = (uint32)(ptrWdgt->snsClk);
 571              		.loc 1 1147 0
 572 0004 C07A     		ldrb	r0, [r0, #11]
 573              	.LVL56:
1148:Generated_Source\PSoC4/CapSense_SensingCSD_LL.c ****             #endif /*  (CapSense_ENABLE == (CapSense_CSD_MATRIX_WIDGET_EN | CapSense_CSD_TOUCHPAD_W
1149:Generated_Source\PSoC4/CapSense_SensingCSD_LL.c ****         #endif /* (CapSense_ENABLE == CapSense_CSDV2) */
1150:Generated_Source\PSoC4/CapSense_SensingCSD_LL.c **** 
1151:Generated_Source\PSoC4/CapSense_SensingCSD_LL.c ****         conversionsNum = CapSense_SsCSDGetNumberOfConversions(snsClkDivider, (uint32)ptrWdgt->resol
 574              		.loc 1 1151 0
 575 0006 1988     		ldrh	r1, [r3]
 576 0008 1A7B     		ldrb	r2, [r3, #12]
 577 000a FFF7FEFF 		bl	CapSense_SsCSDGetNumberOfConversions
 578              	.LVL57:
1152:Generated_Source\PSoC4/CapSense_SensingCSD_LL.c **** 
1153:Generated_Source\PSoC4/CapSense_SensingCSD_LL.c ****         /* Set Number Of Conversions based on scanning resolution */
1154:Generated_Source\PSoC4/CapSense_SensingCSD_LL.c ****         CY_SET_REG32(CapSense_SEQ_NORM_CNT_PTR, (conversionsNum & CapSense_SEQ_NORM_CNT_CONV_CNT_MA
 579              		.loc 1 1154 0
 580 000e 024B     		ldr	r3, .L32
 581 0010 80B2     		uxth	r0, r0
 582              	.LVL58:
 583 0012 1860     		str	r0, [r3]
1155:Generated_Source\PSoC4/CapSense_SensingCSD_LL.c ****     #else
1156:Generated_Source\PSoC4/CapSense_SensingCSD_LL.c ****         /*  Set up scanning resolution  */
1157:Generated_Source\PSoC4/CapSense_SensingCSD_LL.c ****         CapSense_counterResolution = (uint32)((0x00000001Lu << ptrWdgt->resolution) - 1u) << CapSen
1158:Generated_Source\PSoC4/CapSense_SensingCSD_LL.c ****     #endif /* (CapSense_ENABLE == CapSense_CSDV2) */
1159:Generated_Source\PSoC4/CapSense_SensingCSD_LL.c **** }
 584              		.loc 1 1159 0
 585              		@ sp needed
 586 0014 08BD     		pop	{r3, pc}
 587              	.L33:
 588 0016 C046     		.align	2
 589              	.L32:
 590 0018 14030C40 		.word	1074529044
 591              		.cfi_endproc
 592              	.LFE9:
 593              		.size	CapSense_SsCSDCalculateScanDuration, .-CapSense_SsCSDCalculateScanDuration
 594              		.section	.text.CapSense_SsCSDStartSample,"ax",%progbits
 595              		.align	1
 596              		.global	CapSense_SsCSDStartSample
 597              		.code	16
ARM GAS  C:\Users\Jerry\AppData\Local\Temp\cc2mbs0O.s 			page 33


 598              		.thumb_func
 599              		.type	CapSense_SsCSDStartSample, %function
 600              	CapSense_SsCSDStartSample:
 601              	.LFB12:
1160:Generated_Source\PSoC4/CapSense_SensingCSD_LL.c **** 
1161:Generated_Source\PSoC4/CapSense_SensingCSD_LL.c **** 
1162:Generated_Source\PSoC4/CapSense_SensingCSD_LL.c **** /*******************************************************************************
1163:Generated_Source\PSoC4/CapSense_SensingCSD_LL.c **** * Function Name: CapSense_CSDSetupWidget
1164:Generated_Source\PSoC4/CapSense_SensingCSD_LL.c **** ****************************************************************************//**
1165:Generated_Source\PSoC4/CapSense_SensingCSD_LL.c **** *
1166:Generated_Source\PSoC4/CapSense_SensingCSD_LL.c **** * \brief
1167:Generated_Source\PSoC4/CapSense_SensingCSD_LL.c **** *  Performs hardware and firmware initialization required for scanning sensors
1168:Generated_Source\PSoC4/CapSense_SensingCSD_LL.c **** *  in a specific widget using the CSD sensing method. The
1169:Generated_Source\PSoC4/CapSense_SensingCSD_LL.c **** *  CapSense_CSDScan() function should be used to start scanning when
1170:Generated_Source\PSoC4/CapSense_SensingCSD_LL.c **** *  using this function.
1171:Generated_Source\PSoC4/CapSense_SensingCSD_LL.c **** *
1172:Generated_Source\PSoC4/CapSense_SensingCSD_LL.c **** * \details
1173:Generated_Source\PSoC4/CapSense_SensingCSD_LL.c **** *  This function initializes the specific widget common parameters to perform
1174:Generated_Source\PSoC4/CapSense_SensingCSD_LL.c **** *  the CSD scanning. The initialization includes setting up a Modulator and
1175:Generated_Source\PSoC4/CapSense_SensingCSD_LL.c **** *  Sense clock frequency and scanning resolution.
1176:Generated_Source\PSoC4/CapSense_SensingCSD_LL.c **** *
1177:Generated_Source\PSoC4/CapSense_SensingCSD_LL.c **** *  This function does not connect any specific sensors to the scanning hardware
1178:Generated_Source\PSoC4/CapSense_SensingCSD_LL.c **** *  and also does not start a scanning process. The CapSense_CSDScan()
1179:Generated_Source\PSoC4/CapSense_SensingCSD_LL.c **** *  API must be called after initializing the widget to start scanning.
1180:Generated_Source\PSoC4/CapSense_SensingCSD_LL.c **** *
1181:Generated_Source\PSoC4/CapSense_SensingCSD_LL.c **** *  This function should be called when no scanning in progress. I.e.
1182:Generated_Source\PSoC4/CapSense_SensingCSD_LL.c **** *  CapSense_IsBusy() returns a non-busy status.
1183:Generated_Source\PSoC4/CapSense_SensingCSD_LL.c **** *
1184:Generated_Source\PSoC4/CapSense_SensingCSD_LL.c **** *  This function is called by the CapSense_SetupWidget() API if the
1185:Generated_Source\PSoC4/CapSense_SensingCSD_LL.c **** *  given widget uses the CSD sensing method.
1186:Generated_Source\PSoC4/CapSense_SensingCSD_LL.c **** *
1187:Generated_Source\PSoC4/CapSense_SensingCSD_LL.c **** *  It is not recommended to call this function directly from the application
1188:Generated_Source\PSoC4/CapSense_SensingCSD_LL.c **** *  layer. This function should be used to implement only the users specific
1189:Generated_Source\PSoC4/CapSense_SensingCSD_LL.c **** *  use cases (for faster execution time or pipeline scanning for example).
1190:Generated_Source\PSoC4/CapSense_SensingCSD_LL.c **** *
1191:Generated_Source\PSoC4/CapSense_SensingCSD_LL.c **** * \param  wdgtIndex
1192:Generated_Source\PSoC4/CapSense_SensingCSD_LL.c **** *  Specify the ID number of the widget to perform hardware and firmware
1193:Generated_Source\PSoC4/CapSense_SensingCSD_LL.c **** *  initialization required for scanning sensors in the specific widget.
1194:Generated_Source\PSoC4/CapSense_SensingCSD_LL.c **** *  A macro for the widget ID can be found in the CapSense Configuration header
1195:Generated_Source\PSoC4/CapSense_SensingCSD_LL.c **** *  file defined as CapSense_<WidgetName>_WDGT_ID.
1196:Generated_Source\PSoC4/CapSense_SensingCSD_LL.c **** *
1197:Generated_Source\PSoC4/CapSense_SensingCSD_LL.c **** *******************************************************************************/
1198:Generated_Source\PSoC4/CapSense_SensingCSD_LL.c **** void CapSense_CSDSetupWidget(uint32 wdgtIndex)
1199:Generated_Source\PSoC4/CapSense_SensingCSD_LL.c **** {
1200:Generated_Source\PSoC4/CapSense_SensingCSD_LL.c **** 
1201:Generated_Source\PSoC4/CapSense_SensingCSD_LL.c ****     CapSense_RAM_WD_BASE_STRUCT const *ptrWdgt = (CapSense_RAM_WD_BASE_STRUCT *)
1202:Generated_Source\PSoC4/CapSense_SensingCSD_LL.c ****                                                     CapSense_dsFlash.wdgtArray[wdgtIndex].ptr2WdgtR
1203:Generated_Source\PSoC4/CapSense_SensingCSD_LL.c **** 
1204:Generated_Source\PSoC4/CapSense_SensingCSD_LL.c ****     #if ((CapSense_ENABLE == CapSense_CSD_CSX_EN) || \
1205:Generated_Source\PSoC4/CapSense_SensingCSD_LL.c ****         (CapSense_ENABLE == CapSense_SELF_TEST_EN) || \
1206:Generated_Source\PSoC4/CapSense_SensingCSD_LL.c ****         (CapSense_ENABLE == CapSense_ADC_EN))
1207:Generated_Source\PSoC4/CapSense_SensingCSD_LL.c ****          CapSense_SsSwitchSensingMode(CapSense_SENSE_METHOD_CSD_E);
1208:Generated_Source\PSoC4/CapSense_SensingCSD_LL.c ****     #endif /* ((CapSense_ENABLE == CapSense_CSD_CSX_EN) || \
1209:Generated_Source\PSoC4/CapSense_SensingCSD_LL.c ****                (CapSense_ENABLE == CapSense_SELF_TEST_EN) || \
1210:Generated_Source\PSoC4/CapSense_SensingCSD_LL.c ****                (CapSense_ENABLE == CapSense_ADC_EN)) */
1211:Generated_Source\PSoC4/CapSense_SensingCSD_LL.c **** 
1212:Generated_Source\PSoC4/CapSense_SensingCSD_LL.c ****     /* Disconnect previous electrode if it has been connected */
ARM GAS  C:\Users\Jerry\AppData\Local\Temp\cc2mbs0O.s 			page 34


1213:Generated_Source\PSoC4/CapSense_SensingCSD_LL.c ****     CapSense_SsCSDElectrodeCheck();
1214:Generated_Source\PSoC4/CapSense_SensingCSD_LL.c **** 
1215:Generated_Source\PSoC4/CapSense_SensingCSD_LL.c ****     /* Save widget Id to have assess to it after scanning  */
1216:Generated_Source\PSoC4/CapSense_SensingCSD_LL.c ****     CapSense_widgetIndex = (uint8)wdgtIndex;
1217:Generated_Source\PSoC4/CapSense_SensingCSD_LL.c **** 
1218:Generated_Source\PSoC4/CapSense_SensingCSD_LL.c ****     /* Initialize IO Sns electrode structure pointer to current widget */
1219:Generated_Source\PSoC4/CapSense_SensingCSD_LL.c ****     CapSense_curSnsIOPtr = (CapSense_FLASH_IO_STRUCT const *)
1220:Generated_Source\PSoC4/CapSense_SensingCSD_LL.c ****                                     CapSense_dsFlash.wdgtArray[CapSense_widgetIndex].ptr2SnsFlash;
1221:Generated_Source\PSoC4/CapSense_SensingCSD_LL.c **** 
1222:Generated_Source\PSoC4/CapSense_SensingCSD_LL.c ****     /* Update status register in Data structure */
1223:Generated_Source\PSoC4/CapSense_SensingCSD_LL.c ****     CapSense_dsRam.status &= ~CapSense_STATUS_WDGT0_MASK;
1224:Generated_Source\PSoC4/CapSense_SensingCSD_LL.c ****     CapSense_dsRam.status |= CapSense_widgetIndex;
1225:Generated_Source\PSoC4/CapSense_SensingCSD_LL.c **** 
1226:Generated_Source\PSoC4/CapSense_SensingCSD_LL.c ****     /* Set up scanning resolution (Number ofconversion for CSDv2) */
1227:Generated_Source\PSoC4/CapSense_SensingCSD_LL.c ****     CapSense_SsCSDCalculateScanDuration(ptrWdgt);
1228:Generated_Source\PSoC4/CapSense_SensingCSD_LL.c **** 
1229:Generated_Source\PSoC4/CapSense_SensingCSD_LL.c ****     #if ((CapSense_DISABLE == CapSense_CSD_COMMON_SNS_CLK_EN) ||\
1230:Generated_Source\PSoC4/CapSense_SensingCSD_LL.c ****          (CapSense_CLK_SOURCE_DIRECT != CapSense_CSD_SNS_CLK_SOURCE))
1231:Generated_Source\PSoC4/CapSense_SensingCSD_LL.c ****         CapSense_SsCSDConfigClock();
1232:Generated_Source\PSoC4/CapSense_SensingCSD_LL.c ****     #endif /* ((CapSense_DISABLE == CapSense_CSD_COMMON_SNS_CLK_EN) ||\
1233:Generated_Source\PSoC4/CapSense_SensingCSD_LL.c ****                (CapSense_CLK_SOURCE_DIRECT != CapSense_CSD_SNS_CLK_SOURCE)) */
1234:Generated_Source\PSoC4/CapSense_SensingCSD_LL.c **** }
1235:Generated_Source\PSoC4/CapSense_SensingCSD_LL.c **** 
1236:Generated_Source\PSoC4/CapSense_SensingCSD_LL.c **** 
1237:Generated_Source\PSoC4/CapSense_SensingCSD_LL.c **** /*******************************************************************************
1238:Generated_Source\PSoC4/CapSense_SensingCSD_LL.c **** * Function Name: CapSense_CSDSetupWidgetExt
1239:Generated_Source\PSoC4/CapSense_SensingCSD_LL.c **** ****************************************************************************//**
1240:Generated_Source\PSoC4/CapSense_SensingCSD_LL.c **** *
1241:Generated_Source\PSoC4/CapSense_SensingCSD_LL.c **** * \brief
1242:Generated_Source\PSoC4/CapSense_SensingCSD_LL.c **** *  Performs extended initialization for the CSD widget and also performs
1243:Generated_Source\PSoC4/CapSense_SensingCSD_LL.c **** *  initialization required for a specific sensor in the widget. The
1244:Generated_Source\PSoC4/CapSense_SensingCSD_LL.c **** *  CapSense_CSDScanExt() function should be called to initiate a scan
1245:Generated_Source\PSoC4/CapSense_SensingCSD_LL.c **** *  when using this function.
1246:Generated_Source\PSoC4/CapSense_SensingCSD_LL.c **** *
1247:Generated_Source\PSoC4/CapSense_SensingCSD_LL.c **** * \details
1248:Generated_Source\PSoC4/CapSense_SensingCSD_LL.c **** *  This function does the same as CapSense_CSDSetupWidget() and also
1249:Generated_Source\PSoC4/CapSense_SensingCSD_LL.c **** *  the following tasks:
1250:Generated_Source\PSoC4/CapSense_SensingCSD_LL.c **** *    1. Connects the first sensor of the widget.
1251:Generated_Source\PSoC4/CapSense_SensingCSD_LL.c **** *    2. Configures the IDAC value.
1252:Generated_Source\PSoC4/CapSense_SensingCSD_LL.c **** *    3. Initializes an interrupt callback function to initialize a scan of the
1253:Generated_Source\PSoC4/CapSense_SensingCSD_LL.c **** *  next sensors in a widget.
1254:Generated_Source\PSoC4/CapSense_SensingCSD_LL.c **** *
1255:Generated_Source\PSoC4/CapSense_SensingCSD_LL.c **** *  Once this function is called to initialize a widget and a sensor, the
1256:Generated_Source\PSoC4/CapSense_SensingCSD_LL.c **** *  CapSense_CSDScanExt() function should be called to scan the sensor.
1257:Generated_Source\PSoC4/CapSense_SensingCSD_LL.c **** *
1258:Generated_Source\PSoC4/CapSense_SensingCSD_LL.c **** *  This function should be called when no scanning in progress. I.e.
1259:Generated_Source\PSoC4/CapSense_SensingCSD_LL.c **** *  CapSense_IsBusy() returns a non-busy status.
1260:Generated_Source\PSoC4/CapSense_SensingCSD_LL.c **** *
1261:Generated_Source\PSoC4/CapSense_SensingCSD_LL.c **** *  It is not recommended to call this function directly from the application
1262:Generated_Source\PSoC4/CapSense_SensingCSD_LL.c **** *  layer. This function should be used to implement only the users specific
1263:Generated_Source\PSoC4/CapSense_SensingCSD_LL.c **** *  use cases (for faster execution time or pipeline scanning for example).
1264:Generated_Source\PSoC4/CapSense_SensingCSD_LL.c **** *
1265:Generated_Source\PSoC4/CapSense_SensingCSD_LL.c **** * \param wdgtIndex
1266:Generated_Source\PSoC4/CapSense_SensingCSD_LL.c **** *  Specify the ID number of the widget to perform hardware and firmware
1267:Generated_Source\PSoC4/CapSense_SensingCSD_LL.c **** *  initialization required for scanning the specific sensor in the specific
1268:Generated_Source\PSoC4/CapSense_SensingCSD_LL.c **** *  widget.
1269:Generated_Source\PSoC4/CapSense_SensingCSD_LL.c **** *  A macro for the widget ID can be found in the CapSense Configuration header
ARM GAS  C:\Users\Jerry\AppData\Local\Temp\cc2mbs0O.s 			page 35


1270:Generated_Source\PSoC4/CapSense_SensingCSD_LL.c **** *  file defined as CapSense_<WidgetName>_WDGT_ID.
1271:Generated_Source\PSoC4/CapSense_SensingCSD_LL.c **** *
1272:Generated_Source\PSoC4/CapSense_SensingCSD_LL.c **** * \param snsIndex
1273:Generated_Source\PSoC4/CapSense_SensingCSD_LL.c **** *  Specify the ID number of the sensor within the widget to perform hardware
1274:Generated_Source\PSoC4/CapSense_SensingCSD_LL.c **** *  and firmware initialization required for scanning a specific sensor in a
1275:Generated_Source\PSoC4/CapSense_SensingCSD_LL.c **** *  specific widget.
1276:Generated_Source\PSoC4/CapSense_SensingCSD_LL.c **** *  A macro for the sensor ID within a specified widget can be found in the
1277:Generated_Source\PSoC4/CapSense_SensingCSD_LL.c **** *  CapSense Configuration header file defined as
1278:Generated_Source\PSoC4/CapSense_SensingCSD_LL.c **** *  CapSense_<WidgetName>_SNS<SensorNumber>_ID
1279:Generated_Source\PSoC4/CapSense_SensingCSD_LL.c **** *
1280:Generated_Source\PSoC4/CapSense_SensingCSD_LL.c **** *******************************************************************************/
1281:Generated_Source\PSoC4/CapSense_SensingCSD_LL.c **** void CapSense_CSDSetupWidgetExt(uint32 wdgtIndex, uint32 snsIndex)
1282:Generated_Source\PSoC4/CapSense_SensingCSD_LL.c **** {
1283:Generated_Source\PSoC4/CapSense_SensingCSD_LL.c ****     CapSense_RAM_WD_BASE_STRUCT const *ptrWdgt = (CapSense_RAM_WD_BASE_STRUCT *)
1284:Generated_Source\PSoC4/CapSense_SensingCSD_LL.c ****                                                     CapSense_dsFlash.wdgtArray[wdgtIndex].ptr2WdgtR
1285:Generated_Source\PSoC4/CapSense_SensingCSD_LL.c **** 
1286:Generated_Source\PSoC4/CapSense_SensingCSD_LL.c ****     /* Save widget and sensor Ids to have access to it after scanning  */
1287:Generated_Source\PSoC4/CapSense_SensingCSD_LL.c ****     CapSense_sensorIndex = (uint8)snsIndex;
1288:Generated_Source\PSoC4/CapSense_SensingCSD_LL.c **** 
1289:Generated_Source\PSoC4/CapSense_SensingCSD_LL.c ****     /*  Update global pointer to CapSense_RAM_SNS_STRUCT to current sensor  */
1290:Generated_Source\PSoC4/CapSense_SensingCSD_LL.c ****     CapSense_curRamSnsPtr = (CapSense_RAM_SNS_STRUCT *)
1291:Generated_Source\PSoC4/CapSense_SensingCSD_LL.c ****                                               CapSense_dsFlash.wdgtArray[wdgtIndex].ptr2SnsRam
1292:Generated_Source\PSoC4/CapSense_SensingCSD_LL.c ****                                               + CapSense_sensorIndex;
1293:Generated_Source\PSoC4/CapSense_SensingCSD_LL.c **** 
1294:Generated_Source\PSoC4/CapSense_SensingCSD_LL.c ****     CapSense_CSDSetupWidget(wdgtIndex);
1295:Generated_Source\PSoC4/CapSense_SensingCSD_LL.c **** 
1296:Generated_Source\PSoC4/CapSense_SensingCSD_LL.c ****      /* Setup Idac Value */
1297:Generated_Source\PSoC4/CapSense_SensingCSD_LL.c ****     CapSense_SsCSDSetUpIdacs(ptrWdgt);
1298:Generated_Source\PSoC4/CapSense_SensingCSD_LL.c **** 
1299:Generated_Source\PSoC4/CapSense_SensingCSD_LL.c ****     #if (CapSense_ENABLE == CapSense_CSD_GANGED_SNS_EN)
1300:Generated_Source\PSoC4/CapSense_SensingCSD_LL.c ****         /*  Initialise access pointers for current pointer to widget configuration in Flash */
1301:Generated_Source\PSoC4/CapSense_SensingCSD_LL.c ****         CapSense_curFlashWdgtPtr = &CapSense_dsFlash.wdgtArray[wdgtIndex];
1302:Generated_Source\PSoC4/CapSense_SensingCSD_LL.c ****     #endif /* (CapSense_ENABLE == CapSense_CSD_GANGED_SNS_EN)  */
1303:Generated_Source\PSoC4/CapSense_SensingCSD_LL.c **** 
1304:Generated_Source\PSoC4/CapSense_SensingCSD_LL.c ****     #if (CapSense_ENABLE == CapSense_CSD_GANGED_SNS_EN)
1305:Generated_Source\PSoC4/CapSense_SensingCSD_LL.c ****         CapSense_SsCSDConnectSensorExt(wdgtIndex, snsIndex);
1306:Generated_Source\PSoC4/CapSense_SensingCSD_LL.c ****     #else
1307:Generated_Source\PSoC4/CapSense_SensingCSD_LL.c ****         /* Enable sensor */
1308:Generated_Source\PSoC4/CapSense_SensingCSD_LL.c ****         CapSense_curSnsIOPtr += CapSense_sensorIndex;
1309:Generated_Source\PSoC4/CapSense_SensingCSD_LL.c ****         CapSense_CSDConnectSns(CapSense_curSnsIOPtr);
1310:Generated_Source\PSoC4/CapSense_SensingCSD_LL.c ****     #endif /* (CapSense_ENABLE == CapSense_CSD_GANGED_SNS_EN)  */
1311:Generated_Source\PSoC4/CapSense_SensingCSD_LL.c **** 
1312:Generated_Source\PSoC4/CapSense_SensingCSD_LL.c ****     #if (CapSense_ENABLE == CapSense_CSD_GANGED_SNS_EN)
1313:Generated_Source\PSoC4/CapSense_SensingCSD_LL.c ****         /* Save sns pointer */
1314:Generated_Source\PSoC4/CapSense_SensingCSD_LL.c ****         CapSense_curFlashSnsPtr = (CapSense_FLASH_SNS_STRUCT const *)
1315:Generated_Source\PSoC4/CapSense_SensingCSD_LL.c ****                                            CapSense_dsFlash.wdgtArray[CapSense_widgetIndex].ptr2Sns
1316:Generated_Source\PSoC4/CapSense_SensingCSD_LL.c ****                                            CapSense_sensorIndex;
1317:Generated_Source\PSoC4/CapSense_SensingCSD_LL.c ****     #endif /* (CapSense_ENABLE == CapSense_CSD_GANGED_SNS_EN) */
1318:Generated_Source\PSoC4/CapSense_SensingCSD_LL.c **** 
1319:Generated_Source\PSoC4/CapSense_SensingCSD_LL.c ****     CapSense_eleCsdDisconnectFlag = CapSense_DISCONNECT_IO_FLAG;
1320:Generated_Source\PSoC4/CapSense_SensingCSD_LL.c **** 
1321:Generated_Source\PSoC4/CapSense_SensingCSD_LL.c ****     /*  Setup ISR handler to single-sensor scan function */
1322:Generated_Source\PSoC4/CapSense_SensingCSD_LL.c ****     CapSense_ISR_StartEx(&CapSense_CSDPostSingleScan);
1323:Generated_Source\PSoC4/CapSense_SensingCSD_LL.c **** }
1324:Generated_Source\PSoC4/CapSense_SensingCSD_LL.c **** 
1325:Generated_Source\PSoC4/CapSense_SensingCSD_LL.c **** /*******************************************************************************
1326:Generated_Source\PSoC4/CapSense_SensingCSD_LL.c **** * Function Name: CapSense_SsCSDStartSample
ARM GAS  C:\Users\Jerry\AppData\Local\Temp\cc2mbs0O.s 			page 36


1327:Generated_Source\PSoC4/CapSense_SensingCSD_LL.c **** ****************************************************************************//**
1328:Generated_Source\PSoC4/CapSense_SensingCSD_LL.c **** *
1329:Generated_Source\PSoC4/CapSense_SensingCSD_LL.c **** * \brief
1330:Generated_Source\PSoC4/CapSense_SensingCSD_LL.c **** *   Starts the CSD conversion.
1331:Generated_Source\PSoC4/CapSense_SensingCSD_LL.c **** *
1332:Generated_Source\PSoC4/CapSense_SensingCSD_LL.c **** * \details
1333:Generated_Source\PSoC4/CapSense_SensingCSD_LL.c **** *   This function assumes that the CSD block is already set up using
1334:Generated_Source\PSoC4/CapSense_SensingCSD_LL.c **** *   the CapSense_CSDSetupWidget API and the sensor port-pin is connected to the CSD
1335:Generated_Source\PSoC4/CapSense_SensingCSD_LL.c **** *   block using CapSense_CSDConnectSns.
1336:Generated_Source\PSoC4/CapSense_SensingCSD_LL.c **** *   For CSDv1 the function performs the following tasks:
1337:Generated_Source\PSoC4/CapSense_SensingCSD_LL.c **** *   1. Disconnects the Vref buffer from AMUX;
1338:Generated_Source\PSoC4/CapSense_SensingCSD_LL.c **** *   2. Precharges Cmod;
1339:Generated_Source\PSoC4/CapSense_SensingCSD_LL.c **** *   3. Makes the PreSettling delay to have a stable Vref voltage;
1340:Generated_Source\PSoC4/CapSense_SensingCSD_LL.c **** *   4. Sets the resolution to the Counter register to start scanning.
1341:Generated_Source\PSoC4/CapSense_SensingCSD_LL.c **** *
1342:Generated_Source\PSoC4/CapSense_SensingCSD_LL.c **** *******************************************************************************/
1343:Generated_Source\PSoC4/CapSense_SensingCSD_LL.c **** void CapSense_SsCSDStartSample(void)
1344:Generated_Source\PSoC4/CapSense_SensingCSD_LL.c **** {
 602              		.loc 1 1344 0
 603              		.cfi_startproc
 604 0000 F0B5     		push	{r4, r5, r6, r7, lr}
 605              		.cfi_def_cfa_offset 20
 606              		.cfi_offset 4, -20
 607              		.cfi_offset 5, -16
 608              		.cfi_offset 6, -12
 609              		.cfi_offset 7, -8
 610              		.cfi_offset 14, -4
1345:Generated_Source\PSoC4/CapSense_SensingCSD_LL.c **** #if (CapSense_ENABLE == CapSense_CSDV2)
1346:Generated_Source\PSoC4/CapSense_SensingCSD_LL.c ****     /* CSDv2 HW IP block section */
1347:Generated_Source\PSoC4/CapSense_SensingCSD_LL.c **** 
1348:Generated_Source\PSoC4/CapSense_SensingCSD_LL.c ****     /* Disable CSD interrupt to prevent it during coarse initialization */
1349:Generated_Source\PSoC4/CapSense_SensingCSD_LL.c ****     CyIntDisable(CapSense_ISR_NUMBER);
1350:Generated_Source\PSoC4/CapSense_SensingCSD_LL.c **** 
1351:Generated_Source\PSoC4/CapSense_SensingCSD_LL.c ****     /* Enable power to sub-blocks */
1352:Generated_Source\PSoC4/CapSense_SensingCSD_LL.c ****     CY_SET_REG32(CapSense_HSCMP_PTR, CapSense_HSCMP_INIT_MASK);
 611              		.loc 1 1352 0
 612 0002 0125     		mov	r5, #1
 613 0004 364C     		ldr	r4, .L45
1344:Generated_Source\PSoC4/CapSense_SensingCSD_LL.c **** #if (CapSense_ENABLE == CapSense_CSDV2)
 614              		.loc 1 1344 0
 615 0006 87B0     		sub	sp, sp, #28
 616              		.cfi_def_cfa_offset 48
1349:Generated_Source\PSoC4/CapSense_SensingCSD_LL.c **** 
 617              		.loc 1 1349 0
 618 0008 0E20     		mov	r0, #14
 619 000a FFF7FEFF 		bl	CyIntDisable
 620              	.LVL59:
 621              		.loc 1 1352 0
 622 000e 2560     		str	r5, [r4]
1353:Generated_Source\PSoC4/CapSense_SensingCSD_LL.c **** 
1354:Generated_Source\PSoC4/CapSense_SensingCSD_LL.c ****     #if (CapSense_ENABLE == CapSense_BLOCK_OFF_AFTER_SCAN_EN)
1355:Generated_Source\PSoC4/CapSense_SensingCSD_LL.c ****         CY_SET_REG32(CapSense_CONFIG_PTR, CapSense_configCsd |
1356:Generated_Source\PSoC4/CapSense_SensingCSD_LL.c ****                                                   CapSense_CONFIG_SENSE_EN_MASK |
1357:Generated_Source\PSoC4/CapSense_SensingCSD_LL.c ****                                                   CapSense_CONFIG_ENABLE_MASK);
1358:Generated_Source\PSoC4/CapSense_SensingCSD_LL.c **** 
1359:Generated_Source\PSoC4/CapSense_SensingCSD_LL.c ****         /*  Wait until CSD block powers ON */
1360:Generated_Source\PSoC4/CapSense_SensingCSD_LL.c ****         CyDelayCycles(CapSense_CSD_ON_DELAY);
ARM GAS  C:\Users\Jerry\AppData\Local\Temp\cc2mbs0O.s 			page 37


1361:Generated_Source\PSoC4/CapSense_SensingCSD_LL.c ****     #else
1362:Generated_Source\PSoC4/CapSense_SensingCSD_LL.c ****         /*  Wait until HSCMP powers ON */
1363:Generated_Source\PSoC4/CapSense_SensingCSD_LL.c ****         CyDelayCycles(CapSense_HSCMP_ON_DELAY);
 623              		.loc 1 1363 0
 624 0010 1820     		mov	r0, #24
 625 0012 FFF7FEFF 		bl	CyDelayCycles
 626              	.LVL60:
 627              	.LBB18:
 628              	.LBB19:
1364:Generated_Source\PSoC4/CapSense_SensingCSD_LL.c ****     #endif /* (CapSense_ENABLE == CapSense_BLOCK_OFF_AFTER_SCAN_EN) */
1365:Generated_Source\PSoC4/CapSense_SensingCSD_LL.c **** 
1366:Generated_Source\PSoC4/CapSense_SensingCSD_LL.c ****     /* Precharging Cmod and Csh */
1367:Generated_Source\PSoC4/CapSense_SensingCSD_LL.c ****     CapSense_SsCSDCmodPrecharge();
1368:Generated_Source\PSoC4/CapSense_SensingCSD_LL.c **** 
1369:Generated_Source\PSoC4/CapSense_SensingCSD_LL.c ****     /* Trigger Scan */
1370:Generated_Source\PSoC4/CapSense_SensingCSD_LL.c ****     CapSense_SsCSDTriggerScan();
1371:Generated_Source\PSoC4/CapSense_SensingCSD_LL.c **** 
1372:Generated_Source\PSoC4/CapSense_SensingCSD_LL.c **** #else
1373:Generated_Source\PSoC4/CapSense_SensingCSD_LL.c ****     /* CSDv1 HW IP block section */
1374:Generated_Source\PSoC4/CapSense_SensingCSD_LL.c **** 
1375:Generated_Source\PSoC4/CapSense_SensingCSD_LL.c ****     uint8 interruptState;
1376:Generated_Source\PSoC4/CapSense_SensingCSD_LL.c **** 
1377:Generated_Source\PSoC4/CapSense_SensingCSD_LL.c ****     interruptState = CyEnterCriticalSection();
1378:Generated_Source\PSoC4/CapSense_SensingCSD_LL.c **** 
1379:Generated_Source\PSoC4/CapSense_SensingCSD_LL.c ****     /*  Enable CSD block. Disconnect Vref Buffer from AMUX */
1380:Generated_Source\PSoC4/CapSense_SensingCSD_LL.c ****     #if ((CapSense_CSH_PRECHARGE_IO_BUF == CapSense_CSD_CSH_PRECHARGE_SRC) &&\
1381:Generated_Source\PSoC4/CapSense_SensingCSD_LL.c ****          (CapSense_ENABLE == CapSense_CSD_SHIELD_TANK_EN))
1382:Generated_Source\PSoC4/CapSense_SensingCSD_LL.c ****         CY_SET_REG32(CapSense_CONFIG_PTR, CapSense_configCsd | CapSense_CMOD_PRECHARGE_CONFIG_CSD_E
1383:Generated_Source\PSoC4/CapSense_SensingCSD_LL.c ****     #else
1384:Generated_Source\PSoC4/CapSense_SensingCSD_LL.c ****         CY_SET_REG32(CapSense_CONFIG_PTR, CapSense_configCsd | CapSense_CTANK_PRECHARGE_CONFIG_CSD_
1385:Generated_Source\PSoC4/CapSense_SensingCSD_LL.c ****     #endif /* ((CapSense_CSH_PRECHARGE_IO_BUF == CapSense_CSD_CSH_PRECHARGE_SRC) &&\
1386:Generated_Source\PSoC4/CapSense_SensingCSD_LL.c ****                (CapSense_ENABLE == CapSense_CSD_SHIELD_TANK_EN)) */
1387:Generated_Source\PSoC4/CapSense_SensingCSD_LL.c **** 
1388:Generated_Source\PSoC4/CapSense_SensingCSD_LL.c ****     /* Restart the clocks. Scan one cycle to reset the flip-flop for Direct clock mode */
1389:Generated_Source\PSoC4/CapSense_SensingCSD_LL.c ****     CapSense_SsCSDClockRestart();
1390:Generated_Source\PSoC4/CapSense_SensingCSD_LL.c **** 
1391:Generated_Source\PSoC4/CapSense_SensingCSD_LL.c ****     /* Precharging Cmod to Vref */
1392:Generated_Source\PSoC4/CapSense_SensingCSD_LL.c ****     CapSense_SsCSDCmodPrecharge();
1393:Generated_Source\PSoC4/CapSense_SensingCSD_LL.c **** 
1394:Generated_Source\PSoC4/CapSense_SensingCSD_LL.c ****     #if (CapSense_CLK_SOURCE_DIRECT != CapSense_CSD_SNS_CLK_SOURCE)
1395:Generated_Source\PSoC4/CapSense_SensingCSD_LL.c ****         /* Set PreSettling delay to skip IDAC glitch before scanning */
1396:Generated_Source\PSoC4/CapSense_SensingCSD_LL.c ****         CyDelayCycles(CapSense_GLITCH_ELIMINATION_CYCLES);
1397:Generated_Source\PSoC4/CapSense_SensingCSD_LL.c ****     #endif /* (CapSense_CSD_SNS_CLK_SOURCE != CapSense_CLK_SOURCE_DIRECT) */
1398:Generated_Source\PSoC4/CapSense_SensingCSD_LL.c **** 
1399:Generated_Source\PSoC4/CapSense_SensingCSD_LL.c ****     /* Trigger Scan */
1400:Generated_Source\PSoC4/CapSense_SensingCSD_LL.c ****     CapSense_SsCSDTriggerScan();
1401:Generated_Source\PSoC4/CapSense_SensingCSD_LL.c **** 
1402:Generated_Source\PSoC4/CapSense_SensingCSD_LL.c ****     CyExitCriticalSection(interruptState);
1403:Generated_Source\PSoC4/CapSense_SensingCSD_LL.c **** #endif /* (CapSense_ENABLE == CapSense_CSDV2) */
1404:Generated_Source\PSoC4/CapSense_SensingCSD_LL.c **** }
1405:Generated_Source\PSoC4/CapSense_SensingCSD_LL.c **** 
1406:Generated_Source\PSoC4/CapSense_SensingCSD_LL.c **** 
1407:Generated_Source\PSoC4/CapSense_SensingCSD_LL.c **** /*******************************************************************************
1408:Generated_Source\PSoC4/CapSense_SensingCSD_LL.c **** * Function Name: CapSense_CSDScanExt
1409:Generated_Source\PSoC4/CapSense_SensingCSD_LL.c **** ****************************************************************************//**
1410:Generated_Source\PSoC4/CapSense_SensingCSD_LL.c **** *
1411:Generated_Source\PSoC4/CapSense_SensingCSD_LL.c **** * \brief
ARM GAS  C:\Users\Jerry\AppData\Local\Temp\cc2mbs0O.s 			page 38


1412:Generated_Source\PSoC4/CapSense_SensingCSD_LL.c **** *  Starts the CSD conversion on the preconfigured sensor.
1413:Generated_Source\PSoC4/CapSense_SensingCSD_LL.c **** *  CapSense_CSDSetupWidgetExt() function should be used to setup the
1414:Generated_Source\PSoC4/CapSense_SensingCSD_LL.c **** *  widget when using this function.
1415:Generated_Source\PSoC4/CapSense_SensingCSD_LL.c **** *
1416:Generated_Source\PSoC4/CapSense_SensingCSD_LL.c **** * \details
1417:Generated_Source\PSoC4/CapSense_SensingCSD_LL.c **** *  This function performs single scanning of one sensor in the widget configured
1418:Generated_Source\PSoC4/CapSense_SensingCSD_LL.c **** *  by the CapSense_CSDSetupWidgetExt() function. It does the following
1419:Generated_Source\PSoC4/CapSense_SensingCSD_LL.c **** *  tasks:
1420:Generated_Source\PSoC4/CapSense_SensingCSD_LL.c **** *    1. Sets the busy flag in the CapSense_dsRam structure.
1421:Generated_Source\PSoC4/CapSense_SensingCSD_LL.c **** *    2. Performs the clock-phase alignment of the sense and modulator clocks.
1422:Generated_Source\PSoC4/CapSense_SensingCSD_LL.c **** *    3. Performs Cmod pre-charging.
1423:Generated_Source\PSoC4/CapSense_SensingCSD_LL.c **** *    4. Starts single scanning.
1424:Generated_Source\PSoC4/CapSense_SensingCSD_LL.c **** *
1425:Generated_Source\PSoC4/CapSense_SensingCSD_LL.c **** *  It is not recommended to call this function directly from the application
1426:Generated_Source\PSoC4/CapSense_SensingCSD_LL.c **** *  layer. This function should be used to implement only the users specific
1427:Generated_Source\PSoC4/CapSense_SensingCSD_LL.c **** *  use cases (for faster execution time or pipeline scanning for example).
1428:Generated_Source\PSoC4/CapSense_SensingCSD_LL.c **** *  This function should be called when no scanning in progress. I.e.
1429:Generated_Source\PSoC4/CapSense_SensingCSD_LL.c **** *  CapSense_IsBusy() returns a non-busy status.
1430:Generated_Source\PSoC4/CapSense_SensingCSD_LL.c **** *
1431:Generated_Source\PSoC4/CapSense_SensingCSD_LL.c **** *  The sensor must be preconfigured by using the
1432:Generated_Source\PSoC4/CapSense_SensingCSD_LL.c **** *  CapSense_CSDSetupWidgetExt() API prior to calling this function.
1433:Generated_Source\PSoC4/CapSense_SensingCSD_LL.c **** *  The sensor remains ready for the next scan if a previous scan was triggered
1434:Generated_Source\PSoC4/CapSense_SensingCSD_LL.c **** *  by using the CapSense_CSDScanExt() function. In this case, calling
1435:Generated_Source\PSoC4/CapSense_SensingCSD_LL.c **** *  CapSense_CSDSetupWidgetExt() is not required every time before the
1436:Generated_Source\PSoC4/CapSense_SensingCSD_LL.c **** *  CapSense_CSDScanExt() function. If a previous scan was triggered in
1437:Generated_Source\PSoC4/CapSense_SensingCSD_LL.c **** *  any other way: CapSense_Scan(), CapSense_ScanAllWidgets() or
1438:Generated_Source\PSoC4/CapSense_SensingCSD_LL.c **** *  CapSense_RunTuner() (see the CapSense_RunTuner() function
1439:Generated_Source\PSoC4/CapSense_SensingCSD_LL.c **** *  description for more details), the sensor must be preconfigured again by
1440:Generated_Source\PSoC4/CapSense_SensingCSD_LL.c **** *  using the CapSense_CSDSetupWidgetExt() API prior to calling the
1441:Generated_Source\PSoC4/CapSense_SensingCSD_LL.c **** *  CapSense_CSDScanExt() function.
1442:Generated_Source\PSoC4/CapSense_SensingCSD_LL.c **** *
1443:Generated_Source\PSoC4/CapSense_SensingCSD_LL.c **** *  If disconnection of the sensors is required after calling
1444:Generated_Source\PSoC4/CapSense_SensingCSD_LL.c **** *  CapSense_CSDScanExt(), the CapSense_CSDDisconnectSns()
1445:Generated_Source\PSoC4/CapSense_SensingCSD_LL.c **** *  function can be used.
1446:Generated_Source\PSoC4/CapSense_SensingCSD_LL.c **** *
1447:Generated_Source\PSoC4/CapSense_SensingCSD_LL.c **** *******************************************************************************/
1448:Generated_Source\PSoC4/CapSense_SensingCSD_LL.c **** void CapSense_CSDScanExt(void)
1449:Generated_Source\PSoC4/CapSense_SensingCSD_LL.c **** {
1450:Generated_Source\PSoC4/CapSense_SensingCSD_LL.c ****     /* Set Start of sensor scan flag */
1451:Generated_Source\PSoC4/CapSense_SensingCSD_LL.c ****     CapSense_dsRam.status |= (CapSense_SW_STS_BUSY | CapSense_WDGT_SW_STS_BUSY);
1452:Generated_Source\PSoC4/CapSense_SensingCSD_LL.c **** 
1453:Generated_Source\PSoC4/CapSense_SensingCSD_LL.c ****     CapSense_SsCSDStartSample();
1454:Generated_Source\PSoC4/CapSense_SensingCSD_LL.c **** }
1455:Generated_Source\PSoC4/CapSense_SensingCSD_LL.c **** 
1456:Generated_Source\PSoC4/CapSense_SensingCSD_LL.c **** 
1457:Generated_Source\PSoC4/CapSense_SensingCSD_LL.c **** /*******************************************************************************
1458:Generated_Source\PSoC4/CapSense_SensingCSD_LL.c **** * Function Name: CapSense_CSDScan
1459:Generated_Source\PSoC4/CapSense_SensingCSD_LL.c **** ****************************************************************************//**
1460:Generated_Source\PSoC4/CapSense_SensingCSD_LL.c **** *
1461:Generated_Source\PSoC4/CapSense_SensingCSD_LL.c **** * \brief
1462:Generated_Source\PSoC4/CapSense_SensingCSD_LL.c **** *  This function initiates the scan for sensors of the widget initialized by the
1463:Generated_Source\PSoC4/CapSense_SensingCSD_LL.c **** *  CapSense_CSDSetupWidget() function.
1464:Generated_Source\PSoC4/CapSense_SensingCSD_LL.c **** *
1465:Generated_Source\PSoC4/CapSense_SensingCSD_LL.c **** * \details
1466:Generated_Source\PSoC4/CapSense_SensingCSD_LL.c **** *  This function performs scanning of all sensors in the widget configured by
1467:Generated_Source\PSoC4/CapSense_SensingCSD_LL.c **** *  the CapSense_CSDSetupWidget() function. It does the following tasks:
1468:Generated_Source\PSoC4/CapSense_SensingCSD_LL.c **** *    1. Connects the first sensor of the widget.
ARM GAS  C:\Users\Jerry\AppData\Local\Temp\cc2mbs0O.s 			page 39


1469:Generated_Source\PSoC4/CapSense_SensingCSD_LL.c **** *    2. Configures the IDAC value.
1470:Generated_Source\PSoC4/CapSense_SensingCSD_LL.c **** *    3. Initializes the interrupt callback function to initialize a scan of
1471:Generated_Source\PSoC4/CapSense_SensingCSD_LL.c **** *       the next sensors in a widget.
1472:Generated_Source\PSoC4/CapSense_SensingCSD_LL.c **** *    4. Starts scanning for the first sensor in the widget.
1473:Generated_Source\PSoC4/CapSense_SensingCSD_LL.c **** *
1474:Generated_Source\PSoC4/CapSense_SensingCSD_LL.c **** *  This function is called by the CapSense_Scan() API if the given
1475:Generated_Source\PSoC4/CapSense_SensingCSD_LL.c **** *  widget uses the CSD sensing method.
1476:Generated_Source\PSoC4/CapSense_SensingCSD_LL.c **** *
1477:Generated_Source\PSoC4/CapSense_SensingCSD_LL.c **** *  It is not recommended to call this function directly from the application
1478:Generated_Source\PSoC4/CapSense_SensingCSD_LL.c **** *  layer. This function should be used to implement only the users specific
1479:Generated_Source\PSoC4/CapSense_SensingCSD_LL.c **** *  use cases (for faster execution time or pipeline scanning for example).
1480:Generated_Source\PSoC4/CapSense_SensingCSD_LL.c **** *
1481:Generated_Source\PSoC4/CapSense_SensingCSD_LL.c **** *  This function should be called when no scanning in progress. I.e.
1482:Generated_Source\PSoC4/CapSense_SensingCSD_LL.c **** *  CapSense_IsBusy() returns a non-busy status. The widget must be
1483:Generated_Source\PSoC4/CapSense_SensingCSD_LL.c **** *  preconfigured by the CapSense_CSDSetupWidget() function if other
1484:Generated_Source\PSoC4/CapSense_SensingCSD_LL.c **** *  widget was previously scanned or other type of scan functions were used.
1485:Generated_Source\PSoC4/CapSense_SensingCSD_LL.c **** *
1486:Generated_Source\PSoC4/CapSense_SensingCSD_LL.c **** *******************************************************************************/
1487:Generated_Source\PSoC4/CapSense_SensingCSD_LL.c **** void CapSense_CSDScan(void)
1488:Generated_Source\PSoC4/CapSense_SensingCSD_LL.c **** {
1489:Generated_Source\PSoC4/CapSense_SensingCSD_LL.c ****     CapSense_RAM_WD_BASE_STRUCT const *ptrWdgt = (CapSense_RAM_WD_BASE_STRUCT *)
1490:Generated_Source\PSoC4/CapSense_SensingCSD_LL.c ****                                                     CapSense_dsFlash.wdgtArray[CapSense_widgetIndex
1491:Generated_Source\PSoC4/CapSense_SensingCSD_LL.c **** 
1492:Generated_Source\PSoC4/CapSense_SensingCSD_LL.c ****      /*
1493:Generated_Source\PSoC4/CapSense_SensingCSD_LL.c ****       * Update CapSense_sensorIndex with the first sensor in
1494:Generated_Source\PSoC4/CapSense_SensingCSD_LL.c ****       * widget to use it in ISR handler to configure the next sensor
1495:Generated_Source\PSoC4/CapSense_SensingCSD_LL.c ****       */
1496:Generated_Source\PSoC4/CapSense_SensingCSD_LL.c ****     CapSense_sensorIndex = 0u;
1497:Generated_Source\PSoC4/CapSense_SensingCSD_LL.c **** 
1498:Generated_Source\PSoC4/CapSense_SensingCSD_LL.c ****     /*  Update global pointer to CapSense_RAM_SNS_STRUCT to current sensor  */
1499:Generated_Source\PSoC4/CapSense_SensingCSD_LL.c ****     CapSense_curRamSnsPtr = (CapSense_RAM_SNS_STRUCT *)
1500:Generated_Source\PSoC4/CapSense_SensingCSD_LL.c ****                                               CapSense_dsFlash.wdgtArray[CapSense_widgetIndex].ptr2
1501:Generated_Source\PSoC4/CapSense_SensingCSD_LL.c ****                                               + CapSense_sensorIndex;
1502:Generated_Source\PSoC4/CapSense_SensingCSD_LL.c **** 
1503:Generated_Source\PSoC4/CapSense_SensingCSD_LL.c ****     /* Setup Idac Value */
1504:Generated_Source\PSoC4/CapSense_SensingCSD_LL.c ****    CapSense_SsCSDSetUpIdacs(ptrWdgt);
1505:Generated_Source\PSoC4/CapSense_SensingCSD_LL.c **** 
1506:Generated_Source\PSoC4/CapSense_SensingCSD_LL.c ****     #if (CapSense_ENABLE == CapSense_CSD_GANGED_SNS_EN)
1507:Generated_Source\PSoC4/CapSense_SensingCSD_LL.c ****         /* Check ganged sns flag  */
1508:Generated_Source\PSoC4/CapSense_SensingCSD_LL.c ****         if (CapSense_GANGED_SNS_MASK == (CapSense_dsFlash.wdgtArray[CapSense_widgetIndex].staticCon
1509:Generated_Source\PSoC4/CapSense_SensingCSD_LL.c ****             CapSense_GANGED_SNS_MASK))
1510:Generated_Source\PSoC4/CapSense_SensingCSD_LL.c ****         {
1511:Generated_Source\PSoC4/CapSense_SensingCSD_LL.c ****             /*  Setup ISR handler to multiple-sensor scan function with ganged sensors */
1512:Generated_Source\PSoC4/CapSense_SensingCSD_LL.c ****             CapSense_ISR_StartEx(&CapSense_CSDPostMultiScanGanged);
1513:Generated_Source\PSoC4/CapSense_SensingCSD_LL.c ****         }
1514:Generated_Source\PSoC4/CapSense_SensingCSD_LL.c ****         else
1515:Generated_Source\PSoC4/CapSense_SensingCSD_LL.c ****         {
1516:Generated_Source\PSoC4/CapSense_SensingCSD_LL.c ****             /*  Set up ISR handler to multiple-sensor scan function without ganged sensors */
1517:Generated_Source\PSoC4/CapSense_SensingCSD_LL.c ****             CapSense_ISR_StartEx(&CapSense_CSDPostMultiScan);
1518:Generated_Source\PSoC4/CapSense_SensingCSD_LL.c ****         }
1519:Generated_Source\PSoC4/CapSense_SensingCSD_LL.c **** 
1520:Generated_Source\PSoC4/CapSense_SensingCSD_LL.c ****         CapSense_SsCSDConnectSensorExt((uint32)CapSense_widgetIndex, (uint32)CapSense_sensorIndex);
1521:Generated_Source\PSoC4/CapSense_SensingCSD_LL.c ****     #else
1522:Generated_Source\PSoC4/CapSense_SensingCSD_LL.c ****         /* Initialise ptr to sensor IO structure to appropriate address */
1523:Generated_Source\PSoC4/CapSense_SensingCSD_LL.c ****         CapSense_curSnsIOPtr = (CapSense_FLASH_IO_STRUCT const *)
1524:Generated_Source\PSoC4/CapSense_SensingCSD_LL.c ****                                         CapSense_dsFlash.wdgtArray[CapSense_widgetIndex].ptr2SnsFla
1525:Generated_Source\PSoC4/CapSense_SensingCSD_LL.c ****                                         + CapSense_sensorIndex;
ARM GAS  C:\Users\Jerry\AppData\Local\Temp\cc2mbs0O.s 			page 40


1526:Generated_Source\PSoC4/CapSense_SensingCSD_LL.c **** 
1527:Generated_Source\PSoC4/CapSense_SensingCSD_LL.c ****         /* Enable sensor */
1528:Generated_Source\PSoC4/CapSense_SensingCSD_LL.c ****         CapSense_CSDConnectSns(CapSense_curSnsIOPtr);
1529:Generated_Source\PSoC4/CapSense_SensingCSD_LL.c **** 
1530:Generated_Source\PSoC4/CapSense_SensingCSD_LL.c ****         /*  Set-up ISR handler to multiple-sensor scan function without ganged sensors */
1531:Generated_Source\PSoC4/CapSense_SensingCSD_LL.c ****         CapSense_ISR_StartEx(&CapSense_CSDPostMultiScan);
1532:Generated_Source\PSoC4/CapSense_SensingCSD_LL.c ****     #endif /* (CapSense_ENABLE == CapSense_CSD_GANGED_SNS_EN)  */
1533:Generated_Source\PSoC4/CapSense_SensingCSD_LL.c **** 
1534:Generated_Source\PSoC4/CapSense_SensingCSD_LL.c ****     /* Start scanning */
1535:Generated_Source\PSoC4/CapSense_SensingCSD_LL.c ****     CapSense_CSDScanExt();
1536:Generated_Source\PSoC4/CapSense_SensingCSD_LL.c **** }
1537:Generated_Source\PSoC4/CapSense_SensingCSD_LL.c **** 
1538:Generated_Source\PSoC4/CapSense_SensingCSD_LL.c **** 
1539:Generated_Source\PSoC4/CapSense_SensingCSD_LL.c **** /*******************************************************************************
1540:Generated_Source\PSoC4/CapSense_SensingCSD_LL.c **** * Function Name: CapSense_SsCSDConnectSensorExt
1541:Generated_Source\PSoC4/CapSense_SensingCSD_LL.c **** ****************************************************************************//**
1542:Generated_Source\PSoC4/CapSense_SensingCSD_LL.c **** *
1543:Generated_Source\PSoC4/CapSense_SensingCSD_LL.c **** * \brief
1544:Generated_Source\PSoC4/CapSense_SensingCSD_LL.c **** *  Connects a ganged sensor port-pin to the CapSense block via the AMUX bus.
1545:Generated_Source\PSoC4/CapSense_SensingCSD_LL.c **** *
1546:Generated_Source\PSoC4/CapSense_SensingCSD_LL.c **** * \details
1547:Generated_Source\PSoC4/CapSense_SensingCSD_LL.c **** *   The function gets the IO configuration registers addresses, their shifts and
1548:Generated_Source\PSoC4/CapSense_SensingCSD_LL.c **** *   masks from the FLASH_IO_STRUCT object. Basing on this data, it updates the HSIOM and
1549:Generated_Source\PSoC4/CapSense_SensingCSD_LL.c **** *   PC registers.
1550:Generated_Source\PSoC4/CapSense_SensingCSD_LL.c **** *
1551:Generated_Source\PSoC4/CapSense_SensingCSD_LL.c **** * \param
1552:Generated_Source\PSoC4/CapSense_SensingCSD_LL.c **** *   wdgtIndex Specifies ID of the widget.
1553:Generated_Source\PSoC4/CapSense_SensingCSD_LL.c **** *   sensorIndex Specifies ID of the sensor in the widget.
1554:Generated_Source\PSoC4/CapSense_SensingCSD_LL.c **** *
1555:Generated_Source\PSoC4/CapSense_SensingCSD_LL.c **** *******************************************************************************/
1556:Generated_Source\PSoC4/CapSense_SensingCSD_LL.c **** void CapSense_SsCSDConnectSensorExt(uint32 wdgtIndex, uint32 sensorIndex)
1557:Generated_Source\PSoC4/CapSense_SensingCSD_LL.c **** {
1558:Generated_Source\PSoC4/CapSense_SensingCSD_LL.c ****     #if (CapSense_ENABLE == CapSense_CSD_GANGED_SNS_EN)
1559:Generated_Source\PSoC4/CapSense_SensingCSD_LL.c ****         uint32 tempVal;
1560:Generated_Source\PSoC4/CapSense_SensingCSD_LL.c ****     #endif /* (CapSense_ENABLE == CapSense_CSD_GANGED_SNS_EN) */
1561:Generated_Source\PSoC4/CapSense_SensingCSD_LL.c **** 
1562:Generated_Source\PSoC4/CapSense_SensingCSD_LL.c ****     /*  Initialise ptr to sensor IO structure to appropriate address */
1563:Generated_Source\PSoC4/CapSense_SensingCSD_LL.c ****     CapSense_curSnsIOPtr = (CapSense_FLASH_IO_STRUCT const *)
1564:Generated_Source\PSoC4/CapSense_SensingCSD_LL.c ****                                                       CapSense_dsFlash.wdgtArray[wdgtIndex].ptr2Sns
1565:Generated_Source\PSoC4/CapSense_SensingCSD_LL.c ****                                                       + sensorIndex;
1566:Generated_Source\PSoC4/CapSense_SensingCSD_LL.c **** 
1567:Generated_Source\PSoC4/CapSense_SensingCSD_LL.c ****     #if (CapSense_ENABLE == CapSense_CSD_GANGED_SNS_EN)
1568:Generated_Source\PSoC4/CapSense_SensingCSD_LL.c ****         /* Check ganged sns flag  */
1569:Generated_Source\PSoC4/CapSense_SensingCSD_LL.c ****         if (CapSense_GANGED_SNS_MASK ==
1570:Generated_Source\PSoC4/CapSense_SensingCSD_LL.c ****            (CapSense_dsFlash.wdgtArray[wdgtIndex].staticConfig &
1571:Generated_Source\PSoC4/CapSense_SensingCSD_LL.c ****             CapSense_GANGED_SNS_MASK))
1572:Generated_Source\PSoC4/CapSense_SensingCSD_LL.c ****         {
1573:Generated_Source\PSoC4/CapSense_SensingCSD_LL.c ****             /* Get sns pointer */
1574:Generated_Source\PSoC4/CapSense_SensingCSD_LL.c ****             CapSense_curFlashSnsPtr = (CapSense_FLASH_SNS_STRUCT const *)
1575:Generated_Source\PSoC4/CapSense_SensingCSD_LL.c ****                                                CapSense_dsFlash.wdgtArray[wdgtIndex].ptr2SnsFlash +
1576:Generated_Source\PSoC4/CapSense_SensingCSD_LL.c ****                                                sensorIndex;
1577:Generated_Source\PSoC4/CapSense_SensingCSD_LL.c **** 
1578:Generated_Source\PSoC4/CapSense_SensingCSD_LL.c ****             /* Get number of ganged pins */
1579:Generated_Source\PSoC4/CapSense_SensingCSD_LL.c ****             tempVal = CapSense_curFlashSnsPtr->numPins;
1580:Generated_Source\PSoC4/CapSense_SensingCSD_LL.c **** 
1581:Generated_Source\PSoC4/CapSense_SensingCSD_LL.c ****             /* Get IO pointer  */
1582:Generated_Source\PSoC4/CapSense_SensingCSD_LL.c ****             CapSense_curSnsIOPtr = &CapSense_ioList[CapSense_curFlashSnsPtr->firstPinId];
ARM GAS  C:\Users\Jerry\AppData\Local\Temp\cc2mbs0O.s 			page 41


1583:Generated_Source\PSoC4/CapSense_SensingCSD_LL.c **** 
1584:Generated_Source\PSoC4/CapSense_SensingCSD_LL.c ****             /* Connect all ganged sensors  */
1585:Generated_Source\PSoC4/CapSense_SensingCSD_LL.c ****             do
1586:Generated_Source\PSoC4/CapSense_SensingCSD_LL.c ****             {
1587:Generated_Source\PSoC4/CapSense_SensingCSD_LL.c ****                 CapSense_CSDConnectSns(CapSense_curSnsIOPtr);
1588:Generated_Source\PSoC4/CapSense_SensingCSD_LL.c ****                 CapSense_curSnsIOPtr++;
1589:Generated_Source\PSoC4/CapSense_SensingCSD_LL.c ****                 tempVal--;
1590:Generated_Source\PSoC4/CapSense_SensingCSD_LL.c ****             } while (0u != tempVal);
1591:Generated_Source\PSoC4/CapSense_SensingCSD_LL.c ****         }
1592:Generated_Source\PSoC4/CapSense_SensingCSD_LL.c ****         else
1593:Generated_Source\PSoC4/CapSense_SensingCSD_LL.c ****         {
1594:Generated_Source\PSoC4/CapSense_SensingCSD_LL.c ****             /* Connect sensor */
1595:Generated_Source\PSoC4/CapSense_SensingCSD_LL.c ****             CapSense_CSDConnectSns(CapSense_curSnsIOPtr);
1596:Generated_Source\PSoC4/CapSense_SensingCSD_LL.c ****         }
1597:Generated_Source\PSoC4/CapSense_SensingCSD_LL.c ****     #else
1598:Generated_Source\PSoC4/CapSense_SensingCSD_LL.c ****         /* Connect sensor */
1599:Generated_Source\PSoC4/CapSense_SensingCSD_LL.c ****         CapSense_CSDConnectSns(CapSense_curSnsIOPtr);
1600:Generated_Source\PSoC4/CapSense_SensingCSD_LL.c ****     #endif /* (CapSense_ENABLE == CapSense_CSD_GANGED_SNS_EN) */
1601:Generated_Source\PSoC4/CapSense_SensingCSD_LL.c **** }
1602:Generated_Source\PSoC4/CapSense_SensingCSD_LL.c **** 
1603:Generated_Source\PSoC4/CapSense_SensingCSD_LL.c **** 
1604:Generated_Source\PSoC4/CapSense_SensingCSD_LL.c **** /*******************************************************************************
1605:Generated_Source\PSoC4/CapSense_SensingCSD_LL.c **** * Function Name: CapSense_SsCSDDisconnectSnsExt
1606:Generated_Source\PSoC4/CapSense_SensingCSD_LL.c **** ****************************************************************************//**
1607:Generated_Source\PSoC4/CapSense_SensingCSD_LL.c **** *
1608:Generated_Source\PSoC4/CapSense_SensingCSD_LL.c **** * \brief
1609:Generated_Source\PSoC4/CapSense_SensingCSD_LL.c **** *  Disconnects a ganged sensor port-pin from the CapSense block and AMUX bus.
1610:Generated_Source\PSoC4/CapSense_SensingCSD_LL.c **** *  Sets the default state of the un-scanned sensor.
1611:Generated_Source\PSoC4/CapSense_SensingCSD_LL.c **** *
1612:Generated_Source\PSoC4/CapSense_SensingCSD_LL.c **** * \details
1613:Generated_Source\PSoC4/CapSense_SensingCSD_LL.c **** *   The function gets the IO configuration registers addresses, their shifts and
1614:Generated_Source\PSoC4/CapSense_SensingCSD_LL.c **** *   masks from the FLASH_IO_STRUCT object. Basing on this data and Inactive sensor
1615:Generated_Source\PSoC4/CapSense_SensingCSD_LL.c **** *   connection parameter, it updates the HSIOM, PC and DR registers.
1616:Generated_Source\PSoC4/CapSense_SensingCSD_LL.c **** *   The HSIOM register is updated only when the Inactive sensor connection parameter
1617:Generated_Source\PSoC4/CapSense_SensingCSD_LL.c **** *   is set to Shield.
1618:Generated_Source\PSoC4/CapSense_SensingCSD_LL.c **** *
1619:Generated_Source\PSoC4/CapSense_SensingCSD_LL.c **** * \param  snsAddrPtr
1620:Generated_Source\PSoC4/CapSense_SensingCSD_LL.c **** *   wdgtIndex Specifies ID of the widget.
1621:Generated_Source\PSoC4/CapSense_SensingCSD_LL.c **** *   sensorIndex Specifies ID of the sensor in the widget.
1622:Generated_Source\PSoC4/CapSense_SensingCSD_LL.c **** *
1623:Generated_Source\PSoC4/CapSense_SensingCSD_LL.c **** *******************************************************************************/
1624:Generated_Source\PSoC4/CapSense_SensingCSD_LL.c **** void CapSense_SsCSDDisconnectSnsExt(uint32 wdgtIndex, uint32 sensorIndex)
1625:Generated_Source\PSoC4/CapSense_SensingCSD_LL.c **** {
1626:Generated_Source\PSoC4/CapSense_SensingCSD_LL.c ****     #if (CapSense_ENABLE == CapSense_CSD_GANGED_SNS_EN)
1627:Generated_Source\PSoC4/CapSense_SensingCSD_LL.c ****         uint32 tempVal;
1628:Generated_Source\PSoC4/CapSense_SensingCSD_LL.c ****     #endif /* (CapSense_ENABLE == CapSense_CSD_GANGED_SNS_EN) */
1629:Generated_Source\PSoC4/CapSense_SensingCSD_LL.c **** 
1630:Generated_Source\PSoC4/CapSense_SensingCSD_LL.c ****     /*  Initialise ptr to sensor IO structure to appropriate address        */
1631:Generated_Source\PSoC4/CapSense_SensingCSD_LL.c ****     CapSense_curSnsIOPtr = (CapSense_FLASH_IO_STRUCT const *)
1632:Generated_Source\PSoC4/CapSense_SensingCSD_LL.c ****                                                       CapSense_dsFlash.wdgtArray[wdgtIndex].ptr2Sns
1633:Generated_Source\PSoC4/CapSense_SensingCSD_LL.c ****                                                       + sensorIndex;
1634:Generated_Source\PSoC4/CapSense_SensingCSD_LL.c **** 
1635:Generated_Source\PSoC4/CapSense_SensingCSD_LL.c ****     #if (CapSense_ENABLE == CapSense_CSD_GANGED_SNS_EN)
1636:Generated_Source\PSoC4/CapSense_SensingCSD_LL.c ****         /* Check ganged sns flag  */
1637:Generated_Source\PSoC4/CapSense_SensingCSD_LL.c ****         if ((CapSense_dsFlash.wdgtArray[wdgtIndex].staticConfig &
1638:Generated_Source\PSoC4/CapSense_SensingCSD_LL.c ****             CapSense_GANGED_SNS_MASK) == CapSense_GANGED_SNS_MASK)
1639:Generated_Source\PSoC4/CapSense_SensingCSD_LL.c ****         {
ARM GAS  C:\Users\Jerry\AppData\Local\Temp\cc2mbs0O.s 			page 42


1640:Generated_Source\PSoC4/CapSense_SensingCSD_LL.c ****             /* Get sns pointer */
1641:Generated_Source\PSoC4/CapSense_SensingCSD_LL.c ****             CapSense_curFlashSnsPtr = (CapSense_FLASH_SNS_STRUCT const *)
1642:Generated_Source\PSoC4/CapSense_SensingCSD_LL.c ****                                                CapSense_dsFlash.wdgtArray[wdgtIndex].ptr2SnsFlash +
1643:Generated_Source\PSoC4/CapSense_SensingCSD_LL.c ****                                                sensorIndex;
1644:Generated_Source\PSoC4/CapSense_SensingCSD_LL.c **** 
1645:Generated_Source\PSoC4/CapSense_SensingCSD_LL.c ****             /* Get number of ganged pins */
1646:Generated_Source\PSoC4/CapSense_SensingCSD_LL.c ****             tempVal = CapSense_curFlashSnsPtr->numPins;
1647:Generated_Source\PSoC4/CapSense_SensingCSD_LL.c **** 
1648:Generated_Source\PSoC4/CapSense_SensingCSD_LL.c ****             /* Get IO pointer  */
1649:Generated_Source\PSoC4/CapSense_SensingCSD_LL.c ****             CapSense_curSnsIOPtr = &CapSense_ioList[CapSense_curFlashSnsPtr->firstPinId];
1650:Generated_Source\PSoC4/CapSense_SensingCSD_LL.c **** 
1651:Generated_Source\PSoC4/CapSense_SensingCSD_LL.c ****             /* Disconnect all ganged sensors */
1652:Generated_Source\PSoC4/CapSense_SensingCSD_LL.c ****             do
1653:Generated_Source\PSoC4/CapSense_SensingCSD_LL.c ****             {
1654:Generated_Source\PSoC4/CapSense_SensingCSD_LL.c ****                 CapSense_CSDDisconnectSns(CapSense_curSnsIOPtr);
1655:Generated_Source\PSoC4/CapSense_SensingCSD_LL.c ****                 CapSense_curSnsIOPtr++;
1656:Generated_Source\PSoC4/CapSense_SensingCSD_LL.c ****                 tempVal--;
1657:Generated_Source\PSoC4/CapSense_SensingCSD_LL.c ****             } while (0u != tempVal);
1658:Generated_Source\PSoC4/CapSense_SensingCSD_LL.c ****         }
1659:Generated_Source\PSoC4/CapSense_SensingCSD_LL.c ****         else
1660:Generated_Source\PSoC4/CapSense_SensingCSD_LL.c ****         {
1661:Generated_Source\PSoC4/CapSense_SensingCSD_LL.c ****             /* Disconnect ganged sensor */
1662:Generated_Source\PSoC4/CapSense_SensingCSD_LL.c ****             CapSense_CSDDisconnectSns(CapSense_curSnsIOPtr);
1663:Generated_Source\PSoC4/CapSense_SensingCSD_LL.c ****         }
1664:Generated_Source\PSoC4/CapSense_SensingCSD_LL.c ****     #else
1665:Generated_Source\PSoC4/CapSense_SensingCSD_LL.c ****         /* Disconnect ganged sensor */
1666:Generated_Source\PSoC4/CapSense_SensingCSD_LL.c ****         CapSense_CSDDisconnectSns(CapSense_curSnsIOPtr);
1667:Generated_Source\PSoC4/CapSense_SensingCSD_LL.c ****     #endif /* (CapSense_ENABLE == CapSense_CSD_GANGED_SNS_EN) */
1668:Generated_Source\PSoC4/CapSense_SensingCSD_LL.c **** }
1669:Generated_Source\PSoC4/CapSense_SensingCSD_LL.c **** 
1670:Generated_Source\PSoC4/CapSense_SensingCSD_LL.c **** 
1671:Generated_Source\PSoC4/CapSense_SensingCSD_LL.c **** /*******************************************************************************
1672:Generated_Source\PSoC4/CapSense_SensingCSD_LL.c **** * Function Name: CapSense_CSDConnectSns
1673:Generated_Source\PSoC4/CapSense_SensingCSD_LL.c **** ****************************************************************************//**
1674:Generated_Source\PSoC4/CapSense_SensingCSD_LL.c **** *
1675:Generated_Source\PSoC4/CapSense_SensingCSD_LL.c **** * \brief
1676:Generated_Source\PSoC4/CapSense_SensingCSD_LL.c **** *  Connects a port-pin used by the sensor to AMUX bus of CapSense block.
1677:Generated_Source\PSoC4/CapSense_SensingCSD_LL.c **** *
1678:Generated_Source\PSoC4/CapSense_SensingCSD_LL.c **** * \details
1679:Generated_Source\PSoC4/CapSense_SensingCSD_LL.c **** *  Connects a port-pin used by the sensor to the AMUX bus of the CapSense block
1680:Generated_Source\PSoC4/CapSense_SensingCSD_LL.c **** *  while a sensor is being scanned. The function does not take into account if
1681:Generated_Source\PSoC4/CapSense_SensingCSD_LL.c **** *  the sensor is a ganged sensor and connects only a specified pin.
1682:Generated_Source\PSoC4/CapSense_SensingCSD_LL.c **** *
1683:Generated_Source\PSoC4/CapSense_SensingCSD_LL.c **** *  Scanning should be completed before calling this API.
1684:Generated_Source\PSoC4/CapSense_SensingCSD_LL.c **** *
1685:Generated_Source\PSoC4/CapSense_SensingCSD_LL.c **** *  It is not recommended to call this function directly from the application
1686:Generated_Source\PSoC4/CapSense_SensingCSD_LL.c **** *  layer. This function should be used to implement only the users specific
1687:Generated_Source\PSoC4/CapSense_SensingCSD_LL.c **** *  use cases. Functions that perform a setup and scan of sensor/widget
1688:Generated_Source\PSoC4/CapSense_SensingCSD_LL.c **** *  automatically set the needed pin states and perform the sensor connection.
1689:Generated_Source\PSoC4/CapSense_SensingCSD_LL.c **** *  They do not take into account changes in the design made by the
1690:Generated_Source\PSoC4/CapSense_SensingCSD_LL.c **** *  CapSense_CSDConnectSns() function.
1691:Generated_Source\PSoC4/CapSense_SensingCSD_LL.c **** *
1692:Generated_Source\PSoC4/CapSense_SensingCSD_LL.c **** * \param  snsAddrPtr
1693:Generated_Source\PSoC4/CapSense_SensingCSD_LL.c **** *  Specify the pointer to the FLASH_IO_STRUCT object belonging to a sensor
1694:Generated_Source\PSoC4/CapSense_SensingCSD_LL.c **** *  which should be connected to the CapSense block.
1695:Generated_Source\PSoC4/CapSense_SensingCSD_LL.c **** *
1696:Generated_Source\PSoC4/CapSense_SensingCSD_LL.c **** *******************************************************************************/
ARM GAS  C:\Users\Jerry\AppData\Local\Temp\cc2mbs0O.s 			page 43


1697:Generated_Source\PSoC4/CapSense_SensingCSD_LL.c **** void CapSense_CSDConnectSns(CapSense_FLASH_IO_STRUCT const *snsAddrPtr)
1698:Generated_Source\PSoC4/CapSense_SensingCSD_LL.c **** {
1699:Generated_Source\PSoC4/CapSense_SensingCSD_LL.c ****     uint32 newRegisterValue;
1700:Generated_Source\PSoC4/CapSense_SensingCSD_LL.c ****     uint8  interruptState;
1701:Generated_Source\PSoC4/CapSense_SensingCSD_LL.c ****     uint32 pinModeShift;
1702:Generated_Source\PSoC4/CapSense_SensingCSD_LL.c ****     uint32 pinHSIOMShift;
1703:Generated_Source\PSoC4/CapSense_SensingCSD_LL.c **** 
1704:Generated_Source\PSoC4/CapSense_SensingCSD_LL.c ****     /* Get offsets for sensor */
1705:Generated_Source\PSoC4/CapSense_SensingCSD_LL.c ****     pinModeShift = (uint32)snsAddrPtr->shift;
1706:Generated_Source\PSoC4/CapSense_SensingCSD_LL.c ****     pinHSIOMShift = (uint32)snsAddrPtr->hsiomShift;
1707:Generated_Source\PSoC4/CapSense_SensingCSD_LL.c **** 
1708:Generated_Source\PSoC4/CapSense_SensingCSD_LL.c ****     interruptState = CyEnterCriticalSection();
1709:Generated_Source\PSoC4/CapSense_SensingCSD_LL.c **** 
1710:Generated_Source\PSoC4/CapSense_SensingCSD_LL.c ****     /* Use temporary variable to update registers without multiple writings to them */
1711:Generated_Source\PSoC4/CapSense_SensingCSD_LL.c ****     newRegisterValue = CY_GET_REG32(snsAddrPtr->hsiomPtr);
1712:Generated_Source\PSoC4/CapSense_SensingCSD_LL.c ****     newRegisterValue &= ~(CapSense_HSIOM_SEL_MASK << pinHSIOMShift);
1713:Generated_Source\PSoC4/CapSense_SensingCSD_LL.c ****     newRegisterValue |= (uint32)((uint32)CapSense_HSIOM_SEL_CSD_SENSE << pinHSIOMShift);
1714:Generated_Source\PSoC4/CapSense_SensingCSD_LL.c **** 
1715:Generated_Source\PSoC4/CapSense_SensingCSD_LL.c ****     /* Update port configuration register (drive mode) for sensor */
1716:Generated_Source\PSoC4/CapSense_SensingCSD_LL.c ****     CY_SET_REG32(snsAddrPtr->pcPtr, CY_GET_REG32(snsAddrPtr->pcPtr) & (uint32)~((uint32)CapSense_GP
1717:Generated_Source\PSoC4/CapSense_SensingCSD_LL.c **** 
1718:Generated_Source\PSoC4/CapSense_SensingCSD_LL.c ****     /* Update HSIOM register for sensor */
1719:Generated_Source\PSoC4/CapSense_SensingCSD_LL.c ****     CY_SET_REG32(snsAddrPtr->hsiomPtr, newRegisterValue);
1720:Generated_Source\PSoC4/CapSense_SensingCSD_LL.c **** 
1721:Generated_Source\PSoC4/CapSense_SensingCSD_LL.c ****     CyExitCriticalSection(interruptState);
1722:Generated_Source\PSoC4/CapSense_SensingCSD_LL.c **** }
1723:Generated_Source\PSoC4/CapSense_SensingCSD_LL.c **** 
1724:Generated_Source\PSoC4/CapSense_SensingCSD_LL.c **** 
1725:Generated_Source\PSoC4/CapSense_SensingCSD_LL.c **** /*******************************************************************************
1726:Generated_Source\PSoC4/CapSense_SensingCSD_LL.c **** * Function Name: CapSense_CSDDisconnectSns
1727:Generated_Source\PSoC4/CapSense_SensingCSD_LL.c **** ****************************************************************************//**
1728:Generated_Source\PSoC4/CapSense_SensingCSD_LL.c **** *
1729:Generated_Source\PSoC4/CapSense_SensingCSD_LL.c **** * \brief
1730:Generated_Source\PSoC4/CapSense_SensingCSD_LL.c **** *  Disconnects a sensor port-pin from the CapSense block and AMUX bus. Sets
1731:Generated_Source\PSoC4/CapSense_SensingCSD_LL.c **** *  the default state of the un-scanned sensor.
1732:Generated_Source\PSoC4/CapSense_SensingCSD_LL.c **** *
1733:Generated_Source\PSoC4/CapSense_SensingCSD_LL.c **** * \details
1734:Generated_Source\PSoC4/CapSense_SensingCSD_LL.c **** *  This function works identically to CapSense_CSDConnectSns() except
1735:Generated_Source\PSoC4/CapSense_SensingCSD_LL.c **** *  it disconnects the specified port-pin used by the sensor.
1736:Generated_Source\PSoC4/CapSense_SensingCSD_LL.c **** *
1737:Generated_Source\PSoC4/CapSense_SensingCSD_LL.c **** *  It is not recommended to call this function directly from the application
1738:Generated_Source\PSoC4/CapSense_SensingCSD_LL.c **** *  layer. This function should be used to implement only the users specific
1739:Generated_Source\PSoC4/CapSense_SensingCSD_LL.c **** *  use cases. Functions that perform a setup and scan of sensor/widget
1740:Generated_Source\PSoC4/CapSense_SensingCSD_LL.c **** *  automatically set the needed pin states and perform the sensor connection.
1741:Generated_Source\PSoC4/CapSense_SensingCSD_LL.c **** *  They do not take into account changes in the design made by the
1742:Generated_Source\PSoC4/CapSense_SensingCSD_LL.c **** *  CapSense_CSDDisconnectSns() function.
1743:Generated_Source\PSoC4/CapSense_SensingCSD_LL.c **** *
1744:Generated_Source\PSoC4/CapSense_SensingCSD_LL.c **** * \param  snsAddrPtr
1745:Generated_Source\PSoC4/CapSense_SensingCSD_LL.c **** *  Specify the pointer to the FLASH_IO_STRUCT object belonging to a sensor
1746:Generated_Source\PSoC4/CapSense_SensingCSD_LL.c **** *  which should be disconnected from the CapSense block.
1747:Generated_Source\PSoC4/CapSense_SensingCSD_LL.c **** *
1748:Generated_Source\PSoC4/CapSense_SensingCSD_LL.c **** *******************************************************************************/
1749:Generated_Source\PSoC4/CapSense_SensingCSD_LL.c **** void CapSense_CSDDisconnectSns(CapSense_FLASH_IO_STRUCT const *snsAddrPtr)
1750:Generated_Source\PSoC4/CapSense_SensingCSD_LL.c **** {
1751:Generated_Source\PSoC4/CapSense_SensingCSD_LL.c ****     uint32 pinHSIOMShift;
1752:Generated_Source\PSoC4/CapSense_SensingCSD_LL.c ****     uint32 newRegisterValue;
1753:Generated_Source\PSoC4/CapSense_SensingCSD_LL.c ****     uint32 pinModeShift;
ARM GAS  C:\Users\Jerry\AppData\Local\Temp\cc2mbs0O.s 			page 44


1754:Generated_Source\PSoC4/CapSense_SensingCSD_LL.c **** 
1755:Generated_Source\PSoC4/CapSense_SensingCSD_LL.c ****     #if ((CapSense_DISABLE == CapSense_CSD_SHIELD_EN) || \
1756:Generated_Source\PSoC4/CapSense_SensingCSD_LL.c ****         (CapSense_SNS_CONNECTION_SHIELD != CapSense_CSD_INACTIVE_SNS_CONNECTION))
1757:Generated_Source\PSoC4/CapSense_SensingCSD_LL.c ****         uint8  interruptState;
1758:Generated_Source\PSoC4/CapSense_SensingCSD_LL.c ****     #endif /* ((CapSense_DISABLE == CapSense_CSD_SHIELD_EN) && \
1759:Generated_Source\PSoC4/CapSense_SensingCSD_LL.c ****                 (CapSense_SNS_CONNECTION_SHIELD != CapSense_CSD_INACTIVE_SNS_CONNECTION))) */
1760:Generated_Source\PSoC4/CapSense_SensingCSD_LL.c **** 
1761:Generated_Source\PSoC4/CapSense_SensingCSD_LL.c ****     pinHSIOMShift = (uint32)snsAddrPtr->hsiomShift;
1762:Generated_Source\PSoC4/CapSense_SensingCSD_LL.c ****     pinModeShift = (uint32)snsAddrPtr->shift;
1763:Generated_Source\PSoC4/CapSense_SensingCSD_LL.c **** 
1764:Generated_Source\PSoC4/CapSense_SensingCSD_LL.c ****     #if ((CapSense_DISABLE == CapSense_CSD_SHIELD_EN) ||  \
1765:Generated_Source\PSoC4/CapSense_SensingCSD_LL.c ****         (CapSense_SNS_CONNECTION_SHIELD != CapSense_CSD_INACTIVE_SNS_CONNECTION))
1766:Generated_Source\PSoC4/CapSense_SensingCSD_LL.c ****         /* Update HSIOM register to disconnect sensor */
1767:Generated_Source\PSoC4/CapSense_SensingCSD_LL.c ****         CY_SET_REG32(snsAddrPtr->hsiomPtr, CY_GET_REG32(snsAddrPtr->hsiomPtr) & ~(CapSense_HSIOM_SE
1768:Generated_Source\PSoC4/CapSense_SensingCSD_LL.c **** 
1769:Generated_Source\PSoC4/CapSense_SensingCSD_LL.c ****         interruptState = CyEnterCriticalSection();
1770:Generated_Source\PSoC4/CapSense_SensingCSD_LL.c **** 
1771:Generated_Source\PSoC4/CapSense_SensingCSD_LL.c ****         /* Update port configuration register (drive mode) for sensor */
1772:Generated_Source\PSoC4/CapSense_SensingCSD_LL.c ****         newRegisterValue = CY_GET_REG32(snsAddrPtr->pcPtr);
1773:Generated_Source\PSoC4/CapSense_SensingCSD_LL.c ****         newRegisterValue &= ~(CapSense_GPIO_PC_MASK << pinModeShift);
1774:Generated_Source\PSoC4/CapSense_SensingCSD_LL.c ****         newRegisterValue |= CapSense_CSD_INACTIVE_SNS_CONNECTION << pinModeShift;
1775:Generated_Source\PSoC4/CapSense_SensingCSD_LL.c ****         CY_SET_REG32(snsAddrPtr->pcPtr, newRegisterValue);
1776:Generated_Source\PSoC4/CapSense_SensingCSD_LL.c **** 
1777:Generated_Source\PSoC4/CapSense_SensingCSD_LL.c ****         CyExitCriticalSection(interruptState);
1778:Generated_Source\PSoC4/CapSense_SensingCSD_LL.c **** 
1779:Generated_Source\PSoC4/CapSense_SensingCSD_LL.c ****         /* Set logic 0 to port data register */
1780:Generated_Source\PSoC4/CapSense_SensingCSD_LL.c ****         CY_SET_REG32(snsAddrPtr->drPtr, CY_GET_REG32(snsAddrPtr->drPtr) & (uint32)~(uint32)((uint32
1781:Generated_Source\PSoC4/CapSense_SensingCSD_LL.c ****     #else
1782:Generated_Source\PSoC4/CapSense_SensingCSD_LL.c ****         /* Update port configuration register (drive mode to HiZ Analog) for sensor */
1783:Generated_Source\PSoC4/CapSense_SensingCSD_LL.c ****         CY_SET_REG32(snsAddrPtr->pcPtr, CY_GET_REG32(snsAddrPtr->pcPtr) & (uint32)~((uint32)CapSens
1784:Generated_Source\PSoC4/CapSense_SensingCSD_LL.c **** 
1785:Generated_Source\PSoC4/CapSense_SensingCSD_LL.c ****         /* Connect to Shield */
1786:Generated_Source\PSoC4/CapSense_SensingCSD_LL.c ****         newRegisterValue = CY_GET_REG32(snsAddrPtr->hsiomPtr) & ~(CapSense_HSIOM_SEL_MASK << pinHSI
1787:Generated_Source\PSoC4/CapSense_SensingCSD_LL.c ****         newRegisterValue |= (CapSense_HSIOM_SEL_CSD_SHIELD << pinHSIOMShift);
1788:Generated_Source\PSoC4/CapSense_SensingCSD_LL.c ****         CY_SET_REG32(snsAddrPtr->hsiomPtr, newRegisterValue);
1789:Generated_Source\PSoC4/CapSense_SensingCSD_LL.c ****     #endif /* ((CapSense_DISABLE == CapSense_CSD_SHIELD_EN) && \
1790:Generated_Source\PSoC4/CapSense_SensingCSD_LL.c ****                 (CapSense_SNS_CONNECTION_SHIELD != CapSense_CSD_INACTIVE_SNS_CONNECTION)) */
1791:Generated_Source\PSoC4/CapSense_SensingCSD_LL.c **** }
1792:Generated_Source\PSoC4/CapSense_SensingCSD_LL.c **** 
1793:Generated_Source\PSoC4/CapSense_SensingCSD_LL.c **** #if ((CapSense_CSD_SS_DIS != CapSense_CSD_AUTOTUNE) || \
1794:Generated_Source\PSoC4/CapSense_SensingCSD_LL.c ****      (CapSense_ENABLE == CapSense_SELF_TEST_EN) || \
1795:Generated_Source\PSoC4/CapSense_SensingCSD_LL.c ****      (CapSense_ENABLE == CapSense_CSD_IDAC_AUTOCAL_EN))
1796:Generated_Source\PSoC4/CapSense_SensingCSD_LL.c ****     #if (CapSense_ENABLE == CapSense_CSD_IDAC_COMP_EN)
1797:Generated_Source\PSoC4/CapSense_SensingCSD_LL.c ****         /*******************************************************************************
1798:Generated_Source\PSoC4/CapSense_SensingCSD_LL.c ****         * Function Name: CapSense_SsCSDSetSingleIdacMode
1799:Generated_Source\PSoC4/CapSense_SensingCSD_LL.c ****         ****************************************************************************//**
1800:Generated_Source\PSoC4/CapSense_SensingCSD_LL.c ****         *
1801:Generated_Source\PSoC4/CapSense_SensingCSD_LL.c ****         * \brief
1802:Generated_Source\PSoC4/CapSense_SensingCSD_LL.c ****         *  This function set single IDAC mode.
1803:Generated_Source\PSoC4/CapSense_SensingCSD_LL.c ****         *
1804:Generated_Source\PSoC4/CapSense_SensingCSD_LL.c ****         * \details
1805:Generated_Source\PSoC4/CapSense_SensingCSD_LL.c ****         *   For CSDv1: The function enables Modulator IDAC only in variable mode.
1806:Generated_Source\PSoC4/CapSense_SensingCSD_LL.c ****         *   For CSDv2: The function enables IDACA LEG1 in CSD mode, IDACA LEG2 in GP mode.
1807:Generated_Source\PSoC4/CapSense_SensingCSD_LL.c ****         *
1808:Generated_Source\PSoC4/CapSense_SensingCSD_LL.c ****         *******************************************************************************/
1809:Generated_Source\PSoC4/CapSense_SensingCSD_LL.c ****         void CapSense_SsCSDSetSingleIdacMode(void)
1810:Generated_Source\PSoC4/CapSense_SensingCSD_LL.c ****         {
ARM GAS  C:\Users\Jerry\AppData\Local\Temp\cc2mbs0O.s 			page 45


1811:Generated_Source\PSoC4/CapSense_SensingCSD_LL.c ****             uint32 newRegValue;
1812:Generated_Source\PSoC4/CapSense_SensingCSD_LL.c **** 
1813:Generated_Source\PSoC4/CapSense_SensingCSD_LL.c ****             #if (CapSense_ENABLE == CapSense_CSDV2)
1814:Generated_Source\PSoC4/CapSense_SensingCSD_LL.c ****                 /* Enable IDACA LEG1 in CSD mode, IDACA LEG2 in GP mode */
1815:Generated_Source\PSoC4/CapSense_SensingCSD_LL.c ****                 newRegValue = CY_GET_REG32(CapSense_IDAC_MOD_PTR) &
1816:Generated_Source\PSoC4/CapSense_SensingCSD_LL.c ****                               CapSense_IDAC_MOD_VAL_MASK;
1817:Generated_Source\PSoC4/CapSense_SensingCSD_LL.c ****                 newRegValue |= CapSense_CALIBRATE_IDAC_MOD;
1818:Generated_Source\PSoC4/CapSense_SensingCSD_LL.c ****                 CY_SET_REG32(CapSense_IDAC_MOD_PTR, newRegValue);
1819:Generated_Source\PSoC4/CapSense_SensingCSD_LL.c ****                 #if (CapSense_ENABLE == CapSense_CSD_IDAC_COMP_EN) && \
1820:Generated_Source\PSoC4/CapSense_SensingCSD_LL.c ****                     (CapSense_ENABLE == CapSense_CSD_DEDICATED_IDAC_COMP_EN)
1821:Generated_Source\PSoC4/CapSense_SensingCSD_LL.c ****                     newRegValue = CY_GET_REG32(CapSense_IDAC_COMP_PTR) &
1822:Generated_Source\PSoC4/CapSense_SensingCSD_LL.c ****                                   CapSense_IDAC_COMP_VAL_MASK;
1823:Generated_Source\PSoC4/CapSense_SensingCSD_LL.c ****                     newRegValue |= CapSense_CALIBRATE_IDAC_COMP;
1824:Generated_Source\PSoC4/CapSense_SensingCSD_LL.c ****                     CY_SET_REG32(CapSense_IDAC_COMP_PTR, newRegValue);
1825:Generated_Source\PSoC4/CapSense_SensingCSD_LL.c ****                 #endif /* (CapSense_ENABLE == CapSense_CSD_IDAC_COMP_EN) && \
1826:Generated_Source\PSoC4/CapSense_SensingCSD_LL.c ****                           (CapSense_ENABLE == CapSense_CSD_DEDICATED_IDAC_COMP_EN */
1827:Generated_Source\PSoC4/CapSense_SensingCSD_LL.c ****             #else
1828:Generated_Source\PSoC4/CapSense_SensingCSD_LL.c ****                 /* Enable Modulator IDAC only in variable mode */
1829:Generated_Source\PSoC4/CapSense_SensingCSD_LL.c ****                 newRegValue = CY_GET_REG32(CapSense_IDAC_PTR) &
1830:Generated_Source\PSoC4/CapSense_SensingCSD_LL.c ****                               ~(CapSense_IDAC_MOD_MODE_MASK | CapSense_IDAC_COMP_MODE_MASK);
1831:Generated_Source\PSoC4/CapSense_SensingCSD_LL.c ****                 newRegValue |= CapSense_IDAC_MOD_MODE_VARIABLE;
1832:Generated_Source\PSoC4/CapSense_SensingCSD_LL.c ****                 CY_SET_REG32(CapSense_IDAC_PTR, newRegValue);
1833:Generated_Source\PSoC4/CapSense_SensingCSD_LL.c ****             #endif /* (CapSense_ENABLE == CapSense_CSDV2) */
1834:Generated_Source\PSoC4/CapSense_SensingCSD_LL.c ****         }
1835:Generated_Source\PSoC4/CapSense_SensingCSD_LL.c ****     #endif /* (CapSense_ENABLE == CapSense_CSD_IDAC_COMP_EN) */
1836:Generated_Source\PSoC4/CapSense_SensingCSD_LL.c **** #endif /* ((CapSense_CSD_SS_DIS != CapSense_CSD_AUTOTUNE) || \
1837:Generated_Source\PSoC4/CapSense_SensingCSD_LL.c ****            (CapSense_ENABLE == CapSense_SELF_TEST_EN) || \
1838:Generated_Source\PSoC4/CapSense_SensingCSD_LL.c ****            (CapSense_ENABLE == CapSense_CSD_IDAC_AUTOCAL_EN)) */
1839:Generated_Source\PSoC4/CapSense_SensingCSD_LL.c **** 
1840:Generated_Source\PSoC4/CapSense_SensingCSD_LL.c **** #if ((CapSense_CSD_SS_DIS != CapSense_CSD_AUTOTUNE) || \
1841:Generated_Source\PSoC4/CapSense_SensingCSD_LL.c ****      (CapSense_ENABLE == CapSense_CSD_IDAC_AUTOCAL_EN))
1842:Generated_Source\PSoC4/CapSense_SensingCSD_LL.c ****     #if (CapSense_ENABLE == CapSense_CSD_IDAC_COMP_EN)
1843:Generated_Source\PSoC4/CapSense_SensingCSD_LL.c ****         /*******************************************************************************
1844:Generated_Source\PSoC4/CapSense_SensingCSD_LL.c ****         * Function Name: CapSense_SsCSDRestoreIdacMode
1845:Generated_Source\PSoC4/CapSense_SensingCSD_LL.c ****         ****************************************************************************//**
1846:Generated_Source\PSoC4/CapSense_SensingCSD_LL.c ****         *
1847:Generated_Source\PSoC4/CapSense_SensingCSD_LL.c ****         * \brief
1848:Generated_Source\PSoC4/CapSense_SensingCSD_LL.c ****         *  This function restores IDAC configuration.
1849:Generated_Source\PSoC4/CapSense_SensingCSD_LL.c ****         *
1850:Generated_Source\PSoC4/CapSense_SensingCSD_LL.c ****         * \details
1851:Generated_Source\PSoC4/CapSense_SensingCSD_LL.c ****         *   The function restores Compensation IDAC if it is enabled.
1852:Generated_Source\PSoC4/CapSense_SensingCSD_LL.c ****         *
1853:Generated_Source\PSoC4/CapSense_SensingCSD_LL.c ****         *******************************************************************************/
1854:Generated_Source\PSoC4/CapSense_SensingCSD_LL.c ****         static void CapSense_SsCSDRestoreIdacMode(void)
1855:Generated_Source\PSoC4/CapSense_SensingCSD_LL.c ****         {
1856:Generated_Source\PSoC4/CapSense_SensingCSD_LL.c ****             /* Restore IDAC configuration */
1857:Generated_Source\PSoC4/CapSense_SensingCSD_LL.c ****             #if (CapSense_ENABLE == CapSense_CSDV2)
1858:Generated_Source\PSoC4/CapSense_SensingCSD_LL.c ****                 uint32 newRegValue;
1859:Generated_Source\PSoC4/CapSense_SensingCSD_LL.c **** 
1860:Generated_Source\PSoC4/CapSense_SensingCSD_LL.c ****                 newRegValue = CY_GET_REG32(CapSense_SW_REFGEN_SEL_PTR);
1861:Generated_Source\PSoC4/CapSense_SensingCSD_LL.c ****                 newRegValue |= CapSense_DEFAULT_SW_REFGEN_SEL;
1862:Generated_Source\PSoC4/CapSense_SensingCSD_LL.c ****                 CY_SET_REG32(CapSense_SW_REFGEN_SEL_PTR, newRegValue);
1863:Generated_Source\PSoC4/CapSense_SensingCSD_LL.c ****                 CY_SET_REG32(CapSense_IDAC_MOD_PTR, CapSense_DEFAULT_IDAC_MOD);
1864:Generated_Source\PSoC4/CapSense_SensingCSD_LL.c ****                 #if (CapSense_ENABLE == CapSense_CSD_IDAC_COMP_EN) && \
1865:Generated_Source\PSoC4/CapSense_SensingCSD_LL.c ****                     (CapSense_ENABLE == CapSense_CSD_DEDICATED_IDAC_COMP_EN)
1866:Generated_Source\PSoC4/CapSense_SensingCSD_LL.c ****                     CY_SET_REG32(CapSense_IDAC_COMP_PTR, (uint32)CapSense_DEFAULT_IDAC_COMP);
1867:Generated_Source\PSoC4/CapSense_SensingCSD_LL.c ****                 #endif /* (CapSense_ENABLE == CapSense_CSD_IDAC_COMP_EN) && \
ARM GAS  C:\Users\Jerry\AppData\Local\Temp\cc2mbs0O.s 			page 46


1868:Generated_Source\PSoC4/CapSense_SensingCSD_LL.c ****                           (CapSense_ENABLE == CapSense_CSD_DEDICATED_IDAC_COMP_EN */
1869:Generated_Source\PSoC4/CapSense_SensingCSD_LL.c ****             #else
1870:Generated_Source\PSoC4/CapSense_SensingCSD_LL.c ****                 #if (CapSense_ENABLE == CapSense_CSD_IDAC_COMP_EN)
1871:Generated_Source\PSoC4/CapSense_SensingCSD_LL.c ****                     CY_SET_REG32(CapSense_IDAC_PTR, CapSense_DEFAULT_CSD_IDAC_CONFIG);
1872:Generated_Source\PSoC4/CapSense_SensingCSD_LL.c ****                 #else
1873:Generated_Source\PSoC4/CapSense_SensingCSD_LL.c ****                     CY_SET_REG32(CapSense_IDAC_PTR, CY_GET_REG32(CapSense_IDAC_PTR) &
1874:Generated_Source\PSoC4/CapSense_SensingCSD_LL.c ****                                                                         ~(CapSense_IDAC_MOD_MODE_MA
1875:Generated_Source\PSoC4/CapSense_SensingCSD_LL.c ****                     CY_SET_REG32(CapSense_IDAC_PTR, CY_GET_REG32(CapSense_IDAC_PTR) | CapSense_DEFA
1876:Generated_Source\PSoC4/CapSense_SensingCSD_LL.c ****                 #endif /* (CapSense_ENABLE == CapSense_CSD_IDAC_COMP_EN) */
1877:Generated_Source\PSoC4/CapSense_SensingCSD_LL.c ****             #endif /* (CapSense_ENABLE == CapSense_CSDV2) */
1878:Generated_Source\PSoC4/CapSense_SensingCSD_LL.c ****         }
1879:Generated_Source\PSoC4/CapSense_SensingCSD_LL.c ****     #endif /* (CapSense_ENABLE == CapSense_CSD_IDAC_COMP_EN) */
1880:Generated_Source\PSoC4/CapSense_SensingCSD_LL.c **** 
1881:Generated_Source\PSoC4/CapSense_SensingCSD_LL.c ****     /*******************************************************************************
1882:Generated_Source\PSoC4/CapSense_SensingCSD_LL.c ****     * Function Name: CapSense_SsCSDCalibrateCheck
1883:Generated_Source\PSoC4/CapSense_SensingCSD_LL.c ****     ****************************************************************************//**
1884:Generated_Source\PSoC4/CapSense_SensingCSD_LL.c ****     *
1885:Generated_Source\PSoC4/CapSense_SensingCSD_LL.c ****     * \brief
1886:Generated_Source\PSoC4/CapSense_SensingCSD_LL.c ****     *  This internal function checks if the calibration is performed successfully.
1887:Generated_Source\PSoC4/CapSense_SensingCSD_LL.c ****     *
1888:Generated_Source\PSoC4/CapSense_SensingCSD_LL.c ****     * \details
1889:Generated_Source\PSoC4/CapSense_SensingCSD_LL.c ****     *   The function verifies calibration error based on maximum raw count level.
1890:Generated_Source\PSoC4/CapSense_SensingCSD_LL.c ****     *
1891:Generated_Source\PSoC4/CapSense_SensingCSD_LL.c ****     * \param rawLevel The raw data level which should be reached during the
1892:Generated_Source\PSoC4/CapSense_SensingCSD_LL.c ****     *   calibration procedure.
1893:Generated_Source\PSoC4/CapSense_SensingCSD_LL.c ****     * \param rawData  Calibrated raw counts.
1894:Generated_Source\PSoC4/CapSense_SensingCSD_LL.c ****     *
1895:Generated_Source\PSoC4/CapSense_SensingCSD_LL.c ****     * \return Returns the status of operation:
1896:Generated_Source\PSoC4/CapSense_SensingCSD_LL.c ****     *   - Zero     - All the sensors in the widget are calibrated successfully.
1897:Generated_Source\PSoC4/CapSense_SensingCSD_LL.c ****     *   - Non-Zero - Calibration failed for any sensor in the widget.
1898:Generated_Source\PSoC4/CapSense_SensingCSD_LL.c ****     *
1899:Generated_Source\PSoC4/CapSense_SensingCSD_LL.c ****     *******************************************************************************/
1900:Generated_Source\PSoC4/CapSense_SensingCSD_LL.c ****     static cystatus CapSense_SsCSDCalibrateCheck(CapSense_RAM_WD_BASE_STRUCT const *ptrWdgt, uint32
1901:Generated_Source\PSoC4/CapSense_SensingCSD_LL.c ****     {
1902:Generated_Source\PSoC4/CapSense_SensingCSD_LL.c ****         cystatus calibrateStatus;
1903:Generated_Source\PSoC4/CapSense_SensingCSD_LL.c ****         uint32 rawCountsError;
1904:Generated_Source\PSoC4/CapSense_SensingCSD_LL.c ****         uint32 minRawLevel = 0u;
1905:Generated_Source\PSoC4/CapSense_SensingCSD_LL.c ****         uint32 maxRawLevel = (0x00000001Lu << ptrWdgt->resolution) - 1u;
1906:Generated_Source\PSoC4/CapSense_SensingCSD_LL.c **** 
1907:Generated_Source\PSoC4/CapSense_SensingCSD_LL.c ****         /* Calculate the error in rawcounts for given resolution (round to floor) */
1908:Generated_Source\PSoC4/CapSense_SensingCSD_LL.c ****         rawCountsError = ((maxRawLevel * CapSense_IDAC_MOD_MAX_CALIB_ERROR_NEG) /
1909:Generated_Source\PSoC4/CapSense_SensingCSD_LL.c ****                           CapSense_PERCENTAGE_100) + 1u;
1910:Generated_Source\PSoC4/CapSense_SensingCSD_LL.c **** 
1911:Generated_Source\PSoC4/CapSense_SensingCSD_LL.c ****         /* Get minimum and maximum range values */
1912:Generated_Source\PSoC4/CapSense_SensingCSD_LL.c ****         if ((rawLevel + rawCountsError) <= maxRawLevel)
1913:Generated_Source\PSoC4/CapSense_SensingCSD_LL.c ****         {
1914:Generated_Source\PSoC4/CapSense_SensingCSD_LL.c ****             maxRawLevel = rawLevel + rawCountsError;
1915:Generated_Source\PSoC4/CapSense_SensingCSD_LL.c ****         }
1916:Generated_Source\PSoC4/CapSense_SensingCSD_LL.c ****         if (rawLevel >= rawCountsError)
1917:Generated_Source\PSoC4/CapSense_SensingCSD_LL.c ****         {
1918:Generated_Source\PSoC4/CapSense_SensingCSD_LL.c ****             minRawLevel = rawLevel - rawCountsError;
1919:Generated_Source\PSoC4/CapSense_SensingCSD_LL.c ****         }
1920:Generated_Source\PSoC4/CapSense_SensingCSD_LL.c **** 
1921:Generated_Source\PSoC4/CapSense_SensingCSD_LL.c ****         /* Check if calibration is in valid range */
1922:Generated_Source\PSoC4/CapSense_SensingCSD_LL.c ****         if ((rawData < minRawLevel) || (rawData > maxRawLevel))
1923:Generated_Source\PSoC4/CapSense_SensingCSD_LL.c ****         {
1924:Generated_Source\PSoC4/CapSense_SensingCSD_LL.c ****             calibrateStatus = CYRET_BAD_DATA;
ARM GAS  C:\Users\Jerry\AppData\Local\Temp\cc2mbs0O.s 			page 47


1925:Generated_Source\PSoC4/CapSense_SensingCSD_LL.c ****         }
1926:Generated_Source\PSoC4/CapSense_SensingCSD_LL.c ****         else
1927:Generated_Source\PSoC4/CapSense_SensingCSD_LL.c ****         {
1928:Generated_Source\PSoC4/CapSense_SensingCSD_LL.c ****             calibrateStatus = CYRET_SUCCESS;
1929:Generated_Source\PSoC4/CapSense_SensingCSD_LL.c ****         }
1930:Generated_Source\PSoC4/CapSense_SensingCSD_LL.c **** 
1931:Generated_Source\PSoC4/CapSense_SensingCSD_LL.c ****         return (calibrateStatus);
1932:Generated_Source\PSoC4/CapSense_SensingCSD_LL.c ****     }
1933:Generated_Source\PSoC4/CapSense_SensingCSD_LL.c **** 
1934:Generated_Source\PSoC4/CapSense_SensingCSD_LL.c ****     /*******************************************************************************
1935:Generated_Source\PSoC4/CapSense_SensingCSD_LL.c ****     * Function Name: CapSense_SsCSDCalibrateOneSensor
1936:Generated_Source\PSoC4/CapSense_SensingCSD_LL.c ****     ****************************************************************************//**
1937:Generated_Source\PSoC4/CapSense_SensingCSD_LL.c ****     *
1938:Generated_Source\PSoC4/CapSense_SensingCSD_LL.c ****     * \brief
1939:Generated_Source\PSoC4/CapSense_SensingCSD_LL.c ****     *  Computes the Modulator IDAC value for one sensor that provides raw signal at
1940:Generated_Source\PSoC4/CapSense_SensingCSD_LL.c ****     *  the specified level.
1941:Generated_Source\PSoC4/CapSense_SensingCSD_LL.c ****     *
1942:Generated_Source\PSoC4/CapSense_SensingCSD_LL.c ****     * \details
1943:Generated_Source\PSoC4/CapSense_SensingCSD_LL.c ****     *   The function performs the following tasks:
1944:Generated_Source\PSoC4/CapSense_SensingCSD_LL.c ****     *   1. Initialises The Compensation IDAC to zero
1945:Generated_Source\PSoC4/CapSense_SensingCSD_LL.c ****     *   2. Enables the calibrated sensor
1946:Generated_Source\PSoC4/CapSense_SensingCSD_LL.c ****     *   3. Performs eight iteration steps to get the target = rawLevel
1947:Generated_Source\PSoC4/CapSense_SensingCSD_LL.c ****     *      setting and resetting the IDAC value bits beginning from the
1948:Generated_Source\PSoC4/CapSense_SensingCSD_LL.c ****     *      MSB bit to an MSB bit.
1949:Generated_Source\PSoC4/CapSense_SensingCSD_LL.c ****     *   4. Disables the calibrated sensor
1950:Generated_Source\PSoC4/CapSense_SensingCSD_LL.c ****     *   5. Checks if the IDAC is in the correct range
1951:Generated_Source\PSoC4/CapSense_SensingCSD_LL.c ****     *   6. Updates the maximum IDAC value in the widget
1952:Generated_Source\PSoC4/CapSense_SensingCSD_LL.c ****     *   7. Stores the temporary ModIDAC8 value (in the single-IDAC mode).
1953:Generated_Source\PSoC4/CapSense_SensingCSD_LL.c ****     *
1954:Generated_Source\PSoC4/CapSense_SensingCSD_LL.c ****     *  The CSD block should be initialized with the CapSense_SsCSDInitialize()
1955:Generated_Source\PSoC4/CapSense_SensingCSD_LL.c ****     *  API before using this function.
1956:Generated_Source\PSoC4/CapSense_SensingCSD_LL.c ****     *
1957:Generated_Source\PSoC4/CapSense_SensingCSD_LL.c ****     * \param  rawLevel
1958:Generated_Source\PSoC4/CapSense_SensingCSD_LL.c ****     *   The raw data level which should be reached during the calibration procedure.
1959:Generated_Source\PSoC4/CapSense_SensingCSD_LL.c ****     * \param  ptrIdac  The pointer to IDAC.
1960:Generated_Source\PSoC4/CapSense_SensingCSD_LL.c ****     * \param  iDAC8Max The pointer to the maximum IDAC value in the widget.
1961:Generated_Source\PSoC4/CapSense_SensingCSD_LL.c ****     *
1962:Generated_Source\PSoC4/CapSense_SensingCSD_LL.c ****     * \return Returns the status of operation:
1963:Generated_Source\PSoC4/CapSense_SensingCSD_LL.c ****     *  - Zero     - All the sensors in the widget are calibrated successfully.
1964:Generated_Source\PSoC4/CapSense_SensingCSD_LL.c ****     *  - Non-Zero - Calibration failed for any sensor in the widget.
1965:Generated_Source\PSoC4/CapSense_SensingCSD_LL.c ****     *
1966:Generated_Source\PSoC4/CapSense_SensingCSD_LL.c ****     *******************************************************************************/
1967:Generated_Source\PSoC4/CapSense_SensingCSD_LL.c ****     static cystatus CapSense_SsCSDCalibrateOneSensor(uint32 rawLevel,
1968:Generated_Source\PSoC4/CapSense_SensingCSD_LL.c ****                                                            uint8 *ptrIdac,
1969:Generated_Source\PSoC4/CapSense_SensingCSD_LL.c ****                                                            uint8 *iDAC8Max)
1970:Generated_Source\PSoC4/CapSense_SensingCSD_LL.c ****     {
1971:Generated_Source\PSoC4/CapSense_SensingCSD_LL.c ****         cystatus calibrateStatus;
1972:Generated_Source\PSoC4/CapSense_SensingCSD_LL.c ****         uint32 rawData0;
1973:Generated_Source\PSoC4/CapSense_SensingCSD_LL.c ****         uint8 calMask = (uint8)CapSense_CAL_MIDDLE_BIT;
1974:Generated_Source\PSoC4/CapSense_SensingCSD_LL.c ****         uint32 watchdogCounter;
1975:Generated_Source\PSoC4/CapSense_SensingCSD_LL.c ****         #if (CapSense_ENABLE == CapSense_MULTI_FREQ_SCAN_EN)
1976:Generated_Source\PSoC4/CapSense_SensingCSD_LL.c ****             uint32 rawData1;
1977:Generated_Source\PSoC4/CapSense_SensingCSD_LL.c ****             uint32 rawData2;
1978:Generated_Source\PSoC4/CapSense_SensingCSD_LL.c ****         #endif /* (CapSense_ENABLE == CapSense_MULTI_FREQ_SCAN_EN) */
1979:Generated_Source\PSoC4/CapSense_SensingCSD_LL.c **** 
1980:Generated_Source\PSoC4/CapSense_SensingCSD_LL.c ****         /*  Declare and initialise ptr to widget and sensor structures to appropriate address      
1981:Generated_Source\PSoC4/CapSense_SensingCSD_LL.c ****         CapSense_RAM_WD_BASE_STRUCT *ptrWdgt = (CapSense_RAM_WD_BASE_STRUCT *)
ARM GAS  C:\Users\Jerry\AppData\Local\Temp\cc2mbs0O.s 			page 48


1982:Generated_Source\PSoC4/CapSense_SensingCSD_LL.c ****                                                         CapSense_dsFlash.wdgtArray[CapSense_widgetI
1983:Generated_Source\PSoC4/CapSense_SensingCSD_LL.c **** 
1984:Generated_Source\PSoC4/CapSense_SensingCSD_LL.c ****         /* Init compensation IDAC */
1985:Generated_Source\PSoC4/CapSense_SensingCSD_LL.c ****         ptrIdac[0u] = calMask;
1986:Generated_Source\PSoC4/CapSense_SensingCSD_LL.c ****         #if (CapSense_ENABLE == CapSense_MULTI_FREQ_SCAN_EN)
1987:Generated_Source\PSoC4/CapSense_SensingCSD_LL.c ****             ptrIdac[CapSense_FREQ_CHANNEL_1] = calMask;
1988:Generated_Source\PSoC4/CapSense_SensingCSD_LL.c ****             ptrIdac[CapSense_FREQ_CHANNEL_2] = calMask;
1989:Generated_Source\PSoC4/CapSense_SensingCSD_LL.c ****         #endif /* (CapSense_ENABLE == CapSense_MULTI_FREQ_SCAN_EN) */
1990:Generated_Source\PSoC4/CapSense_SensingCSD_LL.c **** 
1991:Generated_Source\PSoC4/CapSense_SensingCSD_LL.c ****         /* Setup the calibrated sensor of the widget (Set IDAC = calMask and connect the sensor) */
1992:Generated_Source\PSoC4/CapSense_SensingCSD_LL.c ****         CapSense_CSDSetupWidgetExt((uint32)CapSense_widgetIndex, (uint32)CapSense_sensorIndex);
1993:Generated_Source\PSoC4/CapSense_SensingCSD_LL.c **** 
1994:Generated_Source\PSoC4/CapSense_SensingCSD_LL.c ****         #if (CapSense_ENABLE == CapSense_CSD_IDAC_COMP_EN)
1995:Generated_Source\PSoC4/CapSense_SensingCSD_LL.c ****             /* Set single IDAC mode */
1996:Generated_Source\PSoC4/CapSense_SensingCSD_LL.c ****             CapSense_SsCSDSetSingleIdacMode();
1997:Generated_Source\PSoC4/CapSense_SensingCSD_LL.c ****         #endif /* (CapSense_ENABLE == CapSense_MULTI_FREQ_SCAN_EN) */
1998:Generated_Source\PSoC4/CapSense_SensingCSD_LL.c **** 
1999:Generated_Source\PSoC4/CapSense_SensingCSD_LL.c ****         /*
2000:Generated_Source\PSoC4/CapSense_SensingCSD_LL.c ****          * Perform the iteration steps to get target = rawLevel.
2001:Generated_Source\PSoC4/CapSense_SensingCSD_LL.c ****          * The number of iteration steps is defined by calMask and depend on IDAC resolution.
2002:Generated_Source\PSoC4/CapSense_SensingCSD_LL.c ****          */
2003:Generated_Source\PSoC4/CapSense_SensingCSD_LL.c ****         do
2004:Generated_Source\PSoC4/CapSense_SensingCSD_LL.c ****         {
2005:Generated_Source\PSoC4/CapSense_SensingCSD_LL.c ****             /* Scan sensor */
2006:Generated_Source\PSoC4/CapSense_SensingCSD_LL.c ****             CapSense_CSDScanExt();
2007:Generated_Source\PSoC4/CapSense_SensingCSD_LL.c **** 
2008:Generated_Source\PSoC4/CapSense_SensingCSD_LL.c ****             /* Initialize Watchdog Counter with time interval which is enough to charge 100 nF capa
2009:Generated_Source\PSoC4/CapSense_SensingCSD_LL.c ****             watchdogCounter = CapSense_CALIBR_WATCHDOG_CYCLES_NUM;
2010:Generated_Source\PSoC4/CapSense_SensingCSD_LL.c ****             while (((*(volatile uint8 *)&CapSense_dsRam.status & CapSense_SW_STS_BUSY) != 0u) &&
2011:Generated_Source\PSoC4/CapSense_SensingCSD_LL.c ****                    (0u != watchdogCounter))
2012:Generated_Source\PSoC4/CapSense_SensingCSD_LL.c ****             {
2013:Generated_Source\PSoC4/CapSense_SensingCSD_LL.c ****                 /* Wait until scan complete and decrement Watchdog Counter to prevent unending loop
2014:Generated_Source\PSoC4/CapSense_SensingCSD_LL.c ****                 watchdogCounter--;
2015:Generated_Source\PSoC4/CapSense_SensingCSD_LL.c ****             }
2016:Generated_Source\PSoC4/CapSense_SensingCSD_LL.c **** 
2017:Generated_Source\PSoC4/CapSense_SensingCSD_LL.c ****             /* Read rawData */
2018:Generated_Source\PSoC4/CapSense_SensingCSD_LL.c ****             rawData0 = CapSense_curRamSnsPtr->raw[0u];
2019:Generated_Source\PSoC4/CapSense_SensingCSD_LL.c ****             #if(CapSense_ENABLE == CapSense_MULTI_FREQ_SCAN_EN)
2020:Generated_Source\PSoC4/CapSense_SensingCSD_LL.c ****                 rawData1 = CapSense_curRamSnsPtr->raw[CapSense_FREQ_CHANNEL_1];
2021:Generated_Source\PSoC4/CapSense_SensingCSD_LL.c ****                 rawData2 = CapSense_curRamSnsPtr->raw[CapSense_FREQ_CHANNEL_2];
2022:Generated_Source\PSoC4/CapSense_SensingCSD_LL.c ****             #endif /* (CapSense_ENABLE == CapSense_MULTI_FREQ_SCAN_EN) */
2023:Generated_Source\PSoC4/CapSense_SensingCSD_LL.c **** 
2024:Generated_Source\PSoC4/CapSense_SensingCSD_LL.c ****             /* Decrease IDAC until rawData reaches rawLevel */
2025:Generated_Source\PSoC4/CapSense_SensingCSD_LL.c ****             if (rawData0 < rawLevel)
2026:Generated_Source\PSoC4/CapSense_SensingCSD_LL.c ****             {
2027:Generated_Source\PSoC4/CapSense_SensingCSD_LL.c ****                 /* Reset bit for null channel (decrease IDAC -> will increase rawData) */
2028:Generated_Source\PSoC4/CapSense_SensingCSD_LL.c ****                 ptrIdac[0u] &= (uint8)(~calMask);
2029:Generated_Source\PSoC4/CapSense_SensingCSD_LL.c ****             }
2030:Generated_Source\PSoC4/CapSense_SensingCSD_LL.c ****             #if (CapSense_ENABLE == CapSense_MULTI_FREQ_SCAN_EN)
2031:Generated_Source\PSoC4/CapSense_SensingCSD_LL.c ****                 if (rawData1 < rawLevel)
2032:Generated_Source\PSoC4/CapSense_SensingCSD_LL.c ****                 {
2033:Generated_Source\PSoC4/CapSense_SensingCSD_LL.c ****                     /* Reset bit for null channel  */
2034:Generated_Source\PSoC4/CapSense_SensingCSD_LL.c ****                     ptrIdac[CapSense_FREQ_CHANNEL_1] &= (uint8)(~calMask);
2035:Generated_Source\PSoC4/CapSense_SensingCSD_LL.c ****                 }
2036:Generated_Source\PSoC4/CapSense_SensingCSD_LL.c ****                 if (rawData2 < rawLevel)
2037:Generated_Source\PSoC4/CapSense_SensingCSD_LL.c ****                 {
2038:Generated_Source\PSoC4/CapSense_SensingCSD_LL.c ****                     /* Reset bit for null channel  */
ARM GAS  C:\Users\Jerry\AppData\Local\Temp\cc2mbs0O.s 			page 49


2039:Generated_Source\PSoC4/CapSense_SensingCSD_LL.c ****                     ptrIdac[CapSense_FREQ_CHANNEL_2] &= (uint8)(~calMask);
2040:Generated_Source\PSoC4/CapSense_SensingCSD_LL.c ****                 }
2041:Generated_Source\PSoC4/CapSense_SensingCSD_LL.c ****             #endif /* (CapSense_ENABLE == CapSense_MULTI_FREQ_SCAN_EN) */
2042:Generated_Source\PSoC4/CapSense_SensingCSD_LL.c **** 
2043:Generated_Source\PSoC4/CapSense_SensingCSD_LL.c ****             /* Shift calMask to set or reset next bit */
2044:Generated_Source\PSoC4/CapSense_SensingCSD_LL.c ****             calMask >>= 1u;
2045:Generated_Source\PSoC4/CapSense_SensingCSD_LL.c **** 
2046:Generated_Source\PSoC4/CapSense_SensingCSD_LL.c ****             /* Set bit for null channel */
2047:Generated_Source\PSoC4/CapSense_SensingCSD_LL.c ****             ptrIdac[0u] |= calMask;
2048:Generated_Source\PSoC4/CapSense_SensingCSD_LL.c ****             #if (CapSense_ENABLE == CapSense_MULTI_FREQ_SCAN_EN)
2049:Generated_Source\PSoC4/CapSense_SensingCSD_LL.c ****                 ptrIdac[CapSense_FREQ_CHANNEL_1] |= calMask;
2050:Generated_Source\PSoC4/CapSense_SensingCSD_LL.c ****                 ptrIdac[CapSense_FREQ_CHANNEL_2] |= calMask;
2051:Generated_Source\PSoC4/CapSense_SensingCSD_LL.c ****             #endif /* (CapSense_ENABLE == CapSense_MULTI_FREQ_SCAN_EN) */
2052:Generated_Source\PSoC4/CapSense_SensingCSD_LL.c **** 
2053:Generated_Source\PSoC4/CapSense_SensingCSD_LL.c ****             /* Update IDAC */
2054:Generated_Source\PSoC4/CapSense_SensingCSD_LL.c ****             CapSense_SsCSDSetUpIdacs(ptrWdgt);
2055:Generated_Source\PSoC4/CapSense_SensingCSD_LL.c ****         }
2056:Generated_Source\PSoC4/CapSense_SensingCSD_LL.c ****         while (calMask > 0u);
2057:Generated_Source\PSoC4/CapSense_SensingCSD_LL.c **** 
2058:Generated_Source\PSoC4/CapSense_SensingCSD_LL.c ****         #if (CapSense_ENABLE == CapSense_CSD_GANGED_SNS_EN)
2059:Generated_Source\PSoC4/CapSense_SensingCSD_LL.c ****             CapSense_SsCSDDisconnectSnsExt((uint32)CapSense_widgetIndex, (uint32)CapSense_sensorInd
2060:Generated_Source\PSoC4/CapSense_SensingCSD_LL.c ****         #else
2061:Generated_Source\PSoC4/CapSense_SensingCSD_LL.c ****             /*  Initialise pointer to sensor IO structure    */
2062:Generated_Source\PSoC4/CapSense_SensingCSD_LL.c ****             CapSense_curSnsIOPtr = (CapSense_FLASH_IO_STRUCT const *)
2063:Generated_Source\PSoC4/CapSense_SensingCSD_LL.c ****                                             CapSense_dsFlash.wdgtArray[CapSense_widgetIndex].ptr2Sn
2064:Generated_Source\PSoC4/CapSense_SensingCSD_LL.c ****                                             + CapSense_sensorIndex;
2065:Generated_Source\PSoC4/CapSense_SensingCSD_LL.c **** 
2066:Generated_Source\PSoC4/CapSense_SensingCSD_LL.c ****             /* Disable sensor */
2067:Generated_Source\PSoC4/CapSense_SensingCSD_LL.c ****             CapSense_CSDDisconnectSns(CapSense_curSnsIOPtr);
2068:Generated_Source\PSoC4/CapSense_SensingCSD_LL.c ****         #endif /* (CapSense_ENABLE == CapSense_CSD_GANGED_SNS_EN)  */
2069:Generated_Source\PSoC4/CapSense_SensingCSD_LL.c **** 
2070:Generated_Source\PSoC4/CapSense_SensingCSD_LL.c ****         /* Set flag about disconnecting the electrode */
2071:Generated_Source\PSoC4/CapSense_SensingCSD_LL.c ****         CapSense_eleCsdDisconnectFlag = 0u;
2072:Generated_Source\PSoC4/CapSense_SensingCSD_LL.c **** 
2073:Generated_Source\PSoC4/CapSense_SensingCSD_LL.c ****         #if (CapSense_ENABLE == CapSense_CSD_IDAC_COMP_EN)
2074:Generated_Source\PSoC4/CapSense_SensingCSD_LL.c ****             /* Restore IDAC configuration to default state */
2075:Generated_Source\PSoC4/CapSense_SensingCSD_LL.c ****             CapSense_SsCSDRestoreIdacMode();
2076:Generated_Source\PSoC4/CapSense_SensingCSD_LL.c ****         #endif /* (CapSense_ENABLE == CapSense_MULTI_FREQ_SCAN_EN) */
2077:Generated_Source\PSoC4/CapSense_SensingCSD_LL.c **** 
2078:Generated_Source\PSoC4/CapSense_SensingCSD_LL.c ****         /* Check if IDAC is in correct range */
2079:Generated_Source\PSoC4/CapSense_SensingCSD_LL.c ****         calibrateStatus = CapSense_SsCSDCalibrateCheck(ptrWdgt, rawLevel, rawData0);
2080:Generated_Source\PSoC4/CapSense_SensingCSD_LL.c ****         #if (CapSense_ENABLE == CapSense_MULTI_FREQ_SCAN_EN)
2081:Generated_Source\PSoC4/CapSense_SensingCSD_LL.c ****             calibrateStatus |= CapSense_SsCSDCalibrateCheck(ptrWdgt, rawLevel, rawData1);
2082:Generated_Source\PSoC4/CapSense_SensingCSD_LL.c ****             calibrateStatus |= CapSense_SsCSDCalibrateCheck(ptrWdgt, rawLevel, rawData2);
2083:Generated_Source\PSoC4/CapSense_SensingCSD_LL.c ****         #endif /* (CapSense_ENABLE == CapSense_MULTI_FREQ_SCAN_EN) */
2084:Generated_Source\PSoC4/CapSense_SensingCSD_LL.c **** 
2085:Generated_Source\PSoC4/CapSense_SensingCSD_LL.c ****         /*
2086:Generated_Source\PSoC4/CapSense_SensingCSD_LL.c ****          * Update maximum IDAC value in widget. iDAC8Max variable will contain
