ARM GAS  C:\Users\Jerry\AppData\Local\Temp\ccv40r80.s 			page 1


   1              		.cpu cortex-m0plus
   2              		.fpu softvfp
   3              		.eabi_attribute 20, 1
   4              		.eabi_attribute 21, 1
   5              		.eabi_attribute 23, 3
   6              		.eabi_attribute 24, 1
   7              		.eabi_attribute 25, 1
   8              		.eabi_attribute 26, 1
   9              		.eabi_attribute 30, 4
  10              		.eabi_attribute 34, 0
  11              		.eabi_attribute 18, 4
  12              		.code	16
  13              		.file	"CapSense_Sensing.c"
  14              		.text
  15              	.Ltext0:
  16              		.cfi_sections	.debug_frame
  17              		.section	.text.CapSense_IsBusy,"ax",%progbits
  18              		.align	1
  19              		.global	CapSense_IsBusy
  20              		.code	16
  21              		.thumb_func
  22              		.type	CapSense_IsBusy, %function
  23              	CapSense_IsBusy:
  24              	.LFB1:
  25              		.file 1 "Generated_Source\\PSoC4\\CapSense_Sensing.c"
   1:Generated_Source\PSoC4/CapSense_Sensing.c **** /***************************************************************************//**
   2:Generated_Source\PSoC4/CapSense_Sensing.c **** * \file CapSense_Sensing.c
   3:Generated_Source\PSoC4/CapSense_Sensing.c **** * \version 3.10
   4:Generated_Source\PSoC4/CapSense_Sensing.c **** *
   5:Generated_Source\PSoC4/CapSense_Sensing.c **** * \brief
   6:Generated_Source\PSoC4/CapSense_Sensing.c **** *   This file contains the source of functions common for
   7:Generated_Source\PSoC4/CapSense_Sensing.c **** *   different sensing methods.
   8:Generated_Source\PSoC4/CapSense_Sensing.c **** *
   9:Generated_Source\PSoC4/CapSense_Sensing.c **** * \see CapSense P4 v3.10 Datasheet
  10:Generated_Source\PSoC4/CapSense_Sensing.c **** *
  11:Generated_Source\PSoC4/CapSense_Sensing.c **** *//*****************************************************************************
  12:Generated_Source\PSoC4/CapSense_Sensing.c **** * Copyright (2016), Cypress Semiconductor Corporation.
  13:Generated_Source\PSoC4/CapSense_Sensing.c **** ********************************************************************************
  14:Generated_Source\PSoC4/CapSense_Sensing.c **** * This software is owned by Cypress Semiconductor Corporation (Cypress) and is
  15:Generated_Source\PSoC4/CapSense_Sensing.c **** * protected by and subject to worldwide patent protection (United States and
  16:Generated_Source\PSoC4/CapSense_Sensing.c **** * foreign), United States copyright laws and international treaty provisions.
  17:Generated_Source\PSoC4/CapSense_Sensing.c **** * Cypress hereby grants to licensee a personal, non-exclusive, non-transferable
  18:Generated_Source\PSoC4/CapSense_Sensing.c **** * license to copy, use, modify, create derivative works of, and compile the
  19:Generated_Source\PSoC4/CapSense_Sensing.c **** * Cypress Source Code and derivative works for the sole purpose of creating
  20:Generated_Source\PSoC4/CapSense_Sensing.c **** * custom software in support of licensee product to be used only in conjunction
  21:Generated_Source\PSoC4/CapSense_Sensing.c **** * with a Cypress integrated circuit as specified in the applicable agreement.
  22:Generated_Source\PSoC4/CapSense_Sensing.c **** * Any reproduction, modification, translation, compilation, or representation of
  23:Generated_Source\PSoC4/CapSense_Sensing.c **** * this software except as specified above is prohibited without the express
  24:Generated_Source\PSoC4/CapSense_Sensing.c **** * written permission of Cypress.
  25:Generated_Source\PSoC4/CapSense_Sensing.c **** *
  26:Generated_Source\PSoC4/CapSense_Sensing.c **** * Disclaimer: CYPRESS MAKES NO WARRANTY OF ANY KIND, EXPRESS OR IMPLIED, WITH
  27:Generated_Source\PSoC4/CapSense_Sensing.c **** * REGARD TO THIS MATERIAL, INCLUDING, BUT NOT LIMITED TO, THE IMPLIED
  28:Generated_Source\PSoC4/CapSense_Sensing.c **** * WARRANTIES OF MERCHANTABILITY AND FITNESS FOR A PARTICULAR PURPOSE.
  29:Generated_Source\PSoC4/CapSense_Sensing.c **** * Cypress reserves the right to make changes without further notice to the
  30:Generated_Source\PSoC4/CapSense_Sensing.c **** * materials described herein. Cypress does not assume any liability arising out
  31:Generated_Source\PSoC4/CapSense_Sensing.c **** * of the application or use of any product or circuit described herein. Cypress
  32:Generated_Source\PSoC4/CapSense_Sensing.c **** * does not authorize its products for use as critical components in life-support
ARM GAS  C:\Users\Jerry\AppData\Local\Temp\ccv40r80.s 			page 2


  33:Generated_Source\PSoC4/CapSense_Sensing.c **** * systems where a malfunction or failure may reasonably be expected to result in
  34:Generated_Source\PSoC4/CapSense_Sensing.c **** * significant injury to the user. The inclusion of Cypress' product in a life-
  35:Generated_Source\PSoC4/CapSense_Sensing.c **** * support systems application implies that the manufacturer assumes all risk of
  36:Generated_Source\PSoC4/CapSense_Sensing.c **** * such use and in doing so indemnifies Cypress against all charges. Use may be
  37:Generated_Source\PSoC4/CapSense_Sensing.c **** * limited by and subject to the applicable Cypress software license agreement.
  38:Generated_Source\PSoC4/CapSense_Sensing.c **** *******************************************************************************/
  39:Generated_Source\PSoC4/CapSense_Sensing.c **** 
  40:Generated_Source\PSoC4/CapSense_Sensing.c **** #include "cyfitter.h"
  41:Generated_Source\PSoC4/CapSense_Sensing.c **** #include "CapSense_Structure.h"
  42:Generated_Source\PSoC4/CapSense_Sensing.c **** #include "CapSense_Configuration.h"
  43:Generated_Source\PSoC4/CapSense_Sensing.c **** #include "CapSense_Sensing.h"
  44:Generated_Source\PSoC4/CapSense_Sensing.c **** #if (CapSense_ENABLE == CapSense_SELF_TEST_EN)
  45:Generated_Source\PSoC4/CapSense_Sensing.c ****     #include "CapSense_SelfTest.h"
  46:Generated_Source\PSoC4/CapSense_Sensing.c **** #endif
  47:Generated_Source\PSoC4/CapSense_Sensing.c **** 
  48:Generated_Source\PSoC4/CapSense_Sensing.c **** /***************************************
  49:Generated_Source\PSoC4/CapSense_Sensing.c **** * API Constants
  50:Generated_Source\PSoC4/CapSense_Sensing.c **** ***************************************/
  51:Generated_Source\PSoC4/CapSense_Sensing.c **** 
  52:Generated_Source\PSoC4/CapSense_Sensing.c **** #define CapSense_WIDGET_NUM_32                          (32u)
  53:Generated_Source\PSoC4/CapSense_Sensing.c **** #define CapSense_WIDGET_NUM_32_DIV_SHIFT                (5u)
  54:Generated_Source\PSoC4/CapSense_Sensing.c **** #define CapSense_WIDGET_NUM_32_MASK                     (0x0000001FLu)
  55:Generated_Source\PSoC4/CapSense_Sensing.c **** #define CapSense_CALIBRATION_RESOLUTION                 (12u)
  56:Generated_Source\PSoC4/CapSense_Sensing.c **** #define CapSense_COARSE_TRIM_THRESHOLD_1                (40u)
  57:Generated_Source\PSoC4/CapSense_Sensing.c **** #define CapSense_COARSE_TRIM_THRESHOLD_2                (215u)
  58:Generated_Source\PSoC4/CapSense_Sensing.c **** #define CapSense_FREQUENCY_OFFSET_5                     (20u)
  59:Generated_Source\PSoC4/CapSense_Sensing.c **** #define CapSense_FREQUENCY_OFFSET_10                    (40u)
  60:Generated_Source\PSoC4/CapSense_Sensing.c **** #define CapSense_CALIBRATION_FREQ_KHZ                   (1500u)
  61:Generated_Source\PSoC4/CapSense_Sensing.c **** #define CapSense_CALIBRATION_MD                         (2u)
  62:Generated_Source\PSoC4/CapSense_Sensing.c **** #define CapSense_MIN_IMO_FREQ_KHZ                       (6000u)
  63:Generated_Source\PSoC4/CapSense_Sensing.c **** #define CapSense_CSD_AUTOTUNE_CAL_LEVEL                 (CapSense_CSD_RAWCOUNT_CAL_LEVEL)
  64:Generated_Source\PSoC4/CapSense_Sensing.c **** #define CapSense_CP_MIN                                 (0u)
  65:Generated_Source\PSoC4/CapSense_Sensing.c **** #define CapSense_CP_MAX                                 (65000Lu)
  66:Generated_Source\PSoC4/CapSense_Sensing.c **** #define CapSense_CP_ERROR                               (4000Lu)
  67:Generated_Source\PSoC4/CapSense_Sensing.c **** #if (CapSense_ENABLE == CapSense_CSD2X_EN)
  68:Generated_Source\PSoC4/CapSense_Sensing.c ****     #define CapSense_TOTAL_SLOTS                        (CapSense_TOTAL_SCAN_SLOTS)
  69:Generated_Source\PSoC4/CapSense_Sensing.c **** #else
  70:Generated_Source\PSoC4/CapSense_Sensing.c ****     #define CapSense_TOTAL_SLOTS                        (CapSense_TOTAL_WIDGETS)
  71:Generated_Source\PSoC4/CapSense_Sensing.c **** #endif /* (CapSense_ENABLE == CapSense_CSD2X_EN) */
  72:Generated_Source\PSoC4/CapSense_Sensing.c **** 
  73:Generated_Source\PSoC4/CapSense_Sensing.c **** #define CapSense_CLK_SOURCE_LFSR_SCALE_OFFSET           (4u)
  74:Generated_Source\PSoC4/CapSense_Sensing.c **** 
  75:Generated_Source\PSoC4/CapSense_Sensing.c **** #if (CapSense_CLK_SOURCE_DIRECT != CapSense_CSD_SNS_CLK_SOURCE)
  76:Generated_Source\PSoC4/CapSense_Sensing.c ****     #if (CapSense_ENABLE == CapSense_CSDV2)
  77:Generated_Source\PSoC4/CapSense_Sensing.c ****         #define CapSense_PRS_FACTOR_DIV                 (2u)
  78:Generated_Source\PSoC4/CapSense_Sensing.c ****     #else
  79:Generated_Source\PSoC4/CapSense_Sensing.c ****         #define CapSense_PRS_FACTOR_DIV                 (1u)
  80:Generated_Source\PSoC4/CapSense_Sensing.c ****     #endif /* (CapSense_ENABLE == CapSense_CSDV2) */
  81:Generated_Source\PSoC4/CapSense_Sensing.c **** #else
  82:Generated_Source\PSoC4/CapSense_Sensing.c ****     #define CapSense_PRS_FACTOR_DIV                     (0u)
  83:Generated_Source\PSoC4/CapSense_Sensing.c **** #endif /* (CapSense_CLK_SOURCE_DIRECT != CapSense_CSD_SNS_CLK_SOURCE) */
  84:Generated_Source\PSoC4/CapSense_Sensing.c **** 
  85:Generated_Source\PSoC4/CapSense_Sensing.c **** #define CapSense_FLIP_FLOP_DIV                          (1u)
  86:Generated_Source\PSoC4/CapSense_Sensing.c **** 
  87:Generated_Source\PSoC4/CapSense_Sensing.c **** #define CapSense_MOD_CSD_CLK_12000KHZ                   (12000uL)
  88:Generated_Source\PSoC4/CapSense_Sensing.c **** #define CapSense_MOD_CSD_CLK_24000KHZ                   (24000uL)
  89:Generated_Source\PSoC4/CapSense_Sensing.c **** #define CapSense_MOD_CSD_CLK_48000KHZ                   (48000uL)
ARM GAS  C:\Users\Jerry\AppData\Local\Temp\ccv40r80.s 			page 3


  90:Generated_Source\PSoC4/CapSense_Sensing.c **** 
  91:Generated_Source\PSoC4/CapSense_Sensing.c **** #if ((CapSense_CLK_SOURCE_PRS8 == CapSense_CSD_SNS_CLK_SOURCE) || \
  92:Generated_Source\PSoC4/CapSense_Sensing.c ****     (CapSense_CLK_SOURCE_PRS12 == CapSense_CSD_SNS_CLK_SOURCE) || \
  93:Generated_Source\PSoC4/CapSense_Sensing.c ****     (CapSense_CLK_SOURCE_PRSAUTO == CapSense_CSD_SNS_CLK_SOURCE))
  94:Generated_Source\PSoC4/CapSense_Sensing.c ****     #define CapSense_FACTOR_FILTER_DELAY_12MHZ          (2u)
  95:Generated_Source\PSoC4/CapSense_Sensing.c **** #else
  96:Generated_Source\PSoC4/CapSense_Sensing.c ****     #define CapSense_FACTOR_FILTER_DELAY_12MHZ          (4u)
  97:Generated_Source\PSoC4/CapSense_Sensing.c **** #endif /* (CapSense_CLK_SOURCE_DIRECT != CapSense_CSD_SNS_CLK_SOURCE) */
  98:Generated_Source\PSoC4/CapSense_Sensing.c **** 
  99:Generated_Source\PSoC4/CapSense_Sensing.c **** #define CapSense_FACTOR_MOD_SNS                         (8u)
 100:Generated_Source\PSoC4/CapSense_Sensing.c **** #define CapSense_UINT8_MAX_VAL                          (0xFFu)
 101:Generated_Source\PSoC4/CapSense_Sensing.c **** #define CapSense_MSB_OFFSET                             (8u)
 102:Generated_Source\PSoC4/CapSense_Sensing.c **** 
 103:Generated_Source\PSoC4/CapSense_Sensing.c **** /*****************************************************************************/
 104:Generated_Source\PSoC4/CapSense_Sensing.c **** /* Enumeration types definition                                               */
 105:Generated_Source\PSoC4/CapSense_Sensing.c **** /*****************************************************************************/
 106:Generated_Source\PSoC4/CapSense_Sensing.c **** 
 107:Generated_Source\PSoC4/CapSense_Sensing.c **** typedef enum
 108:Generated_Source\PSoC4/CapSense_Sensing.c **** {
 109:Generated_Source\PSoC4/CapSense_Sensing.c ****     CapSense_RES_PULLUP_E   = 0x02u,
 110:Generated_Source\PSoC4/CapSense_Sensing.c ****     CapSense_RES_PULLDOWN_E = 0x03u
 111:Generated_Source\PSoC4/CapSense_Sensing.c **** } CapSense_PORT_TEST_DM;
 112:Generated_Source\PSoC4/CapSense_Sensing.c **** 
 113:Generated_Source\PSoC4/CapSense_Sensing.c **** typedef enum
 114:Generated_Source\PSoC4/CapSense_Sensing.c **** {
 115:Generated_Source\PSoC4/CapSense_Sensing.c ****     CapSense_STS_RESET      = 0x01u,
 116:Generated_Source\PSoC4/CapSense_Sensing.c ****     CapSense_STS_NO_RESET   = 0x02u
 117:Generated_Source\PSoC4/CapSense_Sensing.c **** } CapSense_TEST_TYPE;
 118:Generated_Source\PSoC4/CapSense_Sensing.c **** 
 119:Generated_Source\PSoC4/CapSense_Sensing.c **** 
 120:Generated_Source\PSoC4/CapSense_Sensing.c **** /*******************************************************************************
 121:Generated_Source\PSoC4/CapSense_Sensing.c **** * Static Function Prototypes
 122:Generated_Source\PSoC4/CapSense_Sensing.c **** *******************************************************************************/
 123:Generated_Source\PSoC4/CapSense_Sensing.c **** /**
 124:Generated_Source\PSoC4/CapSense_Sensing.c **** * \if SECTION_CAPSENSE_INTERNAL
 125:Generated_Source\PSoC4/CapSense_Sensing.c **** * \addtogroup group_capsense_internal
 126:Generated_Source\PSoC4/CapSense_Sensing.c **** * \{
 127:Generated_Source\PSoC4/CapSense_Sensing.c **** */
 128:Generated_Source\PSoC4/CapSense_Sensing.c **** 
 129:Generated_Source\PSoC4/CapSense_Sensing.c **** #if (CapSense_DISABLE == CapSense_CSDV2)
 130:Generated_Source\PSoC4/CapSense_Sensing.c ****     static void CapSense_SsTrimIdacs(void);
 131:Generated_Source\PSoC4/CapSense_Sensing.c ****     #if ((CapSense_ENABLE == CapSense_CSX_EN) || \
 132:Generated_Source\PSoC4/CapSense_Sensing.c ****          (CapSense_IDAC_SINKING == CapSense_CSD_IDAC_CONFIG))
 133:Generated_Source\PSoC4/CapSense_Sensing.c ****         static void CapSense_SsTrimIdacsSinking(void);
 134:Generated_Source\PSoC4/CapSense_Sensing.c ****     #endif /* ((CapSense_ENABLE == CapSense_CSX_EN) || \
 135:Generated_Source\PSoC4/CapSense_Sensing.c ****                (CapSense_IDAC_SINKING == CapSense_CSD_IDAC_CONFIG)) */
 136:Generated_Source\PSoC4/CapSense_Sensing.c ****     #if ((CapSense_ENABLE == CapSense_CSX_EN) || \
 137:Generated_Source\PSoC4/CapSense_Sensing.c ****          (CapSense_IDAC_SOURCING == CapSense_CSD_IDAC_CONFIG))
 138:Generated_Source\PSoC4/CapSense_Sensing.c ****         static void CapSense_SsTrimIdacsSourcing(void);
 139:Generated_Source\PSoC4/CapSense_Sensing.c ****     #endif /* ((CapSense_ENABLE == CapSense_CSX_EN) || \
 140:Generated_Source\PSoC4/CapSense_Sensing.c ****                (CapSense_IDAC_SOURCING == CapSense_CSD_IDAC_CONFIG)) */
 141:Generated_Source\PSoC4/CapSense_Sensing.c **** #endif /* (CapSense_ENABLE == CapSense_CSDV2) */
 142:Generated_Source\PSoC4/CapSense_Sensing.c **** #if ((CapSense_ENABLE == CapSense_CSD_CSX_EN) || \
 143:Generated_Source\PSoC4/CapSense_Sensing.c ****      (CapSense_ENABLE == CapSense_SELF_TEST_EN) || \
 144:Generated_Source\PSoC4/CapSense_Sensing.c ****      (CapSense_ENABLE == CapSense_ADC_EN))
 145:Generated_Source\PSoC4/CapSense_Sensing.c ****     #if (CapSense_ENABLE == CapSense_CSD_EN)
 146:Generated_Source\PSoC4/CapSense_Sensing.c ****         static void CapSense_SsCSDDisableMode(void);
ARM GAS  C:\Users\Jerry\AppData\Local\Temp\ccv40r80.s 			page 4


 147:Generated_Source\PSoC4/CapSense_Sensing.c ****     #endif /* (CapSense_ENABLE == CapSense_CSD_EN) */
 148:Generated_Source\PSoC4/CapSense_Sensing.c ****     #if (CapSense_ENABLE == CapSense_CSX_EN)
 149:Generated_Source\PSoC4/CapSense_Sensing.c ****         static void CapSense_SsDisableCSXMode(void);
 150:Generated_Source\PSoC4/CapSense_Sensing.c ****     #endif /* (CapSense_ENABLE == CapSense_CSX_EN) */
 151:Generated_Source\PSoC4/CapSense_Sensing.c **** #endif /* ((CapSense_ENABLE == CapSense_CSD_CSX_EN) || \
 152:Generated_Source\PSoC4/CapSense_Sensing.c ****            (CapSense_ENABLE == CapSense_SELF_TEST_EN) || \
 153:Generated_Source\PSoC4/CapSense_Sensing.c ****            (CapSense_ENABLE == CapSense_ADC_EN)) */
 154:Generated_Source\PSoC4/CapSense_Sensing.c **** #if (CapSense_CSD_SS_DIS != CapSense_CSD_AUTOTUNE)
 155:Generated_Source\PSoC4/CapSense_Sensing.c ****     #if (CapSense_ENABLE == CapSense_CSD2X_EN)
 156:Generated_Source\PSoC4/CapSense_Sensing.c ****         static void CapSense_SsSetCSD0DirectClockMode(void);
 157:Generated_Source\PSoC4/CapSense_Sensing.c ****         static void CapSense_SsSetCSD1DirectClockMode(void);
 158:Generated_Source\PSoC4/CapSense_Sensing.c ****     #else
 159:Generated_Source\PSoC4/CapSense_Sensing.c ****         static void CapSense_SsSetDirectClockMode(void);
 160:Generated_Source\PSoC4/CapSense_Sensing.c ****     #endif /* (CapSense_ENABLE == CapSense_CSD2X_EN) */
 161:Generated_Source\PSoC4/CapSense_Sensing.c **** #endif /* (CapSense_CSD_SS_DIS != CapSense_CSD_AUTOTUNE) */
 162:Generated_Source\PSoC4/CapSense_Sensing.c **** 
 163:Generated_Source\PSoC4/CapSense_Sensing.c **** #if(((CapSense_ENABLE == CapSense_CSX_EN) && \
 164:Generated_Source\PSoC4/CapSense_Sensing.c ****      (CapSense_ENABLE == CapSense_CSDV2) && \
 165:Generated_Source\PSoC4/CapSense_Sensing.c ****      (CapSense_CLK_SOURCE_PRSAUTO == CapSense_CSX_TX_CLK_SOURCE)) ||\
 166:Generated_Source\PSoC4/CapSense_Sensing.c ****     ((CapSense_ENABLE == CapSense_CSD_EN) && \
 167:Generated_Source\PSoC4/CapSense_Sensing.c ****      (CapSense_ENABLE == CapSense_CSDV2) && \
 168:Generated_Source\PSoC4/CapSense_Sensing.c ****      (CapSense_CLK_SOURCE_PRSAUTO == CapSense_CSD_SNS_CLK_SOURCE)))
 169:Generated_Source\PSoC4/CapSense_Sensing.c ****     static CY_INLINE uint8 CapSense_SsCalcLfsrSize(uint32 snsClkDivider, uint32 conversionsNum);
 170:Generated_Source\PSoC4/CapSense_Sensing.c ****     static CY_INLINE uint8 CapSense_SsCalcLfsrScale(uint32 snsClkDivider, uint8 lfsrSize);
 171:Generated_Source\PSoC4/CapSense_Sensing.c **** #endif /* (((CapSense_ENABLE == CapSense_CSX_EN) && \
 172:Generated_Source\PSoC4/CapSense_Sensing.c ****             (CapSense_ENABLE == CapSense_CSDV2) && \
 173:Generated_Source\PSoC4/CapSense_Sensing.c ****             (CapSense_CLK_SOURCE_PRSAUTO == CapSense_CSX_TX_CLK_SOURCE)) ||\
 174:Generated_Source\PSoC4/CapSense_Sensing.c ****            ((CapSense_ENABLE == CapSense_CSD_EN) && \
 175:Generated_Source\PSoC4/CapSense_Sensing.c ****             (CapSense_ENABLE == CapSense_CSDV2) && \
 176:Generated_Source\PSoC4/CapSense_Sensing.c ****             (CapSense_CLK_SOURCE_PRSAUTO == CapSense_CSD_SNS_CLK_SOURCE))) */
 177:Generated_Source\PSoC4/CapSense_Sensing.c **** #if ((CapSense_CSD_SS_DIS != CapSense_CSD_AUTOTUNE) && \
 178:Generated_Source\PSoC4/CapSense_Sensing.c ****     (CapSense_ENABLE == CapSense_CSD2X_EN))
 179:Generated_Source\PSoC4/CapSense_Sensing.c ****     static void CapSense_SsSetEqualSlotClock(void);
 180:Generated_Source\PSoC4/CapSense_Sensing.c **** #endif /* ((CapSense_CSD_SS_DIS != CapSense_CSD_AUTOTUNE) \
 181:Generated_Source\PSoC4/CapSense_Sensing.c ****            (CapSense_ENABLE == CapSense_CSD2X_EN)) */
 182:Generated_Source\PSoC4/CapSense_Sensing.c **** #if ((CapSense_ENABLE == CapSense_CSD_EN) || (CapSense_ENABLE == CapSense_CSD2X_EN))
 183:Generated_Source\PSoC4/CapSense_Sensing.c ****     static void CapSense_SsSetWidgetSenseClkSrc(uint32 wdgtIndex, CapSense_RAM_WD_BASE_STRUCT * ptr
 184:Generated_Source\PSoC4/CapSense_Sensing.c **** #endif /* ((CapSense_ENABLE == CapSense_CSD_EN) || (CapSense_ENABLE == CapSense_CSD2X_EN)) */
 185:Generated_Source\PSoC4/CapSense_Sensing.c **** 
 186:Generated_Source\PSoC4/CapSense_Sensing.c **** #if ((CapSense_ENABLE == CapSense_CSX_EN) && (CapSense_ENABLE == CapSense_CSDV2))
 187:Generated_Source\PSoC4/CapSense_Sensing.c ****     static void CapSense_SsSetWidgetTxClkSrc(uint32 wdgtIndex, CapSense_RAM_WD_BASE_STRUCT * ptrWdg
 188:Generated_Source\PSoC4/CapSense_Sensing.c **** #endif /* ((CapSense_ENABLE == CapSense_CSX_EN) && (CapSense_ENABLE == CapSense_CSDV2)) */
 189:Generated_Source\PSoC4/CapSense_Sensing.c **** 
 190:Generated_Source\PSoC4/CapSense_Sensing.c **** /** \}
 191:Generated_Source\PSoC4/CapSense_Sensing.c **** * \endif */
 192:Generated_Source\PSoC4/CapSense_Sensing.c **** 
 193:Generated_Source\PSoC4/CapSense_Sensing.c **** /*******************************************************************************
 194:Generated_Source\PSoC4/CapSense_Sensing.c **** * Define module variables
 195:Generated_Source\PSoC4/CapSense_Sensing.c **** *******************************************************************************/
 196:Generated_Source\PSoC4/CapSense_Sensing.c **** 
 197:Generated_Source\PSoC4/CapSense_Sensing.c **** #if ((CapSense_ENABLE == CapSense_CSD_CSX_EN) || \
 198:Generated_Source\PSoC4/CapSense_Sensing.c ****      (CapSense_ENABLE == CapSense_SELF_TEST_EN) || \
 199:Generated_Source\PSoC4/CapSense_Sensing.c ****      (CapSense_ENABLE == CapSense_ADC_EN))
 200:Generated_Source\PSoC4/CapSense_Sensing.c ****     CapSense_SENSE_METHOD_ENUM CapSense_currentSenseMethod = CapSense_UNDEFINED_E;
 201:Generated_Source\PSoC4/CapSense_Sensing.c **** #endif /* ((CapSense_ENABLE == CapSense_CSD_CSX_EN) || \
 202:Generated_Source\PSoC4/CapSense_Sensing.c ****            (CapSense_ENABLE == CapSense_SELF_TEST_EN) || \
 203:Generated_Source\PSoC4/CapSense_Sensing.c ****            (CapSense_ENABLE == CapSense_ADC_EN))) */
ARM GAS  C:\Users\Jerry\AppData\Local\Temp\ccv40r80.s 			page 5


 204:Generated_Source\PSoC4/CapSense_Sensing.c **** 
 205:Generated_Source\PSoC4/CapSense_Sensing.c **** #if(CapSense_ENABLE == CapSense_MULTI_FREQ_SCAN_EN)
 206:Generated_Source\PSoC4/CapSense_Sensing.c ****     /*  Module variable keep track of frequency hopping channel index   */
 207:Generated_Source\PSoC4/CapSense_Sensing.c ****     uint8 CapSense_scanFreqIndex = 0u;
 208:Generated_Source\PSoC4/CapSense_Sensing.c ****     /*  Variable keep frequency offsets */
 209:Generated_Source\PSoC4/CapSense_Sensing.c ****     uint8 CapSense_immunity[CapSense_NUM_SCAN_FREQS] = {0u, 0u, 0u};
 210:Generated_Source\PSoC4/CapSense_Sensing.c **** #else
 211:Generated_Source\PSoC4/CapSense_Sensing.c ****     /* const allows C-compiler to do optimization */
 212:Generated_Source\PSoC4/CapSense_Sensing.c ****     const uint8 CapSense_scanFreqIndex = 0u;
 213:Generated_Source\PSoC4/CapSense_Sensing.c **** #endif /* (CapSense_ENABLE == CapSense_MULTI_FREQ_SCAN_EN) */
 214:Generated_Source\PSoC4/CapSense_Sensing.c **** 
 215:Generated_Source\PSoC4/CapSense_Sensing.c **** /* Global software variables */
 216:Generated_Source\PSoC4/CapSense_Sensing.c **** #if (CapSense_ENABLE == CapSense_CSD2X_EN)
 217:Generated_Source\PSoC4/CapSense_Sensing.c ****     volatile uint8 CapSense_widgetIndex0 = 0u;    /* Index of the scanning widget0 */
 218:Generated_Source\PSoC4/CapSense_Sensing.c ****     volatile uint8 CapSense_sensorIndex0 = 0u;    /* Index of the scanning sensor0 */
 219:Generated_Source\PSoC4/CapSense_Sensing.c ****     volatile uint8 CapSense_widgetIndex1 = 0u;    /* Index of the scanning widget1 */
 220:Generated_Source\PSoC4/CapSense_Sensing.c ****     volatile uint8 CapSense_sensorIndex1 = 0u;    /* Index of the scanning sensor1 */
 221:Generated_Source\PSoC4/CapSense_Sensing.c **** #else
 222:Generated_Source\PSoC4/CapSense_Sensing.c ****     volatile uint8 CapSense_widgetIndex = 0u;    /* Index of the scanning widget */
 223:Generated_Source\PSoC4/CapSense_Sensing.c ****     volatile uint8 CapSense_sensorIndex = 0u;    /* Index of the scanning sensor */
 224:Generated_Source\PSoC4/CapSense_Sensing.c **** #endif /* (CapSense_ENABLE == CapSense_CSD2X_EN) */
 225:Generated_Source\PSoC4/CapSense_Sensing.c **** uint8 CapSense_requestScanAllWidget = 0u;
 226:Generated_Source\PSoC4/CapSense_Sensing.c **** #if (CapSense_CSD_SS_DIS != CapSense_CSD_AUTOTUNE)
 227:Generated_Source\PSoC4/CapSense_Sensing.c ****     uint8 CapSense_prescalersTuningDone = 0u;
 228:Generated_Source\PSoC4/CapSense_Sensing.c **** #endif /* (CapSense_CSD_SS_DIS != CapSense_CSD_AUTOTUNE) */
 229:Generated_Source\PSoC4/CapSense_Sensing.c **** 
 230:Generated_Source\PSoC4/CapSense_Sensing.c **** /* Pointer to RAM_SNS_STRUCT structure  */
 231:Generated_Source\PSoC4/CapSense_Sensing.c **** #if (CapSense_ENABLE == CapSense_CSD2X_EN)
 232:Generated_Source\PSoC4/CapSense_Sensing.c ****     CapSense_RAM_SNS_STRUCT *CapSense_curRamSnsPtr0;
 233:Generated_Source\PSoC4/CapSense_Sensing.c ****     CapSense_RAM_SNS_STRUCT *CapSense_curRamSnsPtr1;
 234:Generated_Source\PSoC4/CapSense_Sensing.c **** #else
 235:Generated_Source\PSoC4/CapSense_Sensing.c ****     CapSense_RAM_SNS_STRUCT *CapSense_curRamSnsPtr;
 236:Generated_Source\PSoC4/CapSense_Sensing.c **** #endif /* (CapSense_ENABLE == CapSense_CSD2X_EN) */
 237:Generated_Source\PSoC4/CapSense_Sensing.c **** 
 238:Generated_Source\PSoC4/CapSense_Sensing.c **** #if ((CapSense_ENABLE == CapSense_CSD_GANGED_SNS_EN) || \
 239:Generated_Source\PSoC4/CapSense_Sensing.c ****      (CapSense_ENABLE == CapSense_CSX_EN))
 240:Generated_Source\PSoC4/CapSense_Sensing.c ****     /*  Pointer to Flash structure holding configuration of widget to be scanned  */
 241:Generated_Source\PSoC4/CapSense_Sensing.c ****     #if (CapSense_ENABLE == CapSense_CSD2X_EN)
 242:Generated_Source\PSoC4/CapSense_Sensing.c ****          CapSense_FLASH_WD_STRUCT const *CapSense_curFlashWdgtPtr0 = 0u;
 243:Generated_Source\PSoC4/CapSense_Sensing.c ****          CapSense_FLASH_WD_STRUCT const *CapSense_curFlashWdgtPtr1 = 0u;
 244:Generated_Source\PSoC4/CapSense_Sensing.c ****     #else
 245:Generated_Source\PSoC4/CapSense_Sensing.c ****          CapSense_FLASH_WD_STRUCT const *CapSense_curFlashWdgtPtr = 0u;
 246:Generated_Source\PSoC4/CapSense_Sensing.c ****     #endif /* (CapSense_ENABLE == CapSense_CSD2X_EN) */
 247:Generated_Source\PSoC4/CapSense_Sensing.c **** #endif /* ((CapSense_ENABLE == CapSense_CSD_GANGED_SNS_EN) || \
 248:Generated_Source\PSoC4/CapSense_Sensing.c ****            (CapSense_ENABLE == CapSense_CSX_EN))  */
 249:Generated_Source\PSoC4/CapSense_Sensing.c **** #if (CapSense_ENABLE == CapSense_CSD_GANGED_SNS_EN)
 250:Generated_Source\PSoC4/CapSense_Sensing.c ****     /*  Pointer to Flash structure holding info of sensor to be scanned  */
 251:Generated_Source\PSoC4/CapSense_Sensing.c ****     #if (CapSense_ENABLE == CapSense_CSD2X_EN)
 252:Generated_Source\PSoC4/CapSense_Sensing.c ****         CapSense_FLASH_SNS_STRUCT const *CapSense_curFlashSnsPtr0 = 0u;
 253:Generated_Source\PSoC4/CapSense_Sensing.c ****         CapSense_FLASH_SNS_STRUCT const *CapSense_curFlashSnsPtr1 = 0u;
 254:Generated_Source\PSoC4/CapSense_Sensing.c ****     #else
 255:Generated_Source\PSoC4/CapSense_Sensing.c ****         CapSense_FLASH_SNS_STRUCT const *CapSense_curFlashSnsPtr = 0u;
 256:Generated_Source\PSoC4/CapSense_Sensing.c ****     #endif /* (CapSense_ENABLE == CapSense_CSD2X_EN) */
 257:Generated_Source\PSoC4/CapSense_Sensing.c **** #endif /* (CapSense_ENABLE == CapSense_CSD_GANGED_SNS_EN) */
 258:Generated_Source\PSoC4/CapSense_Sensing.c **** /*  Pointer to Flash structure to hold Sns electrode that was connected previously  */
 259:Generated_Source\PSoC4/CapSense_Sensing.c **** #if (CapSense_ENABLE == CapSense_CSD2X_EN)
 260:Generated_Source\PSoC4/CapSense_Sensing.c ****     CapSense_FLASH_IO_STRUCT const *CapSense_curSnsIOPtr0;
ARM GAS  C:\Users\Jerry\AppData\Local\Temp\ccv40r80.s 			page 6


 261:Generated_Source\PSoC4/CapSense_Sensing.c ****     CapSense_FLASH_IO_STRUCT const *CapSense_curSnsIOPtr1;
 262:Generated_Source\PSoC4/CapSense_Sensing.c **** #else
 263:Generated_Source\PSoC4/CapSense_Sensing.c ****     CapSense_FLASH_IO_STRUCT const *CapSense_curSnsIOPtr;
 264:Generated_Source\PSoC4/CapSense_Sensing.c **** #endif /* (CapSense_ENABLE == CapSense_CSD2X_EN) */
 265:Generated_Source\PSoC4/CapSense_Sensing.c **** 
 266:Generated_Source\PSoC4/CapSense_Sensing.c **** /*******************************************************************************
 267:Generated_Source\PSoC4/CapSense_Sensing.c **** * Function Name: CapSense_IsBusy
 268:Generated_Source\PSoC4/CapSense_Sensing.c **** ****************************************************************************//**
 269:Generated_Source\PSoC4/CapSense_Sensing.c **** *
 270:Generated_Source\PSoC4/CapSense_Sensing.c **** * \brief
 271:Generated_Source\PSoC4/CapSense_Sensing.c **** *  Returns the current status of the component (scan completed or scan in
 272:Generated_Source\PSoC4/CapSense_Sensing.c **** *  progress).
 273:Generated_Source\PSoC4/CapSense_Sensing.c **** *
 274:Generated_Source\PSoC4/CapSense_Sensing.c **** * \details
 275:Generated_Source\PSoC4/CapSense_Sensing.c **** *  This function returns the status of the hardware block whether a scan is
 276:Generated_Source\PSoC4/CapSense_Sensing.c **** *  currently in progress or not. If the component is busy, no new scan or setup
 277:Generated_Source\PSoC4/CapSense_Sensing.c **** *  widgets should be made. It is recommended using the critical section (i.e.
 278:Generated_Source\PSoC4/CapSense_Sensing.c **** *  disable global interrupt) in the application when the device transitions from
 279:Generated_Source\PSoC4/CapSense_Sensing.c **** *  the active mode to sleep or deep sleep mode.
 280:Generated_Source\PSoC4/CapSense_Sensing.c **** *
 281:Generated_Source\PSoC4/CapSense_Sensing.c **** * \return
 282:Generated_Source\PSoC4/CapSense_Sensing.c **** *  Returns the current status of the component:
 283:Generated_Source\PSoC4/CapSense_Sensing.c **** *    - CapSense_NOT_BUSY if there is no scan in progress and a next scan
 284:Generated_Source\PSoC4/CapSense_Sensing.c **** *      can be initiated.
 285:Generated_Source\PSoC4/CapSense_Sensing.c **** *    - CapSense_SW_STS_BUSY if the previous scanning is not completed
 286:Generated_Source\PSoC4/CapSense_Sensing.c **** *      and the hardware block is busy.
 287:Generated_Source\PSoC4/CapSense_Sensing.c **** *
 288:Generated_Source\PSoC4/CapSense_Sensing.c **** *******************************************************************************/
 289:Generated_Source\PSoC4/CapSense_Sensing.c **** uint32 CapSense_IsBusy(void)
 290:Generated_Source\PSoC4/CapSense_Sensing.c **** {
  26              		.loc 1 290 0
  27              		.cfi_startproc
 291:Generated_Source\PSoC4/CapSense_Sensing.c ****     return ((*(volatile uint32 *)&CapSense_dsRam.status) & CapSense_SW_STS_BUSY);
  28              		.loc 1 291 0
  29 0000 024B     		ldr	r3, .L2
 292:Generated_Source\PSoC4/CapSense_Sensing.c **** }
  30              		.loc 1 292 0
  31              		@ sp needed
 291:Generated_Source\PSoC4/CapSense_Sensing.c ****     return ((*(volatile uint32 *)&CapSense_dsRam.status) & CapSense_SW_STS_BUSY);
  32              		.loc 1 291 0
  33 0002 9868     		ldr	r0, [r3, #8]
  34 0004 8023     		mov	r3, #128
  35 0006 1840     		and	r0, r3
  36              		.loc 1 292 0
  37 0008 7047     		bx	lr
  38              	.L3:
  39 000a C046     		.align	2
  40              	.L2:
  41 000c 00000000 		.word	CapSense_dsRam
  42              		.cfi_endproc
  43              	.LFE1:
  44              		.size	CapSense_IsBusy, .-CapSense_IsBusy
  45              		.section	.text.CapSense_SetupWidget,"ax",%progbits
  46              		.align	1
  47              		.global	CapSense_SetupWidget
  48              		.code	16
  49              		.thumb_func
ARM GAS  C:\Users\Jerry\AppData\Local\Temp\ccv40r80.s 			page 7


  50              		.type	CapSense_SetupWidget, %function
  51              	CapSense_SetupWidget:
  52              	.LFB2:
 293:Generated_Source\PSoC4/CapSense_Sensing.c **** 
 294:Generated_Source\PSoC4/CapSense_Sensing.c **** /*******************************************************************************
 295:Generated_Source\PSoC4/CapSense_Sensing.c **** * Function Name: CapSense_SetupWidget
 296:Generated_Source\PSoC4/CapSense_Sensing.c **** ****************************************************************************//**
 297:Generated_Source\PSoC4/CapSense_Sensing.c **** *
 298:Generated_Source\PSoC4/CapSense_Sensing.c **** * \brief
 299:Generated_Source\PSoC4/CapSense_Sensing.c **** *  Performs the initialization required to scan the specified widget.
 300:Generated_Source\PSoC4/CapSense_Sensing.c **** *
 301:Generated_Source\PSoC4/CapSense_Sensing.c **** * \details
 302:Generated_Source\PSoC4/CapSense_Sensing.c **** *  This function prepares the component to scan all sensors in the specified
 303:Generated_Source\PSoC4/CapSense_Sensing.c **** *  widget, by executing the following tasks.
 304:Generated_Source\PSoC4/CapSense_Sensing.c **** *    1. Re-initialize the hardware if it is not configured to perform the
 305:Generated_Source\PSoC4/CapSense_Sensing.c **** *       sensing method used by the specified widget, this happens only if the
 306:Generated_Source\PSoC4/CapSense_Sensing.c **** *       CSD and CSX methods are used in the component.
 307:Generated_Source\PSoC4/CapSense_Sensing.c **** *    2. Initialize the hardware with specific sensing configuration (e.g.
 308:Generated_Source\PSoC4/CapSense_Sensing.c **** *       sensor clock, scan resolution) used by the widget.
 309:Generated_Source\PSoC4/CapSense_Sensing.c **** *    3. Disconnect all previously connected electrodes, if the electrodes
 310:Generated_Source\PSoC4/CapSense_Sensing.c **** *       connected by the CapSense_CSDSetupWidgetExt(),
 311:Generated_Source\PSoC4/CapSense_Sensing.c **** *       CapSense_CSXSetupWidgetExt() or CapSense_CSDConnectSns()
 312:Generated_Source\PSoC4/CapSense_Sensing.c **** *       functions and not disconnected.
 313:Generated_Source\PSoC4/CapSense_Sensing.c **** *
 314:Generated_Source\PSoC4/CapSense_Sensing.c **** *  This function does not start sensor scanning, the CapSense_Scan()
 315:Generated_Source\PSoC4/CapSense_Sensing.c **** *  function must be called to start the scan sensors in the widget. If this
 316:Generated_Source\PSoC4/CapSense_Sensing.c **** *  function is called more than once, it does not break the component operation,
 317:Generated_Source\PSoC4/CapSense_Sensing.c **** *  but only the last initialized widget is in effect.
 318:Generated_Source\PSoC4/CapSense_Sensing.c **** 
 319:Generated_Source\PSoC4/CapSense_Sensing.c **** *
 320:Generated_Source\PSoC4/CapSense_Sensing.c **** * \param wdgtIndex
 321:Generated_Source\PSoC4/CapSense_Sensing.c **** *  Specify the ID number of the widget to be initialized for scanning.
 322:Generated_Source\PSoC4/CapSense_Sensing.c **** *  A macro for the widget ID can be found in the
 323:Generated_Source\PSoC4/CapSense_Sensing.c **** *  CapSense Configuration header file defined as
 324:Generated_Source\PSoC4/CapSense_Sensing.c **** *  CapSense_<WidgetName>_WDGT_ID
 325:Generated_Source\PSoC4/CapSense_Sensing.c **** *
 326:Generated_Source\PSoC4/CapSense_Sensing.c **** * \return
 327:Generated_Source\PSoC4/CapSense_Sensing.c **** *  Returns the status of the widget setting up operation:
 328:Generated_Source\PSoC4/CapSense_Sensing.c **** *    - CYRET_SUCCESS if the operation is successfully completed.
 329:Generated_Source\PSoC4/CapSense_Sensing.c **** *    - CYRET_BAD_PARAM if the widget is invalid or if the specified widget is
 330:Generated_Source\PSoC4/CapSense_Sensing.c **** *      disabled
 331:Generated_Source\PSoC4/CapSense_Sensing.c **** *    - CYRET_INVALID_STATE if the previous scanning is not completed and the
 332:Generated_Source\PSoC4/CapSense_Sensing.c **** *      hardware block is busy.
 333:Generated_Source\PSoC4/CapSense_Sensing.c **** *    - CYRET_UNKNOWN if an unknown sensing method is used by the widget or
 334:Generated_Source\PSoC4/CapSense_Sensing.c **** *      other spurious errors.
 335:Generated_Source\PSoC4/CapSense_Sensing.c **** *
 336:Generated_Source\PSoC4/CapSense_Sensing.c **** **********************************************************************************/
 337:Generated_Source\PSoC4/CapSense_Sensing.c **** cystatus CapSense_SetupWidget(uint32 wdgtIndex)
 338:Generated_Source\PSoC4/CapSense_Sensing.c **** {
  53              		.loc 1 338 0
  54              		.cfi_startproc
  55              	.LVL0:
 339:Generated_Source\PSoC4/CapSense_Sensing.c ****     cystatus widgetStatus;
 340:Generated_Source\PSoC4/CapSense_Sensing.c **** 
 341:Generated_Source\PSoC4/CapSense_Sensing.c ****     if (CapSense_WDGT_SW_STS_BUSY == (CapSense_dsRam.status & CapSense_WDGT_SW_STS_BUSY))
  56              		.loc 1 341 0
  57 0000 094A     		ldr	r2, .L12
ARM GAS  C:\Users\Jerry\AppData\Local\Temp\ccv40r80.s 			page 8


 338:Generated_Source\PSoC4/CapSense_Sensing.c ****     cystatus widgetStatus;
  58              		.loc 1 338 0
  59 0002 031C     		mov	r3, r0
  60              		.loc 1 341 0
  61 0004 9168     		ldr	r1, [r2, #8]
 338:Generated_Source\PSoC4/CapSense_Sensing.c ****     cystatus widgetStatus;
  62              		.loc 1 338 0
  63 0006 10B5     		push	{r4, lr}
  64              		.cfi_def_cfa_offset 8
  65              		.cfi_offset 4, -8
  66              		.cfi_offset 14, -4
 342:Generated_Source\PSoC4/CapSense_Sensing.c ****     {
 343:Generated_Source\PSoC4/CapSense_Sensing.c ****         /* Previous widget is being scanned. Return error. */
 344:Generated_Source\PSoC4/CapSense_Sensing.c ****         widgetStatus = CYRET_INVALID_STATE;
  67              		.loc 1 344 0
  68 0008 1120     		mov	r0, #17
  69              	.LVL1:
 341:Generated_Source\PSoC4/CapSense_Sensing.c ****     {
  70              		.loc 1 341 0
  71 000a C903     		lsl	r1, r1, #15
  72 000c 0AD4     		bmi	.L10
  73 000e 1038     		sub	r0, r0, #16
 345:Generated_Source\PSoC4/CapSense_Sensing.c ****     }
 346:Generated_Source\PSoC4/CapSense_Sensing.c ****     /*
 347:Generated_Source\PSoC4/CapSense_Sensing.c ****      *  Check if widget id is valid, specified widget is enabled and widget did not
 348:Generated_Source\PSoC4/CapSense_Sensing.c ****      *  detect any fault conditions if BIST is enabled. If all conditions are met,
 349:Generated_Source\PSoC4/CapSense_Sensing.c ****      *  set widgetStatus as good, if not, set widgetStatus as bad.
 350:Generated_Source\PSoC4/CapSense_Sensing.c ****      */
 351:Generated_Source\PSoC4/CapSense_Sensing.c ****     else if ((CapSense_TOTAL_SLOTS > wdgtIndex) &&
  74              		.loc 1 351 0
  75 0010 002B     		cmp	r3, #0
  76 0012 07D1     		bne	.L10
 352:Generated_Source\PSoC4/CapSense_Sensing.c ****         (0uL != CapSense_GET_WIDGET_EN_STATUS(wdgtIndex)))
  77              		.loc 1 352 0 discriminator 1
  78 0014 D268     		ldr	r2, [r2, #12]
 351:Generated_Source\PSoC4/CapSense_Sensing.c ****         (0uL != CapSense_GET_WIDGET_EN_STATUS(wdgtIndex)))
  79              		.loc 1 351 0 discriminator 1
  80 0016 0242     		tst	r2, r0
  81 0018 04D0     		beq	.L10
  82 001a 1C1C     		mov	r4, r3
  83              	.LVL2:
 353:Generated_Source\PSoC4/CapSense_Sensing.c **** 
 354:Generated_Source\PSoC4/CapSense_Sensing.c ****     {
 355:Generated_Source\PSoC4/CapSense_Sensing.c ****         widgetStatus = CYRET_SUCCESS;
 356:Generated_Source\PSoC4/CapSense_Sensing.c ****     }
 357:Generated_Source\PSoC4/CapSense_Sensing.c ****     else
 358:Generated_Source\PSoC4/CapSense_Sensing.c ****     {
 359:Generated_Source\PSoC4/CapSense_Sensing.c ****         widgetStatus = CYRET_BAD_PARAM;
 360:Generated_Source\PSoC4/CapSense_Sensing.c ****     }
 361:Generated_Source\PSoC4/CapSense_Sensing.c **** 
 362:Generated_Source\PSoC4/CapSense_Sensing.c ****     /*
 363:Generated_Source\PSoC4/CapSense_Sensing.c ****      * Check widgetStatus flag that is set earlier, if flag is good, then set up only
 364:Generated_Source\PSoC4/CapSense_Sensing.c ****      * widget
 365:Generated_Source\PSoC4/CapSense_Sensing.c ****      */
 366:Generated_Source\PSoC4/CapSense_Sensing.c ****     if (CYRET_SUCCESS == widgetStatus)
 367:Generated_Source\PSoC4/CapSense_Sensing.c ****     {
 368:Generated_Source\PSoC4/CapSense_Sensing.c ****         /*  Check if CSD2X is enabled   */
ARM GAS  C:\Users\Jerry\AppData\Local\Temp\ccv40r80.s 			page 9


 369:Generated_Source\PSoC4/CapSense_Sensing.c ****         #if (CapSense_ENABLE == CapSense_CSD2X_EN)
 370:Generated_Source\PSoC4/CapSense_Sensing.c **** 
 371:Generated_Source\PSoC4/CapSense_Sensing.c ****             widgetStatus = CapSense_SetupWidget2x(wdgtIndex);
 372:Generated_Source\PSoC4/CapSense_Sensing.c **** 
 373:Generated_Source\PSoC4/CapSense_Sensing.c ****         #elif (CapSense_ENABLE == CapSense_CSD_CSX_EN)
 374:Generated_Source\PSoC4/CapSense_Sensing.c ****             /*  Check widget sensing method is CSX and call CSX APIs    */
 375:Generated_Source\PSoC4/CapSense_Sensing.c ****             if (CapSense_SENSE_METHOD_CSX_E ==
 376:Generated_Source\PSoC4/CapSense_Sensing.c ****                 CapSense_GET_SENSE_METHOD(&CapSense_dsFlash.wdgtArray[wdgtIndex]))
 377:Generated_Source\PSoC4/CapSense_Sensing.c ****             {
 378:Generated_Source\PSoC4/CapSense_Sensing.c ****                 /*  Set up widget for CSX scan  */
 379:Generated_Source\PSoC4/CapSense_Sensing.c ****                 CapSense_CSXSetupWidget(wdgtIndex);
 380:Generated_Source\PSoC4/CapSense_Sensing.c ****             }
 381:Generated_Source\PSoC4/CapSense_Sensing.c ****             /*  Check widget sensing method is CSD and call appropriate API */
 382:Generated_Source\PSoC4/CapSense_Sensing.c ****             else if (CapSense_SENSE_METHOD_CSD_E ==
 383:Generated_Source\PSoC4/CapSense_Sensing.c ****                      CapSense_GET_SENSE_METHOD(&CapSense_dsFlash.wdgtArray[wdgtIndex]))
 384:Generated_Source\PSoC4/CapSense_Sensing.c ****             {
 385:Generated_Source\PSoC4/CapSense_Sensing.c ****                 /*  Set up widget for CSD scan  */
 386:Generated_Source\PSoC4/CapSense_Sensing.c ****                 CapSense_CSDSetupWidget(wdgtIndex);
 387:Generated_Source\PSoC4/CapSense_Sensing.c ****             }
 388:Generated_Source\PSoC4/CapSense_Sensing.c ****             else
 389:Generated_Source\PSoC4/CapSense_Sensing.c ****             {
 390:Generated_Source\PSoC4/CapSense_Sensing.c ****                 /*  Sensing method is invalid, return error to caller  */
 391:Generated_Source\PSoC4/CapSense_Sensing.c ****                 widgetStatus = CYRET_UNKNOWN;
 392:Generated_Source\PSoC4/CapSense_Sensing.c ****             }
 393:Generated_Source\PSoC4/CapSense_Sensing.c ****         #elif (CapSense_ENABLE == CapSense_CSD_EN)
 394:Generated_Source\PSoC4/CapSense_Sensing.c ****             /*  Set up widget for scan */
 395:Generated_Source\PSoC4/CapSense_Sensing.c ****             CapSense_CSDSetupWidget(wdgtIndex);
  84              		.loc 1 395 0
  85 001c 181C     		mov	r0, r3
  86 001e FFF7FEFF 		bl	CapSense_CSDSetupWidget
  87              	.LVL3:
 355:Generated_Source\PSoC4/CapSense_Sensing.c ****     }
  88              		.loc 1 355 0
  89 0022 201C     		mov	r0, r4
  90              	.LVL4:
  91              	.L10:
 396:Generated_Source\PSoC4/CapSense_Sensing.c ****         #elif (CapSense_ENABLE == CapSense_CSX_EN)
 397:Generated_Source\PSoC4/CapSense_Sensing.c ****             /*  Set up widgets for scan     */
 398:Generated_Source\PSoC4/CapSense_Sensing.c ****             CapSense_CSXSetupWidget(wdgtIndex);
 399:Generated_Source\PSoC4/CapSense_Sensing.c ****         #else
 400:Generated_Source\PSoC4/CapSense_Sensing.c ****             widgetStatus = CYRET_UNKNOWN;
 401:Generated_Source\PSoC4/CapSense_Sensing.c ****             #error "No sensing method enabled, component cannot work in this mode"
 402:Generated_Source\PSoC4/CapSense_Sensing.c ****         #endif  /* (CapSense_ENABLE == CapSense_CSD2X_EN) */
 403:Generated_Source\PSoC4/CapSense_Sensing.c ****     }
 404:Generated_Source\PSoC4/CapSense_Sensing.c **** 
 405:Generated_Source\PSoC4/CapSense_Sensing.c ****     return (widgetStatus);
 406:Generated_Source\PSoC4/CapSense_Sensing.c **** }
  92              		.loc 1 406 0
  93              		@ sp needed
  94 0024 10BD     		pop	{r4, pc}
  95              	.L13:
  96 0026 C046     		.align	2
  97              	.L12:
  98 0028 00000000 		.word	CapSense_dsRam
  99              		.cfi_endproc
 100              	.LFE2:
 101              		.size	CapSense_SetupWidget, .-CapSense_SetupWidget
ARM GAS  C:\Users\Jerry\AppData\Local\Temp\ccv40r80.s 			page 10


 102              		.section	.text.CapSense_Scan,"ax",%progbits
 103              		.align	1
 104              		.global	CapSense_Scan
 105              		.code	16
 106              		.thumb_func
 107              		.type	CapSense_Scan, %function
 108              	CapSense_Scan:
 109              	.LFB3:
 407:Generated_Source\PSoC4/CapSense_Sensing.c **** 
 408:Generated_Source\PSoC4/CapSense_Sensing.c **** 
 409:Generated_Source\PSoC4/CapSense_Sensing.c **** /*******************************************************************************
 410:Generated_Source\PSoC4/CapSense_Sensing.c **** * Function Name: CapSense_Scan
 411:Generated_Source\PSoC4/CapSense_Sensing.c **** ****************************************************************************//**
 412:Generated_Source\PSoC4/CapSense_Sensing.c **** *
 413:Generated_Source\PSoC4/CapSense_Sensing.c **** * \brief
 414:Generated_Source\PSoC4/CapSense_Sensing.c **** *  Initiates scan of all sensors in the widget which is initialized by
 415:Generated_Source\PSoC4/CapSense_Sensing.c **** *  CapSense_SetupWidget(), if the no scan is in progress.
 416:Generated_Source\PSoC4/CapSense_Sensing.c **** *
 417:Generated_Source\PSoC4/CapSense_Sensing.c **** * \details
 418:Generated_Source\PSoC4/CapSense_Sensing.c **** *  This function should be called only after the CapSense_SetupWidget()
 419:Generated_Source\PSoC4/CapSense_Sensing.c **** *  function is called to start the scanning of the sensors in the widget. The
 420:Generated_Source\PSoC4/CapSense_Sensing.c **** *  status of a sensor scan must be checked using the CapSense_IsBusy()
 421:Generated_Source\PSoC4/CapSense_Sensing.c **** *  API prior to starting a next scan or setting up another widget.
 422:Generated_Source\PSoC4/CapSense_Sensing.c **** *
 423:Generated_Source\PSoC4/CapSense_Sensing.c **** * \return
 424:Generated_Source\PSoC4/CapSense_Sensing.c **** *  Returns the status of the scan initiation operation:
 425:Generated_Source\PSoC4/CapSense_Sensing.c **** *    - CYRET_SUCCESS if scanning is successfully started.
 426:Generated_Source\PSoC4/CapSense_Sensing.c **** *    - CYRET_INVALID_STATE if the previous scanning is not completed and the
 427:Generated_Source\PSoC4/CapSense_Sensing.c **** *      hardware block is busy.
 428:Generated_Source\PSoC4/CapSense_Sensing.c **** *    - CYRET_UNKNOWN if an unknown sensing method is used by the widget.
 429:Generated_Source\PSoC4/CapSense_Sensing.c **** *
 430:Generated_Source\PSoC4/CapSense_Sensing.c **** ********************************************************************************/
 431:Generated_Source\PSoC4/CapSense_Sensing.c **** cystatus CapSense_Scan(void)
 432:Generated_Source\PSoC4/CapSense_Sensing.c **** {
 110              		.loc 1 432 0
 111              		.cfi_startproc
 112              	.LVL5:
 433:Generated_Source\PSoC4/CapSense_Sensing.c ****     cystatus scanStatus = CYRET_SUCCESS;
 434:Generated_Source\PSoC4/CapSense_Sensing.c **** 
 435:Generated_Source\PSoC4/CapSense_Sensing.c ****     if (CapSense_WDGT_SW_STS_BUSY == (CapSense_dsRam.status & CapSense_WDGT_SW_STS_BUSY))
 113              		.loc 1 435 0
 114 0000 064B     		ldr	r3, .L17
 432:Generated_Source\PSoC4/CapSense_Sensing.c ****     cystatus scanStatus = CYRET_SUCCESS;
 115              		.loc 1 432 0
 116 0002 10B5     		push	{r4, lr}
 117              		.cfi_def_cfa_offset 8
 118              		.cfi_offset 4, -8
 119              		.cfi_offset 14, -4
 120              		.loc 1 435 0
 121 0004 9C68     		ldr	r4, [r3, #8]
 122 0006 8023     		mov	r3, #128
 123 0008 5B02     		lsl	r3, r3, #9
 124 000a 1C40     		and	r4, r3
 436:Generated_Source\PSoC4/CapSense_Sensing.c ****     {
 437:Generated_Source\PSoC4/CapSense_Sensing.c ****         /* Previous widget is being scanned. Return error. */
 438:Generated_Source\PSoC4/CapSense_Sensing.c ****         scanStatus = CYRET_INVALID_STATE;
 125              		.loc 1 438 0
ARM GAS  C:\Users\Jerry\AppData\Local\Temp\ccv40r80.s 			page 11


 126 000c 1120     		mov	r0, #17
 435:Generated_Source\PSoC4/CapSense_Sensing.c ****     {
 127              		.loc 1 435 0
 128 000e 002C     		cmp	r4, #0
 129 0010 02D1     		bne	.L15
 439:Generated_Source\PSoC4/CapSense_Sensing.c ****     }
 440:Generated_Source\PSoC4/CapSense_Sensing.c ****     else
 441:Generated_Source\PSoC4/CapSense_Sensing.c ****     {
 442:Generated_Source\PSoC4/CapSense_Sensing.c ****         /*  If CSD2X is enabled, call CSD2X scan    */
 443:Generated_Source\PSoC4/CapSense_Sensing.c ****     #if (CapSense_ENABLE == CapSense_CSD2X_EN)
 444:Generated_Source\PSoC4/CapSense_Sensing.c ****         scanStatus = CapSense_Scan2x();
 445:Generated_Source\PSoC4/CapSense_Sensing.c **** 
 446:Generated_Source\PSoC4/CapSense_Sensing.c ****     /*  If both CSD and CSX are enabled, call scan API based on widget sensing method    */
 447:Generated_Source\PSoC4/CapSense_Sensing.c ****     #elif (CapSense_ENABLE == CapSense_CSD_CSX_EN)
 448:Generated_Source\PSoC4/CapSense_Sensing.c ****         /*  Check widget sensing method and call appropriate APIs   */
 449:Generated_Source\PSoC4/CapSense_Sensing.c ****         switch (CapSense_currentSenseMethod)
 450:Generated_Source\PSoC4/CapSense_Sensing.c ****         {
 451:Generated_Source\PSoC4/CapSense_Sensing.c ****             case CapSense_SENSE_METHOD_CSX_E:
 452:Generated_Source\PSoC4/CapSense_Sensing.c ****                 CapSense_CSXScan();
 453:Generated_Source\PSoC4/CapSense_Sensing.c ****                 break;
 454:Generated_Source\PSoC4/CapSense_Sensing.c **** 
 455:Generated_Source\PSoC4/CapSense_Sensing.c ****             case CapSense_SENSE_METHOD_CSD_E:
 456:Generated_Source\PSoC4/CapSense_Sensing.c ****                  CapSense_CSDScan();
 457:Generated_Source\PSoC4/CapSense_Sensing.c ****                 break;
 458:Generated_Source\PSoC4/CapSense_Sensing.c **** 
 459:Generated_Source\PSoC4/CapSense_Sensing.c ****             default:
 460:Generated_Source\PSoC4/CapSense_Sensing.c ****                 scanStatus = CYRET_UNKNOWN;
 461:Generated_Source\PSoC4/CapSense_Sensing.c ****                 break;
 462:Generated_Source\PSoC4/CapSense_Sensing.c ****         }
 463:Generated_Source\PSoC4/CapSense_Sensing.c **** 
 464:Generated_Source\PSoC4/CapSense_Sensing.c ****     /*  If only CSD is enabled, call CSD scan   */
 465:Generated_Source\PSoC4/CapSense_Sensing.c ****     #elif (CapSense_ENABLE == CapSense_CSD_EN)
 466:Generated_Source\PSoC4/CapSense_Sensing.c ****         CapSense_CSDScan();
 130              		.loc 1 466 0
 131 0012 FFF7FEFF 		bl	CapSense_CSDScan
 132              	.LVL6:
 433:Generated_Source\PSoC4/CapSense_Sensing.c **** 
 133              		.loc 1 433 0
 134 0016 201C     		mov	r0, r4
 135              	.L15:
 136              	.LVL7:
 467:Generated_Source\PSoC4/CapSense_Sensing.c **** 
 468:Generated_Source\PSoC4/CapSense_Sensing.c ****     /*  If only CSX is enabled, call CSX scan   */
 469:Generated_Source\PSoC4/CapSense_Sensing.c ****     #elif (CapSense_ENABLE == CapSense_CSX_EN)
 470:Generated_Source\PSoC4/CapSense_Sensing.c ****         CapSense_CSXScan();
 471:Generated_Source\PSoC4/CapSense_Sensing.c **** 
 472:Generated_Source\PSoC4/CapSense_Sensing.c ****     #else
 473:Generated_Source\PSoC4/CapSense_Sensing.c ****         scanStatus = CYRET_UNKNOWN;
 474:Generated_Source\PSoC4/CapSense_Sensing.c ****         #error "No sensing method enabled, component cannot work in this mode"
 475:Generated_Source\PSoC4/CapSense_Sensing.c ****     #endif  /* (CapSense_ENABLE == CapSense_CSD2X_EN) */
 476:Generated_Source\PSoC4/CapSense_Sensing.c ****     }
 477:Generated_Source\PSoC4/CapSense_Sensing.c **** 
 478:Generated_Source\PSoC4/CapSense_Sensing.c ****     return (scanStatus);
 479:Generated_Source\PSoC4/CapSense_Sensing.c **** }
 137              		.loc 1 479 0
 138              		@ sp needed
 139 0018 10BD     		pop	{r4, pc}
ARM GAS  C:\Users\Jerry\AppData\Local\Temp\ccv40r80.s 			page 12


 140              	.L18:
 141 001a C046     		.align	2
 142              	.L17:
 143 001c 00000000 		.word	CapSense_dsRam
 144              		.cfi_endproc
 145              	.LFE3:
 146              		.size	CapSense_Scan, .-CapSense_Scan
 147              		.section	.text.CapSense_ScanAllWidgets,"ax",%progbits
 148              		.align	1
 149              		.global	CapSense_ScanAllWidgets
 150              		.code	16
 151              		.thumb_func
 152              		.type	CapSense_ScanAllWidgets, %function
 153              	CapSense_ScanAllWidgets:
 154              	.LFB4:
 480:Generated_Source\PSoC4/CapSense_Sensing.c **** 
 481:Generated_Source\PSoC4/CapSense_Sensing.c **** 
 482:Generated_Source\PSoC4/CapSense_Sensing.c **** /*******************************************************************************
 483:Generated_Source\PSoC4/CapSense_Sensing.c **** * Function Name: CapSense_ScanAllWidgets
 484:Generated_Source\PSoC4/CapSense_Sensing.c **** ****************************************************************************//**
 485:Generated_Source\PSoC4/CapSense_Sensing.c **** *
 486:Generated_Source\PSoC4/CapSense_Sensing.c **** * \brief
 487:Generated_Source\PSoC4/CapSense_Sensing.c **** *  Initializes the first enabled widget and scans of all the sensors in the
 488:Generated_Source\PSoC4/CapSense_Sensing.c **** *  widget, then the same process is repeated for all widgets in the component.
 489:Generated_Source\PSoC4/CapSense_Sensing.c **** *  I.e. scan all the widgets in the component.
 490:Generated_Source\PSoC4/CapSense_Sensing.c **** *
 491:Generated_Source\PSoC4/CapSense_Sensing.c **** * \details
 492:Generated_Source\PSoC4/CapSense_Sensing.c **** *  This function initializes a widget and scans all the sensors in the widget,
 493:Generated_Source\PSoC4/CapSense_Sensing.c **** *  and then repeats the same for all the widgets in the component. The tasks of
 494:Generated_Source\PSoC4/CapSense_Sensing.c **** *  the CapSense_SetupWidget() and CapSense_Scan() functions are
 495:Generated_Source\PSoC4/CapSense_Sensing.c **** *  executed by these functions. The status of a sensor scan must be checked
 496:Generated_Source\PSoC4/CapSense_Sensing.c **** *  using the CapSense_IsBusy() API prior to starting a next scan
 497:Generated_Source\PSoC4/CapSense_Sensing.c **** *  or setting up another widget.
 498:Generated_Source\PSoC4/CapSense_Sensing.c **** *
 499:Generated_Source\PSoC4/CapSense_Sensing.c **** * \return
 500:Generated_Source\PSoC4/CapSense_Sensing.c **** *  Returns the status of operation:
 501:Generated_Source\PSoC4/CapSense_Sensing.c **** *    - CYRET_SUCCESS if scanning is successfully started.
 502:Generated_Source\PSoC4/CapSense_Sensing.c **** *    - CYRET_BAD_PARAM if all the widgets are disabled.
 503:Generated_Source\PSoC4/CapSense_Sensing.c **** *    - CYRET_INVALID_STATE if the previous scanning is not completed and the HW block is busy.
 504:Generated_Source\PSoC4/CapSense_Sensing.c **** *    - CYRET_UNKNOWN if there are unknown errors.
 505:Generated_Source\PSoC4/CapSense_Sensing.c **** *
 506:Generated_Source\PSoC4/CapSense_Sensing.c **** *******************************************************************************/
 507:Generated_Source\PSoC4/CapSense_Sensing.c **** cystatus CapSense_ScanAllWidgets(void)
 508:Generated_Source\PSoC4/CapSense_Sensing.c **** {
 155              		.loc 1 508 0
 156              		.cfi_startproc
 157              	.LVL8:
 158 0000 08B5     		push	{r3, lr}
 159              		.cfi_def_cfa_offset 8
 160              		.cfi_offset 3, -8
 161              		.cfi_offset 14, -4
 509:Generated_Source\PSoC4/CapSense_Sensing.c ****     cystatus scanStatus = CYRET_UNKNOWN;
 510:Generated_Source\PSoC4/CapSense_Sensing.c **** 
 511:Generated_Source\PSoC4/CapSense_Sensing.c ****     uint32 wdgtIndex;
 512:Generated_Source\PSoC4/CapSense_Sensing.c **** 
 513:Generated_Source\PSoC4/CapSense_Sensing.c ****     if (CapSense_SW_STS_BUSY == (CapSense_dsRam.status & CapSense_SW_STS_BUSY))
 162              		.loc 1 513 0
ARM GAS  C:\Users\Jerry\AppData\Local\Temp\ccv40r80.s 			page 13


 163 0002 084B     		ldr	r3, .L22
 164 0004 9868     		ldr	r0, [r3, #8]
 165 0006 8023     		mov	r3, #128
 166 0008 0340     		and	r3, r0
 514:Generated_Source\PSoC4/CapSense_Sensing.c ****     {
 515:Generated_Source\PSoC4/CapSense_Sensing.c ****         /* Previous widget is being scanned. Return error. */
 516:Generated_Source\PSoC4/CapSense_Sensing.c ****         scanStatus = CYRET_INVALID_STATE;
 167              		.loc 1 516 0
 168 000a 1120     		mov	r0, #17
 513:Generated_Source\PSoC4/CapSense_Sensing.c ****     {
 169              		.loc 1 513 0
 170 000c 002B     		cmp	r3, #0
 171 000e 08D1     		bne	.L20
 172              	.LVL9:
 517:Generated_Source\PSoC4/CapSense_Sensing.c ****     }
 518:Generated_Source\PSoC4/CapSense_Sensing.c ****     else
 519:Generated_Source\PSoC4/CapSense_Sensing.c ****     {
 520:Generated_Source\PSoC4/CapSense_Sensing.c ****         /*
 521:Generated_Source\PSoC4/CapSense_Sensing.c ****          *  Set up widget first widget.
 522:Generated_Source\PSoC4/CapSense_Sensing.c ****          *  If widget returned error, set up next, continue same until widget does not return error
 523:Generated_Source\PSoC4/CapSense_Sensing.c ****          */
 524:Generated_Source\PSoC4/CapSense_Sensing.c ****         for (wdgtIndex = 0u;
 525:Generated_Source\PSoC4/CapSense_Sensing.c ****              wdgtIndex < CapSense_TOTAL_SLOTS;
 526:Generated_Source\PSoC4/CapSense_Sensing.c ****              wdgtIndex++)
 527:Generated_Source\PSoC4/CapSense_Sensing.c ****         {
 528:Generated_Source\PSoC4/CapSense_Sensing.c **** 
 529:Generated_Source\PSoC4/CapSense_Sensing.c ****             scanStatus = CapSense_SetupWidget(wdgtIndex);
 173              		.loc 1 529 0
 174 0010 181C     		mov	r0, r3
 175 0012 FFF7FEFF 		bl	CapSense_SetupWidget
 176              	.LVL10:
 530:Generated_Source\PSoC4/CapSense_Sensing.c **** 
 531:Generated_Source\PSoC4/CapSense_Sensing.c ****             if (CYRET_SUCCESS == scanStatus)
 177              		.loc 1 531 0
 178 0016 0028     		cmp	r0, #0
 179 0018 03D1     		bne	.L20
 532:Generated_Source\PSoC4/CapSense_Sensing.c ****             {
 533:Generated_Source\PSoC4/CapSense_Sensing.c ****                 #if (0u != (CapSense_TOTAL_SLOTS - 1u))
 534:Generated_Source\PSoC4/CapSense_Sensing.c ****                     /* If there are more than one widget to be scanned, request callback to scan ne
 535:Generated_Source\PSoC4/CapSense_Sensing.c ****                     if ((CapSense_TOTAL_SLOTS - 1u) > wdgtIndex)
 536:Generated_Source\PSoC4/CapSense_Sensing.c ****                     {
 537:Generated_Source\PSoC4/CapSense_Sensing.c ****                          /* Request callback to scan next widget in ISR */
 538:Generated_Source\PSoC4/CapSense_Sensing.c ****                         CapSense_requestScanAllWidget = CapSense_ENABLE;
 539:Generated_Source\PSoC4/CapSense_Sensing.c ****                     }
 540:Generated_Source\PSoC4/CapSense_Sensing.c ****                     else
 541:Generated_Source\PSoC4/CapSense_Sensing.c ****                     {
 542:Generated_Source\PSoC4/CapSense_Sensing.c ****                         /* Request to exit in ISR (Do not scan the next widgets) */
 543:Generated_Source\PSoC4/CapSense_Sensing.c ****                         CapSense_requestScanAllWidget = CapSense_DISABLE;
 544:Generated_Source\PSoC4/CapSense_Sensing.c ****                     }
 545:Generated_Source\PSoC4/CapSense_Sensing.c ****                 #else
 546:Generated_Source\PSoC4/CapSense_Sensing.c ****                     {
 547:Generated_Source\PSoC4/CapSense_Sensing.c ****                         /* Request to exit in ISR (We have only one widget) */
 548:Generated_Source\PSoC4/CapSense_Sensing.c ****                         CapSense_requestScanAllWidget = CapSense_DISABLE;
 180              		.loc 1 548 0
 181 001a 034B     		ldr	r3, .L22+4
 182 001c 1870     		strb	r0, [r3]
 549:Generated_Source\PSoC4/CapSense_Sensing.c ****                     }
ARM GAS  C:\Users\Jerry\AppData\Local\Temp\ccv40r80.s 			page 14


 550:Generated_Source\PSoC4/CapSense_Sensing.c ****                 #endif  /* (0u != (CapSense_TOTAL_SLOTS - 1u)) */
 551:Generated_Source\PSoC4/CapSense_Sensing.c **** 
 552:Generated_Source\PSoC4/CapSense_Sensing.c ****                 /*  Initiate scan and quit loop */
 553:Generated_Source\PSoC4/CapSense_Sensing.c ****                 scanStatus = CapSense_Scan();
 183              		.loc 1 553 0
 184 001e FFF7FEFF 		bl	CapSense_Scan
 185              	.LVL11:
 186              	.L20:
 554:Generated_Source\PSoC4/CapSense_Sensing.c **** 
 555:Generated_Source\PSoC4/CapSense_Sensing.c ****                 break;
 556:Generated_Source\PSoC4/CapSense_Sensing.c ****             }
 557:Generated_Source\PSoC4/CapSense_Sensing.c ****         }
 558:Generated_Source\PSoC4/CapSense_Sensing.c ****     }
 559:Generated_Source\PSoC4/CapSense_Sensing.c **** 
 560:Generated_Source\PSoC4/CapSense_Sensing.c ****     return (scanStatus);
 561:Generated_Source\PSoC4/CapSense_Sensing.c **** }
 187              		.loc 1 561 0
 188              		@ sp needed
 189 0022 08BD     		pop	{r3, pc}
 190              	.L23:
 191              		.align	2
 192              	.L22:
 193 0024 00000000 		.word	CapSense_dsRam
 194 0028 00000000 		.word	.LANCHOR0
 195              		.cfi_endproc
 196              	.LFE4:
 197              		.size	CapSense_ScanAllWidgets, .-CapSense_ScanAllWidgets
 198              		.section	.text.CapSense_SetPinState,"ax",%progbits
 199              		.align	1
 200              		.global	CapSense_SetPinState
 201              		.code	16
 202              		.thumb_func
 203              		.type	CapSense_SetPinState, %function
 204              	CapSense_SetPinState:
 205              	.LFB6:
 562:Generated_Source\PSoC4/CapSense_Sensing.c **** 
 563:Generated_Source\PSoC4/CapSense_Sensing.c **** 
 564:Generated_Source\PSoC4/CapSense_Sensing.c **** /*******************************************************************************
 565:Generated_Source\PSoC4/CapSense_Sensing.c **** * Function Name: CapSense_SsInitialize
 566:Generated_Source\PSoC4/CapSense_Sensing.c **** ****************************************************************************//**
 567:Generated_Source\PSoC4/CapSense_Sensing.c **** *
 568:Generated_Source\PSoC4/CapSense_Sensing.c **** * \brief
 569:Generated_Source\PSoC4/CapSense_Sensing.c **** *   Performs hardware and firmware initialization required for proper operation
 570:Generated_Source\PSoC4/CapSense_Sensing.c **** *   of the CapSense component. This function is called from
 571:Generated_Source\PSoC4/CapSense_Sensing.c **** *   the CapSense_Start() API prior to calling any other APIs of the component.
 572:Generated_Source\PSoC4/CapSense_Sensing.c **** *
 573:Generated_Source\PSoC4/CapSense_Sensing.c **** * \details
 574:Generated_Source\PSoC4/CapSense_Sensing.c **** *   Performs hardware and firmware initialization required for proper operation
 575:Generated_Source\PSoC4/CapSense_Sensing.c **** *   of the CapSense component. This function is called from
 576:Generated_Source\PSoC4/CapSense_Sensing.c **** *   the CapSense_Start() API prior to calling any other APIs of the component.
 577:Generated_Source\PSoC4/CapSense_Sensing.c **** *   1. The function initializes immunity offsets when the frequency hopping is
 578:Generated_Source\PSoC4/CapSense_Sensing.c **** *      enabled.
 579:Generated_Source\PSoC4/CapSense_Sensing.c **** *   2. Depending on the configuration, the function initializes the CSD block
 580:Generated_Source\PSoC4/CapSense_Sensing.c **** *      for the CSD2X, CSD, CSX, or CSD+CSX modes.
 581:Generated_Source\PSoC4/CapSense_Sensing.c **** *   3. The function updates the dsRam.wdgtWorking variable with 1 when Self Test
 582:Generated_Source\PSoC4/CapSense_Sensing.c **** *      is enabled.
 583:Generated_Source\PSoC4/CapSense_Sensing.c **** *
ARM GAS  C:\Users\Jerry\AppData\Local\Temp\ccv40r80.s 			page 15


 584:Generated_Source\PSoC4/CapSense_Sensing.c **** *   Calling the CapSense_Start API is the recommended method to initialize
 585:Generated_Source\PSoC4/CapSense_Sensing.c **** *   the CapSense component at power-up. The CapSense_SsInitialize()
 586:Generated_Source\PSoC4/CapSense_Sensing.c **** *   API should not be used for initialization, resume, or wake-up operations.
 587:Generated_Source\PSoC4/CapSense_Sensing.c **** *   The dsRam.wdgtWorking variable is updated.
 588:Generated_Source\PSoC4/CapSense_Sensing.c **** *
 589:Generated_Source\PSoC4/CapSense_Sensing.c **** * \return status
 590:Generated_Source\PSoC4/CapSense_Sensing.c **** *   Returns status of operation:
 591:Generated_Source\PSoC4/CapSense_Sensing.c **** *   - Zero        - Indicates successful initialization.
 592:Generated_Source\PSoC4/CapSense_Sensing.c **** *   - Non-zero    - One or more errors occurred in the initialization process.
 593:Generated_Source\PSoC4/CapSense_Sensing.c **** *
 594:Generated_Source\PSoC4/CapSense_Sensing.c **** *******************************************************************************/
 595:Generated_Source\PSoC4/CapSense_Sensing.c **** cystatus CapSense_SsInitialize(void)
 596:Generated_Source\PSoC4/CapSense_Sensing.c **** {
 597:Generated_Source\PSoC4/CapSense_Sensing.c ****     cystatus initStatus = CYRET_SUCCESS;
 598:Generated_Source\PSoC4/CapSense_Sensing.c **** 
 599:Generated_Source\PSoC4/CapSense_Sensing.c ****     #if (CapSense_ENABLE == CapSense_MULTI_FREQ_SCAN_EN)
 600:Generated_Source\PSoC4/CapSense_Sensing.c ****         CapSense_immunity[CapSense_FREQ_CHANNEL_0] = (uint8)CY_GET_REG32(CY_SYS_CLK_IMO_TRIM1_PTR);
 601:Generated_Source\PSoC4/CapSense_Sensing.c ****         if (CapSense_COARSE_TRIM_THRESHOLD_1 > CapSense_immunity[CapSense_FREQ_CHANNEL_0])
 602:Generated_Source\PSoC4/CapSense_Sensing.c ****         {
 603:Generated_Source\PSoC4/CapSense_Sensing.c ****             CapSense_immunity[CapSense_FREQ_CHANNEL_1] =
 604:Generated_Source\PSoC4/CapSense_Sensing.c ****             CapSense_immunity[CapSense_FREQ_CHANNEL_0] + CapSense_FREQUENCY_OFFSET_5;
 605:Generated_Source\PSoC4/CapSense_Sensing.c ****             CapSense_immunity[CapSense_FREQ_CHANNEL_2] =
 606:Generated_Source\PSoC4/CapSense_Sensing.c ****             CapSense_immunity[CapSense_FREQ_CHANNEL_0] + CapSense_FREQUENCY_OFFSET_10;
 607:Generated_Source\PSoC4/CapSense_Sensing.c ****         }
 608:Generated_Source\PSoC4/CapSense_Sensing.c ****         else if (CapSense_COARSE_TRIM_THRESHOLD_2 > CapSense_immunity[CapSense_FREQ_CHANNEL_0])
 609:Generated_Source\PSoC4/CapSense_Sensing.c ****         {
 610:Generated_Source\PSoC4/CapSense_Sensing.c ****             CapSense_immunity[CapSense_FREQ_CHANNEL_1] =
 611:Generated_Source\PSoC4/CapSense_Sensing.c ****             CapSense_immunity[CapSense_FREQ_CHANNEL_0] - CapSense_FREQUENCY_OFFSET_5;
 612:Generated_Source\PSoC4/CapSense_Sensing.c ****             CapSense_immunity[CapSense_FREQ_CHANNEL_2] =
 613:Generated_Source\PSoC4/CapSense_Sensing.c ****             CapSense_immunity[CapSense_FREQ_CHANNEL_0] + CapSense_FREQUENCY_OFFSET_5;
 614:Generated_Source\PSoC4/CapSense_Sensing.c ****         }
 615:Generated_Source\PSoC4/CapSense_Sensing.c ****         else
 616:Generated_Source\PSoC4/CapSense_Sensing.c ****         {
 617:Generated_Source\PSoC4/CapSense_Sensing.c ****             CapSense_immunity[CapSense_FREQ_CHANNEL_1] =
 618:Generated_Source\PSoC4/CapSense_Sensing.c ****             CapSense_immunity[CapSense_FREQ_CHANNEL_0] - CapSense_FREQUENCY_OFFSET_5;
 619:Generated_Source\PSoC4/CapSense_Sensing.c ****             CapSense_immunity[CapSense_FREQ_CHANNEL_2] =
 620:Generated_Source\PSoC4/CapSense_Sensing.c ****             CapSense_immunity[CapSense_FREQ_CHANNEL_0] - CapSense_FREQUENCY_OFFSET_10;
 621:Generated_Source\PSoC4/CapSense_Sensing.c ****         }
 622:Generated_Source\PSoC4/CapSense_Sensing.c ****     #endif /* (CapSense_ENABLE == CapSense_MULTI_FREQ_SCAN_EN) */
 623:Generated_Source\PSoC4/CapSense_Sensing.c **** 
 624:Generated_Source\PSoC4/CapSense_Sensing.c ****     #if (CapSense_DISABLE == CapSense_CSDV2)
 625:Generated_Source\PSoC4/CapSense_Sensing.c ****         CapSense_SsTrimIdacs();
 626:Generated_Source\PSoC4/CapSense_Sensing.c ****     #endif /* (CapSense_ENABLE == CapSense_CSDV2) */
 627:Generated_Source\PSoC4/CapSense_Sensing.c **** 
 628:Generated_Source\PSoC4/CapSense_Sensing.c ****     #if((CapSense_ENABLE == CapSense_CSD_EN) ||\
 629:Generated_Source\PSoC4/CapSense_Sensing.c ****     ((CapSense_ENABLE == CapSense_CSX_EN) && (CapSense_ENABLE == CapSense_CSDV2)))
 630:Generated_Source\PSoC4/CapSense_Sensing.c ****         CapSense_SsInitializeSourceSenseClk();
 631:Generated_Source\PSoC4/CapSense_Sensing.c ****     #endif /* ((CapSense_ENABLE == CapSense_CSD_EN) ||\
 632:Generated_Source\PSoC4/CapSense_Sensing.c ****               ((CapSense_ENABLE == CapSense_CSX_EN) && (CapSense_ENABLE == CapSense_CSDV2))) */
 633:Generated_Source\PSoC4/CapSense_Sensing.c **** 
 634:Generated_Source\PSoC4/CapSense_Sensing.c ****     /*
 635:Generated_Source\PSoC4/CapSense_Sensing.c ****      *  Check if CSD2X is enabled, if yes, initialize CapSense component
 636:Generated_Source\PSoC4/CapSense_Sensing.c ****      *  for CSD2x operation
 637:Generated_Source\PSoC4/CapSense_Sensing.c ****      */
 638:Generated_Source\PSoC4/CapSense_Sensing.c ****     #if (CapSense_ENABLE == CapSense_CSD2X_EN)
 639:Generated_Source\PSoC4/CapSense_Sensing.c ****         /*
 640:Generated_Source\PSoC4/CapSense_Sensing.c ****          *  Check if CSX or CSD enable along with CSD2X, if yes, provide the error
ARM GAS  C:\Users\Jerry\AppData\Local\Temp\ccv40r80.s 			page 16


 641:Generated_Source\PSoC4/CapSense_Sensing.c ****          *  message as CSD2X can not coexist with CSD or CSX
 642:Generated_Source\PSoC4/CapSense_Sensing.c ****          */
 643:Generated_Source\PSoC4/CapSense_Sensing.c ****         #if (CapSense_ENABLE == CapSense_CSX_EN)
 644:Generated_Source\PSoC4/CapSense_Sensing.c ****             #error "CSD2X and CSX can not be enabled together"
 645:Generated_Source\PSoC4/CapSense_Sensing.c ****             initStatus = CYRET_UNKNOWN;
 646:Generated_Source\PSoC4/CapSense_Sensing.c ****         #elif (CapSense_ENABLE == CapSense_CSD_EN)
 647:Generated_Source\PSoC4/CapSense_Sensing.c ****             #error "CSD2X and CSD can not be enabled together"
 648:Generated_Source\PSoC4/CapSense_Sensing.c ****             initStatus = CYRET_UNKNOWN;
 649:Generated_Source\PSoC4/CapSense_Sensing.c ****         #endif /* (CapSense_CSX_EN == CapSense_ENABLE) */
 650:Generated_Source\PSoC4/CapSense_Sensing.c **** 
 651:Generated_Source\PSoC4/CapSense_Sensing.c ****         /* Initialize both CSD blocks for CSD2X scanning    */
 652:Generated_Source\PSoC4/CapSense_Sensing.c ****         CapSense_CSD2XInitialize();
 653:Generated_Source\PSoC4/CapSense_Sensing.c **** 
 654:Generated_Source\PSoC4/CapSense_Sensing.c ****     #elif ((CapSense_ENABLE == CapSense_CSD_CSX_EN) || \
 655:Generated_Source\PSoC4/CapSense_Sensing.c ****             (CapSense_ENABLE == CapSense_SELF_TEST_EN) || \
 656:Generated_Source\PSoC4/CapSense_Sensing.c ****             (CapSense_ENABLE == CapSense_ADC_EN))
 657:Generated_Source\PSoC4/CapSense_Sensing.c **** 
 658:Generated_Source\PSoC4/CapSense_Sensing.c ****         /* Set all IO states to default state  */
 659:Generated_Source\PSoC4/CapSense_Sensing.c ****         CapSense_SsSetIOsInDefaultState();
 660:Generated_Source\PSoC4/CapSense_Sensing.c ****         /*
 661:Generated_Source\PSoC4/CapSense_Sensing.c ****          * CSD hardware block is initialized in the Setup Widget based
 662:Generated_Source\PSoC4/CapSense_Sensing.c ****          * on widget sensing method. Release previously captured HW resources
 663:Generated_Source\PSoC4/CapSense_Sensing.c ****          * if it is second call of CapSense_Start() function.
 664:Generated_Source\PSoC4/CapSense_Sensing.c ****          */
 665:Generated_Source\PSoC4/CapSense_Sensing.c ****         CapSense_SsSwitchSensingMode(CapSense_UNDEFINED_E);
 666:Generated_Source\PSoC4/CapSense_Sensing.c ****     #elif (CapSense_ENABLE == CapSense_CSD_EN)
 667:Generated_Source\PSoC4/CapSense_Sensing.c ****         /*  Initialize CSD block for CSD scanning   */
 668:Generated_Source\PSoC4/CapSense_Sensing.c ****         CapSense_SsCSDInitialize();
 669:Generated_Source\PSoC4/CapSense_Sensing.c **** 
 670:Generated_Source\PSoC4/CapSense_Sensing.c ****     #elif (CapSense_ENABLE == CapSense_CSX_EN)
 671:Generated_Source\PSoC4/CapSense_Sensing.c ****         /*  Initialize CSD block for CSX scanning   */
 672:Generated_Source\PSoC4/CapSense_Sensing.c ****         CapSense_CSXInitialize();
 673:Generated_Source\PSoC4/CapSense_Sensing.c **** 
 674:Generated_Source\PSoC4/CapSense_Sensing.c ****     #else
 675:Generated_Source\PSoC4/CapSense_Sensing.c ****         #error "No sensing method enabled, component cannot work in this mode"
 676:Generated_Source\PSoC4/CapSense_Sensing.c ****         initStatus = CYRET_UNKNOWN;
 677:Generated_Source\PSoC4/CapSense_Sensing.c ****     #endif  /* (CapSense_ENABLE == CapSense_CSD2X_EN) */
 678:Generated_Source\PSoC4/CapSense_Sensing.c **** 
 679:Generated_Source\PSoC4/CapSense_Sensing.c ****     return (initStatus);
 680:Generated_Source\PSoC4/CapSense_Sensing.c **** }
 681:Generated_Source\PSoC4/CapSense_Sensing.c **** 
 682:Generated_Source\PSoC4/CapSense_Sensing.c **** 
 683:Generated_Source\PSoC4/CapSense_Sensing.c **** /*******************************************************************************
 684:Generated_Source\PSoC4/CapSense_Sensing.c **** * Function Name: CapSense_SetPinState
 685:Generated_Source\PSoC4/CapSense_Sensing.c **** ****************************************************************************//**
 686:Generated_Source\PSoC4/CapSense_Sensing.c **** *
 687:Generated_Source\PSoC4/CapSense_Sensing.c **** * \brief
 688:Generated_Source\PSoC4/CapSense_Sensing.c **** *  Sets the state (drive mode and output state) of port pin used by a sensor.
 689:Generated_Source\PSoC4/CapSense_Sensing.c **** *  The possible states are GND, Shield, High-Z, Tx or Rx, sensor. If the sensor
 690:Generated_Source\PSoC4/CapSense_Sensing.c **** *  specified in the input parameter is a ganged sensor, then state of all pins
 691:Generated_Source\PSoC4/CapSense_Sensing.c **** *  associated with ganged sensor is updated.
 692:Generated_Source\PSoC4/CapSense_Sensing.c **** *
 693:Generated_Source\PSoC4/CapSense_Sensing.c **** * \details
 694:Generated_Source\PSoC4/CapSense_Sensing.c **** *  This function sets a specified state to the specified sensor pin. If the
 695:Generated_Source\PSoC4/CapSense_Sensing.c **** *  sensor is a ganged sensor, then the specified state is also set for all
 696:Generated_Source\PSoC4/CapSense_Sensing.c **** *  ganged pins of this sensor. Scanning should be completed before calling
 697:Generated_Source\PSoC4/CapSense_Sensing.c **** *  this API.
ARM GAS  C:\Users\Jerry\AppData\Local\Temp\ccv40r80.s 			page 17


 698:Generated_Source\PSoC4/CapSense_Sensing.c **** *
 699:Generated_Source\PSoC4/CapSense_Sensing.c **** *  The CapSense_SHIELD and CapSense_SENSOR states are not
 700:Generated_Source\PSoC4/CapSense_Sensing.c **** *  allowed if there is no CSD widget configured in the users project.
 701:Generated_Source\PSoC4/CapSense_Sensing.c **** *  The CapSense_TX_PIN and CapSense_RX_PIN states are not
 702:Generated_Source\PSoC4/CapSense_Sensing.c **** *  allowed if there is no CSX widget configured in the users project.
 703:Generated_Source\PSoC4/CapSense_Sensing.c **** *
 704:Generated_Source\PSoC4/CapSense_Sensing.c **** *  It is not recommended to call this function directly from the application
 705:Generated_Source\PSoC4/CapSense_Sensing.c **** *  layer. This function should be used to implement only the users specific
 706:Generated_Source\PSoC4/CapSense_Sensing.c **** *  use cases. Functions that perform a setup and scan of the sensor/widget
 707:Generated_Source\PSoC4/CapSense_Sensing.c **** *  automatically set needed pin states. They do not take into account changes
 708:Generated_Source\PSoC4/CapSense_Sensing.c **** *  in the design made by the CapSense_SetPinState() function.
 709:Generated_Source\PSoC4/CapSense_Sensing.c **** *
 710:Generated_Source\PSoC4/CapSense_Sensing.c **** *  \param wdgtIndex
 711:Generated_Source\PSoC4/CapSense_Sensing.c **** *  Specify the ID number of the widget to change the pin state of the specified
 712:Generated_Source\PSoC4/CapSense_Sensing.c **** *  sensor.
 713:Generated_Source\PSoC4/CapSense_Sensing.c **** *  A macro for the widget ID can be found in the CapSense Configuration header
 714:Generated_Source\PSoC4/CapSense_Sensing.c **** *  file defined as CapSense_<WidgetName>_WDGT_ID.
 715:Generated_Source\PSoC4/CapSense_Sensing.c **** *
 716:Generated_Source\PSoC4/CapSense_Sensing.c **** *  \param snsIndex
 717:Generated_Source\PSoC4/CapSense_Sensing.c **** *  Specify the ID number of the sensor within the widget to change its pin
 718:Generated_Source\PSoC4/CapSense_Sensing.c **** *  state.
 719:Generated_Source\PSoC4/CapSense_Sensing.c **** *  A macro for the sensor ID within a specified widget can be found in the
 720:Generated_Source\PSoC4/CapSense_Sensing.c **** *  CapSense Configuration header file defined as
 721:Generated_Source\PSoC4/CapSense_Sensing.c **** *  CapSense_<WidgetName>_SNS<SensorNumber>_ID
 722:Generated_Source\PSoC4/CapSense_Sensing.c **** *
 723:Generated_Source\PSoC4/CapSense_Sensing.c **** *  \param state
 724:Generated_Source\PSoC4/CapSense_Sensing.c **** *   Specify the state of the sensor that needs to be set:
 725:Generated_Source\PSoC4/CapSense_Sensing.c **** *     1. CapSense_GROUND - The pin is connected to ground.
 726:Generated_Source\PSoC4/CapSense_Sensing.c **** *     2. CapSense_HIGHZ - The drive mode of the pin is set to High-Z
 727:Generated_Source\PSoC4/CapSense_Sensing.c **** *        Analog.
 728:Generated_Source\PSoC4/CapSense_Sensing.c **** *     3. CapSense_SHIELD - The shield signal is routed to the pin (only
 729:Generated_Source\PSoC4/CapSense_Sensing.c **** *        in CSD sensing method when shield electrode is enabled).
 730:Generated_Source\PSoC4/CapSense_Sensing.c **** *     4. CapSense_SENSOR  The pin is connected to the scanning bus
 731:Generated_Source\PSoC4/CapSense_Sensing.c **** *        (only in CSD sensing method).
 732:Generated_Source\PSoC4/CapSense_Sensing.c **** *     5. CapSense_TX_PIN  The TX signal is routed to the sensor
 733:Generated_Source\PSoC4/CapSense_Sensing.c **** *        (only in CSX sensing method).
 734:Generated_Source\PSoC4/CapSense_Sensing.c **** *     6. CapSense_RX_PIN  The pin is connected to the scanning bus
 735:Generated_Source\PSoC4/CapSense_Sensing.c **** *        (only in CSX sensing method).
 736:Generated_Source\PSoC4/CapSense_Sensing.c **** *
 737:Generated_Source\PSoC4/CapSense_Sensing.c **** *******************************************************************************/
 738:Generated_Source\PSoC4/CapSense_Sensing.c **** void CapSense_SetPinState(uint32 wdgtIndex, uint32 snsIndex, uint32 state)
 739:Generated_Source\PSoC4/CapSense_Sensing.c **** {
 206              		.loc 1 739 0
 207              		.cfi_startproc
 208              	.LVL12:
 740:Generated_Source\PSoC4/CapSense_Sensing.c ****     CapSense_FLASH_IO_STRUCT const *curSnsIOPtr;
 741:Generated_Source\PSoC4/CapSense_Sensing.c ****     #if (CapSense_ENABLE == CapSense_CSD_GANGED_SNS_EN)
 742:Generated_Source\PSoC4/CapSense_Sensing.c ****         CapSense_FLASH_SNS_STRUCT const *curFlashSnsPtr;
 743:Generated_Source\PSoC4/CapSense_Sensing.c ****         uint32 tempVal;
 744:Generated_Source\PSoC4/CapSense_Sensing.c ****     #endif /* (CapSense_ENABLE == CapSense_CSD_GANGED_SNS_EN) */
 745:Generated_Source\PSoC4/CapSense_Sensing.c ****     uint32 newRegisterValue;
 746:Generated_Source\PSoC4/CapSense_Sensing.c ****     uint8  interruptState;
 747:Generated_Source\PSoC4/CapSense_Sensing.c ****     uint32 pinHSIOMShift;
 748:Generated_Source\PSoC4/CapSense_Sensing.c ****     uint32 pinModeShift;
 749:Generated_Source\PSoC4/CapSense_Sensing.c **** 
 750:Generated_Source\PSoC4/CapSense_Sensing.c ****     #if (CapSense_ENABLE == CapSense_CSD_GANGED_SNS_EN)
 751:Generated_Source\PSoC4/CapSense_Sensing.c ****         /* Check ganged sns flag  */
ARM GAS  C:\Users\Jerry\AppData\Local\Temp\ccv40r80.s 			page 18


 752:Generated_Source\PSoC4/CapSense_Sensing.c ****         if (CapSense_GANGED_SNS_MASK == (CapSense_dsFlash.wdgtArray[wdgtIndex].staticConfig &
 753:Generated_Source\PSoC4/CapSense_Sensing.c ****             CapSense_GANGED_SNS_MASK))
 754:Generated_Source\PSoC4/CapSense_Sensing.c ****         {
 755:Generated_Source\PSoC4/CapSense_Sensing.c ****             curFlashSnsPtr = CapSense_dsFlash.wdgtArray[wdgtIndex].ptr2SnsFlash;
 756:Generated_Source\PSoC4/CapSense_Sensing.c ****             curFlashSnsPtr += snsIndex;
 757:Generated_Source\PSoC4/CapSense_Sensing.c ****             curSnsIOPtr = &CapSense_ioList[curFlashSnsPtr->firstPinId];
 758:Generated_Source\PSoC4/CapSense_Sensing.c **** 
 759:Generated_Source\PSoC4/CapSense_Sensing.c ****             /* Get number of ganged pins  */
 760:Generated_Source\PSoC4/CapSense_Sensing.c ****             tempVal = curFlashSnsPtr->numPins;
 761:Generated_Source\PSoC4/CapSense_Sensing.c ****         }
 762:Generated_Source\PSoC4/CapSense_Sensing.c ****         else
 763:Generated_Source\PSoC4/CapSense_Sensing.c ****         {
 764:Generated_Source\PSoC4/CapSense_Sensing.c ****             curSnsIOPtr = (CapSense_FLASH_IO_STRUCT const *)
 765:Generated_Source\PSoC4/CapSense_Sensing.c ****                                     CapSense_dsFlash.wdgtArray[wdgtIndex].ptr2SnsFlash + snsIndex;
 766:Generated_Source\PSoC4/CapSense_Sensing.c ****             /* There are no ganged pins */
 767:Generated_Source\PSoC4/CapSense_Sensing.c ****             tempVal = 1u;
 768:Generated_Source\PSoC4/CapSense_Sensing.c ****         }
 769:Generated_Source\PSoC4/CapSense_Sensing.c ****     #else
 770:Generated_Source\PSoC4/CapSense_Sensing.c ****         curSnsIOPtr = (CapSense_FLASH_IO_STRUCT const *)
 771:Generated_Source\PSoC4/CapSense_Sensing.c ****                                     CapSense_dsFlash.wdgtArray[wdgtIndex].ptr2SnsFlash + snsIndex;
 209              		.loc 1 771 0
 210 0000 1C23     		mov	r3, #28
 739:Generated_Source\PSoC4/CapSense_Sensing.c ****     CapSense_FLASH_IO_STRUCT const *curSnsIOPtr;
 211              		.loc 1 739 0
 212 0002 70B5     		push	{r4, r5, r6, lr}
 213              		.cfi_def_cfa_offset 16
 214              		.cfi_offset 4, -16
 215              		.cfi_offset 5, -12
 216              		.cfi_offset 6, -8
 217              		.cfi_offset 14, -4
 739:Generated_Source\PSoC4/CapSense_Sensing.c ****     CapSense_FLASH_IO_STRUCT const *curSnsIOPtr;
 218              		.loc 1 739 0
 219 0004 151C     		mov	r5, r2
 772:Generated_Source\PSoC4/CapSense_Sensing.c ****     #endif  /* (CapSense_ENABLE == CapSense_CSD_GANGED_SNS_EN) */
 773:Generated_Source\PSoC4/CapSense_Sensing.c **** 
 774:Generated_Source\PSoC4/CapSense_Sensing.c ****     #if (CapSense_ENABLE == CapSense_CSD_GANGED_SNS_EN)
 775:Generated_Source\PSoC4/CapSense_Sensing.c ****         /* Reconfigure all ganged sensors  */
 776:Generated_Source\PSoC4/CapSense_Sensing.c ****         do
 777:Generated_Source\PSoC4/CapSense_Sensing.c ****         {
 778:Generated_Source\PSoC4/CapSense_Sensing.c ****     #endif  /* (CapSense_ENABLE == CapSense_CSD_GANGED_SNS_EN) */
 779:Generated_Source\PSoC4/CapSense_Sensing.c **** 
 780:Generated_Source\PSoC4/CapSense_Sensing.c ****             /* Get HSIOM and port mode shifts */
 781:Generated_Source\PSoC4/CapSense_Sensing.c ****             pinHSIOMShift = (uint32)curSnsIOPtr->hsiomShift;
 782:Generated_Source\PSoC4/CapSense_Sensing.c ****             pinModeShift = (uint32)curSnsIOPtr->shift;
 783:Generated_Source\PSoC4/CapSense_Sensing.c **** 
 784:Generated_Source\PSoC4/CapSense_Sensing.c ****             /* Reset HSIOM register */
 785:Generated_Source\PSoC4/CapSense_Sensing.c ****             CY_SET_REG32(curSnsIOPtr->hsiomPtr, CY_GET_REG32(curSnsIOPtr->hsiomPtr) & ~(CapSense_HS
 220              		.loc 1 785 0
 221 0006 0F22     		mov	r2, #15
 222              	.LVL13:
 771:Generated_Source\PSoC4/CapSense_Sensing.c ****     #endif  /* (CapSense_ENABLE == CapSense_CSD_GANGED_SNS_EN) */
 223              		.loc 1 771 0
 224 0008 5943     		mul	r1, r3
 225              	.LVL14:
 770:Generated_Source\PSoC4/CapSense_Sensing.c ****                                     CapSense_dsFlash.wdgtArray[wdgtIndex].ptr2SnsFlash + snsIndex;
 226              		.loc 1 770 0
 227 000a 1D4B     		ldr	r3, .L29
ARM GAS  C:\Users\Jerry\AppData\Local\Temp\ccv40r80.s 			page 19


 771:Generated_Source\PSoC4/CapSense_Sensing.c ****     #endif  /* (CapSense_ENABLE == CapSense_CSD_GANGED_SNS_EN) */
 228              		.loc 1 771 0
 229 000c 4001     		lsl	r0, r0, #5
 230              	.LVL15:
 770:Generated_Source\PSoC4/CapSense_Sensing.c ****                                     CapSense_dsFlash.wdgtArray[wdgtIndex].ptr2SnsFlash + snsIndex;
 231              		.loc 1 770 0
 232 000e C458     		ldr	r4, [r0, r3]
 233 0010 6418     		add	r4, r4, r1
 234              	.LVL16:
 235              		.loc 1 785 0
 236 0012 207E     		ldrb	r0, [r4, #24]
 237              	.LVL17:
 238 0014 2168     		ldr	r1, [r4]
 239 0016 8240     		lsl	r2, r2, r0
 240 0018 0B68     		ldr	r3, [r1]
 782:Generated_Source\PSoC4/CapSense_Sensing.c **** 
 241              		.loc 1 782 0
 242 001a A67E     		ldrb	r6, [r4, #26]
 243              	.LVL18:
 244              		.loc 1 785 0
 245 001c 9343     		bic	r3, r2
 246 001e 0B60     		str	r3, [r1]
 786:Generated_Source\PSoC4/CapSense_Sensing.c **** 
 787:Generated_Source\PSoC4/CapSense_Sensing.c ****             switch (state)
 247              		.loc 1 787 0
 248 0020 012D     		cmp	r5, #1
 249 0022 1CD0     		beq	.L26
 250 0024 002D     		cmp	r5, #0
 251 0026 05D0     		beq	.L27
 252 0028 032D     		cmp	r5, #3
 253 002a 28D1     		bne	.L24
 788:Generated_Source\PSoC4/CapSense_Sensing.c ****             {
 789:Generated_Source\PSoC4/CapSense_Sensing.c ****             case CapSense_GROUND:
 790:Generated_Source\PSoC4/CapSense_Sensing.c ****                 interruptState = CyEnterCriticalSection();
 791:Generated_Source\PSoC4/CapSense_Sensing.c **** 
 792:Generated_Source\PSoC4/CapSense_Sensing.c ****                 /* Update port configuration register (drive mode) for sensor */
 793:Generated_Source\PSoC4/CapSense_Sensing.c ****                 newRegisterValue = CY_GET_REG32(curSnsIOPtr->pcPtr);
 794:Generated_Source\PSoC4/CapSense_Sensing.c ****                 newRegisterValue &= ~(CapSense_GPIO_PC_MASK << pinModeShift);
 795:Generated_Source\PSoC4/CapSense_Sensing.c ****                 newRegisterValue |= (CapSense_SNS_GROUND_CONNECT << pinModeShift);
 796:Generated_Source\PSoC4/CapSense_Sensing.c ****                 CY_SET_REG32(curSnsIOPtr->pcPtr, newRegisterValue);
 797:Generated_Source\PSoC4/CapSense_Sensing.c **** 
 798:Generated_Source\PSoC4/CapSense_Sensing.c ****                 CyExitCriticalSection(interruptState);
 799:Generated_Source\PSoC4/CapSense_Sensing.c **** 
 800:Generated_Source\PSoC4/CapSense_Sensing.c ****                 /* Set logic 0 to port data register */
 801:Generated_Source\PSoC4/CapSense_Sensing.c ****                 CY_SET_REG32(curSnsIOPtr->drPtr, CY_GET_REG32(curSnsIOPtr->drPtr) & (uint32)~(uint3
 802:Generated_Source\PSoC4/CapSense_Sensing.c ****                 break;
 803:Generated_Source\PSoC4/CapSense_Sensing.c **** 
 804:Generated_Source\PSoC4/CapSense_Sensing.c ****             case CapSense_HIGHZ:
 805:Generated_Source\PSoC4/CapSense_Sensing.c ****                 interruptState = CyEnterCriticalSection();
 806:Generated_Source\PSoC4/CapSense_Sensing.c **** 
 807:Generated_Source\PSoC4/CapSense_Sensing.c ****                 /* Update port configuration register (drive mode) for sensor */
 808:Generated_Source\PSoC4/CapSense_Sensing.c ****                 newRegisterValue = CY_GET_REG32(curSnsIOPtr->pcPtr);
 809:Generated_Source\PSoC4/CapSense_Sensing.c ****                 newRegisterValue &= ~(CapSense_GPIO_PC_MASK << pinModeShift);
 810:Generated_Source\PSoC4/CapSense_Sensing.c ****                 CY_SET_REG32(curSnsIOPtr->pcPtr, newRegisterValue);
 811:Generated_Source\PSoC4/CapSense_Sensing.c **** 
 812:Generated_Source\PSoC4/CapSense_Sensing.c ****                 CyExitCriticalSection(interruptState);
 813:Generated_Source\PSoC4/CapSense_Sensing.c **** 
ARM GAS  C:\Users\Jerry\AppData\Local\Temp\ccv40r80.s 			page 20


 814:Generated_Source\PSoC4/CapSense_Sensing.c ****                 /* Set logic 0 to port data register */
 815:Generated_Source\PSoC4/CapSense_Sensing.c ****                 CY_SET_REG32(curSnsIOPtr->drPtr, CY_GET_REG32(curSnsIOPtr->drPtr) & (uint32)~(uint3
 816:Generated_Source\PSoC4/CapSense_Sensing.c ****                 break;
 817:Generated_Source\PSoC4/CapSense_Sensing.c **** 
 818:Generated_Source\PSoC4/CapSense_Sensing.c ****             #if (CapSense_ENABLE == CapSense_CSD_SHIELD_EN)
 819:Generated_Source\PSoC4/CapSense_Sensing.c ****                 case CapSense_SHIELD:
 820:Generated_Source\PSoC4/CapSense_Sensing.c ****                     /* Set drive mode to Analog */
 821:Generated_Source\PSoC4/CapSense_Sensing.c ****                     CY_SET_REG32(curSnsIOPtr->pcPtr, CY_GET_REG32(curSnsIOPtr->pcPtr) &
 822:Generated_Source\PSoC4/CapSense_Sensing.c ****                                ~(CapSense_GPIO_PC_MASK <<(curSnsIOPtr->shift)));
 823:Generated_Source\PSoC4/CapSense_Sensing.c **** 
 824:Generated_Source\PSoC4/CapSense_Sensing.c ****                     /* Set appropriate bit in HSIOM register to configure pin to shield mode */
 825:Generated_Source\PSoC4/CapSense_Sensing.c ****                     CY_SET_REG32(curSnsIOPtr->hsiomPtr, CY_GET_REG32(curSnsIOPtr->hsiomPtr) |
 826:Generated_Source\PSoC4/CapSense_Sensing.c ****                                                        (CapSense_HSIOM_SEL_CSD_SHIELD << pinHSIOMSh
 827:Generated_Source\PSoC4/CapSense_Sensing.c ****                     break;
 828:Generated_Source\PSoC4/CapSense_Sensing.c ****             #endif  /* (CapSense_ENABLE == CapSense_CSD_SHIELD_EN) */
 829:Generated_Source\PSoC4/CapSense_Sensing.c **** 
 830:Generated_Source\PSoC4/CapSense_Sensing.c ****             #if ((CapSense_ENABLE == CapSense_CSD_EN) || \
 831:Generated_Source\PSoC4/CapSense_Sensing.c ****                  (CapSense_ENABLE == CapSense_CSD_CSX_EN))
 832:Generated_Source\PSoC4/CapSense_Sensing.c ****                 case CapSense_SENSOR:
 833:Generated_Source\PSoC4/CapSense_Sensing.c ****                     /* Enable sensor */
 834:Generated_Source\PSoC4/CapSense_Sensing.c ****                     CapSense_CSDConnectSns(curSnsIOPtr);
 254              		.loc 1 834 0
 255 002c 201C     		mov	r0, r4
 256              	.LVL19:
 257 002e FFF7FEFF 		bl	CapSense_CSDConnectSns
 258              	.LVL20:
 835:Generated_Source\PSoC4/CapSense_Sensing.c ****                     break;
 259              		.loc 1 835 0
 260 0032 24E0     		b	.L24
 261              	.LVL21:
 262              	.L27:
 790:Generated_Source\PSoC4/CapSense_Sensing.c **** 
 263              		.loc 1 790 0
 264 0034 FFF7FEFF 		bl	CyEnterCriticalSection
 265              	.LVL22:
 794:Generated_Source\PSoC4/CapSense_Sensing.c ****                 newRegisterValue |= (CapSense_SNS_GROUND_CONNECT << pinModeShift);
 266              		.loc 1 794 0
 267 0038 0722     		mov	r2, #7
 268 003a B240     		lsl	r2, r2, r6
 793:Generated_Source\PSoC4/CapSense_Sensing.c ****                 newRegisterValue &= ~(CapSense_GPIO_PC_MASK << pinModeShift);
 269              		.loc 1 793 0
 270 003c 6168     		ldr	r1, [r4, #4]
 271 003e 0B68     		ldr	r3, [r1]
 272              	.LVL23:
 794:Generated_Source\PSoC4/CapSense_Sensing.c ****                 newRegisterValue |= (CapSense_SNS_GROUND_CONNECT << pinModeShift);
 273              		.loc 1 794 0
 274 0040 9343     		bic	r3, r2
 275              	.LVL24:
 795:Generated_Source\PSoC4/CapSense_Sensing.c ****                 CY_SET_REG32(curSnsIOPtr->pcPtr, newRegisterValue);
 276              		.loc 1 795 0
 277 0042 0622     		mov	r2, #6
 278 0044 B240     		lsl	r2, r2, r6
 279 0046 1343     		orr	r3, r2
 280              	.LVL25:
 796:Generated_Source\PSoC4/CapSense_Sensing.c **** 
 281              		.loc 1 796 0
 282 0048 0B60     		str	r3, [r1]
ARM GAS  C:\Users\Jerry\AppData\Local\Temp\ccv40r80.s 			page 21


 798:Generated_Source\PSoC4/CapSense_Sensing.c **** 
 283              		.loc 1 798 0
 284 004a FFF7FEFF 		bl	CyExitCriticalSection
 285              	.LVL26:
 801:Generated_Source\PSoC4/CapSense_Sensing.c ****                 break;
 286              		.loc 1 801 0
 287 004e 0122     		mov	r2, #1
 288 0050 607E     		ldrb	r0, [r4, #25]
 289 0052 A168     		ldr	r1, [r4, #8]
 290 0054 8240     		lsl	r2, r2, r0
 291 0056 0B68     		ldr	r3, [r1]
 292 0058 9343     		bic	r3, r2
 293 005a 0B60     		str	r3, [r1]
 802:Generated_Source\PSoC4/CapSense_Sensing.c **** 
 294              		.loc 1 802 0
 295 005c 0FE0     		b	.L24
 296              	.LVL27:
 297              	.L26:
 805:Generated_Source\PSoC4/CapSense_Sensing.c **** 
 298              		.loc 1 805 0
 299 005e FFF7FEFF 		bl	CyEnterCriticalSection
 300              	.LVL28:
 809:Generated_Source\PSoC4/CapSense_Sensing.c ****                 CY_SET_REG32(curSnsIOPtr->pcPtr, newRegisterValue);
 301              		.loc 1 809 0
 302 0062 0722     		mov	r2, #7
 303 0064 B240     		lsl	r2, r2, r6
 808:Generated_Source\PSoC4/CapSense_Sensing.c ****                 newRegisterValue &= ~(CapSense_GPIO_PC_MASK << pinModeShift);
 304              		.loc 1 808 0
 305 0066 6168     		ldr	r1, [r4, #4]
 306 0068 0B68     		ldr	r3, [r1]
 307              	.LVL29:
 809:Generated_Source\PSoC4/CapSense_Sensing.c ****                 CY_SET_REG32(curSnsIOPtr->pcPtr, newRegisterValue);
 308              		.loc 1 809 0
 309 006a 9343     		bic	r3, r2
 310              	.LVL30:
 810:Generated_Source\PSoC4/CapSense_Sensing.c **** 
 311              		.loc 1 810 0
 312 006c 0B60     		str	r3, [r1]
 812:Generated_Source\PSoC4/CapSense_Sensing.c **** 
 313              		.loc 1 812 0
 314 006e FFF7FEFF 		bl	CyExitCriticalSection
 315              	.LVL31:
 815:Generated_Source\PSoC4/CapSense_Sensing.c ****                 break;
 316              		.loc 1 815 0
 317 0072 617E     		ldrb	r1, [r4, #25]
 318 0074 A268     		ldr	r2, [r4, #8]
 319 0076 8D40     		lsl	r5, r5, r1
 320              	.LVL32:
 321 0078 1368     		ldr	r3, [r2]
 322 007a AB43     		bic	r3, r5
 323 007c 1360     		str	r3, [r2]
 324              	.L24:
 836:Generated_Source\PSoC4/CapSense_Sensing.c ****             #endif  /* ((CapSense_ENABLE == CapSense_CSD_EN) || \
 837:Generated_Source\PSoC4/CapSense_Sensing.c ****                         (CapSense_ENABLE == CapSense_CSD_CSX_EN)) */
 838:Generated_Source\PSoC4/CapSense_Sensing.c **** 
 839:Generated_Source\PSoC4/CapSense_Sensing.c ****             #if ((CapSense_ENABLE == CapSense_CSX_EN) || \
 840:Generated_Source\PSoC4/CapSense_Sensing.c ****                  (CapSense_ENABLE == CapSense_CSD_CSX_EN))
ARM GAS  C:\Users\Jerry\AppData\Local\Temp\ccv40r80.s 			page 22


 841:Generated_Source\PSoC4/CapSense_Sensing.c ****                 case CapSense_TX_PIN:
 842:Generated_Source\PSoC4/CapSense_Sensing.c ****                     CY_SET_REG32(curSnsIOPtr->hsiomPtr, CY_GET_REG32(curSnsIOPtr->hsiomPtr) | (CapS
 843:Generated_Source\PSoC4/CapSense_Sensing.c ****                     CY_SET_REG32(curSnsIOPtr->pcPtr, CY_GET_REG32(curSnsIOPtr->pcPtr) | (CapSense_G
 844:Generated_Source\PSoC4/CapSense_Sensing.c ****                     break;
 845:Generated_Source\PSoC4/CapSense_Sensing.c **** 
 846:Generated_Source\PSoC4/CapSense_Sensing.c ****                 case CapSense_RX_PIN:
 847:Generated_Source\PSoC4/CapSense_Sensing.c ****                     CY_SET_REG32(curSnsIOPtr->hsiomPtr, CY_GET_REG32(curSnsIOPtr->hsiomPtr) | (CapS
 848:Generated_Source\PSoC4/CapSense_Sensing.c ****                     CY_SET_REG32(curSnsIOPtr->pcPtr, CY_GET_REG32(curSnsIOPtr->pcPtr) & ~(CapSense_
 849:Generated_Source\PSoC4/CapSense_Sensing.c ****                     break;
 850:Generated_Source\PSoC4/CapSense_Sensing.c ****             #endif  /* ((CapSense_ENABLE == CapSense_CSX_EN) || \
 851:Generated_Source\PSoC4/CapSense_Sensing.c ****                         (CapSense_ENABLE == CapSense_CSD_CSX_EN)) */
 852:Generated_Source\PSoC4/CapSense_Sensing.c **** 
 853:Generated_Source\PSoC4/CapSense_Sensing.c ****             default:
 854:Generated_Source\PSoC4/CapSense_Sensing.c ****                 /* Wrong input */
 855:Generated_Source\PSoC4/CapSense_Sensing.c ****                 break;
 856:Generated_Source\PSoC4/CapSense_Sensing.c ****             }
 857:Generated_Source\PSoC4/CapSense_Sensing.c **** 
 858:Generated_Source\PSoC4/CapSense_Sensing.c ****     #if (CapSense_ENABLE == CapSense_CSD_GANGED_SNS_EN)
 859:Generated_Source\PSoC4/CapSense_Sensing.c ****             curSnsIOPtr++;
 860:Generated_Source\PSoC4/CapSense_Sensing.c ****             tempVal--;
 861:Generated_Source\PSoC4/CapSense_Sensing.c ****         } while (0u != tempVal);
 862:Generated_Source\PSoC4/CapSense_Sensing.c ****     #endif  /* (CapSense_ENABLE == CapSense_CSD_GANGED_SNS_EN) */
 863:Generated_Source\PSoC4/CapSense_Sensing.c **** }
 325              		.loc 1 863 0
 326              		@ sp needed
 327              	.LVL33:
 328              	.LVL34:
 329 007e 70BD     		pop	{r4, r5, r6, pc}
 330              	.L30:
 331              		.align	2
 332              	.L29:
 333 0080 00000000 		.word	CapSense_dsFlash
 334              		.cfi_endproc
 335              	.LFE6:
 336              		.size	CapSense_SetPinState, .-CapSense_SetPinState
 337              		.section	.text.CapSense_SsPostAllWidgetsScan,"ax",%progbits
 338              		.align	1
 339              		.global	CapSense_SsPostAllWidgetsScan
 340              		.code	16
 341              		.thumb_func
 342              		.type	CapSense_SsPostAllWidgetsScan, %function
 343              	CapSense_SsPostAllWidgetsScan:
 344              	.LFB7:
 864:Generated_Source\PSoC4/CapSense_Sensing.c **** 
 865:Generated_Source\PSoC4/CapSense_Sensing.c **** 
 866:Generated_Source\PSoC4/CapSense_Sensing.c **** #if ((CapSense_ENABLE == CapSense_CSD_CSX_EN) || \
 867:Generated_Source\PSoC4/CapSense_Sensing.c ****      (CapSense_ENABLE == CapSense_SELF_TEST_EN) || \
 868:Generated_Source\PSoC4/CapSense_Sensing.c ****      (CapSense_ENABLE == CapSense_ADC_EN))
 869:Generated_Source\PSoC4/CapSense_Sensing.c **** 
 870:Generated_Source\PSoC4/CapSense_Sensing.c ****     #if (CapSense_ENABLE == CapSense_CSD_EN)
 871:Generated_Source\PSoC4/CapSense_Sensing.c ****         /*******************************************************************************
 872:Generated_Source\PSoC4/CapSense_Sensing.c ****         * Function Name: CapSense_SsCSDDisableMode
 873:Generated_Source\PSoC4/CapSense_Sensing.c ****         ****************************************************************************//**
 874:Generated_Source\PSoC4/CapSense_Sensing.c ****         *
 875:Generated_Source\PSoC4/CapSense_Sensing.c ****         * \brief
 876:Generated_Source\PSoC4/CapSense_Sensing.c ****         *  This function disables CSD mode.
 877:Generated_Source\PSoC4/CapSense_Sensing.c ****         *
ARM GAS  C:\Users\Jerry\AppData\Local\Temp\ccv40r80.s 			page 23


 878:Generated_Source\PSoC4/CapSense_Sensing.c ****         * \details
 879:Generated_Source\PSoC4/CapSense_Sensing.c ****         *  To disable CSD mode the following tasks are performed:
 880:Generated_Source\PSoC4/CapSense_Sensing.c ****         *  1. Disconnect Cmod from AMUXBUS-A;
 881:Generated_Source\PSoC4/CapSense_Sensing.c ****         *  2. Disconnect previous CSX electrode if it has been connected;
 882:Generated_Source\PSoC4/CapSense_Sensing.c ****         *  3. Disconnect Csh from AMUXBUS-B;
 883:Generated_Source\PSoC4/CapSense_Sensing.c ****         *  4. Disable Shield Electrodes.
 884:Generated_Source\PSoC4/CapSense_Sensing.c ****         *
 885:Generated_Source\PSoC4/CapSense_Sensing.c ****         *******************************************************************************/
 886:Generated_Source\PSoC4/CapSense_Sensing.c ****         static void CapSense_SsCSDDisableMode(void)
 887:Generated_Source\PSoC4/CapSense_Sensing.c ****         {
 888:Generated_Source\PSoC4/CapSense_Sensing.c ****             uint32 newRegValue;
 889:Generated_Source\PSoC4/CapSense_Sensing.c **** 
 890:Generated_Source\PSoC4/CapSense_Sensing.c ****             /* Disconnect Cmod from AMUXBUS-A using HSIOM registers */
 891:Generated_Source\PSoC4/CapSense_Sensing.c ****             newRegValue = CY_GET_REG32(CapSense_CMOD_HSIOM_PTR);
 892:Generated_Source\PSoC4/CapSense_Sensing.c ****             newRegValue &= (uint32)(~(uint32)CapSense_CMOD_HSIOM_MASK);
 893:Generated_Source\PSoC4/CapSense_Sensing.c ****             CY_SET_REG32(CapSense_CMOD_HSIOM_PTR, newRegValue);
 894:Generated_Source\PSoC4/CapSense_Sensing.c **** 
 895:Generated_Source\PSoC4/CapSense_Sensing.c ****             #if ((CapSense_ENABLE == CapSense_CSDV2) && \
 896:Generated_Source\PSoC4/CapSense_Sensing.c ****                  ((CapSense_ENABLE == CapSense_CSD_IDAC_COMP_EN) && \
 897:Generated_Source\PSoC4/CapSense_Sensing.c ****                  (CapSense_ENABLE == CapSense_CSD_DEDICATED_IDAC_COMP_EN)))
 898:Generated_Source\PSoC4/CapSense_Sensing.c ****                 /* Disconnect IDACA and IDACB */
 899:Generated_Source\PSoC4/CapSense_Sensing.c ****                 newRegValue = CY_GET_REG32(CapSense_SW_REFGEN_SEL_PTR);
 900:Generated_Source\PSoC4/CapSense_Sensing.c ****                 newRegValue &= (uint32)(~CapSense_SW_REFGEN_SEL_SW_IAIB_MASK);
 901:Generated_Source\PSoC4/CapSense_Sensing.c ****                 CY_SET_REG32(CapSense_SW_REFGEN_SEL_PTR, newRegValue);
 902:Generated_Source\PSoC4/CapSense_Sensing.c ****             #endif /* ((CapSense_ENABLE == CapSense_CSDV2) && \
 903:Generated_Source\PSoC4/CapSense_Sensing.c ****                        ((CapSense_ENABLE == CapSense_CSD_IDAC_COMP_EN) && \
 904:Generated_Source\PSoC4/CapSense_Sensing.c ****                        (CapSense_ENABLE == CapSense_CSD_DEDICATED_IDAC_COMP_EN))) */
 905:Generated_Source\PSoC4/CapSense_Sensing.c **** 
 906:Generated_Source\PSoC4/CapSense_Sensing.c ****             /* Disconnect previous CSD electrode if it has been connected */
 907:Generated_Source\PSoC4/CapSense_Sensing.c ****             CapSense_SsCSDElectrodeCheck();
 908:Generated_Source\PSoC4/CapSense_Sensing.c **** 
 909:Generated_Source\PSoC4/CapSense_Sensing.c ****             /* Disconnect Csh from AMUXBUS-B */
 910:Generated_Source\PSoC4/CapSense_Sensing.c ****             #if ((CapSense_ENABLE == CapSense_CSD_SHIELD_EN) && \
 911:Generated_Source\PSoC4/CapSense_Sensing.c ****                  (CapSense_ENABLE == CapSense_CSD_SHIELD_TANK_EN))
 912:Generated_Source\PSoC4/CapSense_Sensing.c ****                 newRegValue = CY_GET_REG32(CapSense_CSH_HSIOM_PTR);
 913:Generated_Source\PSoC4/CapSense_Sensing.c ****                 newRegValue &= (uint32)(~(uint32)(CapSense_CSH_TO_AMUXBUS_B_MASK << CapSense_CSH_HS
 914:Generated_Source\PSoC4/CapSense_Sensing.c ****                 CY_SET_REG32(CapSense_CSH_HSIOM_PTR, newRegValue);
 915:Generated_Source\PSoC4/CapSense_Sensing.c ****             #endif /* ((CapSense_ENABLE == CapSense_CSD_SHIELD_EN) && \
 916:Generated_Source\PSoC4/CapSense_Sensing.c ****                        (CapSense_ENABLE == CapSense_CSD_SHIELD_TANK_EN)) */
 917:Generated_Source\PSoC4/CapSense_Sensing.c **** 
 918:Generated_Source\PSoC4/CapSense_Sensing.c ****             #if ((CapSense_ENABLE == CapSense_CSD_SHIELD_EN) && \
 919:Generated_Source\PSoC4/CapSense_Sensing.c ****                  (0u != CapSense_CSD_TOTAL_SHIELD_COUNT))
 920:Generated_Source\PSoC4/CapSense_Sensing.c ****                 CapSense_SsCSDDisableShieldElectrodes();
 921:Generated_Source\PSoC4/CapSense_Sensing.c ****             #endif /* ((CapSense_ENABLE == CapSense_CSD_SHIELD_EN) && \
 922:Generated_Source\PSoC4/CapSense_Sensing.c ****                        (0u != CapSense_CSD_TOTAL_SHIELD_COUNT)) */
 923:Generated_Source\PSoC4/CapSense_Sensing.c ****         }
 924:Generated_Source\PSoC4/CapSense_Sensing.c ****     #endif /* (CapSense_ENABLE == CapSense_CSD_EN) */
 925:Generated_Source\PSoC4/CapSense_Sensing.c **** 
 926:Generated_Source\PSoC4/CapSense_Sensing.c **** 
 927:Generated_Source\PSoC4/CapSense_Sensing.c ****     #if (CapSense_ENABLE == CapSense_CSX_EN)
 928:Generated_Source\PSoC4/CapSense_Sensing.c ****         /*******************************************************************************
 929:Generated_Source\PSoC4/CapSense_Sensing.c ****         * Function Name: CapSense_SsDisableCSXMode
 930:Generated_Source\PSoC4/CapSense_Sensing.c ****         ****************************************************************************//**
 931:Generated_Source\PSoC4/CapSense_Sensing.c ****         *
 932:Generated_Source\PSoC4/CapSense_Sensing.c ****         * \brief
 933:Generated_Source\PSoC4/CapSense_Sensing.c ****         *  This function disables CSX mode.
 934:Generated_Source\PSoC4/CapSense_Sensing.c ****         *
ARM GAS  C:\Users\Jerry\AppData\Local\Temp\ccv40r80.s 			page 24


 935:Generated_Source\PSoC4/CapSense_Sensing.c ****         * \details
 936:Generated_Source\PSoC4/CapSense_Sensing.c ****         *  To disable CSX mode the following tasks are performed:
 937:Generated_Source\PSoC4/CapSense_Sensing.c ****         *  1. Disconnect CintA and CintB from AMUXBUS-A
 938:Generated_Source\PSoC4/CapSense_Sensing.c ****         *  2. Disconnect previous CSX electrode if it has been connected
 939:Generated_Source\PSoC4/CapSense_Sensing.c ****         *
 940:Generated_Source\PSoC4/CapSense_Sensing.c ****         *******************************************************************************/
 941:Generated_Source\PSoC4/CapSense_Sensing.c ****         static void CapSense_SsDisableCSXMode(void)
 942:Generated_Source\PSoC4/CapSense_Sensing.c ****         {
 943:Generated_Source\PSoC4/CapSense_Sensing.c ****             uint32 newRegValue;
 944:Generated_Source\PSoC4/CapSense_Sensing.c **** 
 945:Generated_Source\PSoC4/CapSense_Sensing.c ****             /*  Disconnect CintA from AMUXBUS-A using HSIOM registers.   */
 946:Generated_Source\PSoC4/CapSense_Sensing.c ****             newRegValue = CY_GET_REG32(CapSense_CintA_HSIOM_PTR);
 947:Generated_Source\PSoC4/CapSense_Sensing.c ****             newRegValue &= (uint32)(~(uint32)CapSense_CintA_HSIOM_MASK);
 948:Generated_Source\PSoC4/CapSense_Sensing.c ****             CY_SET_REG32(CapSense_CintA_HSIOM_PTR, newRegValue);
 949:Generated_Source\PSoC4/CapSense_Sensing.c **** 
 950:Generated_Source\PSoC4/CapSense_Sensing.c ****             /*  Disconnect CintB from AMUXBUS-A using HSIOM registers.   */
 951:Generated_Source\PSoC4/CapSense_Sensing.c ****             newRegValue = CY_GET_REG32(CapSense_CintB_HSIOM_PTR);
 952:Generated_Source\PSoC4/CapSense_Sensing.c ****             newRegValue &= (uint32)(~(uint32)CapSense_CintB_HSIOM_MASK);
 953:Generated_Source\PSoC4/CapSense_Sensing.c ****             CY_SET_REG32(CapSense_CintB_HSIOM_PTR, newRegValue);
 954:Generated_Source\PSoC4/CapSense_Sensing.c **** 
 955:Generated_Source\PSoC4/CapSense_Sensing.c ****             /* Disconnect previous CSX electrode if it has been connected */
 956:Generated_Source\PSoC4/CapSense_Sensing.c ****             CapSense_CSXElectrodeCheck();
 957:Generated_Source\PSoC4/CapSense_Sensing.c ****         }
 958:Generated_Source\PSoC4/CapSense_Sensing.c ****     #endif /* (CapSense_ENABLE == CapSense_CSX_EN) */
 959:Generated_Source\PSoC4/CapSense_Sensing.c **** 
 960:Generated_Source\PSoC4/CapSense_Sensing.c **** 
 961:Generated_Source\PSoC4/CapSense_Sensing.c ****     /*******************************************************************************
 962:Generated_Source\PSoC4/CapSense_Sensing.c ****     * Function Name: CapSense_SsSwitchSensingMode
 963:Generated_Source\PSoC4/CapSense_Sensing.c ****     ****************************************************************************//**
 964:Generated_Source\PSoC4/CapSense_Sensing.c ****     *
 965:Generated_Source\PSoC4/CapSense_Sensing.c ****     * \brief
 966:Generated_Source\PSoC4/CapSense_Sensing.c ****     *  This function changes the mode for case when both CSD and CSX widgets are
 967:Generated_Source\PSoC4/CapSense_Sensing.c ****     *  scanned.
 968:Generated_Source\PSoC4/CapSense_Sensing.c ****     *
 969:Generated_Source\PSoC4/CapSense_Sensing.c ****     * \details
 970:Generated_Source\PSoC4/CapSense_Sensing.c ****     *  To switch to the CSD mode the following tasks are performed:
 971:Generated_Source\PSoC4/CapSense_Sensing.c ****     *  1. Disconnect CintA and CintB from AMUXBUS-A;
 972:Generated_Source\PSoC4/CapSense_Sensing.c ****     *  2. Disconnect previous CSD electrode if it has been connected;
 973:Generated_Source\PSoC4/CapSense_Sensing.c ****     *  3. Initialize CSD mode.
 974:Generated_Source\PSoC4/CapSense_Sensing.c ****     *
 975:Generated_Source\PSoC4/CapSense_Sensing.c ****     *  To switch to the CSX mode the following tasks are performed:
 976:Generated_Source\PSoC4/CapSense_Sensing.c ****     *  1. Disconnect Cmod from AMUXBUS-A;
 977:Generated_Source\PSoC4/CapSense_Sensing.c ****     *  2. Disconnect previous CSX electrode if it has been connected;
 978:Generated_Source\PSoC4/CapSense_Sensing.c ****     *  3. Initialize CSX mode.
 979:Generated_Source\PSoC4/CapSense_Sensing.c ****     *
 980:Generated_Source\PSoC4/CapSense_Sensing.c ****     * \param mode Specifies the scan mode:
 981:Generated_Source\PSoC4/CapSense_Sensing.c ****     *           -  (1) CapSense_SENSE_METHOD_CSD_E
 982:Generated_Source\PSoC4/CapSense_Sensing.c ****     *           -  (2) CapSense_SENSE_METHOD_CSX_E
 983:Generated_Source\PSoC4/CapSense_Sensing.c ****     *           -  (3) CapSense_SENSE_METHOD_BIST_E
 984:Generated_Source\PSoC4/CapSense_Sensing.c ****     *
 985:Generated_Source\PSoC4/CapSense_Sensing.c ****     *******************************************************************************/
 986:Generated_Source\PSoC4/CapSense_Sensing.c ****     void CapSense_SsSwitchSensingMode(CapSense_SENSE_METHOD_ENUM mode)
 987:Generated_Source\PSoC4/CapSense_Sensing.c ****     {
 988:Generated_Source\PSoC4/CapSense_Sensing.c ****         if (CapSense_currentSenseMethod != mode)
 989:Generated_Source\PSoC4/CapSense_Sensing.c ****         {
 990:Generated_Source\PSoC4/CapSense_Sensing.c ****             /* The requested mode differes to the current one. Disable the current mode */
 991:Generated_Source\PSoC4/CapSense_Sensing.c ****             if (CapSense_SENSE_METHOD_CSD_E ==  CapSense_currentSenseMethod)
ARM GAS  C:\Users\Jerry\AppData\Local\Temp\ccv40r80.s 			page 25


 992:Generated_Source\PSoC4/CapSense_Sensing.c ****             {
 993:Generated_Source\PSoC4/CapSense_Sensing.c ****                 #if (CapSense_ENABLE == CapSense_CSD_EN)
 994:Generated_Source\PSoC4/CapSense_Sensing.c ****                     CapSense_SsCSDDisableMode();
 995:Generated_Source\PSoC4/CapSense_Sensing.c ****                 #endif /* (CapSense_ENABLE == CapSense_CSD_EN) */
 996:Generated_Source\PSoC4/CapSense_Sensing.c ****             }
 997:Generated_Source\PSoC4/CapSense_Sensing.c ****             else if (CapSense_SENSE_METHOD_CSX_E ==  CapSense_currentSenseMethod)
 998:Generated_Source\PSoC4/CapSense_Sensing.c ****             {
 999:Generated_Source\PSoC4/CapSense_Sensing.c ****                 #if (CapSense_ENABLE == CapSense_CSX_EN)
1000:Generated_Source\PSoC4/CapSense_Sensing.c ****                     CapSense_SsDisableCSXMode();
1001:Generated_Source\PSoC4/CapSense_Sensing.c ****                 #endif /* (CapSense_ENABLE == CapSense_CSX_EN) */
1002:Generated_Source\PSoC4/CapSense_Sensing.c ****             }
1003:Generated_Source\PSoC4/CapSense_Sensing.c ****             else if (CapSense_SENSE_METHOD_BIST_E ==  CapSense_currentSenseMethod)
1004:Generated_Source\PSoC4/CapSense_Sensing.c ****             {
1005:Generated_Source\PSoC4/CapSense_Sensing.c ****                 #if (CapSense_ENABLE == CapSense_SELF_TEST_EN)
1006:Generated_Source\PSoC4/CapSense_Sensing.c ****                     CapSense_BistDisableMode();
1007:Generated_Source\PSoC4/CapSense_Sensing.c ****                 #endif /* (CapSense_ENABLE == CapSense_CSX_EN) */
1008:Generated_Source\PSoC4/CapSense_Sensing.c ****             }
1009:Generated_Source\PSoC4/CapSense_Sensing.c ****             else
1010:Generated_Source\PSoC4/CapSense_Sensing.c ****             {
1011:Generated_Source\PSoC4/CapSense_Sensing.c ****                 #if (CapSense_ENABLE == CapSense_ADC_EN)
1012:Generated_Source\PSoC4/CapSense_Sensing.c ****                     /* Release ADC resources */
1013:Generated_Source\PSoC4/CapSense_Sensing.c ****                     (void)CapSense_AdcReleaseResources();
1014:Generated_Source\PSoC4/CapSense_Sensing.c ****                 #endif /* (CapSense_ENABLE == CapSense_ADC_EN) */
1015:Generated_Source\PSoC4/CapSense_Sensing.c ****             }
1016:Generated_Source\PSoC4/CapSense_Sensing.c **** 
1017:Generated_Source\PSoC4/CapSense_Sensing.c ****             /* Enable the specified mode */
1018:Generated_Source\PSoC4/CapSense_Sensing.c ****             if (CapSense_SENSE_METHOD_CSD_E == mode)
1019:Generated_Source\PSoC4/CapSense_Sensing.c ****             {
1020:Generated_Source\PSoC4/CapSense_Sensing.c ****                 #if (CapSense_ENABLE == CapSense_CSD_EN)
1021:Generated_Source\PSoC4/CapSense_Sensing.c ****                     /* Initialize CSD mode to guarantee configured CSD mode */
1022:Generated_Source\PSoC4/CapSense_Sensing.c ****                     CapSense_SsCSDInitialize();
1023:Generated_Source\PSoC4/CapSense_Sensing.c ****                     CapSense_currentSenseMethod = CapSense_SENSE_METHOD_CSD_E;
1024:Generated_Source\PSoC4/CapSense_Sensing.c ****                 #endif /* (CapSense_ENABLE == CapSense_CSD_EN) */
1025:Generated_Source\PSoC4/CapSense_Sensing.c ****             }
1026:Generated_Source\PSoC4/CapSense_Sensing.c ****             else if (CapSense_SENSE_METHOD_CSX_E == mode)
1027:Generated_Source\PSoC4/CapSense_Sensing.c ****             {
1028:Generated_Source\PSoC4/CapSense_Sensing.c ****                 #if (CapSense_ENABLE == CapSense_CSX_EN)
1029:Generated_Source\PSoC4/CapSense_Sensing.c ****                     /* Initialize CSX mode to guarantee configured CSX mode */
1030:Generated_Source\PSoC4/CapSense_Sensing.c ****                     CapSense_CSXInitialize();
1031:Generated_Source\PSoC4/CapSense_Sensing.c ****                     CapSense_currentSenseMethod = CapSense_SENSE_METHOD_CSX_E;
1032:Generated_Source\PSoC4/CapSense_Sensing.c ****                 #endif /* (CapSense_ENABLE == CapSense_CSX_EN) */
1033:Generated_Source\PSoC4/CapSense_Sensing.c ****             }
1034:Generated_Source\PSoC4/CapSense_Sensing.c ****             else if (CapSense_SENSE_METHOD_BIST_E == mode)
1035:Generated_Source\PSoC4/CapSense_Sensing.c ****             {
1036:Generated_Source\PSoC4/CapSense_Sensing.c ****                 #if (CapSense_ENABLE == CapSense_SELF_TEST_EN)
1037:Generated_Source\PSoC4/CapSense_Sensing.c ****                     /* Initialize CSX mode to guarantee configured CSX mode */
1038:Generated_Source\PSoC4/CapSense_Sensing.c ****                     CapSense_BistInitialize();
1039:Generated_Source\PSoC4/CapSense_Sensing.c ****                     CapSense_currentSenseMethod = CapSense_SENSE_METHOD_BIST_E;
1040:Generated_Source\PSoC4/CapSense_Sensing.c ****                 #endif /* (CapSense_ENABLE == CapSense_CSX_EN) */
1041:Generated_Source\PSoC4/CapSense_Sensing.c ****             }
1042:Generated_Source\PSoC4/CapSense_Sensing.c ****             else
1043:Generated_Source\PSoC4/CapSense_Sensing.c ****             {
1044:Generated_Source\PSoC4/CapSense_Sensing.c ****                 CapSense_currentSenseMethod = CapSense_UNDEFINED_E;
1045:Generated_Source\PSoC4/CapSense_Sensing.c ****             }
1046:Generated_Source\PSoC4/CapSense_Sensing.c ****         }
1047:Generated_Source\PSoC4/CapSense_Sensing.c ****     }
1048:Generated_Source\PSoC4/CapSense_Sensing.c **** #endif  /* ((CapSense_ENABLE == CapSense_CSD_CSX_EN) || \
ARM GAS  C:\Users\Jerry\AppData\Local\Temp\ccv40r80.s 			page 26


1049:Generated_Source\PSoC4/CapSense_Sensing.c ****             (CapSense_ENABLE == CapSense_SELF_TEST_EN) || \
1050:Generated_Source\PSoC4/CapSense_Sensing.c ****             (CapSense_ENABLE == CapSense_ADC_EN)) */
1051:Generated_Source\PSoC4/CapSense_Sensing.c **** 
1052:Generated_Source\PSoC4/CapSense_Sensing.c **** #if ((CapSense_ENABLE == CapSense_CSX_EN) || \
1053:Generated_Source\PSoC4/CapSense_Sensing.c ****      (CapSense_ENABLE == CapSense_SELF_TEST_EN) || \
1054:Generated_Source\PSoC4/CapSense_Sensing.c ****      (CapSense_ENABLE == CapSense_ADC_EN))
1055:Generated_Source\PSoC4/CapSense_Sensing.c ****     /*******************************************************************************
1056:Generated_Source\PSoC4/CapSense_Sensing.c ****     * Function Name: CapSense_SsSetIOsInDefaultState
1057:Generated_Source\PSoC4/CapSense_Sensing.c ****     ****************************************************************************//**
1058:Generated_Source\PSoC4/CapSense_Sensing.c ****     *
1059:Generated_Source\PSoC4/CapSense_Sensing.c ****     * \brief
1060:Generated_Source\PSoC4/CapSense_Sensing.c ****     *   Sets all electrodes into a default state.
1061:Generated_Source\PSoC4/CapSense_Sensing.c ****     *
1062:Generated_Source\PSoC4/CapSense_Sensing.c ****     * \details
1063:Generated_Source\PSoC4/CapSense_Sensing.c ****     *   Sets all IOs into a default state:
1064:Generated_Source\PSoC4/CapSense_Sensing.c ****     *   - HSIOM   - Disconnected, the GPIO mode.
1065:Generated_Source\PSoC4/CapSense_Sensing.c ****     *   - DM      - Strong drive.
1066:Generated_Source\PSoC4/CapSense_Sensing.c ****     *   - State   - Zero.
1067:Generated_Source\PSoC4/CapSense_Sensing.c ****     *
1068:Generated_Source\PSoC4/CapSense_Sensing.c ****     *   It is not recommended to call this function directly from the application
1069:Generated_Source\PSoC4/CapSense_Sensing.c ****     *   layer.
1070:Generated_Source\PSoC4/CapSense_Sensing.c ****     *
1071:Generated_Source\PSoC4/CapSense_Sensing.c ****     *******************************************************************************/
1072:Generated_Source\PSoC4/CapSense_Sensing.c ****     void CapSense_SsSetIOsInDefaultState(void)
1073:Generated_Source\PSoC4/CapSense_Sensing.c ****     {
1074:Generated_Source\PSoC4/CapSense_Sensing.c ****         CapSense_FLASH_IO_STRUCT const *ioPtr = &CapSense_ioList[0u];
1075:Generated_Source\PSoC4/CapSense_Sensing.c ****         uint32 loopIndex;
1076:Generated_Source\PSoC4/CapSense_Sensing.c ****         uint32 regValue;
1077:Generated_Source\PSoC4/CapSense_Sensing.c **** 
1078:Generated_Source\PSoC4/CapSense_Sensing.c ****         /*  Loop through all electrodes */
1079:Generated_Source\PSoC4/CapSense_Sensing.c ****         for (loopIndex = 0u; loopIndex < CapSense_TOTAL_ELECTRODES; loopIndex++)
1080:Generated_Source\PSoC4/CapSense_Sensing.c ****         {
1081:Generated_Source\PSoC4/CapSense_Sensing.c ****             /*  1. Disconnect HSIOM
1082:Generated_Source\PSoC4/CapSense_Sensing.c ****                 2. Set strong DM
1083:Generated_Source\PSoC4/CapSense_Sensing.c ****                 3. Set pin state to logic 0     */
1084:Generated_Source\PSoC4/CapSense_Sensing.c ****             regValue = CY_GET_REG32 (ioPtr->hsiomPtr);
1085:Generated_Source\PSoC4/CapSense_Sensing.c ****             regValue &= ~(ioPtr->hsiomMask);
1086:Generated_Source\PSoC4/CapSense_Sensing.c ****             CY_SET_REG32 (ioPtr->hsiomPtr, regValue);
1087:Generated_Source\PSoC4/CapSense_Sensing.c **** 
1088:Generated_Source\PSoC4/CapSense_Sensing.c ****             regValue = CY_GET_REG32 (ioPtr->pcPtr);
1089:Generated_Source\PSoC4/CapSense_Sensing.c ****             regValue &= ~(CapSense_GPIO_PC_MASK << ioPtr->shift);
1090:Generated_Source\PSoC4/CapSense_Sensing.c ****             regValue |=  (CapSense_GPIO_STRGDRV << ioPtr->shift);
1091:Generated_Source\PSoC4/CapSense_Sensing.c ****             CY_SET_REG32 (ioPtr->pcPtr, regValue);
1092:Generated_Source\PSoC4/CapSense_Sensing.c **** 
1093:Generated_Source\PSoC4/CapSense_Sensing.c ****             regValue = CY_GET_REG32 (ioPtr->drPtr);
1094:Generated_Source\PSoC4/CapSense_Sensing.c ****             regValue &= ~(ioPtr->mask);
1095:Generated_Source\PSoC4/CapSense_Sensing.c ****             CY_SET_REG32 (ioPtr->drPtr, regValue);
1096:Generated_Source\PSoC4/CapSense_Sensing.c **** 
1097:Generated_Source\PSoC4/CapSense_Sensing.c ****             /*  Get next electrode  */
1098:Generated_Source\PSoC4/CapSense_Sensing.c ****             ioPtr++;
1099:Generated_Source\PSoC4/CapSense_Sensing.c ****         }
1100:Generated_Source\PSoC4/CapSense_Sensing.c ****     }
1101:Generated_Source\PSoC4/CapSense_Sensing.c **** #endif /* ((CapSense_ENABLE == CapSense_CSX_EN) || \
1102:Generated_Source\PSoC4/CapSense_Sensing.c ****           (CapSense_ENABLE == CapSense_SELF_TEST_EN) || \
1103:Generated_Source\PSoC4/CapSense_Sensing.c ****           (CapSense_ENABLE == CapSense_ADC_EN)) */
1104:Generated_Source\PSoC4/CapSense_Sensing.c **** 
1105:Generated_Source\PSoC4/CapSense_Sensing.c **** 
ARM GAS  C:\Users\Jerry\AppData\Local\Temp\ccv40r80.s 			page 27


1106:Generated_Source\PSoC4/CapSense_Sensing.c **** #if (CapSense_ENABLE == CapSense_ADC_EN)
1107:Generated_Source\PSoC4/CapSense_Sensing.c **** /*******************************************************************************
1108:Generated_Source\PSoC4/CapSense_Sensing.c **** * Function Name: CapSense_SsReleaseResources()
1109:Generated_Source\PSoC4/CapSense_Sensing.c **** ****************************************************************************//**
1110:Generated_Source\PSoC4/CapSense_Sensing.c **** *
1111:Generated_Source\PSoC4/CapSense_Sensing.c **** * \brief
1112:Generated_Source\PSoC4/CapSense_Sensing.c **** *  This function sets the resources that do not belong to the CSDv2 HW block to
1113:Generated_Source\PSoC4/CapSense_Sensing.c **** *  default state.
1114:Generated_Source\PSoC4/CapSense_Sensing.c **** *
1115:Generated_Source\PSoC4/CapSense_Sensing.c **** * \details
1116:Generated_Source\PSoC4/CapSense_Sensing.c **** *  The function performs following tasks:
1117:Generated_Source\PSoC4/CapSense_Sensing.c **** *  1. Checks if CSD block busy and returns error if it is busy
1118:Generated_Source\PSoC4/CapSense_Sensing.c **** *  2. Disconnects integration capacitors (CintA, CintB for CSX mode and
1119:Generated_Source\PSoC4/CapSense_Sensing.c **** *     Cmod for CSD mode)
1120:Generated_Source\PSoC4/CapSense_Sensing.c **** *  3. Disconnect electroded if they have been connected.
1121:Generated_Source\PSoC4/CapSense_Sensing.c **** *
1122:Generated_Source\PSoC4/CapSense_Sensing.c **** * \return
1123:Generated_Source\PSoC4/CapSense_Sensing.c **** *   Returns the status of operation:
1124:Generated_Source\PSoC4/CapSense_Sensing.c **** *   - Zero        - Resources released successfully.
1125:Generated_Source\PSoC4/CapSense_Sensing.c **** *   - Non-zero    - One or more errors occurred in releasing process.
1126:Generated_Source\PSoC4/CapSense_Sensing.c **** *
1127:Generated_Source\PSoC4/CapSense_Sensing.c **** *******************************************************************************/
1128:Generated_Source\PSoC4/CapSense_Sensing.c **** cystatus CapSense_SsReleaseResources(void)
1129:Generated_Source\PSoC4/CapSense_Sensing.c **** {
1130:Generated_Source\PSoC4/CapSense_Sensing.c ****     cystatus busyStatus = CYRET_SUCCESS;
1131:Generated_Source\PSoC4/CapSense_Sensing.c **** 
1132:Generated_Source\PSoC4/CapSense_Sensing.c ****     if (CapSense_SW_STS_BUSY == (CapSense_dsRam.status & CapSense_SW_STS_BUSY))
1133:Generated_Source\PSoC4/CapSense_Sensing.c ****     {
1134:Generated_Source\PSoC4/CapSense_Sensing.c ****         /* Previous widget is being scanned. Return error. */
1135:Generated_Source\PSoC4/CapSense_Sensing.c ****         busyStatus = CYRET_INVALID_STATE;
1136:Generated_Source\PSoC4/CapSense_Sensing.c ****     }
1137:Generated_Source\PSoC4/CapSense_Sensing.c ****     else
1138:Generated_Source\PSoC4/CapSense_Sensing.c ****     {
1139:Generated_Source\PSoC4/CapSense_Sensing.c ****         #if (CapSense_ENABLE == CapSense_CSX_EN)
1140:Generated_Source\PSoC4/CapSense_Sensing.c ****             CapSense_SsDisableCSXMode();
1141:Generated_Source\PSoC4/CapSense_Sensing.c ****         #endif /* (CapSense_ENABLE == CapSense_CSX_EN) */
1142:Generated_Source\PSoC4/CapSense_Sensing.c **** 
1143:Generated_Source\PSoC4/CapSense_Sensing.c ****         #if (CapSense_ENABLE == CapSense_CSD_EN)
1144:Generated_Source\PSoC4/CapSense_Sensing.c ****             CapSense_SsCSDDisableMode();
1145:Generated_Source\PSoC4/CapSense_Sensing.c ****         #endif /* (CapSense_ENABLE == CapSense_CSD_EN) */
1146:Generated_Source\PSoC4/CapSense_Sensing.c **** 
1147:Generated_Source\PSoC4/CapSense_Sensing.c ****         #if (CapSense_ENABLE == CapSense_SELF_TEST_EN)
1148:Generated_Source\PSoC4/CapSense_Sensing.c ****             CapSense_BistDisableMode();
1149:Generated_Source\PSoC4/CapSense_Sensing.c ****         #endif /* (CapSense_ENABLE == CapSense_SELF_TEST_EN) */
1150:Generated_Source\PSoC4/CapSense_Sensing.c **** 
1151:Generated_Source\PSoC4/CapSense_Sensing.c ****         #if ((CapSense_ENABLE == CapSense_CSD_EN) && \
1152:Generated_Source\PSoC4/CapSense_Sensing.c ****              (CapSense_ENABLE == CapSense_CSD_SHIELD_EN) &&  \
1153:Generated_Source\PSoC4/CapSense_Sensing.c ****              (CapSense_SNS_CONNECTION_SHIELD == CapSense_CSD_INACTIVE_SNS_CONNECTION))
1154:Generated_Source\PSoC4/CapSense_Sensing.c ****             CapSense_SsSetIOsInDefaultState();
1155:Generated_Source\PSoC4/CapSense_Sensing.c ****         #endif /* ((CapSense_ENABLE == CapSense_CSD_EN) && \
1156:Generated_Source\PSoC4/CapSense_Sensing.c ****              (CapSense_DISABLE != CapSense_CSD_SHIELD_EN) &&  \
1157:Generated_Source\PSoC4/CapSense_Sensing.c ****              (CapSense_SNS_CONNECTION_SHIELD == CapSense_CSD_INACTIVE_SNS_CONNECTION)) */
1158:Generated_Source\PSoC4/CapSense_Sensing.c **** 
1159:Generated_Source\PSoC4/CapSense_Sensing.c ****         /*
1160:Generated_Source\PSoC4/CapSense_Sensing.c ****          * Reset of the currentSenseMethod variable to make sure that the next
1161:Generated_Source\PSoC4/CapSense_Sensing.c ****          * call of SetupWidget() API setups the correct widget mode
1162:Generated_Source\PSoC4/CapSense_Sensing.c ****          */
ARM GAS  C:\Users\Jerry\AppData\Local\Temp\ccv40r80.s 			page 28


1163:Generated_Source\PSoC4/CapSense_Sensing.c ****         CapSense_currentSenseMethod = CapSense_UNDEFINED_E;
1164:Generated_Source\PSoC4/CapSense_Sensing.c ****     }
1165:Generated_Source\PSoC4/CapSense_Sensing.c **** 
1166:Generated_Source\PSoC4/CapSense_Sensing.c ****     return busyStatus;
1167:Generated_Source\PSoC4/CapSense_Sensing.c **** }
1168:Generated_Source\PSoC4/CapSense_Sensing.c **** #endif /* (CapSense_ENABLE == CapSense_ADC_EN) */
1169:Generated_Source\PSoC4/CapSense_Sensing.c **** 
1170:Generated_Source\PSoC4/CapSense_Sensing.c **** 
1171:Generated_Source\PSoC4/CapSense_Sensing.c **** /*******************************************************************************
1172:Generated_Source\PSoC4/CapSense_Sensing.c **** * Function Name: CapSense_SsPostAllWidgetsScan
1173:Generated_Source\PSoC4/CapSense_Sensing.c **** ****************************************************************************//**
1174:Generated_Source\PSoC4/CapSense_Sensing.c **** *
1175:Generated_Source\PSoC4/CapSense_Sensing.c **** * \brief
1176:Generated_Source\PSoC4/CapSense_Sensing.c **** *   The ISR function for multiple widget scanning implementation.
1177:Generated_Source\PSoC4/CapSense_Sensing.c **** *
1178:Generated_Source\PSoC4/CapSense_Sensing.c **** * \details
1179:Generated_Source\PSoC4/CapSense_Sensing.c **** *   This is the function used by the CapSense ISR to implement multiple widget
1180:Generated_Source\PSoC4/CapSense_Sensing.c **** *   scanning.
1181:Generated_Source\PSoC4/CapSense_Sensing.c **** *   Should not be used by the application layer.
1182:Generated_Source\PSoC4/CapSense_Sensing.c **** *
1183:Generated_Source\PSoC4/CapSense_Sensing.c **** *******************************************************************************/
1184:Generated_Source\PSoC4/CapSense_Sensing.c **** void CapSense_SsPostAllWidgetsScan(void)
1185:Generated_Source\PSoC4/CapSense_Sensing.c **** {
 345              		.loc 1 1185 0
 346              		.cfi_startproc
1186:Generated_Source\PSoC4/CapSense_Sensing.c ****     #if (CapSense_DISABLE == CapSense_CSD2X_EN)
1187:Generated_Source\PSoC4/CapSense_Sensing.c ****         /*
1188:Generated_Source\PSoC4/CapSense_Sensing.c ****         *   1. Increment widget index
1189:Generated_Source\PSoC4/CapSense_Sensing.c ****         *   2. Check if all widgets are scanned
1190:Generated_Source\PSoC4/CapSense_Sensing.c ****         *   3. If all widgets are not scanned, set up and scan next widget
1191:Generated_Source\PSoC4/CapSense_Sensing.c ****         */
1192:Generated_Source\PSoC4/CapSense_Sensing.c ****         #if (1u != CapSense_TOTAL_WIDGETS)
1193:Generated_Source\PSoC4/CapSense_Sensing.c ****             cystatus postScanStatus;
1194:Generated_Source\PSoC4/CapSense_Sensing.c **** 
1195:Generated_Source\PSoC4/CapSense_Sensing.c ****             do
1196:Generated_Source\PSoC4/CapSense_Sensing.c ****             {
1197:Generated_Source\PSoC4/CapSense_Sensing.c ****                 CapSense_widgetIndex++;
1198:Generated_Source\PSoC4/CapSense_Sensing.c **** 
1199:Generated_Source\PSoC4/CapSense_Sensing.c ****                 postScanStatus = CapSense_SetupWidget((uint32)CapSense_widgetIndex);
1200:Generated_Source\PSoC4/CapSense_Sensing.c **** 
1201:Generated_Source\PSoC4/CapSense_Sensing.c ****                 if (CYRET_SUCCESS == postScanStatus)
1202:Generated_Source\PSoC4/CapSense_Sensing.c ****                 {
1203:Generated_Source\PSoC4/CapSense_Sensing.c ****                     if((CapSense_TOTAL_WIDGETS - 1u) == CapSense_widgetIndex)
1204:Generated_Source\PSoC4/CapSense_Sensing.c ****                     {
1205:Generated_Source\PSoC4/CapSense_Sensing.c ****                         /* The last widget will be scanned. Reset flag to skip configuring the next
1206:Generated_Source\PSoC4/CapSense_Sensing.c ****                         CapSense_requestScanAllWidget = CapSense_DISABLE;
1207:Generated_Source\PSoC4/CapSense_Sensing.c ****                     }
1208:Generated_Source\PSoC4/CapSense_Sensing.c ****                     (void)CapSense_Scan();
1209:Generated_Source\PSoC4/CapSense_Sensing.c ****                 }
1210:Generated_Source\PSoC4/CapSense_Sensing.c ****                 else if((CapSense_TOTAL_WIDGETS - 1u) == CapSense_widgetIndex)
1211:Generated_Source\PSoC4/CapSense_Sensing.c ****                 {
1212:Generated_Source\PSoC4/CapSense_Sensing.c ****                     #if ((CapSense_ENABLE == CapSense_BLOCK_OFF_AFTER_SCAN_EN) && \
1213:Generated_Source\PSoC4/CapSense_Sensing.c ****                          (CapSense_ENABLE == CapSense_CSD_EN))
1214:Generated_Source\PSoC4/CapSense_Sensing.c ****                         if (CapSense_SENSE_METHOD_CSD_E ==
1215:Generated_Source\PSoC4/CapSense_Sensing.c ****                              CapSense_GET_SENSE_METHOD(&CapSense_dsFlash.wdgtArray[CapSense_widgetI
1216:Generated_Source\PSoC4/CapSense_Sensing.c ****                         {
1217:Generated_Source\PSoC4/CapSense_Sensing.c ****                             /*  Disable the CSD block */
ARM GAS  C:\Users\Jerry\AppData\Local\Temp\ccv40r80.s 			page 29


1218:Generated_Source\PSoC4/CapSense_Sensing.c ****                             CY_SET_REG32(CapSense_CONFIG_PTR, CapSense_configCsd);
1219:Generated_Source\PSoC4/CapSense_Sensing.c ****                         }
1220:Generated_Source\PSoC4/CapSense_Sensing.c ****                     #endif /* ((CapSense_ENABLE == CapSense_BLOCK_OFF_AFTER_SCAN_EN) && \
1221:Generated_Source\PSoC4/CapSense_Sensing.c ****                                (CapSense_ENABLE == CapSense_CSD_EN)) */
1222:Generated_Source\PSoC4/CapSense_Sensing.c **** 
1223:Generated_Source\PSoC4/CapSense_Sensing.c ****                     /* All widgets are totally processed. Reset BUSY flag */
1224:Generated_Source\PSoC4/CapSense_Sensing.c ****                     CapSense_dsRam.status &= ~CapSense_SW_STS_BUSY;
1225:Generated_Source\PSoC4/CapSense_Sensing.c **** 
1226:Generated_Source\PSoC4/CapSense_Sensing.c ****                     /* Update status with with the failure */
1227:Generated_Source\PSoC4/CapSense_Sensing.c ****                     CapSense_dsRam.status &= ~CapSense_STATUS_ERR_MASK;
1228:Generated_Source\PSoC4/CapSense_Sensing.c ****                     CapSense_dsRam.status |= ((postScanStatus & CapSense_STATUS_ERR_SIZE) << CapSen
1229:Generated_Source\PSoC4/CapSense_Sensing.c **** 
1230:Generated_Source\PSoC4/CapSense_Sensing.c ****                     /* Set postScanStatus to exit the while loop */
1231:Generated_Source\PSoC4/CapSense_Sensing.c ****                     postScanStatus = CYRET_SUCCESS;
1232:Generated_Source\PSoC4/CapSense_Sensing.c ****                 }
1233:Generated_Source\PSoC4/CapSense_Sensing.c ****                 else
1234:Generated_Source\PSoC4/CapSense_Sensing.c ****                 {
1235:Generated_Source\PSoC4/CapSense_Sensing.c ****                     /* Update status with with the failure. Configure the next widget in while() lo
1236:Generated_Source\PSoC4/CapSense_Sensing.c ****                     CapSense_dsRam.status &= ~CapSense_STATUS_ERR_MASK;
1237:Generated_Source\PSoC4/CapSense_Sensing.c ****                     CapSense_dsRam.status |= ((postScanStatus & CapSense_STATUS_ERR_SIZE) << CapSen
1238:Generated_Source\PSoC4/CapSense_Sensing.c ****                 }
1239:Generated_Source\PSoC4/CapSense_Sensing.c ****             } while (CYRET_SUCCESS != postScanStatus);
1240:Generated_Source\PSoC4/CapSense_Sensing.c ****         #endif /* (1u != CapSense_TOTAL_WIDGETS) */
1241:Generated_Source\PSoC4/CapSense_Sensing.c ****     #else
1242:Generated_Source\PSoC4/CapSense_Sensing.c ****         #if (1u != CapSense_TOTAL_SLOTS)
1243:Generated_Source\PSoC4/CapSense_Sensing.c ****             cystatus postScanStatus = CYRET_SUCCESS;
1244:Generated_Source\PSoC4/CapSense_Sensing.c **** 
1245:Generated_Source\PSoC4/CapSense_Sensing.c ****             do
1246:Generated_Source\PSoC4/CapSense_Sensing.c ****             {
1247:Generated_Source\PSoC4/CapSense_Sensing.c ****                 if ((CapSense_TOTAL_SLOTS - 1u) > CapSense_slotIndex)
1248:Generated_Source\PSoC4/CapSense_Sensing.c ****                 {
1249:Generated_Source\PSoC4/CapSense_Sensing.c ****                     CapSense_slotIndex++;
1250:Generated_Source\PSoC4/CapSense_Sensing.c ****                     postScanStatus = CapSense_SetupWidget((uint32)CapSense_slotIndex);
1251:Generated_Source\PSoC4/CapSense_Sensing.c **** 
1252:Generated_Source\PSoC4/CapSense_Sensing.c **** 
1253:Generated_Source\PSoC4/CapSense_Sensing.c ****                     if (CYRET_SUCCESS == postScanStatus)
1254:Generated_Source\PSoC4/CapSense_Sensing.c ****                     {
1255:Generated_Source\PSoC4/CapSense_Sensing.c ****                         if((CapSense_TOTAL_SLOTS - 1u) == CapSense_slotIndex)
1256:Generated_Source\PSoC4/CapSense_Sensing.c ****                         {
1257:Generated_Source\PSoC4/CapSense_Sensing.c ****                             /* The last slot will be scanned. Reset flag to skip configuring the ne
1258:Generated_Source\PSoC4/CapSense_Sensing.c ****                             CapSense_requestScanAllWidget = CapSense_DISABLE;
1259:Generated_Source\PSoC4/CapSense_Sensing.c ****                         }
1260:Generated_Source\PSoC4/CapSense_Sensing.c ****                         (void)CapSense_Scan();
1261:Generated_Source\PSoC4/CapSense_Sensing.c ****                     }
1262:Generated_Source\PSoC4/CapSense_Sensing.c ****                     else if((CapSense_TOTAL_SLOTS - 1u) == CapSense_slotIndex)
1263:Generated_Source\PSoC4/CapSense_Sensing.c ****                     {
1264:Generated_Source\PSoC4/CapSense_Sensing.c ****                         #if (CapSense_ENABLE == CapSense_BLOCK_OFF_AFTER_SCAN_EN)
1265:Generated_Source\PSoC4/CapSense_Sensing.c ****                             /*  Disable the CSD blocks */
1266:Generated_Source\PSoC4/CapSense_Sensing.c ****                             CY_SET_REG32(CapSense_CSD0_CONFIG_PTR, CapSense_configCsd0);
1267:Generated_Source\PSoC4/CapSense_Sensing.c ****                             CY_SET_REG32(CapSense_CSD1_CONFIG_PTR, CapSense_configCsd1);
1268:Generated_Source\PSoC4/CapSense_Sensing.c ****                         #endif /* (CapSense_ENABLE == CapSense_BLOCK_OFF_AFTER_SCAN_EN) */
1269:Generated_Source\PSoC4/CapSense_Sensing.c **** 
1270:Generated_Source\PSoC4/CapSense_Sensing.c ****                         /* All widgets are totally processed. Reset BUSY flag */
1271:Generated_Source\PSoC4/CapSense_Sensing.c ****                         CapSense_dsRam.status &= ~CapSense_SW_STS_BUSY;
1272:Generated_Source\PSoC4/CapSense_Sensing.c **** 
1273:Generated_Source\PSoC4/CapSense_Sensing.c ****                         /* Update status with with the failure */
1274:Generated_Source\PSoC4/CapSense_Sensing.c ****                         CapSense_dsRam.status &= ~CapSense_STATUS_ERR_MASK;
ARM GAS  C:\Users\Jerry\AppData\Local\Temp\ccv40r80.s 			page 30


1275:Generated_Source\PSoC4/CapSense_Sensing.c ****                         CapSense_dsRam.status |= ((postScanStatus & CapSense_STATUS_ERR_SIZE) << Ca
1276:Generated_Source\PSoC4/CapSense_Sensing.c **** 
1277:Generated_Source\PSoC4/CapSense_Sensing.c ****                         /* Set postScanStatus to exit the while loop */
1278:Generated_Source\PSoC4/CapSense_Sensing.c ****                         postScanStatus = CYRET_SUCCESS;
1279:Generated_Source\PSoC4/CapSense_Sensing.c ****                     }
1280:Generated_Source\PSoC4/CapSense_Sensing.c ****                     else
1281:Generated_Source\PSoC4/CapSense_Sensing.c ****                     {
1282:Generated_Source\PSoC4/CapSense_Sensing.c ****                         /* Update status with with the failure. Configure the next widget in while(
1283:Generated_Source\PSoC4/CapSense_Sensing.c ****                         CapSense_dsRam.status &= ~CapSense_STATUS_ERR_MASK;
1284:Generated_Source\PSoC4/CapSense_Sensing.c ****                         CapSense_dsRam.status |= ((postScanStatus & CapSense_STATUS_ERR_SIZE) << Ca
1285:Generated_Source\PSoC4/CapSense_Sensing.c ****                     }
1286:Generated_Source\PSoC4/CapSense_Sensing.c ****                 }
1287:Generated_Source\PSoC4/CapSense_Sensing.c ****             } while (CYRET_SUCCESS != postScanStatus);
1288:Generated_Source\PSoC4/CapSense_Sensing.c ****         #endif /* (1u != CapSense_TOTAL_SLOTS) */
1289:Generated_Source\PSoC4/CapSense_Sensing.c ****     #endif /* (CapSense_CSD2X_EN == CapSense_DISABLE) */
1290:Generated_Source\PSoC4/CapSense_Sensing.c **** }
 347              		.loc 1 1290 0
 348              		@ sp needed
 349 0000 7047     		bx	lr
 350              		.cfi_endproc
 351              	.LFE7:
 352              		.size	CapSense_SsPostAllWidgetsScan, .-CapSense_SsPostAllWidgetsScan
 353              		.section	.text.CapSense_SsIsrInitialize,"ax",%progbits
 354              		.align	1
 355              		.global	CapSense_SsIsrInitialize
 356              		.code	16
 357              		.thumb_func
 358              		.type	CapSense_SsIsrInitialize, %function
 359              	CapSense_SsIsrInitialize:
 360              	.LFB8:
1291:Generated_Source\PSoC4/CapSense_Sensing.c **** 
1292:Generated_Source\PSoC4/CapSense_Sensing.c **** 
1293:Generated_Source\PSoC4/CapSense_Sensing.c **** /*******************************************************************************
1294:Generated_Source\PSoC4/CapSense_Sensing.c **** * Function Name: CapSense_SsIsrInitialize
1295:Generated_Source\PSoC4/CapSense_Sensing.c **** ****************************************************************************//**
1296:Generated_Source\PSoC4/CapSense_Sensing.c **** *
1297:Generated_Source\PSoC4/CapSense_Sensing.c **** * \brief
1298:Generated_Source\PSoC4/CapSense_Sensing.c **** *   Enables and initializes for the function pointer for a callback for the ISR.
1299:Generated_Source\PSoC4/CapSense_Sensing.c **** *
1300:Generated_Source\PSoC4/CapSense_Sensing.c **** * \details
1301:Generated_Source\PSoC4/CapSense_Sensing.c **** *   The  "address" is a special type cyisraddress defined by Cylib. This function
1302:Generated_Source\PSoC4/CapSense_Sensing.c **** *   is used by component APIs and should not be used by an application program for
1303:Generated_Source\PSoC4/CapSense_Sensing.c **** *   proper working of the component.
1304:Generated_Source\PSoC4/CapSense_Sensing.c **** *
1305:Generated_Source\PSoC4/CapSense_Sensing.c **** * \param  address The address of the function to be called when interrupt is fired.
1306:Generated_Source\PSoC4/CapSense_Sensing.c **** *
1307:Generated_Source\PSoC4/CapSense_Sensing.c **** *******************************************************************************/
1308:Generated_Source\PSoC4/CapSense_Sensing.c **** void CapSense_SsIsrInitialize(cyisraddress address)
1309:Generated_Source\PSoC4/CapSense_Sensing.c **** {
 361              		.loc 1 1309 0
 362              		.cfi_startproc
 363              	.LVL35:
 364 0000 08B5     		push	{r3, lr}
 365              		.cfi_def_cfa_offset 8
 366              		.cfi_offset 3, -8
 367              		.cfi_offset 14, -4
1310:Generated_Source\PSoC4/CapSense_Sensing.c **** #if (CapSense_ENABLE == CapSense_CSD2X_EN)
ARM GAS  C:\Users\Jerry\AppData\Local\Temp\ccv40r80.s 			page 31


1311:Generated_Source\PSoC4/CapSense_Sensing.c ****     CapSense_ISR0_StartEx(address);
1312:Generated_Source\PSoC4/CapSense_Sensing.c ****     CapSense_ISR1_StartEx(address);
1313:Generated_Source\PSoC4/CapSense_Sensing.c **** #else
1314:Generated_Source\PSoC4/CapSense_Sensing.c ****     CapSense_ISR_StartEx(address);
 368              		.loc 1 1314 0
 369 0002 FFF7FEFF 		bl	CapSense_ISR_StartEx
 370              	.LVL36:
1315:Generated_Source\PSoC4/CapSense_Sensing.c **** #endif /* (CapSense_ENABLE == CapSense_CSD2X_EN) */
1316:Generated_Source\PSoC4/CapSense_Sensing.c **** }
 371              		.loc 1 1316 0
 372              		@ sp needed
 373 0006 08BD     		pop	{r3, pc}
 374              		.cfi_endproc
 375              	.LFE8:
 376              		.size	CapSense_SsIsrInitialize, .-CapSense_SsIsrInitialize
 377              		.section	.text.CapSense_SsSetModClkClockDivider,"ax",%progbits
 378              		.align	1
 379              		.global	CapSense_SsSetModClkClockDivider
 380              		.code	16
 381              		.thumb_func
 382              		.type	CapSense_SsSetModClkClockDivider, %function
 383              	CapSense_SsSetModClkClockDivider:
 384              	.LFB9:
1317:Generated_Source\PSoC4/CapSense_Sensing.c **** 
1318:Generated_Source\PSoC4/CapSense_Sensing.c **** 
1319:Generated_Source\PSoC4/CapSense_Sensing.c **** /*******************************************************************************
1320:Generated_Source\PSoC4/CapSense_Sensing.c **** * Function Name: CapSense_SsSetModClkClockDivider
1321:Generated_Source\PSoC4/CapSense_Sensing.c **** ****************************************************************************//**
1322:Generated_Source\PSoC4/CapSense_Sensing.c **** *
1323:Generated_Source\PSoC4/CapSense_Sensing.c **** * \brief
1324:Generated_Source\PSoC4/CapSense_Sensing.c **** *   Sets the divider values for the modulator clock and then starts
1325:Generated_Source\PSoC4/CapSense_Sensing.c **** *   the modulator clock.
1326:Generated_Source\PSoC4/CapSense_Sensing.c **** *
1327:Generated_Source\PSoC4/CapSense_Sensing.c **** * \details
1328:Generated_Source\PSoC4/CapSense_Sensing.c **** *   It is not recommended to call this function directly by the application layer.
1329:Generated_Source\PSoC4/CapSense_Sensing.c **** *   It is used by initialization, widget APIs or wakeup functions to
1330:Generated_Source\PSoC4/CapSense_Sensing.c **** *   enable the clocks.
1331:Generated_Source\PSoC4/CapSense_Sensing.c **** *
1332:Generated_Source\PSoC4/CapSense_Sensing.c **** * \param
1333:Generated_Source\PSoC4/CapSense_Sensing.c **** *   modClk The divider value for the modulator clock.
1334:Generated_Source\PSoC4/CapSense_Sensing.c **** *
1335:Generated_Source\PSoC4/CapSense_Sensing.c **** *******************************************************************************/
1336:Generated_Source\PSoC4/CapSense_Sensing.c **** void CapSense_SsSetModClkClockDivider(uint32 modClk)
1337:Generated_Source\PSoC4/CapSense_Sensing.c **** {
 385              		.loc 1 1337 0
 386              		.cfi_startproc
 387              	.LVL37:
1338:Generated_Source\PSoC4/CapSense_Sensing.c **** #if (CapSense_ENABLE == CapSense_IS_M0S8PERI_BLOCK)
1339:Generated_Source\PSoC4/CapSense_Sensing.c ****     /*  Stop modulator clock   */
1340:Generated_Source\PSoC4/CapSense_Sensing.c ****     CY_SET_REG32(CapSense_MODCLK_CMD_PTR,
 388              		.loc 1 1340 0
 389 0000 8023     		mov	r3, #128
 390 0002 074A     		ldr	r2, .L35
 391 0004 DB05     		lsl	r3, r3, #23
 392 0006 1A60     		str	r2, [r3]
1341:Generated_Source\PSoC4/CapSense_Sensing.c ****                  ((uint32)CapSense_ModClk__DIV_ID <<
1342:Generated_Source\PSoC4/CapSense_Sensing.c ****                  CapSense_MODCLK_CMD_DIV_SHIFT)|
ARM GAS  C:\Users\Jerry\AppData\Local\Temp\ccv40r80.s 			page 32


1343:Generated_Source\PSoC4/CapSense_Sensing.c ****                  ((uint32)CapSense_MODCLK_CMD_DISABLE_MASK));
1344:Generated_Source\PSoC4/CapSense_Sensing.c **** 
1345:Generated_Source\PSoC4/CapSense_Sensing.c ****     /*
1346:Generated_Source\PSoC4/CapSense_Sensing.c ****      * Set divider value for sense modClk.
1347:Generated_Source\PSoC4/CapSense_Sensing.c ****      * 1u is subtracted from modClk because Divider register value 0 corresponds
1348:Generated_Source\PSoC4/CapSense_Sensing.c ****      * to dividing by 1.
1349:Generated_Source\PSoC4/CapSense_Sensing.c ****      */
1350:Generated_Source\PSoC4/CapSense_Sensing.c ****     CY_SET_REG32(CapSense_MODCLK_DIV_PTR, ((modClk - 1u) << 8u));
 393              		.loc 1 1350 0
 394 0008 0138     		sub	r0, r0, #1
 395              	.LVL38:
 396 000a 064A     		ldr	r2, .L35+4
 397 000c 0002     		lsl	r0, r0, #8
 398              	.LVL39:
 399 000e 1060     		str	r0, [r2]
 400              	.L34:
1351:Generated_Source\PSoC4/CapSense_Sensing.c **** 
1352:Generated_Source\PSoC4/CapSense_Sensing.c ****     /*  Check whether previous modulator clock start command has finished. */
1353:Generated_Source\PSoC4/CapSense_Sensing.c ****     while(0u != (CY_GET_REG32(CapSense_MODCLK_CMD_PTR) & CapSense_MODCLK_CMD_ENABLE_MASK))
 401              		.loc 1 1353 0 discriminator 1
 402 0010 1A68     		ldr	r2, [r3]
 403 0012 002A     		cmp	r2, #0
 404 0014 FCDB     		blt	.L34
1354:Generated_Source\PSoC4/CapSense_Sensing.c ****     {
1355:Generated_Source\PSoC4/CapSense_Sensing.c ****         /*  Wait until previous modulator clock start command has finished. */
1356:Generated_Source\PSoC4/CapSense_Sensing.c ****     }
1357:Generated_Source\PSoC4/CapSense_Sensing.c **** 
1358:Generated_Source\PSoC4/CapSense_Sensing.c ****     /*  Start modulator clock, aligned to HFCLK */
1359:Generated_Source\PSoC4/CapSense_Sensing.c ****     CY_SET_REG32(CapSense_MODCLK_CMD_PTR,
 405              		.loc 1 1359 0
 406 0016 8023     		mov	r3, #128
 407 0018 034A     		ldr	r2, .L35+8
 408 001a DB05     		lsl	r3, r3, #23
 409 001c 1A60     		str	r2, [r3]
1360:Generated_Source\PSoC4/CapSense_Sensing.c ****                  (uint32)(((uint32)CapSense_ModClk__DIV_ID << CapSense_MODCLK_CMD_DIV_SHIFT) |
1361:Generated_Source\PSoC4/CapSense_Sensing.c ****                   ((uint32)CapSense_ModClk__PA_DIV_ID << CapSense_MODCLK_CMD_PA_DIV_SHIFT) |
1362:Generated_Source\PSoC4/CapSense_Sensing.c ****                   CapSense_MODCLK_CMD_ENABLE_MASK));
1363:Generated_Source\PSoC4/CapSense_Sensing.c **** #else
1364:Generated_Source\PSoC4/CapSense_Sensing.c ****     uint32 newRegValue;
1365:Generated_Source\PSoC4/CapSense_Sensing.c **** 
1366:Generated_Source\PSoC4/CapSense_Sensing.c ****     /* Clear bit to disable ModClk clock. */
1367:Generated_Source\PSoC4/CapSense_Sensing.c ****     CY_SET_REG32(CapSense_MODCLK_CMD_PTR,
1368:Generated_Source\PSoC4/CapSense_Sensing.c ****                  CY_GET_REG32(CapSense_MODCLK_CMD_PTR) &
1369:Generated_Source\PSoC4/CapSense_Sensing.c ****                  (uint32)(~CapSense_ModClk__ENABLE_MASK));
1370:Generated_Source\PSoC4/CapSense_Sensing.c **** 
1371:Generated_Source\PSoC4/CapSense_Sensing.c ****     /*
1372:Generated_Source\PSoC4/CapSense_Sensing.c ****      * Update ModClk clock divider.
1373:Generated_Source\PSoC4/CapSense_Sensing.c ****      * 1u is subtracted from modClk because Divider register value has range (0-65535).
1374:Generated_Source\PSoC4/CapSense_Sensing.c ****      */
1375:Generated_Source\PSoC4/CapSense_Sensing.c ****     newRegValue = CY_GET_REG32(CapSense_MODCLK_DIV_PTR) & (uint32)(~(uint32)CapSense_ModClk__DIVIDE
1376:Generated_Source\PSoC4/CapSense_Sensing.c ****     newRegValue |= (modClk - 1u);
1377:Generated_Source\PSoC4/CapSense_Sensing.c ****     CY_SET_REG32(CapSense_MODCLK_DIV_PTR, newRegValue);
1378:Generated_Source\PSoC4/CapSense_Sensing.c **** 
1379:Generated_Source\PSoC4/CapSense_Sensing.c ****     /* Set bit to enable ModClk clock. */
1380:Generated_Source\PSoC4/CapSense_Sensing.c ****     CY_SET_REG32(CapSense_MODCLK_CMD_PTR,
1381:Generated_Source\PSoC4/CapSense_Sensing.c ****                  CY_GET_REG32(CapSense_MODCLK_CMD_PTR) |
1382:Generated_Source\PSoC4/CapSense_Sensing.c ****                 CapSense_ModClk__ENABLE_MASK);
ARM GAS  C:\Users\Jerry\AppData\Local\Temp\ccv40r80.s 			page 33


1383:Generated_Source\PSoC4/CapSense_Sensing.c **** #endif /* (CapSense_ENABLE == CapSense_IS_M0S8PERI_BLOCK) */
1384:Generated_Source\PSoC4/CapSense_Sensing.c **** }
 410              		.loc 1 1384 0
 411              		@ sp needed
 412 001e 7047     		bx	lr
 413              	.L36:
 414              		.align	2
 415              	.L35:
 416 0020 41000040 		.word	1073741889
 417 0024 04030040 		.word	1073742596
 418 0028 41FF0080 		.word	-2147418303
 419              		.cfi_endproc
 420              	.LFE9:
 421              		.size	CapSense_SsSetModClkClockDivider, .-CapSense_SsSetModClkClockDivider
 422              		.section	.text.CapSense_SsSetSnsClockDivider,"ax",%progbits
 423              		.align	1
 424              		.global	CapSense_SsSetSnsClockDivider
 425              		.code	16
 426              		.thumb_func
 427              		.type	CapSense_SsSetSnsClockDivider, %function
 428              	CapSense_SsSetSnsClockDivider:
 429              	.LFB10:
1385:Generated_Source\PSoC4/CapSense_Sensing.c **** 
1386:Generated_Source\PSoC4/CapSense_Sensing.c **** 
1387:Generated_Source\PSoC4/CapSense_Sensing.c **** /*******************************************************************************
1388:Generated_Source\PSoC4/CapSense_Sensing.c **** * Function Name: CapSense_SsSetSnsClockDivider
1389:Generated_Source\PSoC4/CapSense_Sensing.c **** ****************************************************************************//**
1390:Generated_Source\PSoC4/CapSense_Sensing.c **** *
1391:Generated_Source\PSoC4/CapSense_Sensing.c **** * \brief
1392:Generated_Source\PSoC4/CapSense_Sensing.c **** *   Sets the divider values for the sense clock and then starts
1393:Generated_Source\PSoC4/CapSense_Sensing.c **** *   the sense clock.
1394:Generated_Source\PSoC4/CapSense_Sensing.c **** *
1395:Generated_Source\PSoC4/CapSense_Sensing.c **** * \details
1396:Generated_Source\PSoC4/CapSense_Sensing.c **** *   It is not recommended to call this function directly by the application layer.
1397:Generated_Source\PSoC4/CapSense_Sensing.c **** *   It is used by initialization, widget APIs or wakeup functions to
1398:Generated_Source\PSoC4/CapSense_Sensing.c **** *   enable the clocks.
1399:Generated_Source\PSoC4/CapSense_Sensing.c **** *
1400:Generated_Source\PSoC4/CapSense_Sensing.c **** * \param
1401:Generated_Source\PSoC4/CapSense_Sensing.c **** *   snsClk The divider value for the sense clock.
1402:Generated_Source\PSoC4/CapSense_Sensing.c **** *
1403:Generated_Source\PSoC4/CapSense_Sensing.c **** *******************************************************************************/
1404:Generated_Source\PSoC4/CapSense_Sensing.c **** void CapSense_SsSetSnsClockDivider(uint32 snsClk)
1405:Generated_Source\PSoC4/CapSense_Sensing.c **** {
 430              		.loc 1 1405 0
 431              		.cfi_startproc
 432              	.LVL40:
1406:Generated_Source\PSoC4/CapSense_Sensing.c **** #if (CapSense_ENABLE == CapSense_CSDV2)
1407:Generated_Source\PSoC4/CapSense_Sensing.c ****     uint32 newRegValue;
1408:Generated_Source\PSoC4/CapSense_Sensing.c **** 
1409:Generated_Source\PSoC4/CapSense_Sensing.c ****     /*
1410:Generated_Source\PSoC4/CapSense_Sensing.c ****      * Set divider value for sense clock.
1411:Generated_Source\PSoC4/CapSense_Sensing.c ****      * 1u is subtracted from snsClk because SENSE_DIV value 0 corresponds
1412:Generated_Source\PSoC4/CapSense_Sensing.c ****      * to dividing by 1.
1413:Generated_Source\PSoC4/CapSense_Sensing.c ****      */
1414:Generated_Source\PSoC4/CapSense_Sensing.c ****     newRegValue = CY_GET_REG32(CapSense_SENSE_PERIOD_PTR);
 433              		.loc 1 1414 0
 434 0000 034A     		ldr	r2, .L38
ARM GAS  C:\Users\Jerry\AppData\Local\Temp\ccv40r80.s 			page 34


1415:Generated_Source\PSoC4/CapSense_Sensing.c ****     newRegValue &= (uint32)(~CapSense_SENSE_PERIOD_SENSE_DIV_MASK);
1416:Generated_Source\PSoC4/CapSense_Sensing.c ****     newRegValue |= snsClk - 1u;
 435              		.loc 1 1416 0
 436 0002 0138     		sub	r0, r0, #1
 437              	.LVL41:
1414:Generated_Source\PSoC4/CapSense_Sensing.c ****     newRegValue &= (uint32)(~CapSense_SENSE_PERIOD_SENSE_DIV_MASK);
 438              		.loc 1 1414 0
 439 0004 1368     		ldr	r3, [r2]
 440              	.LVL42:
1417:Generated_Source\PSoC4/CapSense_Sensing.c ****     CY_SET_REG32(CapSense_SENSE_PERIOD_PTR, newRegValue);
1418:Generated_Source\PSoC4/CapSense_Sensing.c **** #else
1419:Generated_Source\PSoC4/CapSense_Sensing.c ****     #if (CapSense_ENABLE == CapSense_IS_M0S8PERI_BLOCK)
1420:Generated_Source\PSoC4/CapSense_Sensing.c ****         /*  Stop sense clock clock   */
1421:Generated_Source\PSoC4/CapSense_Sensing.c ****         CY_SET_REG32(CapSense_SNSCLK_CMD_PTR,
1422:Generated_Source\PSoC4/CapSense_Sensing.c ****                      ((uint32)CapSense_SnsClk__DIV_ID <<
1423:Generated_Source\PSoC4/CapSense_Sensing.c ****                      CapSense_SNSCLK_CMD_DIV_SHIFT)|
1424:Generated_Source\PSoC4/CapSense_Sensing.c ****                      ((uint32)CapSense_SNSCLK_CMD_DISABLE_MASK));
1425:Generated_Source\PSoC4/CapSense_Sensing.c **** 
1426:Generated_Source\PSoC4/CapSense_Sensing.c ****         /*
1427:Generated_Source\PSoC4/CapSense_Sensing.c ****          * Set divider value for sense clock.
1428:Generated_Source\PSoC4/CapSense_Sensing.c ****          * 1u is subtracted from snsClk because Divider register value 0 corresponds
1429:Generated_Source\PSoC4/CapSense_Sensing.c ****          * to dividing by 1.
1430:Generated_Source\PSoC4/CapSense_Sensing.c ****          */
1431:Generated_Source\PSoC4/CapSense_Sensing.c ****         CY_SET_REG32(CapSense_SNSCLK_DIV_PTR, ((snsClk - 1u) << 8u));
1432:Generated_Source\PSoC4/CapSense_Sensing.c **** 
1433:Generated_Source\PSoC4/CapSense_Sensing.c ****         /*  Check whether previous sense clock start command has finished. */
1434:Generated_Source\PSoC4/CapSense_Sensing.c ****         while(0u != (CY_GET_REG32(CapSense_SNSCLK_CMD_PTR) & CapSense_SNSCLK_CMD_ENABLE_MASK))
1435:Generated_Source\PSoC4/CapSense_Sensing.c ****         {
1436:Generated_Source\PSoC4/CapSense_Sensing.c ****             /*  Wait until previous sense clock start command has finished. */
1437:Generated_Source\PSoC4/CapSense_Sensing.c ****         }
1438:Generated_Source\PSoC4/CapSense_Sensing.c **** 
1439:Generated_Source\PSoC4/CapSense_Sensing.c ****         /* Start sense clock aligned to previously started modulator clock. */
1440:Generated_Source\PSoC4/CapSense_Sensing.c ****         CY_SET_REG32(CapSense_SNSCLK_CMD_PTR,
1441:Generated_Source\PSoC4/CapSense_Sensing.c ****                      (uint32)(((uint32)CapSense_SnsClk__DIV_ID << CapSense_SNSCLK_CMD_DIV_SHIFT) |
1442:Generated_Source\PSoC4/CapSense_Sensing.c ****                       ((uint32)CapSense_ModClk__PA_DIV_ID << CapSense_SNSCLK_CMD_PA_DIV_SHIFT) |
1443:Generated_Source\PSoC4/CapSense_Sensing.c ****                       CapSense_SNSCLK_CMD_ENABLE_MASK));
1444:Generated_Source\PSoC4/CapSense_Sensing.c ****     #else
1445:Generated_Source\PSoC4/CapSense_Sensing.c ****         uint32 newRegValue;
1446:Generated_Source\PSoC4/CapSense_Sensing.c **** 
1447:Generated_Source\PSoC4/CapSense_Sensing.c ****         /* Clear bit to disable SnsClk clock. */
1448:Generated_Source\PSoC4/CapSense_Sensing.c ****         CY_SET_REG32(CapSense_SNSCLK_CMD_PTR,
1449:Generated_Source\PSoC4/CapSense_Sensing.c ****                      CY_GET_REG32(CapSense_SNSCLK_CMD_PTR) &
1450:Generated_Source\PSoC4/CapSense_Sensing.c ****                      (uint32)(~(uint32)CapSense_SnsClk__ENABLE_MASK));
1451:Generated_Source\PSoC4/CapSense_Sensing.c **** 
1452:Generated_Source\PSoC4/CapSense_Sensing.c ****         /*
1453:Generated_Source\PSoC4/CapSense_Sensing.c ****          * Update snsClk clock divider.
1454:Generated_Source\PSoC4/CapSense_Sensing.c ****          * 1u is subtracted from snsClk because Divider register value has range (0-65535).
1455:Generated_Source\PSoC4/CapSense_Sensing.c ****          */
1456:Generated_Source\PSoC4/CapSense_Sensing.c ****         newRegValue = CY_GET_REG32(CapSense_SNSCLK_DIV_PTR) & (uint32)(~(uint32)CapSense_SnsClk__DI
1457:Generated_Source\PSoC4/CapSense_Sensing.c ****         newRegValue |= (snsClk - 1u);
1458:Generated_Source\PSoC4/CapSense_Sensing.c ****         CY_SET_REG32(CapSense_SNSCLK_DIV_PTR, newRegValue);
1459:Generated_Source\PSoC4/CapSense_Sensing.c **** 
1460:Generated_Source\PSoC4/CapSense_Sensing.c ****         /* Set bit to enable SnsClk clock. */
1461:Generated_Source\PSoC4/CapSense_Sensing.c ****         CY_SET_REG32(CapSense_SNSCLK_CMD_PTR,
1462:Generated_Source\PSoC4/CapSense_Sensing.c ****                      CY_GET_REG32(CapSense_SNSCLK_CMD_PTR) |
1463:Generated_Source\PSoC4/CapSense_Sensing.c ****                     CapSense_SnsClk__ENABLE_MASK);
1464:Generated_Source\PSoC4/CapSense_Sensing.c ****     #endif /* (CapSense_ENABLE == CapSense_IS_M0S8PERI_BLOCK) */
ARM GAS  C:\Users\Jerry\AppData\Local\Temp\ccv40r80.s 			page 35


1465:Generated_Source\PSoC4/CapSense_Sensing.c **** #endif /* (CapSense_ENABLE == CapSense_CSDV2) */
1466:Generated_Source\PSoC4/CapSense_Sensing.c **** }
 441              		.loc 1 1466 0
 442              		@ sp needed
1415:Generated_Source\PSoC4/CapSense_Sensing.c ****     newRegValue |= snsClk - 1u;
 443              		.loc 1 1415 0
 444 0006 1B0B     		lsr	r3, r3, #12
 445              	.LVL43:
 446 0008 1B03     		lsl	r3, r3, #12
 447              	.LVL44:
1416:Generated_Source\PSoC4/CapSense_Sensing.c ****     CY_SET_REG32(CapSense_SENSE_PERIOD_PTR, newRegValue);
 448              		.loc 1 1416 0
 449 000a 1843     		orr	r0, r3
 450              	.LVL45:
1417:Generated_Source\PSoC4/CapSense_Sensing.c ****     CY_SET_REG32(CapSense_SENSE_PERIOD_PTR, newRegValue);
 451              		.loc 1 1417 0
 452 000c 1060     		str	r0, [r2]
 453              		.loc 1 1466 0
 454 000e 7047     		bx	lr
 455              	.L39:
 456              		.align	2
 457              	.L38:
 458 0010 00020C40 		.word	1074528768
 459              		.cfi_endproc
 460              	.LFE10:
 461              		.size	CapSense_SsSetSnsClockDivider, .-CapSense_SsSetSnsClockDivider
 462              		.section	.text.CapSense_SsSetClockDividers,"ax",%progbits
 463              		.align	1
 464              		.global	CapSense_SsSetClockDividers
 465              		.code	16
 466              		.thumb_func
 467              		.type	CapSense_SsSetClockDividers, %function
 468              	CapSense_SsSetClockDividers:
 469              	.LFB11:
1467:Generated_Source\PSoC4/CapSense_Sensing.c **** 
1468:Generated_Source\PSoC4/CapSense_Sensing.c **** 
1469:Generated_Source\PSoC4/CapSense_Sensing.c **** /*******************************************************************************
1470:Generated_Source\PSoC4/CapSense_Sensing.c **** * Function Name: CapSense_SsSetClockDividers
1471:Generated_Source\PSoC4/CapSense_Sensing.c **** ****************************************************************************//**
1472:Generated_Source\PSoC4/CapSense_Sensing.c **** *
1473:Generated_Source\PSoC4/CapSense_Sensing.c **** * \brief
1474:Generated_Source\PSoC4/CapSense_Sensing.c **** *   Sets the divider values for sense and modulator clocks and then starts
1475:Generated_Source\PSoC4/CapSense_Sensing.c **** *   a modulator clock-phase aligned to HFCLK and sense clock-phase aligned to
1476:Generated_Source\PSoC4/CapSense_Sensing.c **** *   the modulator clock.
1477:Generated_Source\PSoC4/CapSense_Sensing.c **** *
1478:Generated_Source\PSoC4/CapSense_Sensing.c **** * \details
1479:Generated_Source\PSoC4/CapSense_Sensing.c **** *   It is not recommended to call this function directly by the application layer.
1480:Generated_Source\PSoC4/CapSense_Sensing.c **** *   It is used by initialization, widget APIs or wakeup functions to
1481:Generated_Source\PSoC4/CapSense_Sensing.c **** *   enable the clocks.
1482:Generated_Source\PSoC4/CapSense_Sensing.c **** *
1483:Generated_Source\PSoC4/CapSense_Sensing.c **** * \param
1484:Generated_Source\PSoC4/CapSense_Sensing.c **** *   snsClk The divider value for the sense clock.
1485:Generated_Source\PSoC4/CapSense_Sensing.c **** *   modClk The divider value for the modulator clock.
1486:Generated_Source\PSoC4/CapSense_Sensing.c **** *
1487:Generated_Source\PSoC4/CapSense_Sensing.c **** *******************************************************************************/
1488:Generated_Source\PSoC4/CapSense_Sensing.c **** void CapSense_SsSetClockDividers(uint32 snsClk, uint32 modClk)
1489:Generated_Source\PSoC4/CapSense_Sensing.c **** {
ARM GAS  C:\Users\Jerry\AppData\Local\Temp\ccv40r80.s 			page 36


 470              		.loc 1 1489 0
 471              		.cfi_startproc
 472              	.LVL46:
 473 0000 10B5     		push	{r4, lr}
 474              		.cfi_def_cfa_offset 8
 475              		.cfi_offset 4, -8
 476              		.cfi_offset 14, -4
 477              		.loc 1 1489 0
 478 0002 041C     		mov	r4, r0
1490:Generated_Source\PSoC4/CapSense_Sensing.c ****     /* Configure Mod clock */
1491:Generated_Source\PSoC4/CapSense_Sensing.c ****     CapSense_SsSetModClkClockDivider(modClk);
 479              		.loc 1 1491 0
 480 0004 081C     		mov	r0, r1
 481              	.LVL47:
 482 0006 FFF7FEFF 		bl	CapSense_SsSetModClkClockDivider
 483              	.LVL48:
1492:Generated_Source\PSoC4/CapSense_Sensing.c **** 
1493:Generated_Source\PSoC4/CapSense_Sensing.c ****     /* Configure Sns clock */
1494:Generated_Source\PSoC4/CapSense_Sensing.c ****     CapSense_SsSetSnsClockDivider(snsClk);
 484              		.loc 1 1494 0
 485 000a 201C     		mov	r0, r4
 486 000c FFF7FEFF 		bl	CapSense_SsSetSnsClockDivider
 487              	.LVL49:
1495:Generated_Source\PSoC4/CapSense_Sensing.c **** }
 488              		.loc 1 1495 0
 489              		@ sp needed
 490              	.LVL50:
 491 0010 10BD     		pop	{r4, pc}
 492              		.cfi_endproc
 493              	.LFE11:
 494              		.size	CapSense_SsSetClockDividers, .-CapSense_SsSetClockDividers
 495              		.section	.text.CapSense_CalibrateWidget,"ax",%progbits
 496              		.align	1
 497              		.global	CapSense_CalibrateWidget
 498              		.code	16
 499              		.thumb_func
 500              		.type	CapSense_CalibrateWidget, %function
 501              	CapSense_CalibrateWidget:
 502              	.LFB12:
1496:Generated_Source\PSoC4/CapSense_Sensing.c **** 
1497:Generated_Source\PSoC4/CapSense_Sensing.c **** 
1498:Generated_Source\PSoC4/CapSense_Sensing.c **** #if ((CapSense_ENABLE == CapSense_CSD_IDAC_AUTOCAL_EN) || \
1499:Generated_Source\PSoC4/CapSense_Sensing.c ****      (CapSense_ENABLE == CapSense_CSX_IDAC_AUTOCAL_EN))
1500:Generated_Source\PSoC4/CapSense_Sensing.c ****     /*******************************************************************************
1501:Generated_Source\PSoC4/CapSense_Sensing.c ****     * Function Name: CapSense_CalibrateWidget
1502:Generated_Source\PSoC4/CapSense_Sensing.c ****     ****************************************************************************//**
1503:Generated_Source\PSoC4/CapSense_Sensing.c ****     *
1504:Generated_Source\PSoC4/CapSense_Sensing.c ****     * \brief
1505:Generated_Source\PSoC4/CapSense_Sensing.c ****     *  Calibrates the IDACs for all sensors in the specified widget to default
1506:Generated_Source\PSoC4/CapSense_Sensing.c ****     *  target (85%) value, this function detects sensing method used by the
1507:Generated_Source\PSoC4/CapSense_Sensing.c ****     *  widget prior to calibration.
1508:Generated_Source\PSoC4/CapSense_Sensing.c ****     *
1509:Generated_Source\PSoC4/CapSense_Sensing.c ****     * \details
1510:Generated_Source\PSoC4/CapSense_Sensing.c ****     *  This function performs exactly the same tasks as
1511:Generated_Source\PSoC4/CapSense_Sensing.c ****     *  CapSense_CalibrateAllWidgets, but only for a specified widget.
1512:Generated_Source\PSoC4/CapSense_Sensing.c ****     *  This function detects the sensing method used by the widgets and takes
1513:Generated_Source\PSoC4/CapSense_Sensing.c ****     *  into account the Enable compensation IDAC parameter.
ARM GAS  C:\Users\Jerry\AppData\Local\Temp\ccv40r80.s 			page 37


1514:Generated_Source\PSoC4/CapSense_Sensing.c ****     *
1515:Generated_Source\PSoC4/CapSense_Sensing.c ****     *  This function is available when the CSD and/or CSX Enable IDAC
1516:Generated_Source\PSoC4/CapSense_Sensing.c ****     *  auto-calibration parameter is enabled.
1517:Generated_Source\PSoC4/CapSense_Sensing.c **** 
1518:Generated_Source\PSoC4/CapSense_Sensing.c ****     *
1519:Generated_Source\PSoC4/CapSense_Sensing.c ****     * \param wdgtIndex
1520:Generated_Source\PSoC4/CapSense_Sensing.c ****     *  Specify the ID number of the widget to calibrate its raw count.
1521:Generated_Source\PSoC4/CapSense_Sensing.c ****     *  A macro for the widget ID can be found in the
1522:Generated_Source\PSoC4/CapSense_Sensing.c ****     *  CapSense Configuration header file defined as
1523:Generated_Source\PSoC4/CapSense_Sensing.c ****     *  CapSense_<WidgetName>_WDGT_ID.
1524:Generated_Source\PSoC4/CapSense_Sensing.c ****     *
1525:Generated_Source\PSoC4/CapSense_Sensing.c ****     * \return
1526:Generated_Source\PSoC4/CapSense_Sensing.c ****     *  Returns the status of the specified widget calibration:
1527:Generated_Source\PSoC4/CapSense_Sensing.c ****     *    - CYRET_SUCCESS if operation is successfully completed.
1528:Generated_Source\PSoC4/CapSense_Sensing.c ****     *    - CYRET_BAD_PARAM if the input parameter is invalid.
1529:Generated_Source\PSoC4/CapSense_Sensing.c ****     *    - CYRET_BAD_DATA if the calibration failed and the component may not
1530:Generated_Source\PSoC4/CapSense_Sensing.c ****     *      operate as expected.
1531:Generated_Source\PSoC4/CapSense_Sensing.c ****     *
1532:Generated_Source\PSoC4/CapSense_Sensing.c ****     *******************************************************************************/
1533:Generated_Source\PSoC4/CapSense_Sensing.c ****     cystatus CapSense_CalibrateWidget(uint32 wdgtIndex)
1534:Generated_Source\PSoC4/CapSense_Sensing.c ****     {
 503              		.loc 1 1534 0
 504              		.cfi_startproc
 505              	.LVL51:
 506 0000 08B5     		push	{r3, lr}
 507              		.cfi_def_cfa_offset 8
 508              		.cfi_offset 3, -8
 509              		.cfi_offset 14, -4
1535:Generated_Source\PSoC4/CapSense_Sensing.c ****         cystatus calibrateStatus = CYRET_SUCCESS;
1536:Generated_Source\PSoC4/CapSense_Sensing.c **** 
1537:Generated_Source\PSoC4/CapSense_Sensing.c ****         do
1538:Generated_Source\PSoC4/CapSense_Sensing.c ****         {
1539:Generated_Source\PSoC4/CapSense_Sensing.c ****             if (CapSense_TOTAL_WIDGETS <= wdgtIndex)
 510              		.loc 1 1539 0
 511 0002 0028     		cmp	r0, #0
 512 0004 01D0     		beq	.L42
 513 0006 0120     		mov	r0, #1
 514              	.LVL52:
 515 0008 02E0     		b	.L44
 516              	.LVL53:
 517              	.L42:
 518              	.LBB6:
 519              	.LBB7:
1540:Generated_Source\PSoC4/CapSense_Sensing.c ****             {
1541:Generated_Source\PSoC4/CapSense_Sensing.c ****                 calibrateStatus = CYRET_BAD_PARAM;
1542:Generated_Source\PSoC4/CapSense_Sensing.c ****             }
1543:Generated_Source\PSoC4/CapSense_Sensing.c **** 
1544:Generated_Source\PSoC4/CapSense_Sensing.c ****             /*
1545:Generated_Source\PSoC4/CapSense_Sensing.c ****              *  Check if widget id is valid, specified widget did not
1546:Generated_Source\PSoC4/CapSense_Sensing.c ****              *  detect any faults conditions if BIST is enabled.
1547:Generated_Source\PSoC4/CapSense_Sensing.c ****              */
1548:Generated_Source\PSoC4/CapSense_Sensing.c ****             #if (CapSense_ENABLE == CapSense_SELF_TEST_EN)
1549:Generated_Source\PSoC4/CapSense_Sensing.c ****                 if (0u != CapSense_GET_WIDGET_EN_STATUS(wdgtIndex))
1550:Generated_Source\PSoC4/CapSense_Sensing.c ****                 {
1551:Generated_Source\PSoC4/CapSense_Sensing.c ****                     calibrateStatus = CYRET_SUCCESS;
1552:Generated_Source\PSoC4/CapSense_Sensing.c ****                 }
1553:Generated_Source\PSoC4/CapSense_Sensing.c ****                 else
ARM GAS  C:\Users\Jerry\AppData\Local\Temp\ccv40r80.s 			page 38


1554:Generated_Source\PSoC4/CapSense_Sensing.c ****                 {
1555:Generated_Source\PSoC4/CapSense_Sensing.c ****                     calibrateStatus = CYRET_INVALID_STATE;
1556:Generated_Source\PSoC4/CapSense_Sensing.c ****                 }
1557:Generated_Source\PSoC4/CapSense_Sensing.c ****             #endif  /* (CapSense_ENABLE == CapSense_SELF_TEST_EN) */
1558:Generated_Source\PSoC4/CapSense_Sensing.c **** 
1559:Generated_Source\PSoC4/CapSense_Sensing.c ****             if (CYRET_SUCCESS != calibrateStatus)
1560:Generated_Source\PSoC4/CapSense_Sensing.c ****             {
1561:Generated_Source\PSoC4/CapSense_Sensing.c ****                 /* Exit from the loop because of a fail */
1562:Generated_Source\PSoC4/CapSense_Sensing.c ****                 break;
1563:Generated_Source\PSoC4/CapSense_Sensing.c ****             }
1564:Generated_Source\PSoC4/CapSense_Sensing.c ****             
1565:Generated_Source\PSoC4/CapSense_Sensing.c ****             /* If CSD2X is enabled, calibrate CSD sensor    */
1566:Generated_Source\PSoC4/CapSense_Sensing.c ****             #if (CapSense_ENABLE == CapSense_CSD2X_EN)
1567:Generated_Source\PSoC4/CapSense_Sensing.c ****                 /* Calibrate CSD2X slot */
1568:Generated_Source\PSoC4/CapSense_Sensing.c ****                 calibrateStatus = CapSense_CSD2XCalibrateWidget(wdgtIndex, CapSense_CSD_RAWCOUNT_CA
1569:Generated_Source\PSoC4/CapSense_Sensing.c **** 
1570:Generated_Source\PSoC4/CapSense_Sensing.c ****             /*  If both CSD and CSX are enabled, calibrate widget using sensing method */
1571:Generated_Source\PSoC4/CapSense_Sensing.c ****             #elif (CapSense_ENABLE == CapSense_CSD_CSX_EN)
1572:Generated_Source\PSoC4/CapSense_Sensing.c **** 
1573:Generated_Source\PSoC4/CapSense_Sensing.c ****                 /* Check widget sensing method and call appropriate APIs */
1574:Generated_Source\PSoC4/CapSense_Sensing.c ****                 #if (CapSense_ENABLE == CapSense_CSX_IDAC_AUTOCAL_EN)
1575:Generated_Source\PSoC4/CapSense_Sensing.c ****                     if (CapSense_SENSE_METHOD_CSX_E ==
1576:Generated_Source\PSoC4/CapSense_Sensing.c ****                         CapSense_GET_SENSE_METHOD(&CapSense_dsFlash.wdgtArray[wdgtIndex]))
1577:Generated_Source\PSoC4/CapSense_Sensing.c ****                     {
1578:Generated_Source\PSoC4/CapSense_Sensing.c ****                         /* Calibrate CSX widget  */
1579:Generated_Source\PSoC4/CapSense_Sensing.c ****                        CapSense_CSXCalibrateWidget(wdgtIndex, CapSense_CSX_RAWCOUNT_CAL_LEVEL);
1580:Generated_Source\PSoC4/CapSense_Sensing.c ****                     }
1581:Generated_Source\PSoC4/CapSense_Sensing.c ****                 #endif  /* (CapSense_ENABLE == CapSense_CSX_IDAC_AUTOCAL_EN) */
1582:Generated_Source\PSoC4/CapSense_Sensing.c **** 
1583:Generated_Source\PSoC4/CapSense_Sensing.c ****                 #if (CapSense_ENABLE == CapSense_CSD_IDAC_AUTOCAL_EN)
1584:Generated_Source\PSoC4/CapSense_Sensing.c ****                     if (CapSense_SENSE_METHOD_CSD_E ==
1585:Generated_Source\PSoC4/CapSense_Sensing.c ****                         CapSense_GET_SENSE_METHOD(&CapSense_dsFlash.wdgtArray[wdgtIndex]))
1586:Generated_Source\PSoC4/CapSense_Sensing.c ****                     {
1587:Generated_Source\PSoC4/CapSense_Sensing.c ****                         /* Calibrate CSD widget */
1588:Generated_Source\PSoC4/CapSense_Sensing.c ****                         calibrateStatus = CapSense_CSDCalibrateWidget(wdgtIndex, CapSense_CSD_RAWCO
1589:Generated_Source\PSoC4/CapSense_Sensing.c ****                     }
1590:Generated_Source\PSoC4/CapSense_Sensing.c ****                 #endif  /* (CapSense_ENABLE == CapSense_CSD_IDAC_AUTOCAL_EN) */
1591:Generated_Source\PSoC4/CapSense_Sensing.c **** 
1592:Generated_Source\PSoC4/CapSense_Sensing.c ****             /*  If only CSD is enabled, calibrate CSD sensor  */
1593:Generated_Source\PSoC4/CapSense_Sensing.c ****             #elif (CapSense_ENABLE == CapSense_CSD_EN)
1594:Generated_Source\PSoC4/CapSense_Sensing.c ****                 calibrateStatus = CapSense_CSDCalibrateWidget(wdgtIndex, CapSense_CSD_RAWCOUNT_CAL_
 520              		.loc 1 1594 0
 521 000a 5521     		mov	r1, #85
 522 000c FFF7FEFF 		bl	CapSense_CSDCalibrateWidget
 523              	.LVL54:
 524              	.L44:
 525              	.LBE7:
 526              	.LBE6:
1595:Generated_Source\PSoC4/CapSense_Sensing.c **** 
1596:Generated_Source\PSoC4/CapSense_Sensing.c ****             /*  If only CSX is enabled, call CSX scan   */
1597:Generated_Source\PSoC4/CapSense_Sensing.c ****             #elif (CapSense_ENABLE == CapSense_CSX_EN)
1598:Generated_Source\PSoC4/CapSense_Sensing.c ****                 CapSense_CSXCalibrateWidget(wdgtIndex, CapSense_CSX_RAWCOUNT_CAL_LEVEL);
1599:Generated_Source\PSoC4/CapSense_Sensing.c **** 
1600:Generated_Source\PSoC4/CapSense_Sensing.c ****             #else
1601:Generated_Source\PSoC4/CapSense_Sensing.c ****                 calibrateStatus = CYRET_UNKNOWN;
1602:Generated_Source\PSoC4/CapSense_Sensing.c ****             #endif  /* (CapSense_ENABLE == CapSense_CSD2X_EN) */
1603:Generated_Source\PSoC4/CapSense_Sensing.c **** 
ARM GAS  C:\Users\Jerry\AppData\Local\Temp\ccv40r80.s 			page 39


1604:Generated_Source\PSoC4/CapSense_Sensing.c ****              /* Update CRC */
1605:Generated_Source\PSoC4/CapSense_Sensing.c ****             #if (CapSense_ENABLE ==CapSense_TST_WDGT_CRC_EN)
1606:Generated_Source\PSoC4/CapSense_Sensing.c ****                 CapSense_DsUpdateWidgetCrc(wdgtIndex);
1607:Generated_Source\PSoC4/CapSense_Sensing.c ****             #endif /* (CapSense_ENABLE ==CapSense_TST_WDGT_CRC_EN) */
1608:Generated_Source\PSoC4/CapSense_Sensing.c **** 
1609:Generated_Source\PSoC4/CapSense_Sensing.c ****         } while (0u);
1610:Generated_Source\PSoC4/CapSense_Sensing.c **** 
1611:Generated_Source\PSoC4/CapSense_Sensing.c ****         return calibrateStatus;
1612:Generated_Source\PSoC4/CapSense_Sensing.c ****     }
 527              		.loc 1 1612 0
 528              		@ sp needed
 529 0010 08BD     		pop	{r3, pc}
 530              		.cfi_endproc
 531              	.LFE12:
 532              		.size	CapSense_CalibrateWidget, .-CapSense_CalibrateWidget
 533              		.section	.text.CapSense_CalibrateAllWidgets,"ax",%progbits
 534              		.align	1
 535              		.global	CapSense_CalibrateAllWidgets
 536              		.code	16
 537              		.thumb_func
 538              		.type	CapSense_CalibrateAllWidgets, %function
 539              	CapSense_CalibrateAllWidgets:
 540              	.LFB13:
1613:Generated_Source\PSoC4/CapSense_Sensing.c **** 
1614:Generated_Source\PSoC4/CapSense_Sensing.c **** 
1615:Generated_Source\PSoC4/CapSense_Sensing.c ****     /*******************************************************************************
1616:Generated_Source\PSoC4/CapSense_Sensing.c ****     * Function Name: CapSense_CalibrateAllWidgets
1617:Generated_Source\PSoC4/CapSense_Sensing.c ****     ****************************************************************************//**
1618:Generated_Source\PSoC4/CapSense_Sensing.c ****     *
1619:Generated_Source\PSoC4/CapSense_Sensing.c ****     * \brief
1620:Generated_Source\PSoC4/CapSense_Sensing.c ****     *  Calibrates the IDACs for all widgets in the component to default target
1621:Generated_Source\PSoC4/CapSense_Sensing.c ****     *  (85%) value, this function detects sensing method used by the widgets
1622:Generated_Source\PSoC4/CapSense_Sensing.c ****     *  prior to calibration.
1623:Generated_Source\PSoC4/CapSense_Sensing.c ****     *
1624:Generated_Source\PSoC4/CapSense_Sensing.c ****     * \details
1625:Generated_Source\PSoC4/CapSense_Sensing.c ****     *  Calibrates the IDACs for all widgets in the component to the default
1626:Generated_Source\PSoC4/CapSense_Sensing.c ****     *  target (85% of maximum possible raw count) value. This function detects
1627:Generated_Source\PSoC4/CapSense_Sensing.c ****     *  the sensing method used by the widgets and takes into account the Enable
1628:Generated_Source\PSoC4/CapSense_Sensing.c ****     *  compensation IDAC parameter.
1629:Generated_Source\PSoC4/CapSense_Sensing.c ****     *
1630:Generated_Source\PSoC4/CapSense_Sensing.c ****     *  This function is available when the CSD and/or CSX Enable IDAC
1631:Generated_Source\PSoC4/CapSense_Sensing.c ****     *  auto-calibration parameter is enabled.
1632:Generated_Source\PSoC4/CapSense_Sensing.c ****     *
1633:Generated_Source\PSoC4/CapSense_Sensing.c ****     * \return
1634:Generated_Source\PSoC4/CapSense_Sensing.c ****     *  Returns the status of the calibration process:
1635:Generated_Source\PSoC4/CapSense_Sensing.c ****     *    - CYRET_SUCCESS if the operation is successfully completed.
1636:Generated_Source\PSoC4/CapSense_Sensing.c ****     *    - CYRET_BAD_DATA if the calibration failed and the component may not
1637:Generated_Source\PSoC4/CapSense_Sensing.c ****     *      operate as expected.
1638:Generated_Source\PSoC4/CapSense_Sensing.c ****     *
1639:Generated_Source\PSoC4/CapSense_Sensing.c ****     *******************************************************************************/
1640:Generated_Source\PSoC4/CapSense_Sensing.c ****     cystatus CapSense_CalibrateAllWidgets(void)
1641:Generated_Source\PSoC4/CapSense_Sensing.c ****     {
 541              		.loc 1 1641 0
 542              		.cfi_startproc
 543              	.LVL55:
 544 0000 08B5     		push	{r3, lr}
 545              		.cfi_def_cfa_offset 8
ARM GAS  C:\Users\Jerry\AppData\Local\Temp\ccv40r80.s 			page 40


 546              		.cfi_offset 3, -8
 547              		.cfi_offset 14, -4
1642:Generated_Source\PSoC4/CapSense_Sensing.c ****         cystatus calibrateStatus = CYRET_SUCCESS;
1643:Generated_Source\PSoC4/CapSense_Sensing.c ****         uint32 wdgtIndex;
1644:Generated_Source\PSoC4/CapSense_Sensing.c **** 
1645:Generated_Source\PSoC4/CapSense_Sensing.c ****         for (wdgtIndex = 0u; wdgtIndex < CapSense_TOTAL_WIDGETS; wdgtIndex++)
1646:Generated_Source\PSoC4/CapSense_Sensing.c ****         {
1647:Generated_Source\PSoC4/CapSense_Sensing.c ****             calibrateStatus |= CapSense_CalibrateWidget(wdgtIndex);
 548              		.loc 1 1647 0
 549 0002 0020     		mov	r0, #0
 550 0004 FFF7FEFF 		bl	CapSense_CalibrateWidget
 551              	.LVL56:
1648:Generated_Source\PSoC4/CapSense_Sensing.c ****         }
1649:Generated_Source\PSoC4/CapSense_Sensing.c **** 
1650:Generated_Source\PSoC4/CapSense_Sensing.c ****         return calibrateStatus;
1651:Generated_Source\PSoC4/CapSense_Sensing.c ****     }
 552              		.loc 1 1651 0
 553              		@ sp needed
 554 0008 08BD     		pop	{r3, pc}
 555              		.cfi_endproc
 556              	.LFE13:
 557              		.size	CapSense_CalibrateAllWidgets, .-CapSense_CalibrateAllWidgets
 558              		.section	.text.CapSense_SsClearCSDSensors,"ax",%progbits
 559              		.align	1
 560              		.global	CapSense_SsClearCSDSensors
 561              		.code	16
 562              		.thumb_func
 563              		.type	CapSense_SsClearCSDSensors, %function
 564              	CapSense_SsClearCSDSensors:
 565              	.LFB20:
1652:Generated_Source\PSoC4/CapSense_Sensing.c **** #endif /* ((CapSense_ENABLE == CapSense_CSD_IDAC_AUTOCAL_EN) ||
1653:Generated_Source\PSoC4/CapSense_Sensing.c ****            (CapSense_ENABLE == CapSense_CSX_IDAC_AUTOCAL_EN)) */
1654:Generated_Source\PSoC4/CapSense_Sensing.c **** 
1655:Generated_Source\PSoC4/CapSense_Sensing.c **** 
1656:Generated_Source\PSoC4/CapSense_Sensing.c **** #if (CapSense_CSD_SS_DIS != CapSense_CSD_AUTOTUNE)
1657:Generated_Source\PSoC4/CapSense_Sensing.c ****     #if (CapSense_ENABLE == CapSense_CSD2X_EN)
1658:Generated_Source\PSoC4/CapSense_Sensing.c ****         /*******************************************************************************
1659:Generated_Source\PSoC4/CapSense_Sensing.c ****         * Function Name: CapSense_SsSetEqualSlotClock
1660:Generated_Source\PSoC4/CapSense_Sensing.c ****         ****************************************************************************//**
1661:Generated_Source\PSoC4/CapSense_Sensing.c ****         *
1662:Generated_Source\PSoC4/CapSense_Sensing.c ****         * \brief
1663:Generated_Source\PSoC4/CapSense_Sensing.c ****         *  This function sets sense clocks to be equal on both CSD blocks.
1664:Generated_Source\PSoC4/CapSense_Sensing.c ****         *
1665:Generated_Source\PSoC4/CapSense_Sensing.c ****         * \details
1666:Generated_Source\PSoC4/CapSense_Sensing.c ****         *  This function sets clock dividers to equal
1667:Generated_Source\PSoC4/CapSense_Sensing.c ****         *  to widget divider that has higher value.
1668:Generated_Source\PSoC4/CapSense_Sensing.c ****         *
1669:Generated_Source\PSoC4/CapSense_Sensing.c ****         *
1670:Generated_Source\PSoC4/CapSense_Sensing.c ****         *******************************************************************************/
1671:Generated_Source\PSoC4/CapSense_Sensing.c ****         static void CapSense_SsSetEqualSlotClock(void)
1672:Generated_Source\PSoC4/CapSense_Sensing.c ****         {
1673:Generated_Source\PSoC4/CapSense_Sensing.c ****             CapSense_RAM_WD_BASE_STRUCT *ptrCSD0Wdgt = 0u;
1674:Generated_Source\PSoC4/CapSense_Sensing.c ****             CapSense_RAM_WD_BASE_STRUCT *ptrCSD1Wdgt = 0u;
1675:Generated_Source\PSoC4/CapSense_Sensing.c ****             uint32 widgetIndex;
1676:Generated_Source\PSoC4/CapSense_Sensing.c ****             uint32 emptySlot;
1677:Generated_Source\PSoC4/CapSense_Sensing.c **** 
1678:Generated_Source\PSoC4/CapSense_Sensing.c ****             /* Make sure that sense clocks are equal on both CSD blocks */
ARM GAS  C:\Users\Jerry\AppData\Local\Temp\ccv40r80.s 			page 41


1679:Generated_Source\PSoC4/CapSense_Sensing.c ****             for (widgetIndex = 0u; widgetIndex < CapSense_TOTAL_WIDGETS; widgetIndex++)
1680:Generated_Source\PSoC4/CapSense_Sensing.c ****             {
1681:Generated_Source\PSoC4/CapSense_Sensing.c ****                 emptySlot = 0u;
1682:Generated_Source\PSoC4/CapSense_Sensing.c ****                 for (CapSense_slotIndex = 0u; CapSense_slotIndex < CapSense_TOTAL_SLOTS; CapSense_s
1683:Generated_Source\PSoC4/CapSense_Sensing.c ****                 {
1684:Generated_Source\PSoC4/CapSense_Sensing.c ****                     CapSense_widgetIndex0 = CapSense_scanSlots[CapSense_slotIndex].csd0WidgetId;
1685:Generated_Source\PSoC4/CapSense_Sensing.c ****                     CapSense_sensorIndex0 = CapSense_scanSlots[CapSense_slotIndex].csd0SensorId;
1686:Generated_Source\PSoC4/CapSense_Sensing.c **** 
1687:Generated_Source\PSoC4/CapSense_Sensing.c ****                     CapSense_widgetIndex1 = CapSense_scanSlots[CapSense_slotIndex].csd1WidgetId;
1688:Generated_Source\PSoC4/CapSense_Sensing.c ****                     CapSense_sensorIndex1 = CapSense_scanSlots[CapSense_slotIndex].csd1SensorId;
1689:Generated_Source\PSoC4/CapSense_Sensing.c **** 
1690:Generated_Source\PSoC4/CapSense_Sensing.c ****                     if (CapSense_EMPTY_SLOT == CapSense_widgetIndex0)
1691:Generated_Source\PSoC4/CapSense_Sensing.c ****                     {
1692:Generated_Source\PSoC4/CapSense_Sensing.c ****                         emptySlot++;
1693:Generated_Source\PSoC4/CapSense_Sensing.c ****                     }
1694:Generated_Source\PSoC4/CapSense_Sensing.c **** 
1695:Generated_Source\PSoC4/CapSense_Sensing.c ****                     if (CapSense_EMPTY_SLOT == CapSense_widgetIndex1)
1696:Generated_Source\PSoC4/CapSense_Sensing.c ****                     {
1697:Generated_Source\PSoC4/CapSense_Sensing.c ****                         emptySlot++;
1698:Generated_Source\PSoC4/CapSense_Sensing.c ****                     }
1699:Generated_Source\PSoC4/CapSense_Sensing.c **** 
1700:Generated_Source\PSoC4/CapSense_Sensing.c ****                     if (0u == emptySlot)
1701:Generated_Source\PSoC4/CapSense_Sensing.c ****                     {
1702:Generated_Source\PSoC4/CapSense_Sensing.c ****                         ptrCSD0Wdgt = (CapSense_RAM_WD_BASE_STRUCT *)
1703:Generated_Source\PSoC4/CapSense_Sensing.c ****                                        CapSense_dsFlash.wdgtArray[CapSense_widgetIndex0].ptr2WdgtRa
1704:Generated_Source\PSoC4/CapSense_Sensing.c ****                         ptrCSD1Wdgt = (CapSense_RAM_WD_BASE_STRUCT *)
1705:Generated_Source\PSoC4/CapSense_Sensing.c ****                                        CapSense_dsFlash.wdgtArray[CapSense_widgetIndex1].ptr2WdgtRa
1706:Generated_Source\PSoC4/CapSense_Sensing.c **** 
1707:Generated_Source\PSoC4/CapSense_Sensing.c ****                         #if (CapSense_CSD_MATRIX_WIDGET_EN | CapSense_CSD_TOUCHPAD_WIDGET_EN)
1708:Generated_Source\PSoC4/CapSense_Sensing.c ****                             /* Check if current slot for CSD0 block has a row */
1709:Generated_Source\PSoC4/CapSense_Sensing.c ****                             if (CapSense_dsFlash.wdgtArray[CapSense_widgetIndex0].numCols <= CapSen
1710:Generated_Source\PSoC4/CapSense_Sensing.c ****                             {
1711:Generated_Source\PSoC4/CapSense_Sensing.c ****                                 /* Check if current slot for CSD1 block has a row */
1712:Generated_Source\PSoC4/CapSense_Sensing.c ****                                 if (CapSense_dsFlash.wdgtArray[CapSense_widgetIndex1].numCols <= Ca
1713:Generated_Source\PSoC4/CapSense_Sensing.c ****                                 {
1714:Generated_Source\PSoC4/CapSense_Sensing.c ****                                     /* Both slots have the rows. Compare rowSnsClk and reassign the
1715:Generated_Source\PSoC4/CapSense_Sensing.c ****                                     if (ptrCSD0Wdgt->rowSnsClk < ptrCSD1Wdgt->rowSnsClk)
1716:Generated_Source\PSoC4/CapSense_Sensing.c ****                                     {
1717:Generated_Source\PSoC4/CapSense_Sensing.c ****                                         ptrCSD0Wdgt->rowSnsClk = ptrCSD1Wdgt->rowSnsClk;
1718:Generated_Source\PSoC4/CapSense_Sensing.c ****                                     }
1719:Generated_Source\PSoC4/CapSense_Sensing.c ****                                     else
1720:Generated_Source\PSoC4/CapSense_Sensing.c ****                                     {
1721:Generated_Source\PSoC4/CapSense_Sensing.c ****                                         ptrCSD1Wdgt->rowSnsClk = ptrCSD0Wdgt->rowSnsClk;
1722:Generated_Source\PSoC4/CapSense_Sensing.c ****                                     }
1723:Generated_Source\PSoC4/CapSense_Sensing.c ****                                 }
1724:Generated_Source\PSoC4/CapSense_Sensing.c ****                                 else
1725:Generated_Source\PSoC4/CapSense_Sensing.c ****                                 {
1726:Generated_Source\PSoC4/CapSense_Sensing.c ****                                     /* CSD0 block has the row and CSD1 block has the column. Compar
1727:Generated_Source\PSoC4/CapSense_Sensing.c ****                                     if (ptrCSD0Wdgt->rowSnsClk < ptrCSD1Wdgt->snsClk)
1728:Generated_Source\PSoC4/CapSense_Sensing.c ****                                     {
1729:Generated_Source\PSoC4/CapSense_Sensing.c ****                                         ptrCSD0Wdgt->rowSnsClk = ptrCSD1Wdgt->snsClk;
1730:Generated_Source\PSoC4/CapSense_Sensing.c ****                                     }
1731:Generated_Source\PSoC4/CapSense_Sensing.c ****                                     else
1732:Generated_Source\PSoC4/CapSense_Sensing.c ****                                     {
1733:Generated_Source\PSoC4/CapSense_Sensing.c ****                                         ptrCSD1Wdgt->snsClk = ptrCSD0Wdgt->rowSnsClk;
1734:Generated_Source\PSoC4/CapSense_Sensing.c ****                                     }
1735:Generated_Source\PSoC4/CapSense_Sensing.c ****                                 }
ARM GAS  C:\Users\Jerry\AppData\Local\Temp\ccv40r80.s 			page 42


1736:Generated_Source\PSoC4/CapSense_Sensing.c ****                             }
1737:Generated_Source\PSoC4/CapSense_Sensing.c ****                             else
1738:Generated_Source\PSoC4/CapSense_Sensing.c ****                             {
1739:Generated_Source\PSoC4/CapSense_Sensing.c ****                                 /* Check if current slot for CSD1 block has a row */
1740:Generated_Source\PSoC4/CapSense_Sensing.c ****                                 if (CapSense_dsFlash.wdgtArray[CapSense_widgetIndex1].numCols <= Ca
1741:Generated_Source\PSoC4/CapSense_Sensing.c ****                                 {
1742:Generated_Source\PSoC4/CapSense_Sensing.c ****                                     /* CSD0 block has the column and CSD1 block has the row. Compar
1743:Generated_Source\PSoC4/CapSense_Sensing.c ****                                     if (ptrCSD0Wdgt->snsClk < ptrCSD1Wdgt->rowSnsClk)
1744:Generated_Source\PSoC4/CapSense_Sensing.c ****                                     {
1745:Generated_Source\PSoC4/CapSense_Sensing.c ****                                         ptrCSD0Wdgt->snsClk = ptrCSD1Wdgt->rowSnsClk;
1746:Generated_Source\PSoC4/CapSense_Sensing.c ****                                     }
1747:Generated_Source\PSoC4/CapSense_Sensing.c ****                                     else
1748:Generated_Source\PSoC4/CapSense_Sensing.c ****                                     {
1749:Generated_Source\PSoC4/CapSense_Sensing.c ****                                         ptrCSD1Wdgt->rowSnsClk = ptrCSD0Wdgt->snsClk;
1750:Generated_Source\PSoC4/CapSense_Sensing.c ****                                     }
1751:Generated_Source\PSoC4/CapSense_Sensing.c ****                                 }
1752:Generated_Source\PSoC4/CapSense_Sensing.c ****                                 else
1753:Generated_Source\PSoC4/CapSense_Sensing.c ****                                 {
1754:Generated_Source\PSoC4/CapSense_Sensing.c ****                                     /* Both slots have the columns. Compare snsClk and reassign the
1755:Generated_Source\PSoC4/CapSense_Sensing.c ****                                     if (ptrCSD0Wdgt->snsClk < ptrCSD1Wdgt->snsClk)
1756:Generated_Source\PSoC4/CapSense_Sensing.c ****                                     {
1757:Generated_Source\PSoC4/CapSense_Sensing.c ****                                         ptrCSD0Wdgt->snsClk = ptrCSD1Wdgt->snsClk;
1758:Generated_Source\PSoC4/CapSense_Sensing.c ****                                     }
1759:Generated_Source\PSoC4/CapSense_Sensing.c ****                                     else
1760:Generated_Source\PSoC4/CapSense_Sensing.c ****                                     {
1761:Generated_Source\PSoC4/CapSense_Sensing.c ****                                         ptrCSD1Wdgt->snsClk = ptrCSD0Wdgt->snsClk;
1762:Generated_Source\PSoC4/CapSense_Sensing.c ****                                     }
1763:Generated_Source\PSoC4/CapSense_Sensing.c ****                                 }
1764:Generated_Source\PSoC4/CapSense_Sensing.c ****                             }
1765:Generated_Source\PSoC4/CapSense_Sensing.c ****                         #else
1766:Generated_Source\PSoC4/CapSense_Sensing.c ****                             /* Compare snsClk and reassign the higher divider to widget with the lo
1767:Generated_Source\PSoC4/CapSense_Sensing.c ****                             if (ptrCSD0Wdgt->snsClk < ptrCSD1Wdgt->snsClk)
1768:Generated_Source\PSoC4/CapSense_Sensing.c ****                             {
1769:Generated_Source\PSoC4/CapSense_Sensing.c ****                                 ptrCSD0Wdgt->snsClk = ptrCSD1Wdgt->snsClk;
1770:Generated_Source\PSoC4/CapSense_Sensing.c ****                             }
1771:Generated_Source\PSoC4/CapSense_Sensing.c ****                             else
1772:Generated_Source\PSoC4/CapSense_Sensing.c ****                             {
1773:Generated_Source\PSoC4/CapSense_Sensing.c ****                                 ptrCSD1Wdgt->snsClk = ptrCSD0Wdgt->snsClk;
1774:Generated_Source\PSoC4/CapSense_Sensing.c ****                             }
1775:Generated_Source\PSoC4/CapSense_Sensing.c ****                         #endif /* (CapSense_CSD_MATRIX_WIDGET_EN | CapSense_CSD_TOUCHPAD_WIDGET_EN)
1776:Generated_Source\PSoC4/CapSense_Sensing.c ****                     }
1777:Generated_Source\PSoC4/CapSense_Sensing.c ****                 }
1778:Generated_Source\PSoC4/CapSense_Sensing.c ****             }
1779:Generated_Source\PSoC4/CapSense_Sensing.c ****         }
1780:Generated_Source\PSoC4/CapSense_Sensing.c **** 
1781:Generated_Source\PSoC4/CapSense_Sensing.c **** 
1782:Generated_Source\PSoC4/CapSense_Sensing.c ****         /*******************************************************************************
1783:Generated_Source\PSoC4/CapSense_Sensing.c ****         * Function Name: CapSense_SsSetCSD0DirectClockMode
1784:Generated_Source\PSoC4/CapSense_Sensing.c ****         ****************************************************************************//**
1785:Generated_Source\PSoC4/CapSense_Sensing.c ****         *
1786:Generated_Source\PSoC4/CapSense_Sensing.c ****         * \brief
1787:Generated_Source\PSoC4/CapSense_Sensing.c ****         *  Sets Direct Clock Mode.
1788:Generated_Source\PSoC4/CapSense_Sensing.c ****         *
1789:Generated_Source\PSoC4/CapSense_Sensing.c ****         * \details
1790:Generated_Source\PSoC4/CapSense_Sensing.c ****         *  For CSDv1: Resets PRS bit in CapSense_configCsd variable;
1791:Generated_Source\PSoC4/CapSense_Sensing.c ****         *
1792:Generated_Source\PSoC4/CapSense_Sensing.c ****         *******************************************************************************/
ARM GAS  C:\Users\Jerry\AppData\Local\Temp\ccv40r80.s 			page 43


1793:Generated_Source\PSoC4/CapSense_Sensing.c ****         static void CapSense_SsSetCSD0DirectClockMode(void)
1794:Generated_Source\PSoC4/CapSense_Sensing.c ****         {
1795:Generated_Source\PSoC4/CapSense_Sensing.c ****             #if (CapSense_DISABLE == CapSense_CSDV2)
1796:Generated_Source\PSoC4/CapSense_Sensing.c ****                 CapSense_configCsd0 = CapSense_configCsd0 &(uint32)~(CapSense_CONFIG_PRS_SELECT_MAS
1797:Generated_Source\PSoC4/CapSense_Sensing.c ****             #endif /* (CapSense_ENABLE == CapSense_CSDV2) */
1798:Generated_Source\PSoC4/CapSense_Sensing.c ****         }
1799:Generated_Source\PSoC4/CapSense_Sensing.c **** 
1800:Generated_Source\PSoC4/CapSense_Sensing.c **** 
1801:Generated_Source\PSoC4/CapSense_Sensing.c ****         /*******************************************************************************
1802:Generated_Source\PSoC4/CapSense_Sensing.c ****         * Function Name: CapSense_SsSetCSD1DirectClockMode
1803:Generated_Source\PSoC4/CapSense_Sensing.c ****         ****************************************************************************//**
1804:Generated_Source\PSoC4/CapSense_Sensing.c ****         *
1805:Generated_Source\PSoC4/CapSense_Sensing.c ****         * \brief
1806:Generated_Source\PSoC4/CapSense_Sensing.c ****         *  Sets Direct Clock Mode.
1807:Generated_Source\PSoC4/CapSense_Sensing.c ****         *
1808:Generated_Source\PSoC4/CapSense_Sensing.c ****         * \details
1809:Generated_Source\PSoC4/CapSense_Sensing.c ****         *  For CSDv1: Resets PRS bit in CapSense_configCsd variable;
1810:Generated_Source\PSoC4/CapSense_Sensing.c ****         *
1811:Generated_Source\PSoC4/CapSense_Sensing.c ****         *******************************************************************************/
1812:Generated_Source\PSoC4/CapSense_Sensing.c ****         static void CapSense_SsSetCSD1DirectClockMode(void)
1813:Generated_Source\PSoC4/CapSense_Sensing.c ****         {
1814:Generated_Source\PSoC4/CapSense_Sensing.c ****             #if (CapSense_DISABLE == CapSense_CSDV2)
1815:Generated_Source\PSoC4/CapSense_Sensing.c ****                 CapSense_configCsd1 = CapSense_configCsd1 &(uint32)~(CapSense_CONFIG_PRS_SELECT_MAS
1816:Generated_Source\PSoC4/CapSense_Sensing.c ****             #endif /* (CapSense_ENABLE == CapSense_CSDV2) */
1817:Generated_Source\PSoC4/CapSense_Sensing.c ****         }
1818:Generated_Source\PSoC4/CapSense_Sensing.c ****     #else
1819:Generated_Source\PSoC4/CapSense_Sensing.c **** 
1820:Generated_Source\PSoC4/CapSense_Sensing.c **** 
1821:Generated_Source\PSoC4/CapSense_Sensing.c ****         /*******************************************************************************
1822:Generated_Source\PSoC4/CapSense_Sensing.c ****         * Function Name: CapSense_SsSetDirectClockMode
1823:Generated_Source\PSoC4/CapSense_Sensing.c ****         ****************************************************************************//**
1824:Generated_Source\PSoC4/CapSense_Sensing.c ****         *
1825:Generated_Source\PSoC4/CapSense_Sensing.c ****         * \brief
1826:Generated_Source\PSoC4/CapSense_Sensing.c ****         *  Sets Direct Clock Mode.
1827:Generated_Source\PSoC4/CapSense_Sensing.c ****         *
1828:Generated_Source\PSoC4/CapSense_Sensing.c ****         * \details
1829:Generated_Source\PSoC4/CapSense_Sensing.c ****         *  For CSDv1: Resets PRS bit in CapSense_configCsd variable;
1830:Generated_Source\PSoC4/CapSense_Sensing.c ****         *  For CSDv2: Resets CapSense_SENSE_PERIOD_SEL_LFSR_MSB_MASK and
1831:Generated_Source\PSoC4/CapSense_Sensing.c ****         *  CapSense_SENSE_PERIOD_SEL_LFSR_MSB_MASK bits in
1832:Generated_Source\PSoC4/CapSense_Sensing.c ****         *  CapSense_SENSE_PERIOD register.
1833:Generated_Source\PSoC4/CapSense_Sensing.c ****         *
1834:Generated_Source\PSoC4/CapSense_Sensing.c ****         *******************************************************************************/
1835:Generated_Source\PSoC4/CapSense_Sensing.c ****         static void CapSense_SsSetDirectClockMode(void)
1836:Generated_Source\PSoC4/CapSense_Sensing.c ****         {
1837:Generated_Source\PSoC4/CapSense_Sensing.c ****             #if (CapSense_ENABLE == CapSense_CSDV2)
1838:Generated_Source\PSoC4/CapSense_Sensing.c ****                 CY_SET_REG32(CapSense_SENSE_PERIOD_PTR, CY_GET_REG32(CapSense_SENSE_PERIOD_PTR) &
1839:Generated_Source\PSoC4/CapSense_Sensing.c ****                                                                      (uint32)~(CapSense_SENSE_PERIO
1840:Generated_Source\PSoC4/CapSense_Sensing.c ****                                                                      CapSense_SENSE_PERIOD_LFSR_SIZ
1841:Generated_Source\PSoC4/CapSense_Sensing.c ****             #else
1842:Generated_Source\PSoC4/CapSense_Sensing.c ****                 CapSense_configCsd = CapSense_configCsd &(uint32)~(CapSense_CONFIG_PRS_SELECT_MASK)
1843:Generated_Source\PSoC4/CapSense_Sensing.c ****             #endif /* (CapSense_ENABLE == CapSense_CSDV2) */
1844:Generated_Source\PSoC4/CapSense_Sensing.c ****         }
1845:Generated_Source\PSoC4/CapSense_Sensing.c ****     #endif /* (CapSense_ENABLE == CapSense_CSD2X_EN) */
1846:Generated_Source\PSoC4/CapSense_Sensing.c **** 
1847:Generated_Source\PSoC4/CapSense_Sensing.c **** 
1848:Generated_Source\PSoC4/CapSense_Sensing.c ****     /*******************************************************************************
1849:Generated_Source\PSoC4/CapSense_Sensing.c ****     * Function Name: CapSense_SsAutoTune
ARM GAS  C:\Users\Jerry\AppData\Local\Temp\ccv40r80.s 			page 44


1850:Generated_Source\PSoC4/CapSense_Sensing.c ****     ****************************************************************************//**
1851:Generated_Source\PSoC4/CapSense_Sensing.c ****     *
1852:Generated_Source\PSoC4/CapSense_Sensing.c ****     * \brief
1853:Generated_Source\PSoC4/CapSense_Sensing.c ****     *  This API performs the parameters auto-tuning for the optimal CapSense operation.
1854:Generated_Source\PSoC4/CapSense_Sensing.c ****     *
1855:Generated_Source\PSoC4/CapSense_Sensing.c ****     * \details
1856:Generated_Source\PSoC4/CapSense_Sensing.c ****     *  This API performs the following:
1857:Generated_Source\PSoC4/CapSense_Sensing.c ****     *  - Calibrates Modulator and Compensation IDACs.
1858:Generated_Source\PSoC4/CapSense_Sensing.c ****     *  - Tunes the Sense Clock optimal value to get a Sense Clock period greater than
1859:Generated_Source\PSoC4/CapSense_Sensing.c ****     *     2*5*R*Cp.
1860:Generated_Source\PSoC4/CapSense_Sensing.c ****     *  - Calculates the resolution for the optimal finger capacitance.
1861:Generated_Source\PSoC4/CapSense_Sensing.c ****     *
1862:Generated_Source\PSoC4/CapSense_Sensing.c ****     * \return
1863:Generated_Source\PSoC4/CapSense_Sensing.c ****     *   Returns the status of operation:
1864:Generated_Source\PSoC4/CapSense_Sensing.c ****     *   - Zero     - All the widgets are auto-tuned successfully.
1865:Generated_Source\PSoC4/CapSense_Sensing.c ****     *   - Non-zero - Auto-tuning failed for any widget.
1866:Generated_Source\PSoC4/CapSense_Sensing.c ****     *
1867:Generated_Source\PSoC4/CapSense_Sensing.c ****     *******************************************************************************/
1868:Generated_Source\PSoC4/CapSense_Sensing.c ****     cystatus CapSense_SsAutoTune(void)
1869:Generated_Source\PSoC4/CapSense_Sensing.c ****     {
1870:Generated_Source\PSoC4/CapSense_Sensing.c ****         cystatus autoTuneStatus = CYRET_SUCCESS;
1871:Generated_Source\PSoC4/CapSense_Sensing.c ****         uint32 wdgtIndex;
1872:Generated_Source\PSoC4/CapSense_Sensing.c ****         uint32 cp = 0uL;
1873:Generated_Source\PSoC4/CapSense_Sensing.c ****         #if (CapSense_CSD_MATRIX_WIDGET_EN | CapSense_CSD_TOUCHPAD_WIDGET_EN)
1874:Generated_Source\PSoC4/CapSense_Sensing.c ****             uint32 cpRow = 0uL;
1875:Generated_Source\PSoC4/CapSense_Sensing.c ****         #endif /* (CapSense_CSD_MATRIX_WIDGET_EN | CapSense_CSD_TOUCHPAD_WIDGET_EN) */
1876:Generated_Source\PSoC4/CapSense_Sensing.c ****         CapSense_RAM_WD_BASE_STRUCT *ptrWdgt;
1877:Generated_Source\PSoC4/CapSense_Sensing.c ****         AUTO_TUNE_CONFIG_TYPE autoTuneConfig;
1878:Generated_Source\PSoC4/CapSense_Sensing.c ****         #if (CapSense_ENABLE == CapSense_CSD2X_EN)
1879:Generated_Source\PSoC4/CapSense_Sensing.c ****             uint32 csdBlockID;
1880:Generated_Source\PSoC4/CapSense_Sensing.c ****         #endif /* (CapSense_ENABLE == CapSense_CSD2X_EN) */
1881:Generated_Source\PSoC4/CapSense_Sensing.c **** 
1882:Generated_Source\PSoC4/CapSense_Sensing.c ****         /* Configure common config variables */
1883:Generated_Source\PSoC4/CapSense_Sensing.c ****         autoTuneConfig.snsClkConstantR = CapSense_CSD_SNSCLK_R_CONST;
1884:Generated_Source\PSoC4/CapSense_Sensing.c ****         autoTuneConfig.vRef = CapSense_CSD_VREF_MV;
1885:Generated_Source\PSoC4/CapSense_Sensing.c ****         #if (CapSense_DISABLE == CapSense_CSD2X_EN)
1886:Generated_Source\PSoC4/CapSense_Sensing.c ****             autoTuneConfig.iDacGain = CapSense_CSD_IDAC_GAIN_VALUE_NA * CapSense_CSD_DUAL_IDAC_FACT
1887:Generated_Source\PSoC4/CapSense_Sensing.c ****         #endif /* (CapSense_DISABLE == CapSense_CSD2X_EN) */
1888:Generated_Source\PSoC4/CapSense_Sensing.c ****         autoTuneConfig.calTarget = CapSense_CSD_AUTOTUNE_CAL_LEVEL;
1889:Generated_Source\PSoC4/CapSense_Sensing.c **** 
1890:Generated_Source\PSoC4/CapSense_Sensing.c ****         /* Calculate snsClk Input Clock in KHz */
1891:Generated_Source\PSoC4/CapSense_Sensing.c ****         #if (CapSense_ENABLE == CapSense_CSDV2)
1892:Generated_Source\PSoC4/CapSense_Sensing.c ****             /*  Dividers are chained (CSDV2). Flip flop is not available */
1893:Generated_Source\PSoC4/CapSense_Sensing.c ****             autoTuneConfig.snsClkInputClock = (CYDEV_BCLK__HFCLK__KHZ / CapSense_dsRam.modCsdClk);
1894:Generated_Source\PSoC4/CapSense_Sensing.c ****         #elif ((CapSense_ENABLE == CapSense_IS_M0S8PERI_BLOCK) && (CapSense_DISABLE == CY_PSOC4_400
1895:Generated_Source\PSoC4/CapSense_Sensing.c ****             /*  Dividers are not chained */
1896:Generated_Source\PSoC4/CapSense_Sensing.c ****             autoTuneConfig.snsClkInputClock = CYDEV_BCLK__HFCLK__KHZ >> CapSense_FLIP_FLOP_DIV;
1897:Generated_Source\PSoC4/CapSense_Sensing.c ****         #elif (CapSense_ENABLE == CapSense_IS_M0S8PERI_BLOCK)
1898:Generated_Source\PSoC4/CapSense_Sensing.c ****             /*  Dividers are not chained (PSoC 4000) */
1899:Generated_Source\PSoC4/CapSense_Sensing.c ****             autoTuneConfig.snsClkInputClock = CYDEV_BCLK__HFCLK__KHZ >> CapSense_FLIP_FLOP_DIV;
1900:Generated_Source\PSoC4/CapSense_Sensing.c ****         #else
1901:Generated_Source\PSoC4/CapSense_Sensing.c ****             /*  Dividers are chained (PSoC 4100, PSoC 4200) */
1902:Generated_Source\PSoC4/CapSense_Sensing.c ****             autoTuneConfig.snsClkInputClock = (CYDEV_BCLK__HFCLK__KHZ / CapSense_dsRam.modCsdClk) >
1903:Generated_Source\PSoC4/CapSense_Sensing.c ****         #endif /* (CapSense_ENABLE == CapSense_CSDV2) */
1904:Generated_Source\PSoC4/CapSense_Sensing.c **** 
1905:Generated_Source\PSoC4/CapSense_Sensing.c ****         /* If both CSD and CSX are enabled, calibrate widget using sensing method */
1906:Generated_Source\PSoC4/CapSense_Sensing.c ****         #if (CapSense_ENABLE == CapSense_CSD_CSX_EN)
ARM GAS  C:\Users\Jerry\AppData\Local\Temp\ccv40r80.s 			page 45


1907:Generated_Source\PSoC4/CapSense_Sensing.c ****             /* Initialize CSD mode */
1908:Generated_Source\PSoC4/CapSense_Sensing.c ****             CapSense_SsCSDInitialize();
1909:Generated_Source\PSoC4/CapSense_Sensing.c ****         #endif /* (CapSense_ENABLE == CapSense_CSD_CSX_EN) */
1910:Generated_Source\PSoC4/CapSense_Sensing.c **** 
1911:Generated_Source\PSoC4/CapSense_Sensing.c ****         /* Set flag to calibrate in PWM mode only */
1912:Generated_Source\PSoC4/CapSense_Sensing.c ****         CapSense_prescalersTuningDone = CapSense_DISABLE;
1913:Generated_Source\PSoC4/CapSense_Sensing.c **** 
1914:Generated_Source\PSoC4/CapSense_Sensing.c ****         /* Switch charge clock source to direct clock mode */
1915:Generated_Source\PSoC4/CapSense_Sensing.c ****         #if (CapSense_ENABLE == CapSense_CSD2X_EN)
1916:Generated_Source\PSoC4/CapSense_Sensing.c ****             CapSense_SsSetCSD0DirectClockMode();
1917:Generated_Source\PSoC4/CapSense_Sensing.c ****             CapSense_SsSetCSD1DirectClockMode();
1918:Generated_Source\PSoC4/CapSense_Sensing.c ****         #else
1919:Generated_Source\PSoC4/CapSense_Sensing.c ****             CapSense_SsSetDirectClockMode();
1920:Generated_Source\PSoC4/CapSense_Sensing.c ****         #endif /* (CapSense_ENABLE == CapSense_CSD2X_EN) */
1921:Generated_Source\PSoC4/CapSense_Sensing.c **** 
1922:Generated_Source\PSoC4/CapSense_Sensing.c **** 
1923:Generated_Source\PSoC4/CapSense_Sensing.c ****         /* Tune sense clock for all widgets */
1924:Generated_Source\PSoC4/CapSense_Sensing.c ****         for (wdgtIndex = 0u; wdgtIndex < CapSense_TOTAL_WIDGETS; wdgtIndex++)
1925:Generated_Source\PSoC4/CapSense_Sensing.c ****         {
1926:Generated_Source\PSoC4/CapSense_Sensing.c ****             if (CapSense_SENSE_METHOD_CSD_E ==
1927:Generated_Source\PSoC4/CapSense_Sensing.c ****                 CapSense_GET_SENSE_METHOD(&CapSense_dsFlash.wdgtArray[wdgtIndex]))
1928:Generated_Source\PSoC4/CapSense_Sensing.c ****             {
1929:Generated_Source\PSoC4/CapSense_Sensing.c ****                 ptrWdgt = (CapSense_RAM_WD_BASE_STRUCT *)
1930:Generated_Source\PSoC4/CapSense_Sensing.c ****                           CapSense_dsFlash.wdgtArray[wdgtIndex].ptr2WdgtRam;
1931:Generated_Source\PSoC4/CapSense_Sensing.c **** 
1932:Generated_Source\PSoC4/CapSense_Sensing.c ****                 #if (CapSense_ENABLE == CapSense_CSD2X_EN)
1933:Generated_Source\PSoC4/CapSense_Sensing.c ****                     csdBlockID = CapSense_dsFlash.wdgtArray[wdgtIndex].csdblk;
1934:Generated_Source\PSoC4/CapSense_Sensing.c **** 
1935:Generated_Source\PSoC4/CapSense_Sensing.c ****                     if (CapSense_CSD0_BLOCK_ID == csdBlockID)
1936:Generated_Source\PSoC4/CapSense_Sensing.c ****                     {
1937:Generated_Source\PSoC4/CapSense_Sensing.c ****                         autoTuneConfig.iDacGain = CapSense_CSD0_IDAC_GAIN_VALUE_NA * CapSense_CSD_D
1938:Generated_Source\PSoC4/CapSense_Sensing.c ****                     }
1939:Generated_Source\PSoC4/CapSense_Sensing.c ****                     else
1940:Generated_Source\PSoC4/CapSense_Sensing.c ****                     {
1941:Generated_Source\PSoC4/CapSense_Sensing.c ****                         autoTuneConfig.iDacGain = CapSense_CSD1_IDAC_GAIN_VALUE_NA * CapSense_CSD_D
1942:Generated_Source\PSoC4/CapSense_Sensing.c ****                     }
1943:Generated_Source\PSoC4/CapSense_Sensing.c ****                 #endif /* (CapSense_ENABLE == CapSense_CSD2X_EN) */
1944:Generated_Source\PSoC4/CapSense_Sensing.c **** 
1945:Generated_Source\PSoC4/CapSense_Sensing.c ****                 /* Set calibration resolution to 12 bits */
1946:Generated_Source\PSoC4/CapSense_Sensing.c ****                 ptrWdgt->resolution = CapSense_CALIBRATION_RESOLUTION;
1947:Generated_Source\PSoC4/CapSense_Sensing.c **** 
1948:Generated_Source\PSoC4/CapSense_Sensing.c ****                 /* Set Sense clock frequency to 1.5 MHz */
1949:Generated_Source\PSoC4/CapSense_Sensing.c ****                 #if (CapSense_ENABLE == CapSense_CSD_COMMON_SNS_CLK_EN)
1950:Generated_Source\PSoC4/CapSense_Sensing.c ****                     CapSense_dsRam.snsCsdClk = (uint8)((uint32)autoTuneConfig.snsClkInputClock /
1951:Generated_Source\PSoC4/CapSense_Sensing.c ****                                                        CapSense_CALIBRATION_FREQ_KHZ);
1952:Generated_Source\PSoC4/CapSense_Sensing.c ****                 #elif (CapSense_CSD_MATRIX_WIDGET_EN | CapSense_CSD_TOUCHPAD_WIDGET_EN)
1953:Generated_Source\PSoC4/CapSense_Sensing.c ****                     if ((CapSense_WD_TOUCHPAD_E == (CapSense_WD_TYPE_ENUM)CapSense_dsFlash.wdgtArra
1954:Generated_Source\PSoC4/CapSense_Sensing.c ****                         (CapSense_WD_MATRIX_BUTTON_E == (CapSense_WD_TYPE_ENUM)CapSense_dsFlash.wdg
1955:Generated_Source\PSoC4/CapSense_Sensing.c ****                     {
1956:Generated_Source\PSoC4/CapSense_Sensing.c ****                         ptrWdgt->rowSnsClk = (uint8)((uint32)autoTuneConfig.snsClkInputClock /
1957:Generated_Source\PSoC4/CapSense_Sensing.c ****                                              CapSense_CALIBRATION_FREQ_KHZ);
1958:Generated_Source\PSoC4/CapSense_Sensing.c ****                     }
1959:Generated_Source\PSoC4/CapSense_Sensing.c ****                     ptrWdgt->snsClk = (uint8)((uint32)autoTuneConfig.snsClkInputClock /
1960:Generated_Source\PSoC4/CapSense_Sensing.c ****                                       CapSense_CALIBRATION_FREQ_KHZ);
1961:Generated_Source\PSoC4/CapSense_Sensing.c ****                 #else
1962:Generated_Source\PSoC4/CapSense_Sensing.c ****                     ptrWdgt->snsClk = (uint8)((uint32)autoTuneConfig.snsClkInputClock /
1963:Generated_Source\PSoC4/CapSense_Sensing.c ****                                       CapSense_CALIBRATION_FREQ_KHZ);
ARM GAS  C:\Users\Jerry\AppData\Local\Temp\ccv40r80.s 			page 46


1964:Generated_Source\PSoC4/CapSense_Sensing.c ****                 #endif /*  (CapSense_ENABLE == CapSense_CSD_COMMON_SNS_CLK_EN) */
1965:Generated_Source\PSoC4/CapSense_Sensing.c **** 
1966:Generated_Source\PSoC4/CapSense_Sensing.c ****                 /* Calibrate CSD widget to 85% */
1967:Generated_Source\PSoC4/CapSense_Sensing.c ****                 #if (CapSense_ENABLE == CapSense_CSD2X_EN)
1968:Generated_Source\PSoC4/CapSense_Sensing.c ****                     (void)CapSense_CSD2XCalibrateWidget(wdgtIndex, CapSense_CSD_AUTOTUNE_CAL_LEVEL)
1969:Generated_Source\PSoC4/CapSense_Sensing.c ****                 #else
1970:Generated_Source\PSoC4/CapSense_Sensing.c ****                     (void)CapSense_CSDCalibrateWidget(wdgtIndex, CapSense_CSD_AUTOTUNE_CAL_LEVEL);
1971:Generated_Source\PSoC4/CapSense_Sensing.c ****                 #endif /* (CapSense_ENABLE == CapSense_CSD2X_EN) */
1972:Generated_Source\PSoC4/CapSense_Sensing.c **** 
1973:Generated_Source\PSoC4/CapSense_Sensing.c ****                 #if (CapSense_CSD_MATRIX_WIDGET_EN | CapSense_CSD_TOUCHPAD_WIDGET_EN)
1974:Generated_Source\PSoC4/CapSense_Sensing.c ****                     if ((CapSense_WD_TOUCHPAD_E == (CapSense_WD_TYPE_ENUM)CapSense_dsFlash.wdgtArra
1975:Generated_Source\PSoC4/CapSense_Sensing.c ****                         (CapSense_WD_MATRIX_BUTTON_E == (CapSense_WD_TYPE_ENUM)CapSense_dsFlash.wdg
1976:Generated_Source\PSoC4/CapSense_Sensing.c ****                     {
1977:Generated_Source\PSoC4/CapSense_Sensing.c ****                         /* Get pointer to Modulator IDAC for columns */
1978:Generated_Source\PSoC4/CapSense_Sensing.c ****                         autoTuneConfig.ptrModIDAC = &ptrWdgt->rowIdacMod[0u];
1979:Generated_Source\PSoC4/CapSense_Sensing.c **** 
1980:Generated_Source\PSoC4/CapSense_Sensing.c ****                         /* Get pointer to Sense Clock Divider for columns */
1981:Generated_Source\PSoC4/CapSense_Sensing.c ****                         autoTuneConfig.ptrSenseClk = &ptrWdgt->rowSnsClk;
1982:Generated_Source\PSoC4/CapSense_Sensing.c **** 
1983:Generated_Source\PSoC4/CapSense_Sensing.c ****                         /* Find correct sense clock value */
1984:Generated_Source\PSoC4/CapSense_Sensing.c ****                         cpRow = SmartSense_TunePrescalers(&autoTuneConfig);
1985:Generated_Source\PSoC4/CapSense_Sensing.c **** 
1986:Generated_Source\PSoC4/CapSense_Sensing.c ****                         if ((CapSense_CP_MAX + CapSense_CP_ERROR) <= cpRow)
1987:Generated_Source\PSoC4/CapSense_Sensing.c ****                         {
1988:Generated_Source\PSoC4/CapSense_Sensing.c ****                             autoTuneStatus = CYRET_BAD_DATA;
1989:Generated_Source\PSoC4/CapSense_Sensing.c ****                         }
1990:Generated_Source\PSoC4/CapSense_Sensing.c **** 
1991:Generated_Source\PSoC4/CapSense_Sensing.c ****                         #if (CapSense_ENABLE == CapSense_CSDV2)
1992:Generated_Source\PSoC4/CapSense_Sensing.c ****                             /* Make sure that ModClk >= 4 * rowSnsClk for ModClk <= 12 MHz and rowS
1993:Generated_Source\PSoC4/CapSense_Sensing.c ****                             if (autoTuneConfig.snsClkInputClock <= CapSense_MOD_CSD_CLK_24000KHZ)
1994:Generated_Source\PSoC4/CapSense_Sensing.c ****                             {
1995:Generated_Source\PSoC4/CapSense_Sensing.c ****                                 if (ptrWdgt->rowSnsClk < CapSense_FACTOR_FILTER_DELAY_12MHZ)
1996:Generated_Source\PSoC4/CapSense_Sensing.c ****                                 {
1997:Generated_Source\PSoC4/CapSense_Sensing.c ****                                     ptrWdgt->rowSnsClk = CapSense_FACTOR_FILTER_DELAY_12MHZ;
1998:Generated_Source\PSoC4/CapSense_Sensing.c ****                                 }
1999:Generated_Source\PSoC4/CapSense_Sensing.c ****                             }
2000:Generated_Source\PSoC4/CapSense_Sensing.c ****                             else if (autoTuneConfig.snsClkInputClock <= CapSense_MOD_CSD_CLK_48000K
2001:Generated_Source\PSoC4/CapSense_Sensing.c ****                             {
2002:Generated_Source\PSoC4/CapSense_Sensing.c ****                                 if (ptrWdgt->rowSnsClk < CapSense_FACTOR_MOD_SNS)
2003:Generated_Source\PSoC4/CapSense_Sensing.c ****                                 {
2004:Generated_Source\PSoC4/CapSense_Sensing.c ****                                     ptrWdgt->rowSnsClk = CapSense_FACTOR_MOD_SNS;
2005:Generated_Source\PSoC4/CapSense_Sensing.c ****                                 }
2006:Generated_Source\PSoC4/CapSense_Sensing.c ****                             }
2007:Generated_Source\PSoC4/CapSense_Sensing.c ****                             else
2008:Generated_Source\PSoC4/CapSense_Sensing.c ****                             {
2009:Generated_Source\PSoC4/CapSense_Sensing.c ****                                 /* rowSnsClk is valid*/
2010:Generated_Source\PSoC4/CapSense_Sensing.c ****                             }
2011:Generated_Source\PSoC4/CapSense_Sensing.c ****                         #else
2012:Generated_Source\PSoC4/CapSense_Sensing.c ****                             #if (CapSense_ENABLE == CapSense_IS_M0S8PERI_BLOCK)
2013:Generated_Source\PSoC4/CapSense_Sensing.c ****                                 /* Make sure that ModClk >= 2 * rowSnsClk */
2014:Generated_Source\PSoC4/CapSense_Sensing.c ****                                 if (CapSense_dsRam.modCsdClk >= ((uint8)(ptrWdgt->rowSnsClk << CapS
2015:Generated_Source\PSoC4/CapSense_Sensing.c ****                                 {
2016:Generated_Source\PSoC4/CapSense_Sensing.c ****                                      ptrWdgt->rowSnsClk = CapSense_dsRam.modCsdClk;
2017:Generated_Source\PSoC4/CapSense_Sensing.c ****                                 }
2018:Generated_Source\PSoC4/CapSense_Sensing.c ****                             #else
2019:Generated_Source\PSoC4/CapSense_Sensing.c ****                                 /* Sense clock never equals to Modulator clock for chained dividers
2020:Generated_Source\PSoC4/CapSense_Sensing.c ****                             #endif /* (CapSense_ENABLE == CapSense_CSDV2) */
ARM GAS  C:\Users\Jerry\AppData\Local\Temp\ccv40r80.s 			page 47


2021:Generated_Source\PSoC4/CapSense_Sensing.c ****                         #endif /* (CapSense_ENABLE == CapSense_CSDV2) */
2022:Generated_Source\PSoC4/CapSense_Sensing.c ****                     }
2023:Generated_Source\PSoC4/CapSense_Sensing.c ****                 #endif /* (CapSense_CSD_MATRIX_WIDGET_EN | CapSense_CSD_TOUCHPAD_WIDGET_EN) */
2024:Generated_Source\PSoC4/CapSense_Sensing.c **** 
2025:Generated_Source\PSoC4/CapSense_Sensing.c ****                 /* Get pointer to Modulator IDAC  for rows */
2026:Generated_Source\PSoC4/CapSense_Sensing.c ****                 autoTuneConfig.ptrModIDAC = &ptrWdgt->idacMod[0u];
2027:Generated_Source\PSoC4/CapSense_Sensing.c **** 
2028:Generated_Source\PSoC4/CapSense_Sensing.c ****                 /* Get pointer to Sense Clock Divider for columns */
2029:Generated_Source\PSoC4/CapSense_Sensing.c ****                 autoTuneConfig.ptrSenseClk = &ptrWdgt->snsClk;
2030:Generated_Source\PSoC4/CapSense_Sensing.c **** 
2031:Generated_Source\PSoC4/CapSense_Sensing.c ****                 /* Find correct sense clock value */
2032:Generated_Source\PSoC4/CapSense_Sensing.c ****                 cp = SmartSense_TunePrescalers(&autoTuneConfig);
2033:Generated_Source\PSoC4/CapSense_Sensing.c **** 
2034:Generated_Source\PSoC4/CapSense_Sensing.c ****                 if ((CapSense_CP_MAX + CapSense_CP_ERROR) <= cp)
2035:Generated_Source\PSoC4/CapSense_Sensing.c ****                 {
2036:Generated_Source\PSoC4/CapSense_Sensing.c ****                     autoTuneStatus = CYRET_BAD_DATA;
2037:Generated_Source\PSoC4/CapSense_Sensing.c ****                 }
2038:Generated_Source\PSoC4/CapSense_Sensing.c **** 
2039:Generated_Source\PSoC4/CapSense_Sensing.c ****                 #if (CapSense_ENABLE == CapSense_CSDV2)
2040:Generated_Source\PSoC4/CapSense_Sensing.c ****                     /* Make sure that ModClk >= 4 * SnsClk for ModClk <= 12 MHz and SnsClk <= 6MHz 
2041:Generated_Source\PSoC4/CapSense_Sensing.c ****                     if (autoTuneConfig.snsClkInputClock <= CapSense_MOD_CSD_CLK_24000KHZ)
2042:Generated_Source\PSoC4/CapSense_Sensing.c ****                     {
2043:Generated_Source\PSoC4/CapSense_Sensing.c ****                         if (ptrWdgt->snsClk < CapSense_FACTOR_FILTER_DELAY_12MHZ)
2044:Generated_Source\PSoC4/CapSense_Sensing.c ****                         {
2045:Generated_Source\PSoC4/CapSense_Sensing.c ****                             ptrWdgt->snsClk = CapSense_FACTOR_FILTER_DELAY_12MHZ;
2046:Generated_Source\PSoC4/CapSense_Sensing.c ****                         }
2047:Generated_Source\PSoC4/CapSense_Sensing.c ****                     }
2048:Generated_Source\PSoC4/CapSense_Sensing.c ****                     else if (autoTuneConfig.snsClkInputClock <= CapSense_MOD_CSD_CLK_48000KHZ)
2049:Generated_Source\PSoC4/CapSense_Sensing.c ****                     {
2050:Generated_Source\PSoC4/CapSense_Sensing.c ****                         if (ptrWdgt->snsClk < CapSense_FACTOR_MOD_SNS)
2051:Generated_Source\PSoC4/CapSense_Sensing.c ****                         {
2052:Generated_Source\PSoC4/CapSense_Sensing.c ****                             ptrWdgt->snsClk = CapSense_FACTOR_MOD_SNS;
2053:Generated_Source\PSoC4/CapSense_Sensing.c ****                         }
2054:Generated_Source\PSoC4/CapSense_Sensing.c ****                     }
2055:Generated_Source\PSoC4/CapSense_Sensing.c ****                     else
2056:Generated_Source\PSoC4/CapSense_Sensing.c ****                     {
2057:Generated_Source\PSoC4/CapSense_Sensing.c ****                         /* SnsClk is valid*/
2058:Generated_Source\PSoC4/CapSense_Sensing.c ****                     }
2059:Generated_Source\PSoC4/CapSense_Sensing.c ****                 #else
2060:Generated_Source\PSoC4/CapSense_Sensing.c ****                     #if (CapSense_ENABLE == CapSense_IS_M0S8PERI_BLOCK)
2061:Generated_Source\PSoC4/CapSense_Sensing.c ****                         /* Make sure that ModClk >= 2 * snsClk */
2062:Generated_Source\PSoC4/CapSense_Sensing.c ****                         if (CapSense_dsRam.modCsdClk >= ((uint8)(ptrWdgt->snsClk << CapSense_FLIP_F
2063:Generated_Source\PSoC4/CapSense_Sensing.c ****                         {
2064:Generated_Source\PSoC4/CapSense_Sensing.c ****                              ptrWdgt->snsClk = CapSense_dsRam.modCsdClk;
2065:Generated_Source\PSoC4/CapSense_Sensing.c ****                         }
2066:Generated_Source\PSoC4/CapSense_Sensing.c ****                     #else
2067:Generated_Source\PSoC4/CapSense_Sensing.c ****                         /* Sense clock never equals to Modulator clock for chained dividers because
2068:Generated_Source\PSoC4/CapSense_Sensing.c ****                     #endif /* (CapSense_ENABLE == CapSense_CSDV2) */
2069:Generated_Source\PSoC4/CapSense_Sensing.c ****                 #endif /* (CapSense_ENABLE == CapSense_CSDV2) */
2070:Generated_Source\PSoC4/CapSense_Sensing.c ****             }
2071:Generated_Source\PSoC4/CapSense_Sensing.c ****         }
2072:Generated_Source\PSoC4/CapSense_Sensing.c **** 
2073:Generated_Source\PSoC4/CapSense_Sensing.c ****         #if (CapSense_ENABLE == CapSense_CSD2X_EN)
2074:Generated_Source\PSoC4/CapSense_Sensing.c ****             CapSense_SsSetEqualSlotClock();
2075:Generated_Source\PSoC4/CapSense_Sensing.c ****         #endif /* (CapSense_ENABLE == CapSense_CSD2X_EN) */
2076:Generated_Source\PSoC4/CapSense_Sensing.c **** 
2077:Generated_Source\PSoC4/CapSense_Sensing.c ****         /* Set flag to indicate that calibration in PWM mode has been performed */
ARM GAS  C:\Users\Jerry\AppData\Local\Temp\ccv40r80.s 			page 48


2078:Generated_Source\PSoC4/CapSense_Sensing.c ****         CapSense_prescalersTuningDone = 1u;
2079:Generated_Source\PSoC4/CapSense_Sensing.c **** 
2080:Generated_Source\PSoC4/CapSense_Sensing.c ****         /* Multiply Clk divider to 2 for PRS mode to take into account average PRS frequency */
2081:Generated_Source\PSoC4/CapSense_Sensing.c ****         autoTuneConfig.prsFactor = CapSense_PRS_FACTOR_DIV;
2082:Generated_Source\PSoC4/CapSense_Sensing.c **** 
2083:Generated_Source\PSoC4/CapSense_Sensing.c ****         /* Tune sensitivity and resolution for all widgets */
2084:Generated_Source\PSoC4/CapSense_Sensing.c ****         for (wdgtIndex = 0u; wdgtIndex < CapSense_TOTAL_WIDGETS; wdgtIndex++)
2085:Generated_Source\PSoC4/CapSense_Sensing.c ****         {
2086:Generated_Source\PSoC4/CapSense_Sensing.c ****             if (CapSense_SENSE_METHOD_CSD_E ==
2087:Generated_Source\PSoC4/CapSense_Sensing.c ****                 CapSense_GET_SENSE_METHOD(&CapSense_dsFlash.wdgtArray[wdgtIndex]))
2088:Generated_Source\PSoC4/CapSense_Sensing.c ****             {
2089:Generated_Source\PSoC4/CapSense_Sensing.c ****                 ptrWdgt = (CapSense_RAM_WD_BASE_STRUCT *)
2090:Generated_Source\PSoC4/CapSense_Sensing.c ****                           CapSense_dsFlash.wdgtArray[wdgtIndex].ptr2WdgtRam;
2091:Generated_Source\PSoC4/CapSense_Sensing.c **** 
2092:Generated_Source\PSoC4/CapSense_Sensing.c ****                 /* Get pointer to Modulator IDAC for rows */
2093:Generated_Source\PSoC4/CapSense_Sensing.c ****                 autoTuneConfig.ptrModIDAC = &ptrWdgt->idacMod[0u];
2094:Generated_Source\PSoC4/CapSense_Sensing.c **** 
2095:Generated_Source\PSoC4/CapSense_Sensing.c ****                 /* Get pointer to maximum Sense Clock Divider (column or row) */
2096:Generated_Source\PSoC4/CapSense_Sensing.c ****                 autoTuneConfig.ptrSenseClk = &ptrWdgt->snsClk;
2097:Generated_Source\PSoC4/CapSense_Sensing.c **** 
2098:Generated_Source\PSoC4/CapSense_Sensing.c ****                 /* Set parasitic capacitance for columns */
2099:Generated_Source\PSoC4/CapSense_Sensing.c ****                 autoTuneConfig.sensorCap = cp;
2100:Generated_Source\PSoC4/CapSense_Sensing.c **** 
2101:Generated_Source\PSoC4/CapSense_Sensing.c ****                 #if (CapSense_CSD_MATRIX_WIDGET_EN | CapSense_CSD_TOUCHPAD_WIDGET_EN)
2102:Generated_Source\PSoC4/CapSense_Sensing.c ****                     if ((CapSense_WD_TOUCHPAD_E == (CapSense_WD_TYPE_ENUM)CapSense_dsFlash.wdgtArra
2103:Generated_Source\PSoC4/CapSense_Sensing.c ****                         (CapSense_WD_MATRIX_BUTTON_E == (CapSense_WD_TYPE_ENUM)CapSense_dsFlash.wdg
2104:Generated_Source\PSoC4/CapSense_Sensing.c **** 
2105:Generated_Source\PSoC4/CapSense_Sensing.c ****                     {
2106:Generated_Source\PSoC4/CapSense_Sensing.c ****                         /* Set the minimum sense clock frequency to calculate the resolution */
2107:Generated_Source\PSoC4/CapSense_Sensing.c ****                         if (ptrWdgt->snsClk < ptrWdgt->rowSnsClk)
2108:Generated_Source\PSoC4/CapSense_Sensing.c ****                         {
2109:Generated_Source\PSoC4/CapSense_Sensing.c ****                             /* Rewrite pointer to Sense Clock Divider for rows */
2110:Generated_Source\PSoC4/CapSense_Sensing.c ****                             autoTuneConfig.ptrSenseClk = &ptrWdgt->rowSnsClk;
2111:Generated_Source\PSoC4/CapSense_Sensing.c **** 
2112:Generated_Source\PSoC4/CapSense_Sensing.c ****                             /* Set parasitic capacitance for rows */
2113:Generated_Source\PSoC4/CapSense_Sensing.c ****                             autoTuneConfig.sensorCap = cpRow;
2114:Generated_Source\PSoC4/CapSense_Sensing.c ****                         }
2115:Generated_Source\PSoC4/CapSense_Sensing.c ****                     }
2116:Generated_Source\PSoC4/CapSense_Sensing.c ****                 #endif /* (CapSense_CSD_MATRIX_WIDGET_EN | CapSense_CSD_TOUCHPAD_WIDGET_EN) */
2117:Generated_Source\PSoC4/CapSense_Sensing.c **** 
2118:Generated_Source\PSoC4/CapSense_Sensing.c ****                 /* Get finger capacitance */
2119:Generated_Source\PSoC4/CapSense_Sensing.c ****                 autoTuneConfig.fingerCap = ptrWdgt->fingerCap;
2120:Generated_Source\PSoC4/CapSense_Sensing.c **** 
2121:Generated_Source\PSoC4/CapSense_Sensing.c ****                 /* Init pointer to sigPFC */
2122:Generated_Source\PSoC4/CapSense_Sensing.c ****                 autoTuneConfig.sigPFC = &ptrWdgt->sigPFC;
2123:Generated_Source\PSoC4/CapSense_Sensing.c **** 
2124:Generated_Source\PSoC4/CapSense_Sensing.c ****                 #if (CapSense_CLK_SOURCE_PRSAUTO == CapSense_CSD_SNS_CLK_SOURCE)
2125:Generated_Source\PSoC4/CapSense_Sensing.c ****                     CapSense_SsSetWidgetSenseClkSrc(wdgtIndex, ptrWdgt);
2126:Generated_Source\PSoC4/CapSense_Sensing.c ****                 #endif /* (CapSense_CLK_SOURCE_PRSAUTO == CapSense_CSD_SNS_CLK_SOURCE) */
2127:Generated_Source\PSoC4/CapSense_Sensing.c **** 
2128:Generated_Source\PSoC4/CapSense_Sensing.c ****                 /* Calibrate CSD widget to 85% */
2129:Generated_Source\PSoC4/CapSense_Sensing.c ****                 #if (CapSense_ENABLE == CapSense_CSD2X_EN)
2130:Generated_Source\PSoC4/CapSense_Sensing.c ****                     autoTuneStatus |=CapSense_CSD2XCalibrateWidget(wdgtIndex, CapSense_CSD_AUTOTUNE
2131:Generated_Source\PSoC4/CapSense_Sensing.c ****                 #else
2132:Generated_Source\PSoC4/CapSense_Sensing.c ****                     autoTuneStatus |= CapSense_CSDCalibrateWidget(wdgtIndex, CapSense_CSD_AUTOTUNE_
2133:Generated_Source\PSoC4/CapSense_Sensing.c ****                 #endif /* (CapSense_ENABLE == CapSense_CSD2X_EN) */
2134:Generated_Source\PSoC4/CapSense_Sensing.c **** 
ARM GAS  C:\Users\Jerry\AppData\Local\Temp\ccv40r80.s 			page 49


2135:Generated_Source\PSoC4/CapSense_Sensing.c ****                 /* Find resolution */
2136:Generated_Source\PSoC4/CapSense_Sensing.c ****                 ptrWdgt->resolution = SmartSense_TuneSensitivity(&autoTuneConfig);
2137:Generated_Source\PSoC4/CapSense_Sensing.c **** 
2138:Generated_Source\PSoC4/CapSense_Sensing.c ****                 #if (CapSense_CLK_SOURCE_PRSAUTO == CapSense_CSD_SNS_CLK_SOURCE)
2139:Generated_Source\PSoC4/CapSense_Sensing.c ****                     CapSense_SsSetWidgetSenseClkSrc(wdgtIndex, ptrWdgt);
2140:Generated_Source\PSoC4/CapSense_Sensing.c **** 
2141:Generated_Source\PSoC4/CapSense_Sensing.c ****                     #if (CapSense_CSD_MATRIX_WIDGET_EN | CapSense_CSD_TOUCHPAD_WIDGET_EN)
2142:Generated_Source\PSoC4/CapSense_Sensing.c ****                         if (((uint8)CapSense_CLK_SOURCE_DIRECT == ptrWdgt->snsClkSource) ||
2143:Generated_Source\PSoC4/CapSense_Sensing.c ****                             ((uint8)CapSense_CLK_SOURCE_DIRECT == ptrWdgt->rowSnsClkSource))
2144:Generated_Source\PSoC4/CapSense_Sensing.c ****                         {
2145:Generated_Source\PSoC4/CapSense_Sensing.c ****                             /* Recalibrate CSD widget to 85% because source is changed to direct */
2146:Generated_Source\PSoC4/CapSense_Sensing.c ****                             #if (CapSense_ENABLE == CapSense_CSD2X_EN)
2147:Generated_Source\PSoC4/CapSense_Sensing.c ****                                 autoTuneStatus |= CapSense_CSD2XCalibrateWidget(wdgtIndex, CapSense
2148:Generated_Source\PSoC4/CapSense_Sensing.c ****                             #else
2149:Generated_Source\PSoC4/CapSense_Sensing.c ****                                 autoTuneStatus |= CapSense_CSDCalibrateWidget(wdgtIndex, CapSense_C
2150:Generated_Source\PSoC4/CapSense_Sensing.c ****                             #endif /* (CapSense_ENABLE == CapSense_CSD2X_EN) */
2151:Generated_Source\PSoC4/CapSense_Sensing.c ****                         }
2152:Generated_Source\PSoC4/CapSense_Sensing.c ****                     #else
2153:Generated_Source\PSoC4/CapSense_Sensing.c ****                         if ((uint8)CapSense_CLK_SOURCE_DIRECT == ptrWdgt->snsClkSource)
2154:Generated_Source\PSoC4/CapSense_Sensing.c ****                         {
2155:Generated_Source\PSoC4/CapSense_Sensing.c ****                             /* Recalibrate CSD widget to 85% because source is changed to direct */
2156:Generated_Source\PSoC4/CapSense_Sensing.c ****                             #if (CapSense_ENABLE == CapSense_CSD2X_EN)
2157:Generated_Source\PSoC4/CapSense_Sensing.c ****                                 autoTuneStatus |= CapSense_CSD2XCalibrateWidget(wdgtIndex, CapSense
2158:Generated_Source\PSoC4/CapSense_Sensing.c ****                             #else
2159:Generated_Source\PSoC4/CapSense_Sensing.c ****                                 autoTuneStatus |= CapSense_CSDCalibrateWidget(wdgtIndex, CapSense_C
2160:Generated_Source\PSoC4/CapSense_Sensing.c ****                             #endif /* (CapSense_ENABLE == CapSense_CSD2X_EN) */
2161:Generated_Source\PSoC4/CapSense_Sensing.c ****                         }
2162:Generated_Source\PSoC4/CapSense_Sensing.c ****                     #endif /* (CapSense_CSD_MATRIX_WIDGET_EN | CapSense_CSD_TOUCHPAD_WIDGET_EN) */
2163:Generated_Source\PSoC4/CapSense_Sensing.c ****                 #endif /* (CapSense_CLK_SOURCE_PRSAUTO == CapSense_CSD_SNS_CLK_SOURCE) */
2164:Generated_Source\PSoC4/CapSense_Sensing.c ****                 
2165:Generated_Source\PSoC4/CapSense_Sensing.c ****                 #if (CapSense_ENABLE == CapSense_TST_WDGT_CRC_EN)
2166:Generated_Source\PSoC4/CapSense_Sensing.c ****                     CapSense_DsUpdateWidgetCrc(wdgtIndex);
2167:Generated_Source\PSoC4/CapSense_Sensing.c ****                 #endif /* (CapSense_ENABLE == CapSense_TST_WDGT_CRC_EN) */
2168:Generated_Source\PSoC4/CapSense_Sensing.c ****             }
2169:Generated_Source\PSoC4/CapSense_Sensing.c ****         }
2170:Generated_Source\PSoC4/CapSense_Sensing.c **** 
2171:Generated_Source\PSoC4/CapSense_Sensing.c ****         return autoTuneStatus;
2172:Generated_Source\PSoC4/CapSense_Sensing.c ****     }
2173:Generated_Source\PSoC4/CapSense_Sensing.c **** #endif /* (CapSense_CSD_SS_DIS != CapSense_CSD_AUTOTUNE)) */
2174:Generated_Source\PSoC4/CapSense_Sensing.c **** 
2175:Generated_Source\PSoC4/CapSense_Sensing.c **** 
2176:Generated_Source\PSoC4/CapSense_Sensing.c **** #if (CapSense_DISABLE == CapSense_CSDV2)
2177:Generated_Source\PSoC4/CapSense_Sensing.c ****     #if ((CapSense_ENABLE == CapSense_CSX_EN) || \
2178:Generated_Source\PSoC4/CapSense_Sensing.c ****          (CapSense_IDAC_SINKING == CapSense_CSD_IDAC_CONFIG))
2179:Generated_Source\PSoC4/CapSense_Sensing.c ****         /*******************************************************************************
2180:Generated_Source\PSoC4/CapSense_Sensing.c ****         * Function Name: CapSense_SsTrimIdacsSinking
2181:Generated_Source\PSoC4/CapSense_Sensing.c ****         ****************************************************************************//**
2182:Generated_Source\PSoC4/CapSense_Sensing.c ****         *
2183:Generated_Source\PSoC4/CapSense_Sensing.c ****         * \brief
2184:Generated_Source\PSoC4/CapSense_Sensing.c ****         *  This function loads trim values from SFLASH rows to calibrate
2185:Generated_Source\PSoC4/CapSense_Sensing.c ****         *  IDAC1 and IDAC2 for Sinking CSD Mode
2186:Generated_Source\PSoC4/CapSense_Sensing.c ****         *
2187:Generated_Source\PSoC4/CapSense_Sensing.c ****         * \details
2188:Generated_Source\PSoC4/CapSense_Sensing.c ****         *  Function reads trim value from SFLASH and loads it into IDAC trim register.
2189:Generated_Source\PSoC4/CapSense_Sensing.c ****         *  If Compensation IDAC is disabled the function loads trim values for IDAC1 only.
2190:Generated_Source\PSoC4/CapSense_Sensing.c ****         *
2191:Generated_Source\PSoC4/CapSense_Sensing.c ****         *******************************************************************************/
ARM GAS  C:\Users\Jerry\AppData\Local\Temp\ccv40r80.s 			page 50


2192:Generated_Source\PSoC4/CapSense_Sensing.c ****         static void CapSense_SsTrimIdacsSinking(void)
2193:Generated_Source\PSoC4/CapSense_Sensing.c ****         {
2194:Generated_Source\PSoC4/CapSense_Sensing.c ****             uint32 trimValue;
2195:Generated_Source\PSoC4/CapSense_Sensing.c **** 
2196:Generated_Source\PSoC4/CapSense_Sensing.c ****             #if (CapSense_ENABLE == CapSense_CSD2X_EN)
2197:Generated_Source\PSoC4/CapSense_Sensing.c **** 
2198:Generated_Source\PSoC4/CapSense_Sensing.c ****                 /* iDAC0 Sinking Mode */
2199:Generated_Source\PSoC4/CapSense_Sensing.c ****                 trimValue = CY_GET_REG32(CapSense_CSD0_TRIM2_PTR) & ~CapSense_IDAC_TRIM2_MOD_SNK_MA
2200:Generated_Source\PSoC4/CapSense_Sensing.c ****                 trimValue |= ((uint32)CY_GET_REG8(CapSense_CSD0_SFLASH_TRIM2_PTR) &
2201:Generated_Source\PSoC4/CapSense_Sensing.c ****                                                           CapSense_SFLASH_TRIM_IDAC_MOD_MASK) ;
2202:Generated_Source\PSoC4/CapSense_Sensing.c **** 
2203:Generated_Source\PSoC4/CapSense_Sensing.c ****                 #if (CapSense_ENABLE == CapSense_CSD_IDAC_COMP_EN)
2204:Generated_Source\PSoC4/CapSense_Sensing.c ****                     /* iDAC1 Sinking Mode */
2205:Generated_Source\PSoC4/CapSense_Sensing.c ****                     trimValue &= ~CapSense_IDAC_TRIM2_COMP_SNK_MASK;
2206:Generated_Source\PSoC4/CapSense_Sensing.c ****                     trimValue |= ((uint32)CY_GET_REG8(CapSense_CSD0_SFLASH_TRIM2_PTR) &
2207:Generated_Source\PSoC4/CapSense_Sensing.c ****                                                               CapSense_SFLASH_TRIM_IDAC_COMP_MASK);
2208:Generated_Source\PSoC4/CapSense_Sensing.c ****                 #endif /* (CapSense_ENABLE == CapSense_CSD_IDAC_COMP_EN) */
2209:Generated_Source\PSoC4/CapSense_Sensing.c **** 
2210:Generated_Source\PSoC4/CapSense_Sensing.c ****                 /* Update IDAC trim bits for gain control in current sink mode */
2211:Generated_Source\PSoC4/CapSense_Sensing.c ****                 CY_SET_REG32(CapSense_CSD0_TRIM2_PTR, trimValue);
2212:Generated_Source\PSoC4/CapSense_Sensing.c **** 
2213:Generated_Source\PSoC4/CapSense_Sensing.c ****                 /* iDAC2 Sinking Mode */
2214:Generated_Source\PSoC4/CapSense_Sensing.c ****                 trimValue = CY_GET_REG32(CapSense_CSD1_TRIM2_PTR) & ~CapSense_IDAC_TRIM2_MOD_SNK_MA
2215:Generated_Source\PSoC4/CapSense_Sensing.c ****                 trimValue |= ((uint32)CY_GET_REG8(CapSense_CSD1_SFLASH_TRIM2_PTR) &
2216:Generated_Source\PSoC4/CapSense_Sensing.c ****                                                           CapSense_SFLASH_TRIM_IDAC_MOD_MASK) ;
2217:Generated_Source\PSoC4/CapSense_Sensing.c **** 
2218:Generated_Source\PSoC4/CapSense_Sensing.c ****                 #if (CapSense_ENABLE == CapSense_CSD_IDAC_COMP_EN)
2219:Generated_Source\PSoC4/CapSense_Sensing.c ****                     /* iDAC3 Sinking Mode */
2220:Generated_Source\PSoC4/CapSense_Sensing.c ****                     trimValue &= ~CapSense_IDAC_TRIM2_COMP_SNK_MASK;
2221:Generated_Source\PSoC4/CapSense_Sensing.c ****                     trimValue |= ((uint32)CY_GET_REG8(CapSense_CSD1_SFLASH_TRIM2_PTR) &
2222:Generated_Source\PSoC4/CapSense_Sensing.c ****                                                               CapSense_SFLASH_TRIM_IDAC_COMP_MASK);
2223:Generated_Source\PSoC4/CapSense_Sensing.c ****                 #endif /* (CapSense_ENABLE == CapSense_CSD_IDAC_COMP_EN) */
2224:Generated_Source\PSoC4/CapSense_Sensing.c **** 
2225:Generated_Source\PSoC4/CapSense_Sensing.c ****                 /* Update IDAC trim bits for gain control in current sink mode */
2226:Generated_Source\PSoC4/CapSense_Sensing.c ****                 CY_SET_REG32(CapSense_CSD1_TRIM2_PTR, trimValue);
2227:Generated_Source\PSoC4/CapSense_Sensing.c **** 
2228:Generated_Source\PSoC4/CapSense_Sensing.c ****             #else
2229:Generated_Source\PSoC4/CapSense_Sensing.c **** 
2230:Generated_Source\PSoC4/CapSense_Sensing.c ****                 /* Mod iDAC Sinking Mode */
2231:Generated_Source\PSoC4/CapSense_Sensing.c ****                 trimValue = CY_GET_REG32(CapSense_TRIM2_PTR) & ~CapSense_IDAC_TRIM2_MOD_SNK_MASK;
2232:Generated_Source\PSoC4/CapSense_Sensing.c ****                 trimValue |= ((uint32)CY_GET_REG8(CapSense_SFLASH_TRIM2_PTR) &
2233:Generated_Source\PSoC4/CapSense_Sensing.c ****                                                           CapSense_SFLASH_TRIM_IDAC_MOD_MASK) ;
2234:Generated_Source\PSoC4/CapSense_Sensing.c **** 
2235:Generated_Source\PSoC4/CapSense_Sensing.c ****                 #if (CapSense_ENABLE == CapSense_CSD_IDAC_COMP_EN)
2236:Generated_Source\PSoC4/CapSense_Sensing.c ****                     /* Comp iDAC Sinking Mode */
2237:Generated_Source\PSoC4/CapSense_Sensing.c ****                     trimValue &= ~CapSense_IDAC_TRIM2_COMP_SNK_MASK;
2238:Generated_Source\PSoC4/CapSense_Sensing.c ****                     trimValue |= ((uint32)CY_GET_REG8(CapSense_SFLASH_TRIM2_PTR) &
2239:Generated_Source\PSoC4/CapSense_Sensing.c ****                                                               CapSense_SFLASH_TRIM_IDAC_COMP_MASK);
2240:Generated_Source\PSoC4/CapSense_Sensing.c ****                 #endif /* (CapSense_ENABLE == CapSense_CSD_IDAC_COMP_EN) */
2241:Generated_Source\PSoC4/CapSense_Sensing.c **** 
2242:Generated_Source\PSoC4/CapSense_Sensing.c ****                 /* Update IDAC trim bits for gain control in current sink mode */
2243:Generated_Source\PSoC4/CapSense_Sensing.c ****                 CY_SET_REG32(CapSense_TRIM2_PTR, trimValue);
2244:Generated_Source\PSoC4/CapSense_Sensing.c **** 
2245:Generated_Source\PSoC4/CapSense_Sensing.c ****             #endif /* (CapSense_ENABLE == CapSense_CSD2X_EN)) */
2246:Generated_Source\PSoC4/CapSense_Sensing.c ****         }
2247:Generated_Source\PSoC4/CapSense_Sensing.c ****     #endif /* ((CapSense_ENABLE == CapSense_CSX_EN) || \
2248:Generated_Source\PSoC4/CapSense_Sensing.c ****                (CapSense_IDAC_SINKING == CapSense_CSD_IDAC_CONFIG)) */
ARM GAS  C:\Users\Jerry\AppData\Local\Temp\ccv40r80.s 			page 51


2249:Generated_Source\PSoC4/CapSense_Sensing.c **** 
2250:Generated_Source\PSoC4/CapSense_Sensing.c **** 
2251:Generated_Source\PSoC4/CapSense_Sensing.c ****     #if ((CapSense_ENABLE == CapSense_CSX_EN) || \
2252:Generated_Source\PSoC4/CapSense_Sensing.c ****          (CapSense_IDAC_SOURCING == CapSense_CSD_IDAC_CONFIG))
2253:Generated_Source\PSoC4/CapSense_Sensing.c ****         /*******************************************************************************
2254:Generated_Source\PSoC4/CapSense_Sensing.c ****         * Function Name: CapSense_SsTrimIdacsSourcing
2255:Generated_Source\PSoC4/CapSense_Sensing.c ****         ****************************************************************************//**
2256:Generated_Source\PSoC4/CapSense_Sensing.c ****         *
2257:Generated_Source\PSoC4/CapSense_Sensing.c ****         * \brief
2258:Generated_Source\PSoC4/CapSense_Sensing.c ****         *  This function loads trim values from SFLASH rows to calibrate
2259:Generated_Source\PSoC4/CapSense_Sensing.c ****         *  IDAC1 and IDAC2 for Sourcing CSD Mode
2260:Generated_Source\PSoC4/CapSense_Sensing.c ****         *
2261:Generated_Source\PSoC4/CapSense_Sensing.c ****         * \details
2262:Generated_Source\PSoC4/CapSense_Sensing.c ****         *  Function reads trim value from SFLASH and loads it into IDAC trim register.
2263:Generated_Source\PSoC4/CapSense_Sensing.c ****         *  If Compensation IDAC is disabled the function loads trim values for IDAC1 only.
2264:Generated_Source\PSoC4/CapSense_Sensing.c ****         *
2265:Generated_Source\PSoC4/CapSense_Sensing.c ****         *******************************************************************************/
2266:Generated_Source\PSoC4/CapSense_Sensing.c ****         static void CapSense_SsTrimIdacsSourcing(void)
2267:Generated_Source\PSoC4/CapSense_Sensing.c ****         {
2268:Generated_Source\PSoC4/CapSense_Sensing.c ****             uint32 trimValue;
2269:Generated_Source\PSoC4/CapSense_Sensing.c **** 
2270:Generated_Source\PSoC4/CapSense_Sensing.c ****             #if (CapSense_ENABLE == CapSense_CSD2X_EN)
2271:Generated_Source\PSoC4/CapSense_Sensing.c **** 
2272:Generated_Source\PSoC4/CapSense_Sensing.c ****                 /* iDAC0 Sourcing Mode */
2273:Generated_Source\PSoC4/CapSense_Sensing.c ****                 trimValue = CY_GET_REG32(CapSense_CSD0_TRIM1_PTR) & ~CapSense_IDAC_TRIM1_MOD_SRC_MA
2274:Generated_Source\PSoC4/CapSense_Sensing.c ****                 trimValue |= ((uint32)CY_GET_REG8(CapSense_CSD0_SFLASH_TRIM1_PTR) &
2275:Generated_Source\PSoC4/CapSense_Sensing.c ****                                                           CapSense_SFLASH_TRIM_IDAC_MOD_MASK);
2276:Generated_Source\PSoC4/CapSense_Sensing.c **** 
2277:Generated_Source\PSoC4/CapSense_Sensing.c ****                 #if (CapSense_ENABLE == CapSense_CSD_IDAC_COMP_EN)
2278:Generated_Source\PSoC4/CapSense_Sensing.c ****                      /* iDAC1 Sourcing Mode */
2279:Generated_Source\PSoC4/CapSense_Sensing.c ****                     trimValue &= ~CapSense_IDAC_TRIM1_COMP_SRC_MASK;
2280:Generated_Source\PSoC4/CapSense_Sensing.c ****                     trimValue |= ((uint32)CY_GET_REG8(CapSense_CSD0_SFLASH_TRIM1_PTR) &
2281:Generated_Source\PSoC4/CapSense_Sensing.c ****                                                               CapSense_SFLASH_TRIM_IDAC_COMP_MASK);
2282:Generated_Source\PSoC4/CapSense_Sensing.c ****                 #endif /* (CapSense_ENABLE == CapSense_CSD_IDAC_COMP_EN) */
2283:Generated_Source\PSoC4/CapSense_Sensing.c **** 
2284:Generated_Source\PSoC4/CapSense_Sensing.c ****                 /* Update IDAC trim bits for gain control in current source mode */
2285:Generated_Source\PSoC4/CapSense_Sensing.c ****                 CY_SET_REG32(CapSense_CSD0_TRIM1_PTR, trimValue);
2286:Generated_Source\PSoC4/CapSense_Sensing.c **** 
2287:Generated_Source\PSoC4/CapSense_Sensing.c ****                 /* iDAC2 Sourcing Mode */
2288:Generated_Source\PSoC4/CapSense_Sensing.c ****                 trimValue = CY_GET_REG32(CapSense_CSD1_TRIM1_PTR) & ~CapSense_IDAC_TRIM1_MOD_SRC_MA
2289:Generated_Source\PSoC4/CapSense_Sensing.c ****                 trimValue |= ((uint32)CY_GET_REG8(CapSense_CSD1_SFLASH_TRIM1_PTR) &
2290:Generated_Source\PSoC4/CapSense_Sensing.c ****                                                           CapSense_SFLASH_TRIM_IDAC_MOD_MASK);
2291:Generated_Source\PSoC4/CapSense_Sensing.c **** 
2292:Generated_Source\PSoC4/CapSense_Sensing.c ****                 #if (CapSense_ENABLE == CapSense_CSD_IDAC_COMP_EN)
2293:Generated_Source\PSoC4/CapSense_Sensing.c ****                      /* iDAC3 Sourcing Mode */
2294:Generated_Source\PSoC4/CapSense_Sensing.c ****                     trimValue &= ~CapSense_IDAC_TRIM1_COMP_SRC_MASK;
2295:Generated_Source\PSoC4/CapSense_Sensing.c ****                     trimValue |= ((uint32)CY_GET_REG8(CapSense_CSD1_SFLASH_TRIM1_PTR) &
