ARM GAS  C:\Users\Jerry\AppData\Local\Temp\cc2mbs0O.s 			page 1


   1              		.cpu cortex-m0plus
   2              		.fpu softvfp
   3              		.eabi_attribute 20, 1
   4              		.eabi_attribute 21, 1
   5              		.eabi_attribute 23, 3
   6              		.eabi_attribute 24, 1
   7              		.eabi_attribute 25, 1
   8              		.eabi_attribute 26, 1
   9              		.eabi_attribute 30, 4
  10              		.eabi_attribute 34, 0
  11              		.eabi_attribute 18, 4
  12              		.code	16
  13              		.file	"CapSense_SensingCSD_LL.c"
  14              		.text
  15              	.Ltext0:
  16              		.cfi_sections	.debug_frame
  17              		.section	.text.CapSense_SsCSDSetModeSnsClockDivider,"ax",%progbits
  18              		.align	1
  19              		.global	CapSense_SsCSDSetModeSnsClockDivider
  20              		.code	16
  21              		.thumb_func
  22              		.type	CapSense_SsCSDSetModeSnsClockDivider, %function
  23              	CapSense_SsCSDSetModeSnsClockDivider:
  24              	.LFB1:
  25              		.file 1 "Generated_Source\\PSoC4\\CapSense_SensingCSD_LL.c"
   1:Generated_Source\PSoC4/CapSense_SensingCSD_LL.c **** /***************************************************************************//**
   2:Generated_Source\PSoC4/CapSense_SensingCSD_LL.c **** * \file CapSense_SensingCSD_LL.c
   3:Generated_Source\PSoC4/CapSense_SensingCSD_LL.c **** * \version 3.10
   4:Generated_Source\PSoC4/CapSense_SensingCSD_LL.c **** *
   5:Generated_Source\PSoC4/CapSense_SensingCSD_LL.c **** * \brief
   6:Generated_Source\PSoC4/CapSense_SensingCSD_LL.c **** *   This file defines the data structure global variables and provides
   7:Generated_Source\PSoC4/CapSense_SensingCSD_LL.c **** *   implementation for the low-level APIs of the CSD part of
   8:Generated_Source\PSoC4/CapSense_SensingCSD_LL.c **** *   the Sensing module. The file contains the APIs used for the CSD block
   9:Generated_Source\PSoC4/CapSense_SensingCSD_LL.c **** *   initialization, calibration, and scanning.
  10:Generated_Source\PSoC4/CapSense_SensingCSD_LL.c **** *
  11:Generated_Source\PSoC4/CapSense_SensingCSD_LL.c **** * \see CapSense P4 v3.10 Datasheet
  12:Generated_Source\PSoC4/CapSense_SensingCSD_LL.c **** *
  13:Generated_Source\PSoC4/CapSense_SensingCSD_LL.c **** *//*****************************************************************************
  14:Generated_Source\PSoC4/CapSense_SensingCSD_LL.c **** * Copyright (2016), Cypress Semiconductor Corporation.
  15:Generated_Source\PSoC4/CapSense_SensingCSD_LL.c **** ********************************************************************************
  16:Generated_Source\PSoC4/CapSense_SensingCSD_LL.c **** * This software is owned by Cypress Semiconductor Corporation (Cypress) and is
  17:Generated_Source\PSoC4/CapSense_SensingCSD_LL.c **** * protected by and subject to worldwide patent protection (United States and
  18:Generated_Source\PSoC4/CapSense_SensingCSD_LL.c **** * foreign), United States copyright laws and international treaty provisions.
  19:Generated_Source\PSoC4/CapSense_SensingCSD_LL.c **** * Cypress hereby grants to licensee a personal, non-exclusive, non-transferable
  20:Generated_Source\PSoC4/CapSense_SensingCSD_LL.c **** * license to copy, use, modify, create derivative works of, and compile the
  21:Generated_Source\PSoC4/CapSense_SensingCSD_LL.c **** * Cypress Source Code and derivative works for the sole purpose of creating
  22:Generated_Source\PSoC4/CapSense_SensingCSD_LL.c **** * custom software in support of licensee product to be used only in conjunction
  23:Generated_Source\PSoC4/CapSense_SensingCSD_LL.c **** * with a Cypress integrated circuit as specified in the applicable agreement.
  24:Generated_Source\PSoC4/CapSense_SensingCSD_LL.c **** * Any reproduction, modification, translation, compilation, or representation of
  25:Generated_Source\PSoC4/CapSense_SensingCSD_LL.c **** * this software except as specified above is prohibited without the express
  26:Generated_Source\PSoC4/CapSense_SensingCSD_LL.c **** * written permission of Cypress.
  27:Generated_Source\PSoC4/CapSense_SensingCSD_LL.c **** *
  28:Generated_Source\PSoC4/CapSense_SensingCSD_LL.c **** * Disclaimer: CYPRESS MAKES NO WARRANTY OF ANY KIND, EXPRESS OR IMPLIED, WITH
  29:Generated_Source\PSoC4/CapSense_SensingCSD_LL.c **** * REGARD TO THIS MATERIAL, INCLUDING, BUT NOT LIMITED TO, THE IMPLIED
  30:Generated_Source\PSoC4/CapSense_SensingCSD_LL.c **** * WARRANTIES OF MERCHANTABILITY AND FITNESS FOR A PARTICULAR PURPOSE.
  31:Generated_Source\PSoC4/CapSense_SensingCSD_LL.c **** * Cypress reserves the right to make changes without further notice to the
  32:Generated_Source\PSoC4/CapSense_SensingCSD_LL.c **** * materials described herein. Cypress does not assume any liability arising out
ARM GAS  C:\Users\Jerry\AppData\Local\Temp\cc2mbs0O.s 			page 2


  33:Generated_Source\PSoC4/CapSense_SensingCSD_LL.c **** * of the application or use of any product or circuit described herein. Cypress
  34:Generated_Source\PSoC4/CapSense_SensingCSD_LL.c **** * does not authorize its products for use as critical components in life-support
  35:Generated_Source\PSoC4/CapSense_SensingCSD_LL.c **** * systems where a malfunction or failure may reasonably be expected to result in
  36:Generated_Source\PSoC4/CapSense_SensingCSD_LL.c **** * significant injury to the user. The inclusion of Cypress' product in a life-
  37:Generated_Source\PSoC4/CapSense_SensingCSD_LL.c **** * support systems application implies that the manufacturer assumes all risk of
  38:Generated_Source\PSoC4/CapSense_SensingCSD_LL.c **** * such use and in doing so indemnifies Cypress against all charges. Use may be
  39:Generated_Source\PSoC4/CapSense_SensingCSD_LL.c **** * limited by and subject to the applicable Cypress software license agreement.
  40:Generated_Source\PSoC4/CapSense_SensingCSD_LL.c **** *******************************************************************************/
  41:Generated_Source\PSoC4/CapSense_SensingCSD_LL.c **** #include "CapSense_Structure.h"
  42:Generated_Source\PSoC4/CapSense_SensingCSD_LL.c **** #include "CapSense_Configuration.h"
  43:Generated_Source\PSoC4/CapSense_SensingCSD_LL.c **** #include "CapSense_SensingCSD_LL.h"
  44:Generated_Source\PSoC4/CapSense_SensingCSD_LL.c **** #include "CapSense_Sensing.h"
  45:Generated_Source\PSoC4/CapSense_SensingCSD_LL.c **** #include "cyapicallbacks.h"
  46:Generated_Source\PSoC4/CapSense_SensingCSD_LL.c **** 
  47:Generated_Source\PSoC4/CapSense_SensingCSD_LL.c **** #if (CapSense_ENABLE == CapSense_CSD_EN)
  48:Generated_Source\PSoC4/CapSense_SensingCSD_LL.c **** 
  49:Generated_Source\PSoC4/CapSense_SensingCSD_LL.c **** /***************************************
  50:Generated_Source\PSoC4/CapSense_SensingCSD_LL.c **** * API Constants
  51:Generated_Source\PSoC4/CapSense_SensingCSD_LL.c **** ***************************************/
  52:Generated_Source\PSoC4/CapSense_SensingCSD_LL.c **** #define CapSense_MOD_CSD_CLK_12MHZ                      (12000000uL)
  53:Generated_Source\PSoC4/CapSense_SensingCSD_LL.c **** #define CapSense_MOD_CSD_CLK_24MHZ                      (24000000uL)
  54:Generated_Source\PSoC4/CapSense_SensingCSD_LL.c **** #define CapSense_MOD_CSD_CLK_48MHZ                      (48000000uL)
  55:Generated_Source\PSoC4/CapSense_SensingCSD_LL.c **** 
  56:Generated_Source\PSoC4/CapSense_SensingCSD_LL.c **** #define CapSense_COARSE_INIT_WATCHDOG_TIME              (3u)
  57:Generated_Source\PSoC4/CapSense_SensingCSD_LL.c **** #define CapSense_COARSE_INIT_WATCHDOG_CYCLES_CALC       (CapSense_COARSE_INIT_WATCHDOG_TIME * CYDEV
  58:Generated_Source\PSoC4/CapSense_SensingCSD_LL.c **** 
  59:Generated_Source\PSoC4/CapSense_SensingCSD_LL.c **** #if(CapSense_COARSE_INIT_WATCHDOG_CYCLES_CALC >= CapSense_DELAY_EXTRACYCLES_NUM)
  60:Generated_Source\PSoC4/CapSense_SensingCSD_LL.c ****     #define CapSense_COARSE_INIT_WATCHDOG_CYCLES        (CapSense_COARSE_INIT_WATCHDOG_CYCLES_CALC 
  61:Generated_Source\PSoC4/CapSense_SensingCSD_LL.c ****                                                                  CapSense_DELAY_EXTRACYCLES_NUM)
  62:Generated_Source\PSoC4/CapSense_SensingCSD_LL.c **** #else
  63:Generated_Source\PSoC4/CapSense_SensingCSD_LL.c ****     #define CapSense_COARSE_INIT_WATCHDOG_CYCLES        (CapSense_COARSE_INIT_WATCHDOG_CYCLES_CALC)
  64:Generated_Source\PSoC4/CapSense_SensingCSD_LL.c **** #endif /* (CapSense_COARSE_INIT_WATCHDOG_CYCLES_CALC >= CapSense_DELAY_EXTRACYCLES_NUM) */
  65:Generated_Source\PSoC4/CapSense_SensingCSD_LL.c **** 
  66:Generated_Source\PSoC4/CapSense_SensingCSD_LL.c **** #if (CapSense_ENABLE == CapSense_CSDV2)
  67:Generated_Source\PSoC4/CapSense_SensingCSD_LL.c ****     #if (CapSense_CMOD_PAD == CapSense_CMOD_CONNECTION)
  68:Generated_Source\PSoC4/CapSense_SensingCSD_LL.c ****         #define CapSense_SW_DSI_SEL_CMODPAD                (CapSense_SW_DSI_CMOD)
  69:Generated_Source\PSoC4/CapSense_SensingCSD_LL.c ****         #define CapSense_CSD_SW_FW_MOD_SEL_INIT            (CapSense_SW_FW_MOD_SEL_SW_F1PM_STATIC_C
  70:Generated_Source\PSoC4/CapSense_SensingCSD_LL.c ****                                                                     CapSense_SW_FW_MOD_SEL_SW_F1MA_
  71:Generated_Source\PSoC4/CapSense_SensingCSD_LL.c ****                                                                     CapSense_SW_FW_MOD_SEL_SW_F1CA_
  72:Generated_Source\PSoC4/CapSense_SensingCSD_LL.c ****     #elif (CapSense_CSH_TANK_PAD == CapSense_CMOD_CONNECTION)
  73:Generated_Source\PSoC4/CapSense_SensingCSD_LL.c ****         #define CapSense_SW_DSI_SEL_CMODPAD                (CapSense_SW_DSI_CTANK)
  74:Generated_Source\PSoC4/CapSense_SensingCSD_LL.c ****         #define CapSense_CSD_SW_FW_MOD_SEL_INIT            (0x00000000uL)
  75:Generated_Source\PSoC4/CapSense_SensingCSD_LL.c ****     #else
  76:Generated_Source\PSoC4/CapSense_SensingCSD_LL.c ****         #define CapSense_SW_DSI_SEL_CMODPAD                (0x00000000uL)
  77:Generated_Source\PSoC4/CapSense_SensingCSD_LL.c ****         #define CapSense_CSD_SW_FW_MOD_SEL_INIT            (0x00000000uL)
  78:Generated_Source\PSoC4/CapSense_SensingCSD_LL.c ****     #endif /* (CapSense_CMOD_PAD == CapSense_CMOD_CONNECTION) */
  79:Generated_Source\PSoC4/CapSense_SensingCSD_LL.c **** 
  80:Generated_Source\PSoC4/CapSense_SensingCSD_LL.c ****     #if (CapSense_CSH_TANK_PAD == CapSense_CTANK_CONNECTION)
  81:Generated_Source\PSoC4/CapSense_SensingCSD_LL.c ****         #define CapSense_SW_DSI_SEL_TANKPAD                (CapSense_SW_DSI_CTANK)
  82:Generated_Source\PSoC4/CapSense_SensingCSD_LL.c ****         #define CapSense_CSD_SW_FW_TANK_SEL_INIT           (CapSense_SW_FW_TANK_SEL_SW_F2PT_STATIC_
  83:Generated_Source\PSoC4/CapSense_SensingCSD_LL.c ****                                                                     CapSense_SW_FW_TANK_SEL_SW_F2MA
  84:Generated_Source\PSoC4/CapSense_SensingCSD_LL.c ****                                                                     CapSense_SW_FW_TANK_SEL_SW_F2CA
  85:Generated_Source\PSoC4/CapSense_SensingCSD_LL.c ****     #elif (CapSense_CMOD_PAD == CapSense_CTANK_CONNECTION)
  86:Generated_Source\PSoC4/CapSense_SensingCSD_LL.c ****         #define CapSense_SW_DSI_SEL_TANKPAD                (CapSense_SW_DSI_CMOD)
  87:Generated_Source\PSoC4/CapSense_SensingCSD_LL.c ****         #define CapSense_CSD_SW_FW_TANK_SEL_INIT           (0x00000000uL)
  88:Generated_Source\PSoC4/CapSense_SensingCSD_LL.c ****     #else
  89:Generated_Source\PSoC4/CapSense_SensingCSD_LL.c ****         #define CapSense_SW_DSI_SEL_TANKPAD                (0x00000000uL)
ARM GAS  C:\Users\Jerry\AppData\Local\Temp\cc2mbs0O.s 			page 3


  90:Generated_Source\PSoC4/CapSense_SensingCSD_LL.c ****         #define CapSense_CSD_SW_FW_TANK_SEL_INIT           (0x00000000uL)
  91:Generated_Source\PSoC4/CapSense_SensingCSD_LL.c ****     #endif /* ((CapSense_CSH_TANK_PAD == CapSense_CMOD_CONNECTION) || \
  92:Generated_Source\PSoC4/CapSense_SensingCSD_LL.c ****                (CapSense_CSH_TANK_PAD == CapSense_CTANK_CONNECTION)) */
  93:Generated_Source\PSoC4/CapSense_SensingCSD_LL.c **** 
  94:Generated_Source\PSoC4/CapSense_SensingCSD_LL.c ****     /* SW_FW_MOD_SEL switches state for Coarse initialization of CMOD (sense path) */
  95:Generated_Source\PSoC4/CapSense_SensingCSD_LL.c ****     #define CapSense_CSD_SW_FW_MOD_SEL_SCAN                (0x00000000uL)
  96:Generated_Source\PSoC4/CapSense_SensingCSD_LL.c **** 
  97:Generated_Source\PSoC4/CapSense_SensingCSD_LL.c ****     #if ((CapSense_ENABLE == CapSense_CSD_SHIELD_EN) && \
  98:Generated_Source\PSoC4/CapSense_SensingCSD_LL.c ****          (CapSense_ENABLE == CapSense_CSD_SHIELD_TANK_EN) && \
  99:Generated_Source\PSoC4/CapSense_SensingCSD_LL.c ****          (CapSense_CSH_TANK_PAD == CapSense_CTANK_CONNECTION))
 100:Generated_Source\PSoC4/CapSense_SensingCSD_LL.c ****         #define CapSense_CSD_SW_FW_TANK_SEL_SCAN            (CapSense_SW_FW_TANK_SEL_SW_F2PT_STATIC
 101:Generated_Source\PSoC4/CapSense_SensingCSD_LL.c ****         #if (CapSense_IDAC_SINKING == CapSense_CSD_IDAC_CONFIG)
 102:Generated_Source\PSoC4/CapSense_SensingCSD_LL.c ****             #define CapSense_DEFAULT_SW_SHIELD_SEL          (CapSense_SW_SHIELD_SEL_SW_HCBG_HSCMP)
 103:Generated_Source\PSoC4/CapSense_SensingCSD_LL.c ****         #else
 104:Generated_Source\PSoC4/CapSense_SensingCSD_LL.c ****             #define CapSense_DEFAULT_SW_SHIELD_SEL          (CapSense_SW_SHIELD_SEL_SW_HCBV_HSCMP)
 105:Generated_Source\PSoC4/CapSense_SensingCSD_LL.c ****         #endif /* (CapSense_IDAC_SINKING == CapSense_CSD_IDAC_CONFIG) */
 106:Generated_Source\PSoC4/CapSense_SensingCSD_LL.c ****     #elif((CapSense_ENABLE == CapSense_CSD_SHIELD_EN) && \
 107:Generated_Source\PSoC4/CapSense_SensingCSD_LL.c ****           (CapSense_ENABLE == CapSense_CSD_SHIELD_TANK_EN))
 108:Generated_Source\PSoC4/CapSense_SensingCSD_LL.c ****         #define CapSense_CSD_SW_FW_TANK_SEL_SCAN            (0x00000000uL)
 109:Generated_Source\PSoC4/CapSense_SensingCSD_LL.c ****         #if (CapSense_IDAC_SINKING == CapSense_CSD_IDAC_CONFIG)
 110:Generated_Source\PSoC4/CapSense_SensingCSD_LL.c ****             #define CapSense_DEFAULT_SW_SHIELD_SEL          (CapSense_SW_SHIELD_SEL_SW_HCBG_HSCMP)
 111:Generated_Source\PSoC4/CapSense_SensingCSD_LL.c ****         #else
 112:Generated_Source\PSoC4/CapSense_SensingCSD_LL.c ****             #define CapSense_DEFAULT_SW_SHIELD_SEL          (CapSense_SW_SHIELD_SEL_SW_HCBV_HSCMP)
 113:Generated_Source\PSoC4/CapSense_SensingCSD_LL.c ****         #endif /* (CapSense_IDAC_SINKING == CapSense_CSD_IDAC_CONFIG) */
 114:Generated_Source\PSoC4/CapSense_SensingCSD_LL.c ****     #elif(CapSense_ENABLE == CapSense_CSD_SHIELD_EN)
 115:Generated_Source\PSoC4/CapSense_SensingCSD_LL.c ****         #define CapSense_CSD_SW_FW_TANK_SEL_SCAN            (0x00000000uL)
 116:Generated_Source\PSoC4/CapSense_SensingCSD_LL.c ****         #if (CapSense_IDAC_SINKING == CapSense_CSD_IDAC_CONFIG)
 117:Generated_Source\PSoC4/CapSense_SensingCSD_LL.c ****             #define CapSense_DEFAULT_SW_SHIELD_SEL          (CapSense_SW_SHIELD_SEL_SW_HCBV_PHI1 | 
 118:Generated_Source\PSoC4/CapSense_SensingCSD_LL.c ****         #else
 119:Generated_Source\PSoC4/CapSense_SensingCSD_LL.c ****             #define CapSense_DEFAULT_SW_SHIELD_SEL          (CapSense_SW_SHIELD_SEL_SW_HCBG_PHI1 | 
 120:Generated_Source\PSoC4/CapSense_SensingCSD_LL.c ****         #endif /* (CapSense_IDAC_SINKING == CapSense_CSD_IDAC_CONFIG) */
 121:Generated_Source\PSoC4/CapSense_SensingCSD_LL.c ****     #else
 122:Generated_Source\PSoC4/CapSense_SensingCSD_LL.c ****         #define CapSense_CSD_SW_FW_TANK_SEL_SCAN            (0x00000000uL)
 123:Generated_Source\PSoC4/CapSense_SensingCSD_LL.c ****         #define CapSense_DEFAULT_SW_SHIELD_SEL              (0x00000000uL)
 124:Generated_Source\PSoC4/CapSense_SensingCSD_LL.c ****     #endif /* ((CapSense_ENABLE == CapSense_CSD_SHIELD_EN) && \
 125:Generated_Source\PSoC4/CapSense_SensingCSD_LL.c ****                (0u != CapSense_CSD_SHIELD_TANK_EN) && \
 126:Generated_Source\PSoC4/CapSense_SensingCSD_LL.c ****                (CapSense_CSH_TANK_PAD == CapSense_CTANK_CONNECTION)) */
 127:Generated_Source\PSoC4/CapSense_SensingCSD_LL.c **** 
 128:Generated_Source\PSoC4/CapSense_SensingCSD_LL.c ****     #define CapSense_DEFAULT_CSD_SW_DSI_SEL                 (CapSense_SW_DSI_SEL_CMODPAD | CapSense
 129:Generated_Source\PSoC4/CapSense_SensingCSD_LL.c **** 
 130:Generated_Source\PSoC4/CapSense_SensingCSD_LL.c ****     #define CapSense_CSD_SW_RES_INIT                        (CapSense_CSD_INIT_SWITCH_RES << CYFLD_
 131:Generated_Source\PSoC4/CapSense_SensingCSD_LL.c ****     #define CapSense_CSD_SW_RES_SCAN                        ((CapSense_CSD_SHIELD_SWITCH_RES << CYF
 132:Generated_Source\PSoC4/CapSense_SensingCSD_LL.c ****                                                                      (CapSense_CSD_SHIELD_SWITCH_RE
 133:Generated_Source\PSoC4/CapSense_SensingCSD_LL.c **** 
 134:Generated_Source\PSoC4/CapSense_SensingCSD_LL.c ****     #if (CapSense_ENABLE == CapSense_CSD_AUTO_ZERO_EN)
 135:Generated_Source\PSoC4/CapSense_SensingCSD_LL.c ****         #if (CapSense_IDAC_SINKING == CapSense_CSD_IDAC_CONFIG)
 136:Generated_Source\PSoC4/CapSense_SensingCSD_LL.c ****             #define CapSense_HSCMP_SCAN_MASK                (CapSense_HSCMP_EN_MASK | \
 137:Generated_Source\PSoC4/CapSense_SensingCSD_LL.c ****                                                                      CapSense_CSD_AZ_EN_MASK |\
 138:Generated_Source\PSoC4/CapSense_SensingCSD_LL.c ****                                                                      CapSense_HSCMP_INVERT_MASK)
 139:Generated_Source\PSoC4/CapSense_SensingCSD_LL.c ****         #else
 140:Generated_Source\PSoC4/CapSense_SensingCSD_LL.c ****             #define CapSense_HSCMP_SCAN_MASK                (CapSense_HSCMP_EN_MASK | \
 141:Generated_Source\PSoC4/CapSense_SensingCSD_LL.c ****                                                                      CapSense_CSD_AZ_EN_MASK)
 142:Generated_Source\PSoC4/CapSense_SensingCSD_LL.c ****         #endif /* (CapSense_IDAC_SINKING == CapSense_CSD_IDAC_CONFIG) */
 143:Generated_Source\PSoC4/CapSense_SensingCSD_LL.c **** 
 144:Generated_Source\PSoC4/CapSense_SensingCSD_LL.c ****         #define CapSense_HSCMP_INIT_MASK                    (CapSense_HSCMP_EN_MASK | \
 145:Generated_Source\PSoC4/CapSense_SensingCSD_LL.c ****                                                                      CapSense_CSD_AZ_EN_MASK)
 146:Generated_Source\PSoC4/CapSense_SensingCSD_LL.c ****     #else
ARM GAS  C:\Users\Jerry\AppData\Local\Temp\cc2mbs0O.s 			page 4


 147:Generated_Source\PSoC4/CapSense_SensingCSD_LL.c ****         #if (CapSense_IDAC_SINKING == CapSense_CSD_IDAC_CONFIG)
 148:Generated_Source\PSoC4/CapSense_SensingCSD_LL.c ****             #define CapSense_HSCMP_SCAN_MASK                (CapSense_HSCMP_EN_MASK | \
 149:Generated_Source\PSoC4/CapSense_SensingCSD_LL.c ****                                                                      CapSense_HSCMP_INVERT_MASK)
 150:Generated_Source\PSoC4/CapSense_SensingCSD_LL.c ****         #else
 151:Generated_Source\PSoC4/CapSense_SensingCSD_LL.c ****             #define CapSense_HSCMP_SCAN_MASK                (CapSense_HSCMP_EN_MASK)
 152:Generated_Source\PSoC4/CapSense_SensingCSD_LL.c ****         #endif /* (CapSense_IDAC_SINKING == CapSense_CSD_IDAC_CONFIG) */
 153:Generated_Source\PSoC4/CapSense_SensingCSD_LL.c **** 
 154:Generated_Source\PSoC4/CapSense_SensingCSD_LL.c ****         #define CapSense_HSCMP_INIT_MASK                    (CapSense_HSCMP_EN_MASK)
 155:Generated_Source\PSoC4/CapSense_SensingCSD_LL.c ****     #endif /* ((CapSense_ENABLE == CapSense_CSD_AUTO_ZERO_EN) */
 156:Generated_Source\PSoC4/CapSense_SensingCSD_LL.c **** 
 157:Generated_Source\PSoC4/CapSense_SensingCSD_LL.c ****     #define CapSense_DEFAULT_CSD_INTR_SET                   (0x00000000uL)
 158:Generated_Source\PSoC4/CapSense_SensingCSD_LL.c ****     #define CapSense_DEFAULT_SW_HS_P_SEL                    (0x00000000uL)
 159:Generated_Source\PSoC4/CapSense_SensingCSD_LL.c ****     #define CapSense_DEFAULT_SW_HS_N_SEL                    (0X00000000uL)
 160:Generated_Source\PSoC4/CapSense_SensingCSD_LL.c ****     #define CapSense_DEFAULT_CSD_SW_FW_TANK_SEL             (0x00000000uL)
 161:Generated_Source\PSoC4/CapSense_SensingCSD_LL.c ****     #define CapSense_DEFAULT_CSD_ADC_CTL                    (0x00000000uL)
 162:Generated_Source\PSoC4/CapSense_SensingCSD_LL.c ****     #define CapSense_DEFAULT_HSCMP_CFG                      (0x00000000uL)
 163:Generated_Source\PSoC4/CapSense_SensingCSD_LL.c **** 
 164:Generated_Source\PSoC4/CapSense_SensingCSD_LL.c ****     #define CapSense_CSD_ON_DELAY_TIME                      (3u)
 165:Generated_Source\PSoC4/CapSense_SensingCSD_LL.c ****     #define CapSense_CSD_ON_DELAY                           (CapSense_CSD_ON_DELAY_TIME * CYDEV_BCL
 166:Generated_Source\PSoC4/CapSense_SensingCSD_LL.c **** 
 167:Generated_Source\PSoC4/CapSense_SensingCSD_LL.c ****     #define CapSense_HSCMP_ON_DELAY_TIME                    (1u)
 168:Generated_Source\PSoC4/CapSense_SensingCSD_LL.c ****     #define CapSense_HSCMP_ON_DELAY                         (CapSense_HSCMP_ON_DELAY_TIME * CYDEV_B
 169:Generated_Source\PSoC4/CapSense_SensingCSD_LL.c **** 
 170:Generated_Source\PSoC4/CapSense_SensingCSD_LL.c **** #else
 171:Generated_Source\PSoC4/CapSense_SensingCSD_LL.c **** 
 172:Generated_Source\PSoC4/CapSense_SensingCSD_LL.c ****     /* Set IDAC ranges */
 173:Generated_Source\PSoC4/CapSense_SensingCSD_LL.c ****     #if (CapSense_IDAC_GAIN_8X == CapSense_CSD_IDAC_GAIN)
 174:Generated_Source\PSoC4/CapSense_SensingCSD_LL.c ****         #define CapSense_DEFAULT_IDAC_MOD_RANGE         (CapSense_IDAC_MOD_RANGE_MASK)
 175:Generated_Source\PSoC4/CapSense_SensingCSD_LL.c ****         #define CapSense_DEFAULT_IDAC_COMP_RANGE        (CapSense_IDAC_COMP_RANGE_MASK)
 176:Generated_Source\PSoC4/CapSense_SensingCSD_LL.c ****     #else
 177:Generated_Source\PSoC4/CapSense_SensingCSD_LL.c ****         #define CapSense_DEFAULT_IDAC_MOD_RANGE         (0u)
 178:Generated_Source\PSoC4/CapSense_SensingCSD_LL.c ****         #define CapSense_DEFAULT_IDAC_COMP_RANGE        (0u)
 179:Generated_Source\PSoC4/CapSense_SensingCSD_LL.c ****     #endif /* (CapSense_IDAC_GAIN_8X == CapSense_CSD_IDAC_GAIN) */
 180:Generated_Source\PSoC4/CapSense_SensingCSD_LL.c **** 
 181:Generated_Source\PSoC4/CapSense_SensingCSD_LL.c ****     /* Defining default IDACs configuration according to settings in customizer. */
 182:Generated_Source\PSoC4/CapSense_SensingCSD_LL.c ****     #if (CapSense_ENABLE == CapSense_CSD_IDAC_COMP_EN)
 183:Generated_Source\PSoC4/CapSense_SensingCSD_LL.c ****         #define CapSense_DEFAULT_CSD_IDAC_CONFIG        (CapSense_IDAC_MOD_MODE_VARIABLE |\
 184:Generated_Source\PSoC4/CapSense_SensingCSD_LL.c ****                                                                  CapSense_IDAC_COMP_MODE_FIXED |\
 185:Generated_Source\PSoC4/CapSense_SensingCSD_LL.c ****                                                                  CapSense_DEFAULT_IDAC_MOD_RANGE |\
 186:Generated_Source\PSoC4/CapSense_SensingCSD_LL.c ****                                                                  CapSense_DEFAULT_IDAC_COMP_RANGE)
 187:Generated_Source\PSoC4/CapSense_SensingCSD_LL.c ****     #else
 188:Generated_Source\PSoC4/CapSense_SensingCSD_LL.c ****         #define CapSense_DEFAULT_CSD_IDAC_CONFIG        (CapSense_IDAC_MOD_MODE_VARIABLE |\
 189:Generated_Source\PSoC4/CapSense_SensingCSD_LL.c ****                                                                  CapSense_DEFAULT_IDAC_MOD_RANGE)
 190:Generated_Source\PSoC4/CapSense_SensingCSD_LL.c ****     #endif /* (CapSense_ENABLE == CapSense_CSD_IDAC_COMP_EN) */
 191:Generated_Source\PSoC4/CapSense_SensingCSD_LL.c **** 
 192:Generated_Source\PSoC4/CapSense_SensingCSD_LL.c **** #endif /* (CapSense_ENABLE == CapSense_CSDV2) */
 193:Generated_Source\PSoC4/CapSense_SensingCSD_LL.c **** 
 194:Generated_Source\PSoC4/CapSense_SensingCSD_LL.c **** /***************************************
 195:Generated_Source\PSoC4/CapSense_SensingCSD_LL.c **** * Variables
 196:Generated_Source\PSoC4/CapSense_SensingCSD_LL.c **** ***************************************/
 197:Generated_Source\PSoC4/CapSense_SensingCSD_LL.c **** 
 198:Generated_Source\PSoC4/CapSense_SensingCSD_LL.c **** #if (CapSense_ENABLE == CapSense_CSDV2)
 199:Generated_Source\PSoC4/CapSense_SensingCSD_LL.c ****     uint32 CapSense_configCsd = CapSense_DEFAULT_CSD_CONFIG;
 200:Generated_Source\PSoC4/CapSense_SensingCSD_LL.c **** #else
 201:Generated_Source\PSoC4/CapSense_SensingCSD_LL.c ****     uint32 CapSense_configCsd = CapSense_DEFAULT_CSD_CONFIG | CapSense_DEFAULT_MODULATION_MODE;
 202:Generated_Source\PSoC4/CapSense_SensingCSD_LL.c ****     static uint32 CapSense_counterResolution = CapSense_CNT_RESOLUTION_12_BITS;
 203:Generated_Source\PSoC4/CapSense_SensingCSD_LL.c **** #endif /* (CapSense_ENABLE == CapSense_CSDV2) */
ARM GAS  C:\Users\Jerry\AppData\Local\Temp\cc2mbs0O.s 			page 5


 204:Generated_Source\PSoC4/CapSense_SensingCSD_LL.c **** /* Flag to indicate electrodes that were connected previously */
 205:Generated_Source\PSoC4/CapSense_SensingCSD_LL.c **** static uint8 CapSense_eleCsdDisconnectFlag = 0u;
 206:Generated_Source\PSoC4/CapSense_SensingCSD_LL.c **** #if ((CapSense_ENABLE == CapSense_CSDV2) && (CapSense_ENABLE == CapSense_CSD_NOISE_METRIC_EN))
 207:Generated_Source\PSoC4/CapSense_SensingCSD_LL.c ****     /* Number of re-samplings when the bad conversion occurs */
 208:Generated_Source\PSoC4/CapSense_SensingCSD_LL.c ****     uint8 CapSense_badConversionsNum = CapSense_BAD_CONVERSIONS_NUM;
 209:Generated_Source\PSoC4/CapSense_SensingCSD_LL.c **** #endif /* ((CapSense_ENABLE == CapSense_CSDV2) && (CapSense_ENABLE == CapSense_CSD_NOISE_METRIC_EN)
 210:Generated_Source\PSoC4/CapSense_SensingCSD_LL.c **** 
 211:Generated_Source\PSoC4/CapSense_SensingCSD_LL.c **** /*******************************************************************************
 212:Generated_Source\PSoC4/CapSense_SensingCSD_LL.c **** * Static Function Prototypes
 213:Generated_Source\PSoC4/CapSense_SensingCSD_LL.c **** *******************************************************************************/
 214:Generated_Source\PSoC4/CapSense_SensingCSD_LL.c **** /**
 215:Generated_Source\PSoC4/CapSense_SensingCSD_LL.c **** * \if SECTION_CAPSENSE_INTERNAL
 216:Generated_Source\PSoC4/CapSense_SensingCSD_LL.c **** * \addtogroup group_capsense_internal
 217:Generated_Source\PSoC4/CapSense_SensingCSD_LL.c **** * \{
 218:Generated_Source\PSoC4/CapSense_SensingCSD_LL.c **** */
 219:Generated_Source\PSoC4/CapSense_SensingCSD_LL.c **** 
 220:Generated_Source\PSoC4/CapSense_SensingCSD_LL.c **** #if (CapSense_ENABLE == CapSense_CSD_SHIELD_EN)
 221:Generated_Source\PSoC4/CapSense_SensingCSD_LL.c ****     static void CapSense_SsSetShieldDelay(uint32 delay);
 222:Generated_Source\PSoC4/CapSense_SensingCSD_LL.c ****     #if (CapSense_ENABLE == CapSense_CSD_SHIELD_TANK_EN)
 223:Generated_Source\PSoC4/CapSense_SensingCSD_LL.c ****         static void CapSense_SsCSDEnableShieldTank(void);
 224:Generated_Source\PSoC4/CapSense_SensingCSD_LL.c ****     #endif /* (CapSense_ENABLE == CapSense_CSD_SHIELD_TANK_EN) */
 225:Generated_Source\PSoC4/CapSense_SensingCSD_LL.c ****     #if (0u != CapSense_CSD_TOTAL_SHIELD_COUNT)
 226:Generated_Source\PSoC4/CapSense_SensingCSD_LL.c ****         static void CapSense_SsCSDEnableShieldElectrodes(void);
 227:Generated_Source\PSoC4/CapSense_SensingCSD_LL.c ****     #endif /* (0u != CapSense_CSD_TOTAL_SHIELD_COUNT) */
 228:Generated_Source\PSoC4/CapSense_SensingCSD_LL.c **** #endif /* (CapSense_ENABLE == CapSense_CSD_SHIELD_EN) */
 229:Generated_Source\PSoC4/CapSense_SensingCSD_LL.c **** 
 230:Generated_Source\PSoC4/CapSense_SensingCSD_LL.c **** #if ((CapSense_CSD_SS_DIS != CapSense_CSD_AUTOTUNE) || \
 231:Generated_Source\PSoC4/CapSense_SensingCSD_LL.c ****      (CapSense_ENABLE == CapSense_CSD_IDAC_AUTOCAL_EN))
 232:Generated_Source\PSoC4/CapSense_SensingCSD_LL.c ****     static cystatus CapSense_SsCSDCalibrateCheck(CapSense_RAM_WD_BASE_STRUCT const *ptrWdgt, uint32
 233:Generated_Source\PSoC4/CapSense_SensingCSD_LL.c ****     #if (CapSense_ENABLE == CapSense_CSD_IDAC_COMP_EN)
 234:Generated_Source\PSoC4/CapSense_SensingCSD_LL.c ****         static void CapSense_SsCSDRestoreIdacMode(void);
 235:Generated_Source\PSoC4/CapSense_SensingCSD_LL.c ****     #endif /* (CapSense_ENABLE == CapSense_CSD_IDAC_COMP_EN) */
 236:Generated_Source\PSoC4/CapSense_SensingCSD_LL.c ****     static cystatus CapSense_SsCSDCalibrateOneSensor(uint32 rawLevel,
 237:Generated_Source\PSoC4/CapSense_SensingCSD_LL.c ****                                                              uint8 *ptrIdac,
 238:Generated_Source\PSoC4/CapSense_SensingCSD_LL.c ****                                                              uint8 *iDAC8Max);
 239:Generated_Source\PSoC4/CapSense_SensingCSD_LL.c **** #endif /* ((CapSense_CSD_SS_DIS != CapSense_CSD_AUTOTUNE) || \
 240:Generated_Source\PSoC4/CapSense_SensingCSD_LL.c ****            (CapSense_ENABLE == CapSense_CSD_IDAC_AUTOCAL_EN))  */
 241:Generated_Source\PSoC4/CapSense_SensingCSD_LL.c **** #if (CapSense_ENABLE == CapSense_CSDV2)
 242:Generated_Source\PSoC4/CapSense_SensingCSD_LL.c ****     static void CapSense_SsCSDSetFilterDelay(void);
 243:Generated_Source\PSoC4/CapSense_SensingCSD_LL.c **** #else
 244:Generated_Source\PSoC4/CapSense_SensingCSD_LL.c ****     CY_INLINE static void CapSense_SsCSDClockRestart(void);
 245:Generated_Source\PSoC4/CapSense_SensingCSD_LL.c **** #endif /* (CapSense_ENABLE == CapSense_CSDV2) */
 246:Generated_Source\PSoC4/CapSense_SensingCSD_LL.c **** CY_INLINE static void CapSense_SsCSDCmodPrecharge(void);
 247:Generated_Source\PSoC4/CapSense_SensingCSD_LL.c **** CY_INLINE static void CapSense_SsCSDTriggerScan(void);
 248:Generated_Source\PSoC4/CapSense_SensingCSD_LL.c **** static void CapSense_SsCSDConfigIDACs(void);
 249:Generated_Source\PSoC4/CapSense_SensingCSD_LL.c **** 
 250:Generated_Source\PSoC4/CapSense_SensingCSD_LL.c **** /** \}
 251:Generated_Source\PSoC4/CapSense_SensingCSD_LL.c **** * \endif */
 252:Generated_Source\PSoC4/CapSense_SensingCSD_LL.c **** 
 253:Generated_Source\PSoC4/CapSense_SensingCSD_LL.c **** 
 254:Generated_Source\PSoC4/CapSense_SensingCSD_LL.c **** #if (CapSense_ENABLE == CapSense_CSD_SHIELD_EN)
 255:Generated_Source\PSoC4/CapSense_SensingCSD_LL.c ****     /*******************************************************************************
 256:Generated_Source\PSoC4/CapSense_SensingCSD_LL.c ****     * Function Name: CapSense_SsSetShieldDelay
 257:Generated_Source\PSoC4/CapSense_SensingCSD_LL.c ****     ****************************************************************************//**
 258:Generated_Source\PSoC4/CapSense_SensingCSD_LL.c ****     *
 259:Generated_Source\PSoC4/CapSense_SensingCSD_LL.c ****     * \brief
 260:Generated_Source\PSoC4/CapSense_SensingCSD_LL.c ****     *   This is an internal function that sets a shield delay.
ARM GAS  C:\Users\Jerry\AppData\Local\Temp\cc2mbs0O.s 			page 6


 261:Generated_Source\PSoC4/CapSense_SensingCSD_LL.c ****     *
 262:Generated_Source\PSoC4/CapSense_SensingCSD_LL.c ****     * \details
 263:Generated_Source\PSoC4/CapSense_SensingCSD_LL.c ****     *   The function updates the CSD configuration register bits that define the shield
 264:Generated_Source\PSoC4/CapSense_SensingCSD_LL.c ****     *   signal delay relatively to the sense signal.
 265:Generated_Source\PSoC4/CapSense_SensingCSD_LL.c ****     *
 266:Generated_Source\PSoC4/CapSense_SensingCSD_LL.c ****     * \param delay
 267:Generated_Source\PSoC4/CapSense_SensingCSD_LL.c ****     *   Specifies the shield delay value:
 268:Generated_Source\PSoC4/CapSense_SensingCSD_LL.c ****     *                               0 - no delay
 269:Generated_Source\PSoC4/CapSense_SensingCSD_LL.c ****     *                               1 - 5ns delay (50 ns for CSDv1 block)
 270:Generated_Source\PSoC4/CapSense_SensingCSD_LL.c ****     *                               2 - 10ns delay (100 ns for CSDv1 block)
 271:Generated_Source\PSoC4/CapSense_SensingCSD_LL.c ****     *                               3 - 20ns delay
 272:Generated_Source\PSoC4/CapSense_SensingCSD_LL.c ****     *
 273:Generated_Source\PSoC4/CapSense_SensingCSD_LL.c ****     *******************************************************************************/
 274:Generated_Source\PSoC4/CapSense_SensingCSD_LL.c ****     static void CapSense_SsSetShieldDelay(uint32 delay)
 275:Generated_Source\PSoC4/CapSense_SensingCSD_LL.c ****     {
 276:Generated_Source\PSoC4/CapSense_SensingCSD_LL.c ****         /* Update CSD config register shield delay bits with shield delay value */
 277:Generated_Source\PSoC4/CapSense_SensingCSD_LL.c ****         CapSense_configCsd &= (uint32)(~CapSense_CONFIG_SHIELD_DELAY_MASK);
 278:Generated_Source\PSoC4/CapSense_SensingCSD_LL.c ****         CapSense_configCsd |= (delay << CapSense_SHIELD_DELAY_SHIFT);
 279:Generated_Source\PSoC4/CapSense_SensingCSD_LL.c ****     }
 280:Generated_Source\PSoC4/CapSense_SensingCSD_LL.c **** 
 281:Generated_Source\PSoC4/CapSense_SensingCSD_LL.c ****     #if (CapSense_ENABLE == CapSense_CSD_SHIELD_TANK_EN)
 282:Generated_Source\PSoC4/CapSense_SensingCSD_LL.c ****         /*******************************************************************************
 283:Generated_Source\PSoC4/CapSense_SensingCSD_LL.c ****         * Function Name: CapSense_SsCSDEnableShieldTank
 284:Generated_Source\PSoC4/CapSense_SensingCSD_LL.c ****         ****************************************************************************//**
 285:Generated_Source\PSoC4/CapSense_SensingCSD_LL.c ****         *
 286:Generated_Source\PSoC4/CapSense_SensingCSD_LL.c ****         * \brief
 287:Generated_Source\PSoC4/CapSense_SensingCSD_LL.c ****         *   This function configures Csh pin
 288:Generated_Source\PSoC4/CapSense_SensingCSD_LL.c ****         *
 289:Generated_Source\PSoC4/CapSense_SensingCSD_LL.c ****         * \details
 290:Generated_Source\PSoC4/CapSense_SensingCSD_LL.c ****         *   The function updates the CSH_HSIOM register to connect Csh to AMUXBUS-B.
 291:Generated_Source\PSoC4/CapSense_SensingCSD_LL.c ****         *   For CSD v1 IP HW block it additionally sets Strong drive mode for Csh
 292:Generated_Source\PSoC4/CapSense_SensingCSD_LL.c ****         *   and applies High level to Csh pin when precharge is set to IO buffer.
 293:Generated_Source\PSoC4/CapSense_SensingCSD_LL.c ****         *
 294:Generated_Source\PSoC4/CapSense_SensingCSD_LL.c ****         *******************************************************************************/
 295:Generated_Source\PSoC4/CapSense_SensingCSD_LL.c ****         static void CapSense_SsCSDEnableShieldTank(void)
 296:Generated_Source\PSoC4/CapSense_SensingCSD_LL.c ****         {
 297:Generated_Source\PSoC4/CapSense_SensingCSD_LL.c ****             uint32 newRegValue;
 298:Generated_Source\PSoC4/CapSense_SensingCSD_LL.c **** 
 299:Generated_Source\PSoC4/CapSense_SensingCSD_LL.c ****             /* Update the CSH_HSIOM register to connect Csh to AMUXBUS-B */
 300:Generated_Source\PSoC4/CapSense_SensingCSD_LL.c ****             newRegValue = CY_GET_REG32(CapSense_CSH_HSIOM_PTR);
 301:Generated_Source\PSoC4/CapSense_SensingCSD_LL.c ****             newRegValue &= (uint32)(~(uint32)CapSense_CSH_HSIOM_MASK);
 302:Generated_Source\PSoC4/CapSense_SensingCSD_LL.c ****             newRegValue |= (CapSense_CSH_TO_AMUXBUS_B_MASK << CapSense_CSH_HSIOM_SHIFT);
 303:Generated_Source\PSoC4/CapSense_SensingCSD_LL.c ****             CY_SET_REG32(CapSense_CSH_HSIOM_PTR, newRegValue);
 304:Generated_Source\PSoC4/CapSense_SensingCSD_LL.c **** 
 305:Generated_Source\PSoC4/CapSense_SensingCSD_LL.c ****             #if ((CapSense_CSH_PRECHARGE_IO_BUF == CapSense_CSD_CSH_PRECHARGE_SRC) &&\
 306:Generated_Source\PSoC4/CapSense_SensingCSD_LL.c ****                  (CapSense_DISABLE == CapSense_CSDV2))
 307:Generated_Source\PSoC4/CapSense_SensingCSD_LL.c ****                 /* Set Strong drive mode for Csh */
 308:Generated_Source\PSoC4/CapSense_SensingCSD_LL.c ****                 newRegValue = CY_GET_REG32(CapSense_CSH_PC_PTR);
 309:Generated_Source\PSoC4/CapSense_SensingCSD_LL.c ****                 newRegValue &= (uint32)(~(CapSense_CSH_PC_MASK << CapSense_CSH_PC_SHIFT));
 310:Generated_Source\PSoC4/CapSense_SensingCSD_LL.c ****                 newRegValue |= (CapSense_CSH_PC_STRONG_MODE << CapSense_CSH_PC_SHIFT);
 311:Generated_Source\PSoC4/CapSense_SensingCSD_LL.c ****                 CY_SET_REG32(CapSense_CSH_PC_PTR, newRegValue);
 312:Generated_Source\PSoC4/CapSense_SensingCSD_LL.c **** 
 313:Generated_Source\PSoC4/CapSense_SensingCSD_LL.c ****                 /* Appliy High level to Csh pin for Csh */
 314:Generated_Source\PSoC4/CapSense_SensingCSD_LL.c ****                 newRegValue = CY_GET_REG32(CapSense_CSH_DR_PTR);
 315:Generated_Source\PSoC4/CapSense_SensingCSD_LL.c ****                 newRegValue &= (uint32)(~(CapSense_DR_MASK << CapSense_CSH_SHIFT));
 316:Generated_Source\PSoC4/CapSense_SensingCSD_LL.c ****                 newRegValue |= (uint32)CapSense_CSH_DR_CONFIG;
 317:Generated_Source\PSoC4/CapSense_SensingCSD_LL.c ****                 CY_SET_REG32(CapSense_CSH_DR_PTR, newRegValue);
ARM GAS  C:\Users\Jerry\AppData\Local\Temp\cc2mbs0O.s 			page 7


 318:Generated_Source\PSoC4/CapSense_SensingCSD_LL.c ****             #endif /* ((CapSense_CSH_PRECHARGE_IO_BUF == CapSense_CSD_CSH_PRECHARGE_SRC) &&\
 319:Generated_Source\PSoC4/CapSense_SensingCSD_LL.c ****                        (CapSense_DISABLE == CapSense_CSDV2)) */
 320:Generated_Source\PSoC4/CapSense_SensingCSD_LL.c ****         }
 321:Generated_Source\PSoC4/CapSense_SensingCSD_LL.c ****     #endif /* (CapSense_ENABLE == CapSense_CSD_SHIELD_TANK_EN) */
 322:Generated_Source\PSoC4/CapSense_SensingCSD_LL.c **** 
 323:Generated_Source\PSoC4/CapSense_SensingCSD_LL.c ****     #if (0u != CapSense_CSD_TOTAL_SHIELD_COUNT)
 324:Generated_Source\PSoC4/CapSense_SensingCSD_LL.c ****         /*******************************************************************************
 325:Generated_Source\PSoC4/CapSense_SensingCSD_LL.c ****         * Function Name: CapSense_SsCSDEnableShieldElectrodes
 326:Generated_Source\PSoC4/CapSense_SensingCSD_LL.c ****         ****************************************************************************//**
 327:Generated_Source\PSoC4/CapSense_SensingCSD_LL.c ****         *
 328:Generated_Source\PSoC4/CapSense_SensingCSD_LL.c ****         * \brief
 329:Generated_Source\PSoC4/CapSense_SensingCSD_LL.c ****         *   This internal function initializes Shield Electrodes.
 330:Generated_Source\PSoC4/CapSense_SensingCSD_LL.c ****         *
 331:Generated_Source\PSoC4/CapSense_SensingCSD_LL.c ****         * \details
 332:Generated_Source\PSoC4/CapSense_SensingCSD_LL.c ****         *   The function sets the bit in the HSIOM register which enables the shield electrode
 333:Generated_Source\PSoC4/CapSense_SensingCSD_LL.c ****         *   functionality on the pin. The port and pin configurations are stored in
 334:Generated_Source\PSoC4/CapSense_SensingCSD_LL.c ****         *   the CapSense_shieldIoList structure.
 335:Generated_Source\PSoC4/CapSense_SensingCSD_LL.c ****         *
 336:Generated_Source\PSoC4/CapSense_SensingCSD_LL.c ****         *******************************************************************************/
 337:Generated_Source\PSoC4/CapSense_SensingCSD_LL.c ****         static void CapSense_SsCSDEnableShieldElectrodes(void)
 338:Generated_Source\PSoC4/CapSense_SensingCSD_LL.c ****         {
 339:Generated_Source\PSoC4/CapSense_SensingCSD_LL.c ****             uint32 newRegValue;
 340:Generated_Source\PSoC4/CapSense_SensingCSD_LL.c ****             uint32 shieldIndex;
 341:Generated_Source\PSoC4/CapSense_SensingCSD_LL.c **** 
 342:Generated_Source\PSoC4/CapSense_SensingCSD_LL.c ****             for (shieldIndex = 0u; shieldIndex < CapSense_CSD_TOTAL_SHIELD_COUNT; shieldIndex++)
 343:Generated_Source\PSoC4/CapSense_SensingCSD_LL.c ****             {
 344:Generated_Source\PSoC4/CapSense_SensingCSD_LL.c ****                 /* Set drive mode to Analog */
 345:Generated_Source\PSoC4/CapSense_SensingCSD_LL.c ****                 CY_SET_REG32(CapSense_shieldIoList[shieldIndex].pcPtr, CY_GET_REG32(CapSense_shield
 346:Generated_Source\PSoC4/CapSense_SensingCSD_LL.c ****                            ~(CapSense_GPIO_PC_MASK <<(CapSense_shieldIoList[shieldIndex].shift)));
 347:Generated_Source\PSoC4/CapSense_SensingCSD_LL.c **** 
 348:Generated_Source\PSoC4/CapSense_SensingCSD_LL.c ****                 /* Set HSIOM register mode to CSD_SHIELD or AMUXBUS B connection */
 349:Generated_Source\PSoC4/CapSense_SensingCSD_LL.c ****                 newRegValue = CY_GET_REG32(CapSense_shieldIoList[shieldIndex].hsiomPtr);
 350:Generated_Source\PSoC4/CapSense_SensingCSD_LL.c ****                 newRegValue &= ~(CapSense_HSIOM_SEL_MASK << (CapSense_shieldIoList[shieldIndex].hsi
 351:Generated_Source\PSoC4/CapSense_SensingCSD_LL.c **** 
 352:Generated_Source\PSoC4/CapSense_SensingCSD_LL.c ****                 /* Set HSIOM register mode to CSD_SHIELD */
 353:Generated_Source\PSoC4/CapSense_SensingCSD_LL.c ****                 newRegValue |= (CapSense_HSIOM_SEL_CSD_SHIELD << (CapSense_shieldIoList[shieldIndex
 354:Generated_Source\PSoC4/CapSense_SensingCSD_LL.c **** 
 355:Generated_Source\PSoC4/CapSense_SensingCSD_LL.c ****                 CY_SET_REG32(CapSense_shieldIoList[shieldIndex].hsiomPtr, newRegValue);
 356:Generated_Source\PSoC4/CapSense_SensingCSD_LL.c ****             }
 357:Generated_Source\PSoC4/CapSense_SensingCSD_LL.c ****         }
 358:Generated_Source\PSoC4/CapSense_SensingCSD_LL.c **** 
 359:Generated_Source\PSoC4/CapSense_SensingCSD_LL.c **** 
 360:Generated_Source\PSoC4/CapSense_SensingCSD_LL.c ****         /*******************************************************************************
 361:Generated_Source\PSoC4/CapSense_SensingCSD_LL.c ****         * Function Name: CapSense_SsCSDDisableShieldElectrodes
 362:Generated_Source\PSoC4/CapSense_SensingCSD_LL.c ****         ****************************************************************************//**
 363:Generated_Source\PSoC4/CapSense_SensingCSD_LL.c ****         *
 364:Generated_Source\PSoC4/CapSense_SensingCSD_LL.c ****         * \brief
 365:Generated_Source\PSoC4/CapSense_SensingCSD_LL.c ****         *   This internal function disables Shield Electrodes.
 366:Generated_Source\PSoC4/CapSense_SensingCSD_LL.c ****         *
 367:Generated_Source\PSoC4/CapSense_SensingCSD_LL.c ****         * \details
 368:Generated_Source\PSoC4/CapSense_SensingCSD_LL.c ****         *   The function resets the bit in the HSIOM register which disables the shield
 369:Generated_Source\PSoC4/CapSense_SensingCSD_LL.c ****         *   electrode functionality on the pin. The port and pin configurations are
 370:Generated_Source\PSoC4/CapSense_SensingCSD_LL.c ****         *   stored in  the CapSense_shieldIoList structure.
 371:Generated_Source\PSoC4/CapSense_SensingCSD_LL.c ****         *
 372:Generated_Source\PSoC4/CapSense_SensingCSD_LL.c ****         *******************************************************************************/
 373:Generated_Source\PSoC4/CapSense_SensingCSD_LL.c ****         void CapSense_SsCSDDisableShieldElectrodes(void)
 374:Generated_Source\PSoC4/CapSense_SensingCSD_LL.c ****         {
ARM GAS  C:\Users\Jerry\AppData\Local\Temp\cc2mbs0O.s 			page 8


 375:Generated_Source\PSoC4/CapSense_SensingCSD_LL.c ****             uint32 newRegValue;
 376:Generated_Source\PSoC4/CapSense_SensingCSD_LL.c ****             uint32 shieldIndex;
 377:Generated_Source\PSoC4/CapSense_SensingCSD_LL.c **** 
 378:Generated_Source\PSoC4/CapSense_SensingCSD_LL.c ****             for (shieldIndex = 0u; shieldIndex < CapSense_CSD_TOTAL_SHIELD_COUNT; shieldIndex++)
 379:Generated_Source\PSoC4/CapSense_SensingCSD_LL.c ****             {
 380:Generated_Source\PSoC4/CapSense_SensingCSD_LL.c ****                 /* Reset HSIOM register (to GPIO state) */
 381:Generated_Source\PSoC4/CapSense_SensingCSD_LL.c ****                 CY_SET_REG32(CapSense_shieldIoList[shieldIndex].hsiomPtr, CY_GET_REG32(CapSense_shi
 382:Generated_Source\PSoC4/CapSense_SensingCSD_LL.c ****                              (uint32)~(uint32)(CapSense_HSIOM_SEL_MASK << CapSense_shieldIoList[shi
 383:Generated_Source\PSoC4/CapSense_SensingCSD_LL.c **** 
 384:Generated_Source\PSoC4/CapSense_SensingCSD_LL.c ****                 /* Update port configuration register (drive mode to ground)  */
 385:Generated_Source\PSoC4/CapSense_SensingCSD_LL.c ****                 newRegValue = CY_GET_REG32(CapSense_shieldIoList[shieldIndex].pcPtr);
 386:Generated_Source\PSoC4/CapSense_SensingCSD_LL.c ****                 newRegValue &= ~(CapSense_GPIO_PC_MASK << CapSense_shieldIoList[shieldIndex].shift)
 387:Generated_Source\PSoC4/CapSense_SensingCSD_LL.c ****                 newRegValue |= (CapSense_SNS_GROUND_CONNECT << CapSense_shieldIoList[shieldIndex].s
 388:Generated_Source\PSoC4/CapSense_SensingCSD_LL.c ****                 CY_SET_REG32(CapSense_shieldIoList[shieldIndex].pcPtr, newRegValue);
 389:Generated_Source\PSoC4/CapSense_SensingCSD_LL.c **** 
 390:Generated_Source\PSoC4/CapSense_SensingCSD_LL.c ****                 /* Set logic 0 to port data register */
 391:Generated_Source\PSoC4/CapSense_SensingCSD_LL.c ****                 CY_SET_REG32(CapSense_shieldIoList[shieldIndex].drPtr, CY_GET_REG32(CapSense_shield
 392:Generated_Source\PSoC4/CapSense_SensingCSD_LL.c ****                            (uint32)~(uint32)((uint32)1u << CapSense_shieldIoList[shieldIndex].drShi
 393:Generated_Source\PSoC4/CapSense_SensingCSD_LL.c ****             }
 394:Generated_Source\PSoC4/CapSense_SensingCSD_LL.c ****         }
 395:Generated_Source\PSoC4/CapSense_SensingCSD_LL.c ****     #endif /* (0u != CapSense_CSD_TOTAL_SHIELD_COUNT) */
 396:Generated_Source\PSoC4/CapSense_SensingCSD_LL.c **** #endif /* (CapSense_ENABLE == CapSense_CSD_SHIELD_EN) */
 397:Generated_Source\PSoC4/CapSense_SensingCSD_LL.c **** 
 398:Generated_Source\PSoC4/CapSense_SensingCSD_LL.c **** 
 399:Generated_Source\PSoC4/CapSense_SensingCSD_LL.c **** /*******************************************************************************
 400:Generated_Source\PSoC4/CapSense_SensingCSD_LL.c **** * Function Name: CapSense_SsCSDSetModeSnsClockDivider
 401:Generated_Source\PSoC4/CapSense_SensingCSD_LL.c **** ****************************************************************************//**
 402:Generated_Source\PSoC4/CapSense_SensingCSD_LL.c **** *
 403:Generated_Source\PSoC4/CapSense_SensingCSD_LL.c **** * \brief
 404:Generated_Source\PSoC4/CapSense_SensingCSD_LL.c **** *   Sets sense source and Sense Clock Divider
 405:Generated_Source\PSoC4/CapSense_SensingCSD_LL.c **** *
 406:Generated_Source\PSoC4/CapSense_SensingCSD_LL.c **** * \details
 407:Generated_Source\PSoC4/CapSense_SensingCSD_LL.c **** *   For CSDv2: Updates CapSense_SENSE_PERIOD register with
 408:Generated_Source\PSoC4/CapSense_SensingCSD_LL.c **** *   sense source and Sense Clock Divider.
 409:Generated_Source\PSoC4/CapSense_SensingCSD_LL.c **** *   For CSDv1: Updates CapSense_configCsd variable with
 410:Generated_Source\PSoC4/CapSense_SensingCSD_LL.c **** *   sense source and sets sense clock divider.
 411:Generated_Source\PSoC4/CapSense_SensingCSD_LL.c **** *
 412:Generated_Source\PSoC4/CapSense_SensingCSD_LL.c **** * \param
 413:Generated_Source\PSoC4/CapSense_SensingCSD_LL.c **** *   snsClkSource The sense source for the sense clock.
 414:Generated_Source\PSoC4/CapSense_SensingCSD_LL.c **** * \param
 415:Generated_Source\PSoC4/CapSense_SensingCSD_LL.c **** *   snsClkDivider The divider value for the sense clock.
 416:Generated_Source\PSoC4/CapSense_SensingCSD_LL.c **** *
 417:Generated_Source\PSoC4/CapSense_SensingCSD_LL.c **** *******************************************************************************/
 418:Generated_Source\PSoC4/CapSense_SensingCSD_LL.c **** void CapSense_SsCSDSetModeSnsClockDivider(uint32 snsClkSource, uint32 snsClkDivider)
 419:Generated_Source\PSoC4/CapSense_SensingCSD_LL.c **** {
  26              		.loc 1 419 0
  27              		.cfi_startproc
  28              	.LVL0:
 420:Generated_Source\PSoC4/CapSense_SensingCSD_LL.c ****     #if (CapSense_ENABLE == CapSense_CSDV2)
 421:Generated_Source\PSoC4/CapSense_SensingCSD_LL.c ****         /* Update reg value with divider and configuration */
 422:Generated_Source\PSoC4/CapSense_SensingCSD_LL.c ****         CY_SET_REG32(CapSense_SENSE_PERIOD_PTR, snsClkSource | (snsClkDivider - 1u));
  29              		.loc 1 422 0
  30 0000 0139     		sub	r1, r1, #1
  31              	.LVL1:
  32 0002 024B     		ldr	r3, .L2
  33 0004 0843     		orr	r0, r1
  34              	.LVL2:
ARM GAS  C:\Users\Jerry\AppData\Local\Temp\cc2mbs0O.s 			page 9


  35 0006 1860     		str	r0, [r3]
 423:Generated_Source\PSoC4/CapSense_SensingCSD_LL.c ****     #else
 424:Generated_Source\PSoC4/CapSense_SensingCSD_LL.c ****         /* Set configuration */
 425:Generated_Source\PSoC4/CapSense_SensingCSD_LL.c ****         CapSense_configCsd &= ~(CapSense_CONFIG_PRS_SELECT_MASK | CapSense_CSD_PRS_12_BIT);
 426:Generated_Source\PSoC4/CapSense_SensingCSD_LL.c ****         CapSense_configCsd |= snsClkSource;
 427:Generated_Source\PSoC4/CapSense_SensingCSD_LL.c **** 
 428:Generated_Source\PSoC4/CapSense_SensingCSD_LL.c ****         /* Set sense clock divider */
 429:Generated_Source\PSoC4/CapSense_SensingCSD_LL.c ****         CapSense_SsSetSnsClockDivider(snsClkDivider);
 430:Generated_Source\PSoC4/CapSense_SensingCSD_LL.c ****     #endif /* (CapSense_ENABLE == CapSense_CSDV2) */
 431:Generated_Source\PSoC4/CapSense_SensingCSD_LL.c **** }
  36              		.loc 1 431 0
  37              		@ sp needed
  38 0008 7047     		bx	lr
  39              	.L3:
  40 000a C046     		.align	2
  41              	.L2:
  42 000c 00020C40 		.word	1074528768
  43              		.cfi_endproc
  44              	.LFE1:
  45              		.size	CapSense_SsCSDSetModeSnsClockDivider, .-CapSense_SsCSDSetModeSnsClockDivider
  46              		.global	__aeabi_uidiv
  47              		.section	.text.CapSense_SsCSDInitialize,"ax",%progbits
  48              		.align	1
  49              		.global	CapSense_SsCSDInitialize
  50              		.code	16
  51              		.thumb_func
  52              		.type	CapSense_SsCSDInitialize, %function
  53              	CapSense_SsCSDInitialize:
  54              	.LFB4:
 432:Generated_Source\PSoC4/CapSense_SensingCSD_LL.c **** 
 433:Generated_Source\PSoC4/CapSense_SensingCSD_LL.c **** 
 434:Generated_Source\PSoC4/CapSense_SensingCSD_LL.c **** #if (CapSense_ENABLE == CapSense_CSDV2)
 435:Generated_Source\PSoC4/CapSense_SensingCSD_LL.c ****     /*******************************************************************************
 436:Generated_Source\PSoC4/CapSense_SensingCSD_LL.c ****     * Function Name: CapSense_SsCSDSetFilterDelay
 437:Generated_Source\PSoC4/CapSense_SensingCSD_LL.c ****     ****************************************************************************//**
 438:Generated_Source\PSoC4/CapSense_SensingCSD_LL.c ****     *
 439:Generated_Source\PSoC4/CapSense_SensingCSD_LL.c ****     * \brief
 440:Generated_Source\PSoC4/CapSense_SensingCSD_LL.c ****     *   Sets the filter delay for CSDv2 HW IP block.
 441:Generated_Source\PSoC4/CapSense_SensingCSD_LL.c ****     *
 442:Generated_Source\PSoC4/CapSense_SensingCSD_LL.c ****     * \details
 443:Generated_Source\PSoC4/CapSense_SensingCSD_LL.c ****     *   This function updates CSDv2 configuration variable CapSense_configCsd
 444:Generated_Source\PSoC4/CapSense_SensingCSD_LL.c ****     *   with the filter delay which depends on the sample clock frequency.
 445:Generated_Source\PSoC4/CapSense_SensingCSD_LL.c ****     *   This variable is written into CSDv2 CONFIG register during enabling
 446:Generated_Source\PSoC4/CapSense_SensingCSD_LL.c ****     *   to CSDv2 block.
 447:Generated_Source\PSoC4/CapSense_SensingCSD_LL.c ****     *
 448:Generated_Source\PSoC4/CapSense_SensingCSD_LL.c ****     *******************************************************************************/
 449:Generated_Source\PSoC4/CapSense_SensingCSD_LL.c ****     static void CapSense_SsCSDSetFilterDelay(void)
 450:Generated_Source\PSoC4/CapSense_SensingCSD_LL.c ****     {
 451:Generated_Source\PSoC4/CapSense_SensingCSD_LL.c ****         #if (CapSense_MOD_CSD_CLK_12MHZ < CYDEV_BCLK__HFCLK__HZ)
 452:Generated_Source\PSoC4/CapSense_SensingCSD_LL.c ****             uint32 sampleClkFreqHz;
 453:Generated_Source\PSoC4/CapSense_SensingCSD_LL.c ****         #endif /* (CapSense_MOD_CSD_CLK_12MHZ < CYDEV_BCLK__HFCLK__HZ) */
 454:Generated_Source\PSoC4/CapSense_SensingCSD_LL.c **** 
 455:Generated_Source\PSoC4/CapSense_SensingCSD_LL.c ****         CapSense_configCsd &= ~CapSense_CONFIG_FILTER_DELAY_MASK;
 456:Generated_Source\PSoC4/CapSense_SensingCSD_LL.c **** 
 457:Generated_Source\PSoC4/CapSense_SensingCSD_LL.c ****         #if (CapSense_MOD_CSD_CLK_12MHZ < CYDEV_BCLK__HFCLK__HZ)
 458:Generated_Source\PSoC4/CapSense_SensingCSD_LL.c ****             sampleClkFreqHz = CYDEV_BCLK__HFCLK__HZ / (uint32)CapSense_dsRam.modCsdClk;
 459:Generated_Source\PSoC4/CapSense_SensingCSD_LL.c ****             if(sampleClkFreqHz <= CapSense_MOD_CSD_CLK_12MHZ)
ARM GAS  C:\Users\Jerry\AppData\Local\Temp\cc2mbs0O.s 			page 10


 460:Generated_Source\PSoC4/CapSense_SensingCSD_LL.c ****             {
 461:Generated_Source\PSoC4/CapSense_SensingCSD_LL.c ****                 CapSense_configCsd |= CapSense_CONFIG_FILTER_DELAY_12MHZ;
 462:Generated_Source\PSoC4/CapSense_SensingCSD_LL.c ****             }
 463:Generated_Source\PSoC4/CapSense_SensingCSD_LL.c ****             else if(sampleClkFreqHz <= CapSense_MOD_CSD_CLK_24MHZ)
 464:Generated_Source\PSoC4/CapSense_SensingCSD_LL.c ****             {
 465:Generated_Source\PSoC4/CapSense_SensingCSD_LL.c ****                 CapSense_configCsd |= CapSense_CONFIG_FILTER_DELAY_24MHZ;
 466:Generated_Source\PSoC4/CapSense_SensingCSD_LL.c ****             }
 467:Generated_Source\PSoC4/CapSense_SensingCSD_LL.c ****             else
 468:Generated_Source\PSoC4/CapSense_SensingCSD_LL.c ****             {
 469:Generated_Source\PSoC4/CapSense_SensingCSD_LL.c ****                 CapSense_configCsd |= CapSense_CONFIG_FILTER_DELAY_48MHZ;
 470:Generated_Source\PSoC4/CapSense_SensingCSD_LL.c ****             }
 471:Generated_Source\PSoC4/CapSense_SensingCSD_LL.c ****         #else
 472:Generated_Source\PSoC4/CapSense_SensingCSD_LL.c ****             CapSense_configCsd |= CapSense_CONFIG_FILTER_DELAY_12MHZ;
 473:Generated_Source\PSoC4/CapSense_SensingCSD_LL.c ****         #endif /* (CapSense_MOD_CSD_CLK_12MHZ < CYDEV_BCLK__HFCLK__HZ) */
 474:Generated_Source\PSoC4/CapSense_SensingCSD_LL.c ****     }
 475:Generated_Source\PSoC4/CapSense_SensingCSD_LL.c **** #endif /* (CapSense_ENABLE == CapSense_CSD_GANGED_SNS_EN)  */
 476:Generated_Source\PSoC4/CapSense_SensingCSD_LL.c **** 
 477:Generated_Source\PSoC4/CapSense_SensingCSD_LL.c **** 
 478:Generated_Source\PSoC4/CapSense_SensingCSD_LL.c **** /*******************************************************************************
 479:Generated_Source\PSoC4/CapSense_SensingCSD_LL.c **** * Function Name: CapSense_SsCSDConfigIDACs
 480:Generated_Source\PSoC4/CapSense_SensingCSD_LL.c **** ****************************************************************************//**
 481:Generated_Source\PSoC4/CapSense_SensingCSD_LL.c **** *
 482:Generated_Source\PSoC4/CapSense_SensingCSD_LL.c **** * \brief
 483:Generated_Source\PSoC4/CapSense_SensingCSD_LL.c **** *   Configures the mode for IDAC registers
 484:Generated_Source\PSoC4/CapSense_SensingCSD_LL.c **** *
 485:Generated_Source\PSoC4/CapSense_SensingCSD_LL.c **** * \details
 486:Generated_Source\PSoC4/CapSense_SensingCSD_LL.c **** *   This function configures the IDAC modes depend on Compensation IDAC
 487:Generated_Source\PSoC4/CapSense_SensingCSD_LL.c **** *   enabled or disabled.
 488:Generated_Source\PSoC4/CapSense_SensingCSD_LL.c **** *
 489:Generated_Source\PSoC4/CapSense_SensingCSD_LL.c **** *******************************************************************************/
 490:Generated_Source\PSoC4/CapSense_SensingCSD_LL.c **** static void CapSense_SsCSDConfigIDACs(void)
 491:Generated_Source\PSoC4/CapSense_SensingCSD_LL.c **** {
 492:Generated_Source\PSoC4/CapSense_SensingCSD_LL.c ****     #if (CapSense_ENABLE == CapSense_CSDV2)
 493:Generated_Source\PSoC4/CapSense_SensingCSD_LL.c ****         CY_SET_REG32(CapSense_IDAC_MOD_PTR, CapSense_DEFAULT_IDAC_MOD);
 494:Generated_Source\PSoC4/CapSense_SensingCSD_LL.c ****         #if ((CapSense_ENABLE == CapSense_CSD_IDAC_COMP_EN) && \
 495:Generated_Source\PSoC4/CapSense_SensingCSD_LL.c ****              (CapSense_ENABLE == CapSense_CSD_DEDICATED_IDAC_COMP_EN))
 496:Generated_Source\PSoC4/CapSense_SensingCSD_LL.c ****             CY_SET_REG32(CapSense_IDAC_COMP_PTR, (uint32)CapSense_DEFAULT_IDAC_COMP);
 497:Generated_Source\PSoC4/CapSense_SensingCSD_LL.c ****         #endif /* ((CapSense_ENABLE == CapSense_CSD_IDAC_COMP_EN) && \
 498:Generated_Source\PSoC4/CapSense_SensingCSD_LL.c ****                    (CapSense_ENABLE == CapSense_CSD_DEDICATED_IDAC_COMP_EN)) */
 499:Generated_Source\PSoC4/CapSense_SensingCSD_LL.c ****     #else
 500:Generated_Source\PSoC4/CapSense_SensingCSD_LL.c ****         #if (CapSense_ENABLE == CapSense_CSD_IDAC_COMP_EN)
 501:Generated_Source\PSoC4/CapSense_SensingCSD_LL.c ****             CY_SET_REG32(CapSense_IDAC_PTR, CapSense_DEFAULT_CSD_IDAC_CONFIG);
 502:Generated_Source\PSoC4/CapSense_SensingCSD_LL.c ****         #else
 503:Generated_Source\PSoC4/CapSense_SensingCSD_LL.c ****             CY_SET_REG32(CapSense_IDAC_PTR, CY_GET_REG32(CapSense_IDAC_PTR) &
 504:Generated_Source\PSoC4/CapSense_SensingCSD_LL.c ****                                                                 ~(CapSense_IDAC_MOD_MODE_MASK |
 505:Generated_Source\PSoC4/CapSense_SensingCSD_LL.c ****                                                                   CapSense_IDAC_MOD_MASK));
 506:Generated_Source\PSoC4/CapSense_SensingCSD_LL.c ****             CY_SET_REG32(CapSense_IDAC_PTR, CY_GET_REG32(CapSense_IDAC_PTR) |
 507:Generated_Source\PSoC4/CapSense_SensingCSD_LL.c ****                                                                  CapSense_DEFAULT_CSD_IDAC_CONFIG);
 508:Generated_Source\PSoC4/CapSense_SensingCSD_LL.c ****         #endif /* (CapSense_ENABLE == CapSense_CSD_IDAC_COMP_EN) */
 509:Generated_Source\PSoC4/CapSense_SensingCSD_LL.c ****     #endif /* (CapSense_ENABLE == CapSense_CSDV2) */
 510:Generated_Source\PSoC4/CapSense_SensingCSD_LL.c **** }
 511:Generated_Source\PSoC4/CapSense_SensingCSD_LL.c **** 
 512:Generated_Source\PSoC4/CapSense_SensingCSD_LL.c **** 
 513:Generated_Source\PSoC4/CapSense_SensingCSD_LL.c **** /*******************************************************************************
 514:Generated_Source\PSoC4/CapSense_SensingCSD_LL.c **** * Function Name: CapSense_SsCSDInitialize
 515:Generated_Source\PSoC4/CapSense_SensingCSD_LL.c **** ****************************************************************************//**
 516:Generated_Source\PSoC4/CapSense_SensingCSD_LL.c **** *
ARM GAS  C:\Users\Jerry\AppData\Local\Temp\cc2mbs0O.s 			page 11


 517:Generated_Source\PSoC4/CapSense_SensingCSD_LL.c **** * \brief
 518:Generated_Source\PSoC4/CapSense_SensingCSD_LL.c **** *   This API initializes the CSD module.
 519:Generated_Source\PSoC4/CapSense_SensingCSD_LL.c **** *
 520:Generated_Source\PSoC4/CapSense_SensingCSD_LL.c **** * \details
 521:Generated_Source\PSoC4/CapSense_SensingCSD_LL.c **** *   The function performs the following steps for CSDv2 HW block:
 522:Generated_Source\PSoC4/CapSense_SensingCSD_LL.c **** *   1) Sets GPIO output to "0" for all sensor pins;
 523:Generated_Source\PSoC4/CapSense_SensingCSD_LL.c **** *   2) Connects CMOD to AMUXBUS-A and to CSDBUS-A;
 524:Generated_Source\PSoC4/CapSense_SensingCSD_LL.c **** *   3) Connects CMOD to (sense path) to CSDCOMP;
 525:Generated_Source\PSoC4/CapSense_SensingCSD_LL.c **** *   4) Connects Csh_tank to AMUXBUS-B and to CSDBUS-B;
 526:Generated_Source\PSoC4/CapSense_SensingCSD_LL.c **** *   5) Connects VREF to REFGEN;
 527:Generated_Source\PSoC4/CapSense_SensingCSD_LL.c **** *   6) Configures REFGEN and sets the reference voltage;
 528:Generated_Source\PSoC4/CapSense_SensingCSD_LL.c **** *   7) Connects VREF to CSDCOMP and HSCOMP;
 529:Generated_Source\PSoC4/CapSense_SensingCSD_LL.c **** *   8) Configures IDAC and connect to CSDBUS-A (to drive CMOD);
 530:Generated_Source\PSoC4/CapSense_SensingCSD_LL.c **** *   9) Configures ModClk;
 531:Generated_Source\PSoC4/CapSense_SensingCSD_LL.c **** *   10) Configure SnsClk source;
 532:Generated_Source\PSoC4/CapSense_SensingCSD_LL.c **** *   11) Sets other CSD configurations (Csd Auto Zero time,
 533:Generated_Source\PSoC4/CapSense_SensingCSD_LL.c **** *       Sample Init period, interrupts,
 534:Generated_Source\PSoC4/CapSense_SensingCSD_LL.c **** *       CMOD and Csh_tank/shield initialization switch resistance).
 535:Generated_Source\PSoC4/CapSense_SensingCSD_LL.c **** *
 536:Generated_Source\PSoC4/CapSense_SensingCSD_LL.c **** *   The function performs the following steps for CSDv1 HW block:
 537:Generated_Source\PSoC4/CapSense_SensingCSD_LL.c **** *   1) Sets all the sensors to the inactive state;
 538:Generated_Source\PSoC4/CapSense_SensingCSD_LL.c **** *   2) Enables Shield Electrodes;
 539:Generated_Source\PSoC4/CapSense_SensingCSD_LL.c **** *   3) Configures the CSD block and IDACs;
 540:Generated_Source\PSoC4/CapSense_SensingCSD_LL.c **** *   4) Connects Cmod to AMUXBUS-A;
 541:Generated_Source\PSoC4/CapSense_SensingCSD_LL.c **** *   5) Enables the clocks;
 542:Generated_Source\PSoC4/CapSense_SensingCSD_LL.c **** *   6) Sets the shield delay;
 543:Generated_Source\PSoC4/CapSense_SensingCSD_LL.c **** *   7) Enables the CSD block; connects Vref Buffer to the AMUX bus.
 544:Generated_Source\PSoC4/CapSense_SensingCSD_LL.c **** *
 545:Generated_Source\PSoC4/CapSense_SensingCSD_LL.c **** *******************************************************************************/
 546:Generated_Source\PSoC4/CapSense_SensingCSD_LL.c **** void CapSense_SsCSDInitialize(void)
 547:Generated_Source\PSoC4/CapSense_SensingCSD_LL.c **** {
  55              		.loc 1 547 0
  56              		.cfi_startproc
  57 0000 70B5     		push	{r4, r5, r6, lr}
  58              		.cfi_def_cfa_offset 16
  59              		.cfi_offset 4, -16
  60              		.cfi_offset 5, -12
  61              		.cfi_offset 6, -8
  62              		.cfi_offset 14, -4
 548:Generated_Source\PSoC4/CapSense_SensingCSD_LL.c ****     uint32 newRegValue;
 549:Generated_Source\PSoC4/CapSense_SensingCSD_LL.c **** 
 550:Generated_Source\PSoC4/CapSense_SensingCSD_LL.c ****     /* Set all sensors to inactive state */
 551:Generated_Source\PSoC4/CapSense_SensingCSD_LL.c ****     CapSense_SsClearCSDSensors();
  63              		.loc 1 551 0
  64 0002 FFF7FEFF 		bl	CapSense_SsClearCSDSensors
  65              	.LVL3:
 552:Generated_Source\PSoC4/CapSense_SensingCSD_LL.c **** 
 553:Generated_Source\PSoC4/CapSense_SensingCSD_LL.c ****     #if (CapSense_ENABLE == CapSense_CSD_SHIELD_EN)
 554:Generated_Source\PSoC4/CapSense_SensingCSD_LL.c ****         /* Connect shields to AMUX-B bus (config HSIOM regs) */
 555:Generated_Source\PSoC4/CapSense_SensingCSD_LL.c ****         #if (0u != CapSense_CSD_TOTAL_SHIELD_COUNT)
 556:Generated_Source\PSoC4/CapSense_SensingCSD_LL.c ****             CapSense_SsCSDEnableShieldElectrodes();
 557:Generated_Source\PSoC4/CapSense_SensingCSD_LL.c ****         #endif /* (0u != CapSense_CSD_TOTAL_SHIELD_COUNT) */
 558:Generated_Source\PSoC4/CapSense_SensingCSD_LL.c **** 
 559:Generated_Source\PSoC4/CapSense_SensingCSD_LL.c ****         #if (CapSense_ENABLE == CapSense_CSD_SHIELD_TANK_EN)
 560:Generated_Source\PSoC4/CapSense_SensingCSD_LL.c ****             /* Configure Csh */
 561:Generated_Source\PSoC4/CapSense_SensingCSD_LL.c ****             CapSense_SsCSDEnableShieldTank();
 562:Generated_Source\PSoC4/CapSense_SensingCSD_LL.c ****         #endif /* (CapSense_ENABLE == CapSense_CSD_SHIELD_TANK_EN) */
ARM GAS  C:\Users\Jerry\AppData\Local\Temp\cc2mbs0O.s 			page 12


 563:Generated_Source\PSoC4/CapSense_SensingCSD_LL.c ****     #endif /* (CapSense_ENABLE == CapSense_CSD_SHIELD_EN) */
 564:Generated_Source\PSoC4/CapSense_SensingCSD_LL.c **** 
 565:Generated_Source\PSoC4/CapSense_SensingCSD_LL.c ****     #if (CapSense_ENABLE == CapSense_CSDV2)
 566:Generated_Source\PSoC4/CapSense_SensingCSD_LL.c **** 
 567:Generated_Source\PSoC4/CapSense_SensingCSD_LL.c ****         /* Initialize the unused CSD IP registers to defaut state */
 568:Generated_Source\PSoC4/CapSense_SensingCSD_LL.c ****         CY_SET_REG32(CapSense_INTR_SET_PTR,         CapSense_DEFAULT_CSD_INTR_SET);
  66              		.loc 1 568 0
  67 0006 0023     		mov	r3, #0
 569:Generated_Source\PSoC4/CapSense_SensingCSD_LL.c ****         CY_SET_REG32(CapSense_SW_FW_TANK_SEL_PTR,   CapSense_DEFAULT_CSD_SW_FW_TANK_SEL);
 570:Generated_Source\PSoC4/CapSense_SensingCSD_LL.c ****         CY_SET_REG32(CapSense_SW_DSI_SEL_PTR,       CapSense_DEFAULT_CSD_SW_DSI_SEL);
 571:Generated_Source\PSoC4/CapSense_SensingCSD_LL.c ****         CY_SET_REG32(CapSense_ADC_CTL_PTR,          CapSense_DEFAULT_CSD_ADC_CTL);
 572:Generated_Source\PSoC4/CapSense_SensingCSD_LL.c ****         CY_SET_REG32(CapSense_AMBUF_PTR,            CapSense_AMBUF_PWR_MODE_OFF);
 573:Generated_Source\PSoC4/CapSense_SensingCSD_LL.c ****         CY_SET_REG32(CapSense_SW_SHIELD_SEL_PTR,    CapSense_DEFAULT_SW_SHIELD_SEL);
 574:Generated_Source\PSoC4/CapSense_SensingCSD_LL.c ****         CY_SET_REG32(CapSense_SW_HS_P_SEL_PTR,      CapSense_DEFAULT_SW_HS_P_SEL);
 575:Generated_Source\PSoC4/CapSense_SensingCSD_LL.c ****         CY_SET_REG32(CapSense_SW_HS_N_SEL_PTR,      CapSense_DEFAULT_SW_HS_N_SEL);
 576:Generated_Source\PSoC4/CapSense_SensingCSD_LL.c ****         CY_SET_REG32(CapSense_HSCMP_PTR,            CapSense_DEFAULT_HSCMP_CFG);
 577:Generated_Source\PSoC4/CapSense_SensingCSD_LL.c **** 
 578:Generated_Source\PSoC4/CapSense_SensingCSD_LL.c ****         /* Connect CMOD to AMUXBUS-A */
 579:Generated_Source\PSoC4/CapSense_SensingCSD_LL.c ****         newRegValue = CY_GET_REG32(CapSense_CMOD_HSIOM_PTR);
 580:Generated_Source\PSoC4/CapSense_SensingCSD_LL.c ****         newRegValue &= (uint32)(~(uint32)CapSense_CMOD_HSIOM_MASK);
  68              		.loc 1 580 0
  69 0008 0F20     		mov	r0, #15
 568:Generated_Source\PSoC4/CapSense_SensingCSD_LL.c ****         CY_SET_REG32(CapSense_SW_FW_TANK_SEL_PTR,   CapSense_DEFAULT_CSD_SW_FW_TANK_SEL);
  70              		.loc 1 568 0
  71 000a 324A     		ldr	r2, .L9
 576:Generated_Source\PSoC4/CapSense_SensingCSD_LL.c **** 
  72              		.loc 1 576 0
  73 000c 3249     		ldr	r1, .L9+4
 568:Generated_Source\PSoC4/CapSense_SensingCSD_LL.c ****         CY_SET_REG32(CapSense_SW_FW_TANK_SEL_PTR,   CapSense_DEFAULT_CSD_SW_FW_TANK_SEL);
  74              		.loc 1 568 0
  75 000e 1360     		str	r3, [r2]
 569:Generated_Source\PSoC4/CapSense_SensingCSD_LL.c ****         CY_SET_REG32(CapSense_SW_FW_TANK_SEL_PTR,   CapSense_DEFAULT_CSD_SW_FW_TANK_SEL);
  76              		.loc 1 569 0
  77 0010 324A     		ldr	r2, .L9+8
 581:Generated_Source\PSoC4/CapSense_SensingCSD_LL.c ****         newRegValue |= (CapSense_HSIOM_SEL_AMUXA << CapSense_CMOD_HSIOM_SHIFT);
 582:Generated_Source\PSoC4/CapSense_SensingCSD_LL.c ****         CY_SET_REG32(CapSense_CMOD_HSIOM_PTR, newRegValue);
 583:Generated_Source\PSoC4/CapSense_SensingCSD_LL.c **** 
 584:Generated_Source\PSoC4/CapSense_SensingCSD_LL.c ****         /* Connect AMUXBUS-A to CSDBUS-A */
 585:Generated_Source\PSoC4/CapSense_SensingCSD_LL.c ****         newRegValue = CY_GET_REG32(CapSense_SW_BYP_SEL_PTR);
 586:Generated_Source\PSoC4/CapSense_SensingCSD_LL.c ****         newRegValue |= CapSense_SW_BYP_SEL_SW_BYA_MASK;
 587:Generated_Source\PSoC4/CapSense_SensingCSD_LL.c ****         CY_SET_REG32(CapSense_SW_BYP_SEL_PTR, newRegValue);
 588:Generated_Source\PSoC4/CapSense_SensingCSD_LL.c **** 
 589:Generated_Source\PSoC4/CapSense_SensingCSD_LL.c ****         /* Connect CMOD to (sense path) to CSDCOMP */
 590:Generated_Source\PSoC4/CapSense_SensingCSD_LL.c ****         #if (CapSense_CMOD_PAD == CapSense_CMOD_CONNECTION)
 591:Generated_Source\PSoC4/CapSense_SensingCSD_LL.c ****             CY_SET_REG32(CapSense_SW_CMP_P_SEL_PTR, CapSense_SW_CMP_P_SEL_SW_SFPM_STATIC_CLOSE);
 592:Generated_Source\PSoC4/CapSense_SensingCSD_LL.c ****         #elif (CapSense_CSHIELD_PAD == CapSense_CMOD_CONNECTION)
 593:Generated_Source\PSoC4/CapSense_SensingCSD_LL.c ****             CY_SET_REG32(CapSense_SW_CMP_P_SEL_PTR, CapSense_SW_CMP_P_SEL_SW_SFPS_STATIC_CLOSE);
 594:Generated_Source\PSoC4/CapSense_SensingCSD_LL.c ****         #else
 595:Generated_Source\PSoC4/CapSense_SensingCSD_LL.c ****             CY_SET_REG32(CapSense_SW_CMP_P_SEL_PTR, CapSense_SW_CMP_P_SEL_SW_SFPT_STATIC_CLOSE);
 596:Generated_Source\PSoC4/CapSense_SensingCSD_LL.c ****         #endif /* (CapSense_CMOD_PAD == CapSense_CMOD_CONNECTION) */
 597:Generated_Source\PSoC4/CapSense_SensingCSD_LL.c **** 
 598:Generated_Source\PSoC4/CapSense_SensingCSD_LL.c ****         /* Configure shield driving path */
 599:Generated_Source\PSoC4/CapSense_SensingCSD_LL.c ****         #if (CapSense_ENABLE == CapSense_CSD_SHIELD_EN)
 600:Generated_Source\PSoC4/CapSense_SensingCSD_LL.c ****             /* Connect AMUXBUS-B to CSDBUS-B (and AMUXBUS-A to CSDBUS-A ) */
 601:Generated_Source\PSoC4/CapSense_SensingCSD_LL.c ****             CY_SET_REG32(CapSense_SW_BYP_SEL_PTR, CapSense_SW_BYP_SEL_SW_BYA_MASK | CapSense_SW_BYP
 602:Generated_Source\PSoC4/CapSense_SensingCSD_LL.c **** 
 603:Generated_Source\PSoC4/CapSense_SensingCSD_LL.c ****             /* Connect AMUXBUS-B to HSCMP positive input */
ARM GAS  C:\Users\Jerry\AppData\Local\Temp\cc2mbs0O.s 			page 13


 604:Generated_Source\PSoC4/CapSense_SensingCSD_LL.c ****             CY_SET_REG32(CapSense_SW_HS_P_SEL_PTR, CapSense_SW_HS_P_SEL_SW_HMMB_STATIC_CLOSE);
 605:Generated_Source\PSoC4/CapSense_SensingCSD_LL.c ****         #endif /* (CapSense_ENABLE == CapSense_CSD_SHIELD_EN) */
 606:Generated_Source\PSoC4/CapSense_SensingCSD_LL.c **** 
 607:Generated_Source\PSoC4/CapSense_SensingCSD_LL.c ****         /* Configure VREF */
 608:Generated_Source\PSoC4/CapSense_SensingCSD_LL.c ****         #if (CapSense_ENABLE == CapSense_CSD_IDAC_COMP_EN) && (CapSense_ENABLE == CapSense_CSD_DEDI
 609:Generated_Source\PSoC4/CapSense_SensingCSD_LL.c ****             /* Connect VREF to REFGEN. Connect IDACB to CSDBUSA */
 610:Generated_Source\PSoC4/CapSense_SensingCSD_LL.c ****             newRegValue = CY_GET_REG32(CapSense_SW_REFGEN_SEL_PTR);
 611:Generated_Source\PSoC4/CapSense_SensingCSD_LL.c ****             newRegValue |= CapSense_SW_REFGEN_SEL_SW_SGR_MASK | CapSense_SW_REFGEN_SEL_SW_IAIB_MASK
 612:Generated_Source\PSoC4/CapSense_SensingCSD_LL.c ****             CY_SET_REG32(CapSense_SW_REFGEN_SEL_PTR, newRegValue);
 613:Generated_Source\PSoC4/CapSense_SensingCSD_LL.c ****         #else
 614:Generated_Source\PSoC4/CapSense_SensingCSD_LL.c ****             /* Connect VREF to REFGEN (IAIB switch is open) */
 615:Generated_Source\PSoC4/CapSense_SensingCSD_LL.c ****             newRegValue = CY_GET_REG32(CapSense_SW_REFGEN_SEL_PTR);
 616:Generated_Source\PSoC4/CapSense_SensingCSD_LL.c ****             newRegValue |= CapSense_SW_REFGEN_SEL_SW_SGR_MASK;
 617:Generated_Source\PSoC4/CapSense_SensingCSD_LL.c ****             CY_SET_REG32(CapSense_SW_REFGEN_SEL_PTR, newRegValue);
 618:Generated_Source\PSoC4/CapSense_SensingCSD_LL.c ****         #endif /* (CapSense_ENABLE == CapSense_CSD_IDAC_COMP_EN) && (CapSense_ENABLE == CapSense_CS
 619:Generated_Source\PSoC4/CapSense_SensingCSD_LL.c **** 
 620:Generated_Source\PSoC4/CapSense_SensingCSD_LL.c ****         #if (CapSense_2000_MV > CapSense_CYDEV_VDDA_MV)
 621:Generated_Source\PSoC4/CapSense_SensingCSD_LL.c **** 
 622:Generated_Source\PSoC4/CapSense_SensingCSD_LL.c ****             /* Connect VREFLOW (from AMBUF and RefGen is in bypass mode) to CSDCOMP when Vdda < 2 V
 623:Generated_Source\PSoC4/CapSense_SensingCSD_LL.c ****             CY_SET_REG32(CapSense_SW_CMP_N_SEL_PTR, CapSense_SW_CMP_N_SEL_SW_SCRL_STATIC_CLOSE);
 624:Generated_Source\PSoC4/CapSense_SensingCSD_LL.c **** 
 625:Generated_Source\PSoC4/CapSense_SensingCSD_LL.c ****             /* Configure REFGEN to BYPASS mode when Vdda < 2 V */
 626:Generated_Source\PSoC4/CapSense_SensingCSD_LL.c ****             CY_SET_REG32(CapSense_REFGEN_PTR, CapSense_REFGEN_REFGEN_EN_MASK |
 627:Generated_Source\PSoC4/CapSense_SensingCSD_LL.c ****                                                       CapSense_REFGEN_BYPASS_MASK |
 628:Generated_Source\PSoC4/CapSense_SensingCSD_LL.c ****                                                       CapSense_REFGEN_VREFLO_INT_MASK);
 629:Generated_Source\PSoC4/CapSense_SensingCSD_LL.c **** 
 630:Generated_Source\PSoC4/CapSense_SensingCSD_LL.c ****             /*  Connect Vrefhi to AMUBUF positive input when Vdaa < 2V
 631:Generated_Source\PSoC4/CapSense_SensingCSD_LL.c ****              *  Connect AMUBUF to SCDCMP negative input when Vdaa < 2V
 632:Generated_Source\PSoC4/CapSense_SensingCSD_LL.c ****              */
 633:Generated_Source\PSoC4/CapSense_SensingCSD_LL.c ****             CY_SET_REG32(CapSense_SW_AMUXBUF_SEL_PTR, CapSense_SW_AMUXBUF_SEL_SW_IRH_STATIC_CLOSE |
 634:Generated_Source\PSoC4/CapSense_SensingCSD_LL.c ****                                                               CapSense_SW_AMUXBUF_SEL_SW_IRLB_STATI
 635:Generated_Source\PSoC4/CapSense_SensingCSD_LL.c **** 
 636:Generated_Source\PSoC4/CapSense_SensingCSD_LL.c ****             /* Turn on CSD_AMBUF normal power level when Vdaa < 2V */
 637:Generated_Source\PSoC4/CapSense_SensingCSD_LL.c ****             CY_SET_REG32(CapSense_AMBUF_PTR, CapSense_AMBUF_PWR_MODE_NORM);
 638:Generated_Source\PSoC4/CapSense_SensingCSD_LL.c ****         #else
 639:Generated_Source\PSoC4/CapSense_SensingCSD_LL.c **** 
 640:Generated_Source\PSoC4/CapSense_SensingCSD_LL.c ****             /* Connect VREFHI (from RefGen) to CSDCOMP when Vdda >= 2 V */
 641:Generated_Source\PSoC4/CapSense_SensingCSD_LL.c ****             CY_SET_REG32(CapSense_SW_CMP_N_SEL_PTR, CapSense_SW_CMP_N_SEL_SW_SCRH_STATIC_CLOSE);
 642:Generated_Source\PSoC4/CapSense_SensingCSD_LL.c **** 
 643:Generated_Source\PSoC4/CapSense_SensingCSD_LL.c ****             #if (CapSense_ENABLE == CapSense_CSD_SHIELD_EN)
 644:Generated_Source\PSoC4/CapSense_SensingCSD_LL.c **** 
 645:Generated_Source\PSoC4/CapSense_SensingCSD_LL.c ****                 /* Configure REFGEN. Set reference voltage when Vdda >= 2 V */
 646:Generated_Source\PSoC4/CapSense_SensingCSD_LL.c ****                 CY_SET_REG32(CapSense_REFGEN_PTR, CapSense_REFGEN_WITH_SHIELD);
 647:Generated_Source\PSoC4/CapSense_SensingCSD_LL.c **** 
 648:Generated_Source\PSoC4/CapSense_SensingCSD_LL.c ****                 /* Turn on CSD_AMBUF high power level when Vdaa >= 2V */
 649:Generated_Source\PSoC4/CapSense_SensingCSD_LL.c ****                 CY_SET_REG32(CapSense_AMBUF_PTR, CapSense_AMBUF_PWR_MODE_HI);
 650:Generated_Source\PSoC4/CapSense_SensingCSD_LL.c ****             #else
 651:Generated_Source\PSoC4/CapSense_SensingCSD_LL.c **** 
 652:Generated_Source\PSoC4/CapSense_SensingCSD_LL.c ****                 /* Configure REFGEN. Set reference voltage when Vdda >= 2 V */
 653:Generated_Source\PSoC4/CapSense_SensingCSD_LL.c ****                 CY_SET_REG32(CapSense_REFGEN_PTR, CapSense_REFGEN_NO_SHIELD);
 654:Generated_Source\PSoC4/CapSense_SensingCSD_LL.c **** 
 655:Generated_Source\PSoC4/CapSense_SensingCSD_LL.c ****                 /* Connect VREFHI to HSCOMP */
 656:Generated_Source\PSoC4/CapSense_SensingCSD_LL.c ****                 CY_SET_REG32(CapSense_SW_HS_N_SEL_PTR, CapSense_SW_HS_N_SEL_SW_HCRH_STATIC_CLOSE);
 657:Generated_Source\PSoC4/CapSense_SensingCSD_LL.c ****             #endif /* (CapSense_ENABLE == CapSense_CSD_SHIELD_EN) */
 658:Generated_Source\PSoC4/CapSense_SensingCSD_LL.c **** 
 659:Generated_Source\PSoC4/CapSense_SensingCSD_LL.c ****             /* Make sure that CSD_AMBUF is unconnected from Vrefhi and from Vreflo */
 660:Generated_Source\PSoC4/CapSense_SensingCSD_LL.c ****             CY_SET_REG32(CapSense_SW_AMUXBUF_SEL_PTR, CapSense_SW_AMUXBUF_SEL_SW_DEFAULT);
ARM GAS  C:\Users\Jerry\AppData\Local\Temp\cc2mbs0O.s 			page 14


 661:Generated_Source\PSoC4/CapSense_SensingCSD_LL.c **** 
 662:Generated_Source\PSoC4/CapSense_SensingCSD_LL.c ****         #endif /* (CapSense_2000_MV > CapSense_CYDEV_VDDA_MV) */
 663:Generated_Source\PSoC4/CapSense_SensingCSD_LL.c **** 
 664:Generated_Source\PSoC4/CapSense_SensingCSD_LL.c ****         /* Configure IDACs mode */
 665:Generated_Source\PSoC4/CapSense_SensingCSD_LL.c ****         CapSense_SsCSDConfigIDACs();
 666:Generated_Source\PSoC4/CapSense_SensingCSD_LL.c **** 
 667:Generated_Source\PSoC4/CapSense_SensingCSD_LL.c ****         /* Configure ModClk */
 668:Generated_Source\PSoC4/CapSense_SensingCSD_LL.c ****         CapSense_SsSetModClkClockDivider((uint32)CapSense_dsRam.modCsdClk);
  78              		.loc 1 668 0
  79 0012 334E     		ldr	r6, .L9+12
 569:Generated_Source\PSoC4/CapSense_SensingCSD_LL.c ****         CY_SET_REG32(CapSense_SW_DSI_SEL_PTR,       CapSense_DEFAULT_CSD_SW_DSI_SEL);
  80              		.loc 1 569 0
  81 0014 1360     		str	r3, [r2]
 570:Generated_Source\PSoC4/CapSense_SensingCSD_LL.c ****         CY_SET_REG32(CapSense_ADC_CTL_PTR,          CapSense_DEFAULT_CSD_ADC_CTL);
  82              		.loc 1 570 0
  83 0016 334A     		ldr	r2, .L9+16
  84 0018 1360     		str	r3, [r2]
 571:Generated_Source\PSoC4/CapSense_SensingCSD_LL.c ****         CY_SET_REG32(CapSense_AMBUF_PTR,            CapSense_AMBUF_PWR_MODE_OFF);
  85              		.loc 1 571 0
  86 001a 334A     		ldr	r2, .L9+20
  87 001c 1360     		str	r3, [r2]
 572:Generated_Source\PSoC4/CapSense_SensingCSD_LL.c ****         CY_SET_REG32(CapSense_SW_SHIELD_SEL_PTR,    CapSense_DEFAULT_SW_SHIELD_SEL);
  88              		.loc 1 572 0
  89 001e 334A     		ldr	r2, .L9+24
  90 0020 1360     		str	r3, [r2]
 573:Generated_Source\PSoC4/CapSense_SensingCSD_LL.c ****         CY_SET_REG32(CapSense_SW_HS_P_SEL_PTR,      CapSense_DEFAULT_SW_HS_P_SEL);
  91              		.loc 1 573 0
  92 0022 334A     		ldr	r2, .L9+28
  93 0024 1360     		str	r3, [r2]
 574:Generated_Source\PSoC4/CapSense_SensingCSD_LL.c ****         CY_SET_REG32(CapSense_SW_HS_N_SEL_PTR,      CapSense_DEFAULT_SW_HS_N_SEL);
  94              		.loc 1 574 0
  95 0026 334A     		ldr	r2, .L9+32
  96 0028 1360     		str	r3, [r2]
 575:Generated_Source\PSoC4/CapSense_SensingCSD_LL.c ****         CY_SET_REG32(CapSense_HSCMP_PTR,            CapSense_DEFAULT_HSCMP_CFG);
  97              		.loc 1 575 0
  98 002a 334A     		ldr	r2, .L9+36
  99 002c 1360     		str	r3, [r2]
 576:Generated_Source\PSoC4/CapSense_SensingCSD_LL.c **** 
 100              		.loc 1 576 0
 101 002e 0B60     		str	r3, [r1]
 579:Generated_Source\PSoC4/CapSense_SensingCSD_LL.c ****         newRegValue &= (uint32)(~(uint32)CapSense_CMOD_HSIOM_MASK);
 102              		.loc 1 579 0
 103 0030 3249     		ldr	r1, .L9+40
 104 0032 0B68     		ldr	r3, [r1]
 105              	.LVL4:
 580:Generated_Source\PSoC4/CapSense_SensingCSD_LL.c ****         newRegValue |= (CapSense_HSIOM_SEL_AMUXA << CapSense_CMOD_HSIOM_SHIFT);
 106              		.loc 1 580 0
 107 0034 8343     		bic	r3, r0
 108              	.LVL5:
 581:Generated_Source\PSoC4/CapSense_SensingCSD_LL.c ****         CY_SET_REG32(CapSense_CMOD_HSIOM_PTR, newRegValue);
 109              		.loc 1 581 0
 110 0036 0938     		sub	r0, r0, #9
 111 0038 0343     		orr	r3, r0
 112              	.LVL6:
 586:Generated_Source\PSoC4/CapSense_SensingCSD_LL.c ****         CY_SET_REG32(CapSense_SW_BYP_SEL_PTR, newRegValue);
 113              		.loc 1 586 0
 114 003a 8020     		mov	r0, #128
ARM GAS  C:\Users\Jerry\AppData\Local\Temp\cc2mbs0O.s 			page 15


 582:Generated_Source\PSoC4/CapSense_SensingCSD_LL.c **** 
 115              		.loc 1 582 0
 116 003c 0B60     		str	r3, [r1]
 585:Generated_Source\PSoC4/CapSense_SensingCSD_LL.c ****         newRegValue |= CapSense_SW_BYP_SEL_SW_BYA_MASK;
 117              		.loc 1 585 0
 118 003e 3049     		ldr	r1, .L9+44
 586:Generated_Source\PSoC4/CapSense_SensingCSD_LL.c ****         CY_SET_REG32(CapSense_SW_BYP_SEL_PTR, newRegValue);
 119              		.loc 1 586 0
 120 0040 4001     		lsl	r0, r0, #5
 585:Generated_Source\PSoC4/CapSense_SensingCSD_LL.c ****         newRegValue |= CapSense_SW_BYP_SEL_SW_BYA_MASK;
 121              		.loc 1 585 0
 122 0042 0B68     		ldr	r3, [r1]
 123              	.LVL7:
 586:Generated_Source\PSoC4/CapSense_SensingCSD_LL.c ****         CY_SET_REG32(CapSense_SW_BYP_SEL_PTR, newRegValue);
 124              		.loc 1 586 0
 125 0044 0343     		orr	r3, r0
 126              	.LVL8:
 587:Generated_Source\PSoC4/CapSense_SensingCSD_LL.c **** 
 127              		.loc 1 587 0
 128 0046 0B60     		str	r3, [r1]
 593:Generated_Source\PSoC4/CapSense_SensingCSD_LL.c ****         #else
 129              		.loc 1 593 0
 130 0048 8021     		mov	r1, #128
 131 004a 2E4B     		ldr	r3, .L9+48
 132              	.LVL9:
 133 004c 4900     		lsl	r1, r1, #1
 134 004e 1960     		str	r1, [r3]
 135              	.LVL10:
 610:Generated_Source\PSoC4/CapSense_SensingCSD_LL.c ****             newRegValue |= CapSense_SW_REFGEN_SEL_SW_SGR_MASK | CapSense_SW_REFGEN_SEL_SW_IAIB_MASK
 136              		.loc 1 610 0
 137 0050 2D49     		ldr	r1, .L9+52
 611:Generated_Source\PSoC4/CapSense_SensingCSD_LL.c ****             CY_SET_REG32(CapSense_SW_REFGEN_SEL_PTR, newRegValue);
 138              		.loc 1 611 0
 139 0052 2E48     		ldr	r0, .L9+56
 610:Generated_Source\PSoC4/CapSense_SensingCSD_LL.c ****             newRegValue |= CapSense_SW_REFGEN_SEL_SW_SGR_MASK | CapSense_SW_REFGEN_SEL_SW_IAIB_MASK
 140              		.loc 1 610 0
 141 0054 0B68     		ldr	r3, [r1]
 142              	.LVL11:
 611:Generated_Source\PSoC4/CapSense_SensingCSD_LL.c ****             CY_SET_REG32(CapSense_SW_REFGEN_SEL_PTR, newRegValue);
 143              		.loc 1 611 0
 144 0056 0343     		orr	r3, r0
 145              	.LVL12:
 612:Generated_Source\PSoC4/CapSense_SensingCSD_LL.c ****         #else
 146              		.loc 1 612 0
 147 0058 0B60     		str	r3, [r1]
 641:Generated_Source\PSoC4/CapSense_SensingCSD_LL.c **** 
 148              		.loc 1 641 0
 149 005a 8023     		mov	r3, #128
 150              	.LVL13:
 151 005c 2C49     		ldr	r1, .L9+60
 152              	.LVL14:
 153 005e 5B04     		lsl	r3, r3, #17
 154 0060 0B60     		str	r3, [r1]
 155              	.LVL15:
 653:Generated_Source\PSoC4/CapSense_SensingCSD_LL.c **** 
 156              		.loc 1 653 0
 157 0062 2C48     		ldr	r0, .L9+64
ARM GAS  C:\Users\Jerry\AppData\Local\Temp\cc2mbs0O.s 			page 16


 158 0064 2C49     		ldr	r1, .L9+68
 159 0066 0860     		str	r0, [r1]
 656:Generated_Source\PSoC4/CapSense_SensingCSD_LL.c ****             #endif /* (CapSense_ENABLE == CapSense_CSD_SHIELD_EN) */
 160              		.loc 1 656 0
 161 0068 1360     		str	r3, [r2]
 660:Generated_Source\PSoC4/CapSense_SensingCSD_LL.c **** 
 162              		.loc 1 660 0
 163 006a 2C4A     		ldr	r2, .L9+72
 164 006c 2C4B     		ldr	r3, .L9+76
 165 006e 1A60     		str	r2, [r3]
 166              	.LBB8:
 167              	.LBB9:
 493:Generated_Source\PSoC4/CapSense_SensingCSD_LL.c ****         #if ((CapSense_ENABLE == CapSense_CSD_IDAC_COMP_EN) && \
 168              		.loc 1 493 0
 169 0070 2C4A     		ldr	r2, .L9+80
 170 0072 2D4B     		ldr	r3, .L9+84
 171 0074 1A60     		str	r2, [r3]
 496:Generated_Source\PSoC4/CapSense_SensingCSD_LL.c ****         #endif /* ((CapSense_ENABLE == CapSense_CSD_IDAC_COMP_EN) && \
 172              		.loc 1 496 0
 173 0076 C122     		mov	r2, #193
 174 0078 2C4B     		ldr	r3, .L9+88
 175 007a 5204     		lsl	r2, r2, #17
 176 007c 1A60     		str	r2, [r3]
 177              	.LBE9:
 178              	.LBE8:
 179              		.loc 1 668 0
 180 007e 307E     		ldrb	r0, [r6, #24]
 181 0080 FFF7FEFF 		bl	CapSense_SsSetModClkClockDivider
 182              	.LVL16:
 183              	.LBB10:
 184              	.LBB11:
 455:Generated_Source\PSoC4/CapSense_SensingCSD_LL.c **** 
 185              		.loc 1 455 0
 186 0084 7023     		mov	r3, #112
 187 0086 2A4C     		ldr	r4, .L9+92
 458:Generated_Source\PSoC4/CapSense_SensingCSD_LL.c ****             if(sampleClkFreqHz <= CapSense_MOD_CSD_CLK_12MHZ)
 188              		.loc 1 458 0
 189 0088 317E     		ldrb	r1, [r6, #24]
 455:Generated_Source\PSoC4/CapSense_SensingCSD_LL.c **** 
 190              		.loc 1 455 0
 191 008a 2568     		ldr	r5, [r4]
 458:Generated_Source\PSoC4/CapSense_SensingCSD_LL.c ****             if(sampleClkFreqHz <= CapSense_MOD_CSD_CLK_12MHZ)
 192              		.loc 1 458 0
 193 008c 2948     		ldr	r0, .L9+96
 455:Generated_Source\PSoC4/CapSense_SensingCSD_LL.c **** 
 194              		.loc 1 455 0
 195 008e 9D43     		bic	r5, r3
 196              	.LVL17:
 458:Generated_Source\PSoC4/CapSense_SensingCSD_LL.c ****             if(sampleClkFreqHz <= CapSense_MOD_CSD_CLK_12MHZ)
 197              		.loc 1 458 0
 198 0090 FFF7FEFF 		bl	__aeabi_uidiv
 199              	.LVL18:
 459:Generated_Source\PSoC4/CapSense_SensingCSD_LL.c ****             {
 200              		.loc 1 459 0
 201 0094 284A     		ldr	r2, .L9+100
 202 0096 231C     		mov	r3, r4
 203 0098 9042     		cmp	r0, r2
ARM GAS  C:\Users\Jerry\AppData\Local\Temp\cc2mbs0O.s 			page 17


 204 009a 01D8     		bhi	.L5
 461:Generated_Source\PSoC4/CapSense_SensingCSD_LL.c ****             }
 205              		.loc 1 461 0
 206 009c 2022     		mov	r2, #32
 207 009e 00E0     		b	.L7
 208              	.L5:
 465:Generated_Source\PSoC4/CapSense_SensingCSD_LL.c ****             }
 209              		.loc 1 465 0
 210 00a0 3022     		mov	r2, #48
 211              	.L7:
 212 00a2 1543     		orr	r5, r2
 213 00a4 1D60     		str	r5, [r3]
 214              	.LBE11:
 215              	.LBE10:
 669:Generated_Source\PSoC4/CapSense_SensingCSD_LL.c **** 
 670:Generated_Source\PSoC4/CapSense_SensingCSD_LL.c ****         /* Set other CSD configurations */
 671:Generated_Source\PSoC4/CapSense_SensingCSD_LL.c ****         #if (CapSense_ENABLE == CapSense_CSD_SHIELD_EN)
 672:Generated_Source\PSoC4/CapSense_SensingCSD_LL.c ****             CapSense_SsSetShieldDelay(CapSense_CSD_SHIELD_DELAY);
 673:Generated_Source\PSoC4/CapSense_SensingCSD_LL.c ****         #endif /* (CapSense_ENABLE == CapSense_CSD_SHIELD_EN) */
 674:Generated_Source\PSoC4/CapSense_SensingCSD_LL.c **** 
 675:Generated_Source\PSoC4/CapSense_SensingCSD_LL.c ****         /* Configure CSDv2 filter delay */
 676:Generated_Source\PSoC4/CapSense_SensingCSD_LL.c ****         CapSense_SsCSDSetFilterDelay();
 677:Generated_Source\PSoC4/CapSense_SensingCSD_LL.c **** 
 678:Generated_Source\PSoC4/CapSense_SensingCSD_LL.c ****         #if (CapSense_DISABLE == CapSense_BLOCK_OFF_AFTER_SCAN_EN)
 679:Generated_Source\PSoC4/CapSense_SensingCSD_LL.c ****             /* Enable power to sub-blocks */
 680:Generated_Source\PSoC4/CapSense_SensingCSD_LL.c ****             CY_SET_REG32(CapSense_CONFIG_PTR, CapSense_configCsd |
 216              		.loc 1 680 0
 217 00a6 1B68     		ldr	r3, [r3]
 218 00a8 244A     		ldr	r2, .L9+104
 681:Generated_Source\PSoC4/CapSense_SensingCSD_LL.c ****                                                       CapSense_CONFIG_SENSE_EN_MASK |
 682:Generated_Source\PSoC4/CapSense_SensingCSD_LL.c ****                                                       CapSense_CONFIG_ENABLE_MASK);
 683:Generated_Source\PSoC4/CapSense_SensingCSD_LL.c **** 
 684:Generated_Source\PSoC4/CapSense_SensingCSD_LL.c ****             /*  Wait until CSD block powers ON */
 685:Generated_Source\PSoC4/CapSense_SensingCSD_LL.c ****             CyDelayCycles(CapSense_CSD_ON_DELAY);
 219              		.loc 1 685 0
 220 00aa 4820     		mov	r0, #72
 680:Generated_Source\PSoC4/CapSense_SensingCSD_LL.c ****                                                       CapSense_CONFIG_SENSE_EN_MASK |
 221              		.loc 1 680 0
 222 00ac 1343     		orr	r3, r2
 223 00ae 244A     		ldr	r2, .L9+108
 686:Generated_Source\PSoC4/CapSense_SensingCSD_LL.c ****         #endif /* (CapSense_ENABLE == CapSense_BLOCK_OFF_AFTER_SCAN_EN) */
 687:Generated_Source\PSoC4/CapSense_SensingCSD_LL.c **** 
 688:Generated_Source\PSoC4/CapSense_SensingCSD_LL.c ****         /* Set Csd Auto Zero time (set AZ_TIME bitmask) */
 689:Generated_Source\PSoC4/CapSense_SensingCSD_LL.c ****         CY_SET_REG32(CapSense_SEQ_TIME_PTR, CapSense_CSD_AUTO_ZERO_TIME);
 690:Generated_Source\PSoC4/CapSense_SensingCSD_LL.c **** 
 691:Generated_Source\PSoC4/CapSense_SensingCSD_LL.c ****         /* Select CMOD and Csh_tank/shield initialization switch resistance */
 692:Generated_Source\PSoC4/CapSense_SensingCSD_LL.c ****         CY_SET_REG32(CapSense_SW_RES_PTR, 0x00000000);
 693:Generated_Source\PSoC4/CapSense_SensingCSD_LL.c **** 
 694:Generated_Source\PSoC4/CapSense_SensingCSD_LL.c ****         /* Set the number of dummy fine initialization cycles */
 695:Generated_Source\PSoC4/CapSense_SensingCSD_LL.c ****         CY_SET_REG32(CapSense_SEQ_INIT_CNT_PTR, CapSense_SEQ_INIT_CNT_CONV_CNT_FINE_INIT);
 696:Generated_Source\PSoC4/CapSense_SensingCSD_LL.c **** 
 697:Generated_Source\PSoC4/CapSense_SensingCSD_LL.c ****         /* Set Phi1 and Phi2 switches to non-overlapping (no low EMI)*/
 698:Generated_Source\PSoC4/CapSense_SensingCSD_LL.c ****         CY_SET_REG32(CapSense_SENSE_DUTY_PTR, CapSense_SENSE_DUTY_OVERLAP_PHI1_MASK |
 699:Generated_Source\PSoC4/CapSense_SensingCSD_LL.c ****                                                       CapSense_SENSE_DUTY_OVERLAP_PHI2_MASK);
 700:Generated_Source\PSoC4/CapSense_SensingCSD_LL.c ****     #endif /* (CapSense_ENABLE == CapSense_CSDV2) */
 701:Generated_Source\PSoC4/CapSense_SensingCSD_LL.c **** 
 702:Generated_Source\PSoC4/CapSense_SensingCSD_LL.c ****     #if (CapSense_DISABLE == CapSense_CSDV2)
ARM GAS  C:\Users\Jerry\AppData\Local\Temp\cc2mbs0O.s 			page 18


 703:Generated_Source\PSoC4/CapSense_SensingCSD_LL.c **** 
 704:Generated_Source\PSoC4/CapSense_SensingCSD_LL.c ****         /* Configure IDACs mode */
 705:Generated_Source\PSoC4/CapSense_SensingCSD_LL.c ****         CapSense_SsCSDConfigIDACs();
 706:Generated_Source\PSoC4/CapSense_SensingCSD_LL.c **** 
 707:Generated_Source\PSoC4/CapSense_SensingCSD_LL.c ****         /* Connect Cmod to AMUXBUS-A using HSIOM registers */
 708:Generated_Source\PSoC4/CapSense_SensingCSD_LL.c ****         newRegValue = CY_GET_REG32(CapSense_CMOD_HSIOM_PTR);
 709:Generated_Source\PSoC4/CapSense_SensingCSD_LL.c ****         newRegValue &= (uint32)(~(uint32)CapSense_CMOD_HSIOM_MASK);
 710:Generated_Source\PSoC4/CapSense_SensingCSD_LL.c ****         newRegValue |= (CapSense_HSIOM_SEL_AMUXA << CapSense_CMOD_HSIOM_SHIFT);
 711:Generated_Source\PSoC4/CapSense_SensingCSD_LL.c ****         CY_SET_REG32(CapSense_CMOD_HSIOM_PTR, newRegValue);
 712:Generated_Source\PSoC4/CapSense_SensingCSD_LL.c **** 
 713:Generated_Source\PSoC4/CapSense_SensingCSD_LL.c ****         #if (CapSense_ENABLE == CapSense_CSD_SHIELD_EN)
 714:Generated_Source\PSoC4/CapSense_SensingCSD_LL.c ****             CapSense_SsSetShieldDelay(CapSense_CSD_SHIELD_DELAY);
 715:Generated_Source\PSoC4/CapSense_SensingCSD_LL.c ****         #endif /* (CapSense_ENABLE == CapSense_CSD_SHIELD_EN) */
 716:Generated_Source\PSoC4/CapSense_SensingCSD_LL.c **** 
 717:Generated_Source\PSoC4/CapSense_SensingCSD_LL.c ****         /* Enable CSD block. Connect Vref Buffer to AMUX bus to make sure that Cmod is charged befo
 718:Generated_Source\PSoC4/CapSense_SensingCSD_LL.c ****         #if (CapSense_ENABLE == CapSense_BLOCK_OFF_AFTER_SCAN_EN)
 719:Generated_Source\PSoC4/CapSense_SensingCSD_LL.c ****             CY_SET_REG32(CapSense_CONFIG_PTR, CapSense_configCsd);
 720:Generated_Source\PSoC4/CapSense_SensingCSD_LL.c ****         #else
 721:Generated_Source\PSoC4/CapSense_SensingCSD_LL.c ****             CY_SET_REG32(CapSense_CONFIG_PTR, CapSense_configCsd | CapSense_CTANK_PRECHARGE_CONFIG_
 722:Generated_Source\PSoC4/CapSense_SensingCSD_LL.c ****         #endif /* (CapSense_ENABLE == CapSense_BLOCK_OFF_AFTER_SCAN_EN) */
 723:Generated_Source\PSoC4/CapSense_SensingCSD_LL.c ****     #endif /* (CapSense_DISABLE == CapSense_CSDV2) */
 724:Generated_Source\PSoC4/CapSense_SensingCSD_LL.c **** 
 725:Generated_Source\PSoC4/CapSense_SensingCSD_LL.c ****     #if ((CapSense_ENABLE == CapSense_CSD_COMMON_SNS_CLK_EN) &&\
 726:Generated_Source\PSoC4/CapSense_SensingCSD_LL.c ****          (CapSense_CLK_SOURCE_DIRECT == CapSense_CSD_SNS_CLK_SOURCE))
 727:Generated_Source\PSoC4/CapSense_SensingCSD_LL.c ****          /* Set clock dividers and clock source mode */
 728:Generated_Source\PSoC4/CapSense_SensingCSD_LL.c ****         CapSense_SsCSDConfigClock();
 729:Generated_Source\PSoC4/CapSense_SensingCSD_LL.c ****     #endif /* ((CapSense_ENABLE == CapSense_CSD_COMMON_SNS_CLK_EN) &&\
 730:Generated_Source\PSoC4/CapSense_SensingCSD_LL.c ****                (CapSense_CLK_SOURCE_DIRECT == CapSense_CSD_SNS_CLK_SOURCE)) */
 731:Generated_Source\PSoC4/CapSense_SensingCSD_LL.c **** }
 224              		.loc 1 731 0
 225              		@ sp needed
 680:Generated_Source\PSoC4/CapSense_SensingCSD_LL.c ****                                                       CapSense_CONFIG_SENSE_EN_MASK |
 226              		.loc 1 680 0
 227 00b0 1360     		str	r3, [r2]
 685:Generated_Source\PSoC4/CapSense_SensingCSD_LL.c ****         #endif /* (CapSense_ENABLE == CapSense_BLOCK_OFF_AFTER_SCAN_EN) */
 228              		.loc 1 685 0
 229 00b2 FFF7FEFF 		bl	CyDelayCycles
 230              	.LVL19:
 689:Generated_Source\PSoC4/CapSense_SensingCSD_LL.c **** 
 231              		.loc 1 689 0
 232 00b6 0F22     		mov	r2, #15
 233 00b8 224B     		ldr	r3, .L9+112
 234 00ba 1A60     		str	r2, [r3]
 692:Generated_Source\PSoC4/CapSense_SensingCSD_LL.c **** 
 235              		.loc 1 692 0
 236 00bc 0022     		mov	r2, #0
 237 00be 224B     		ldr	r3, .L9+116
 238 00c0 1A60     		str	r2, [r3]
 695:Generated_Source\PSoC4/CapSense_SensingCSD_LL.c **** 
 239              		.loc 1 695 0
 240 00c2 224B     		ldr	r3, .L9+120
 241 00c4 0A32     		add	r2, r2, #10
 242 00c6 1A60     		str	r2, [r3]
 698:Generated_Source\PSoC4/CapSense_SensingCSD_LL.c ****                                                       CapSense_SENSE_DUTY_OVERLAP_PHI2_MASK);
 243              		.loc 1 698 0
 244 00c8 C022     		mov	r2, #192
 245 00ca 214B     		ldr	r3, .L9+124
ARM GAS  C:\Users\Jerry\AppData\Local\Temp\cc2mbs0O.s 			page 19


 246 00cc 1203     		lsl	r2, r2, #12
 247 00ce 1A60     		str	r2, [r3]
 248              		.loc 1 731 0
 249 00d0 70BD     		pop	{r4, r5, r6, pc}
 250              	.L10:
 251 00d2 C046     		.align	2
 252              	.L9:
 253 00d4 F4000C40 		.word	1074528500
 254 00d8 80010C40 		.word	1074528640
 255 00dc B4020C40 		.word	1074528948
 256 00e0 00000000 		.word	CapSense_dsRam
 257 00e4 C0020C40 		.word	1074528960
 258 00e8 20030C40 		.word	1074529056
 259 00ec 84010C40 		.word	1074528644
 260 00f0 88020C40 		.word	1074528904
 261 00f4 80020C40 		.word	1074528896
 262 00f8 84020C40 		.word	1074528900
 263 00fc 00050240 		.word	1073874176
 264 0100 94020C40 		.word	1074528916
 265 0104 A0020C40 		.word	1074528928
 266 0108 A8020C40 		.word	1074528936
 267 010c 01000010 		.word	268435457
 268 0110 A4020C40 		.word	1074528932
 269 0114 41120000 		.word	4673
 270 0118 88010C40 		.word	1074528648
 271 011c 00000301 		.word	16973824
 272 0120 90020C40 		.word	1074528912
 273 0124 00008301 		.word	25362432
 274 0128 C0010C40 		.word	1074528704
 275 012c C4010C40 		.word	1074528708
 276 0130 00000000 		.word	.LANCHOR0
 277 0134 00366E01 		.word	24000000
 278 0138 001BB700 		.word	12000000
 279 013c 00100080 		.word	-2147479552
 280 0140 00000C40 		.word	1074528256
 281 0144 00030C40 		.word	1074529024
 282 0148 F0010C40 		.word	1074528752
 283 014c 10030C40 		.word	1074529040
 284 0150 04020C40 		.word	1074528772
 285              		.cfi_endproc
 286              	.LFE4:
 287              		.size	CapSense_SsCSDInitialize, .-CapSense_SsCSDInitialize
 288              		.section	.text.CapSense_SsCSDSetUpIdacs,"ax",%progbits
 289              		.align	1
 290              		.global	CapSense_SsCSDSetUpIdacs
 291              		.code	16
 292              		.thumb_func
 293              		.type	CapSense_SsCSDSetUpIdacs, %function
 294              	CapSense_SsCSDSetUpIdacs:
 295              	.LFB6:
 732:Generated_Source\PSoC4/CapSense_SensingCSD_LL.c **** 
 733:Generated_Source\PSoC4/CapSense_SensingCSD_LL.c **** 
 734:Generated_Source\PSoC4/CapSense_SensingCSD_LL.c **** /*******************************************************************************
 735:Generated_Source\PSoC4/CapSense_SensingCSD_LL.c **** * Function Name: CapSense_SsCSDElectrodeCheck
 736:Generated_Source\PSoC4/CapSense_SensingCSD_LL.c **** ****************************************************************************//**
 737:Generated_Source\PSoC4/CapSense_SensingCSD_LL.c **** *
 738:Generated_Source\PSoC4/CapSense_SensingCSD_LL.c **** * \brief
ARM GAS  C:\Users\Jerry\AppData\Local\Temp\cc2mbs0O.s 			page 20


 739:Generated_Source\PSoC4/CapSense_SensingCSD_LL.c **** *   Checks if electrodes were previously connected using
 740:Generated_Source\PSoC4/CapSense_SensingCSD_LL.c ****  * CapSense_CSDSetupWidgetExt() API and if yes disconnects them.
 741:Generated_Source\PSoC4/CapSense_SensingCSD_LL.c **** *
 742:Generated_Source\PSoC4/CapSense_SensingCSD_LL.c **** * \details
 743:Generated_Source\PSoC4/CapSense_SensingCSD_LL.c **** *   This function checks if CapSense_eleCsdDisconnectFlag is set.
 744:Generated_Source\PSoC4/CapSense_SensingCSD_LL.c **** *   If it set, the function disconnects the previously connected electrode.
 745:Generated_Source\PSoC4/CapSense_SensingCSD_LL.c **** *   The previous IO is contained in CapSense_curSnsIOPtr and
 746:Generated_Source\PSoC4/CapSense_SensingCSD_LL.c **** *   CapSense_curFlashSnsPtr contains the previous data for Ganged
 747:Generated_Source\PSoC4/CapSense_SensingCSD_LL.c **** *   sensors.
 748:Generated_Source\PSoC4/CapSense_SensingCSD_LL.c **** *
 749:Generated_Source\PSoC4/CapSense_SensingCSD_LL.c **** *******************************************************************************/
 750:Generated_Source\PSoC4/CapSense_SensingCSD_LL.c **** void CapSense_SsCSDElectrodeCheck(void)
 751:Generated_Source\PSoC4/CapSense_SensingCSD_LL.c **** {
 752:Generated_Source\PSoC4/CapSense_SensingCSD_LL.c ****     #if (CapSense_ENABLE == CapSense_CSD_GANGED_SNS_EN)
 753:Generated_Source\PSoC4/CapSense_SensingCSD_LL.c ****         uint32 tempVal;
 754:Generated_Source\PSoC4/CapSense_SensingCSD_LL.c ****     #endif /* (CapSense_ENABLE == CapSense_CSD_GANGED_SNS_EN) */
 755:Generated_Source\PSoC4/CapSense_SensingCSD_LL.c **** 
 756:Generated_Source\PSoC4/CapSense_SensingCSD_LL.c ****     if (CapSense_ENABLE == CapSense_eleCsdDisconnectFlag)
 757:Generated_Source\PSoC4/CapSense_SensingCSD_LL.c ****     {
 758:Generated_Source\PSoC4/CapSense_SensingCSD_LL.c ****         /* Disconnect if electrodes were previous connected by CSDSetupWidgetExt() API */
 759:Generated_Source\PSoC4/CapSense_SensingCSD_LL.c ****         #if (CapSense_ENABLE == CapSense_CSD_GANGED_SNS_EN)
 760:Generated_Source\PSoC4/CapSense_SensingCSD_LL.c ****             /* Check ganged sns flag  */
 761:Generated_Source\PSoC4/CapSense_SensingCSD_LL.c ****             if (CapSense_GANGED_SNS_MASK == (CapSense_curFlashWdgtPtr->staticConfig & CapSense_GANG
 762:Generated_Source\PSoC4/CapSense_SensingCSD_LL.c ****             {
 763:Generated_Source\PSoC4/CapSense_SensingCSD_LL.c ****                 /* Get number of ganged pins */
 764:Generated_Source\PSoC4/CapSense_SensingCSD_LL.c ****                 tempVal = CapSense_curFlashSnsPtr->numPins;
 765:Generated_Source\PSoC4/CapSense_SensingCSD_LL.c **** 
 766:Generated_Source\PSoC4/CapSense_SensingCSD_LL.c ****                 /* Get IO pointer  */
 767:Generated_Source\PSoC4/CapSense_SensingCSD_LL.c ****                 CapSense_curSnsIOPtr = &CapSense_ioList[CapSense_curFlashSnsPtr->firstPinId];
 768:Generated_Source\PSoC4/CapSense_SensingCSD_LL.c **** 
 769:Generated_Source\PSoC4/CapSense_SensingCSD_LL.c ****                 /* Disconnect all ganged sensors */
 770:Generated_Source\PSoC4/CapSense_SensingCSD_LL.c ****                 do
 771:Generated_Source\PSoC4/CapSense_SensingCSD_LL.c ****                 {
 772:Generated_Source\PSoC4/CapSense_SensingCSD_LL.c ****                     CapSense_CSDDisconnectSns(CapSense_curSnsIOPtr);
 773:Generated_Source\PSoC4/CapSense_SensingCSD_LL.c ****                     CapSense_curSnsIOPtr++;
 774:Generated_Source\PSoC4/CapSense_SensingCSD_LL.c ****                     tempVal--;
 775:Generated_Source\PSoC4/CapSense_SensingCSD_LL.c ****                 } while (0u != tempVal);
 776:Generated_Source\PSoC4/CapSense_SensingCSD_LL.c ****             }
 777:Generated_Source\PSoC4/CapSense_SensingCSD_LL.c ****             else
 778:Generated_Source\PSoC4/CapSense_SensingCSD_LL.c ****             {
 779:Generated_Source\PSoC4/CapSense_SensingCSD_LL.c ****                 /* Disconnect ganged sensor */
 780:Generated_Source\PSoC4/CapSense_SensingCSD_LL.c ****                 CapSense_CSDDisconnectSns(CapSense_curSnsIOPtr);
 781:Generated_Source\PSoC4/CapSense_SensingCSD_LL.c ****             }
 782:Generated_Source\PSoC4/CapSense_SensingCSD_LL.c ****         #else
 783:Generated_Source\PSoC4/CapSense_SensingCSD_LL.c ****             /* Disable sensor */
 784:Generated_Source\PSoC4/CapSense_SensingCSD_LL.c ****             CapSense_CSDDisconnectSns(CapSense_curSnsIOPtr);
 785:Generated_Source\PSoC4/CapSense_SensingCSD_LL.c ****         #endif /* (CapSense_ENABLE == CapSense_CSD_GANGED_SNS_EN)  */
 786:Generated_Source\PSoC4/CapSense_SensingCSD_LL.c **** 
 787:Generated_Source\PSoC4/CapSense_SensingCSD_LL.c ****         CapSense_eleCsdDisconnectFlag = 0u;
 788:Generated_Source\PSoC4/CapSense_SensingCSD_LL.c ****     }
 789:Generated_Source\PSoC4/CapSense_SensingCSD_LL.c **** }
 790:Generated_Source\PSoC4/CapSense_SensingCSD_LL.c **** 
 791:Generated_Source\PSoC4/CapSense_SensingCSD_LL.c **** 
 792:Generated_Source\PSoC4/CapSense_SensingCSD_LL.c **** /*******************************************************************************
 793:Generated_Source\PSoC4/CapSense_SensingCSD_LL.c **** * Function Name: CapSense_SsCSDSetUpIdacs
 794:Generated_Source\PSoC4/CapSense_SensingCSD_LL.c **** ****************************************************************************//**
 795:Generated_Source\PSoC4/CapSense_SensingCSD_LL.c **** *
ARM GAS  C:\Users\Jerry\AppData\Local\Temp\cc2mbs0O.s 			page 21


 796:Generated_Source\PSoC4/CapSense_SensingCSD_LL.c **** * \brief
 797:Generated_Source\PSoC4/CapSense_SensingCSD_LL.c **** *  This internal function changes the IDACs values.
 798:Generated_Source\PSoC4/CapSense_SensingCSD_LL.c **** *
 799:Generated_Source\PSoC4/CapSense_SensingCSD_LL.c **** * \details
 800:Generated_Source\PSoC4/CapSense_SensingCSD_LL.c **** *  If Compensation IDAC is enabled, it updates two IDACs.
 801:Generated_Source\PSoC4/CapSense_SensingCSD_LL.c **** *  The Modulator IDAC is common for all the sensors of the widget.
 802:Generated_Source\PSoC4/CapSense_SensingCSD_LL.c **** *  The Compensation IDAC is updated for the sensor of the widget which
 803:Generated_Source\PSoC4/CapSense_SensingCSD_LL.c **** *  is available in the RAM_SNS_STRUCT structure.
 804:Generated_Source\PSoC4/CapSense_SensingCSD_LL.c **** *  If the Compensation IDAC is disabled, the function updates the Modulator IDAC
 805:Generated_Source\PSoC4/CapSense_SensingCSD_LL.c **** *  value only in the RAM_WD_BASE_STRUCT structure.
 806:Generated_Source\PSoC4/CapSense_SensingCSD_LL.c **** *
 807:Generated_Source\PSoC4/CapSense_SensingCSD_LL.c **** * \param
 808:Generated_Source\PSoC4/CapSense_SensingCSD_LL.c **** *  ptrWdgt The pointer to the RAM_WD_BASE_STRUCT structure.
 809:Generated_Source\PSoC4/CapSense_SensingCSD_LL.c **** *
 810:Generated_Source\PSoC4/CapSense_SensingCSD_LL.c **** *******************************************************************************/
 811:Generated_Source\PSoC4/CapSense_SensingCSD_LL.c **** void CapSense_SsCSDSetUpIdacs(CapSense_RAM_WD_BASE_STRUCT const *ptrWdgt)
 812:Generated_Source\PSoC4/CapSense_SensingCSD_LL.c **** {
 296              		.loc 1 812 0
 297              		.cfi_startproc
 298              	.LVL20:
 299 0000 38B5     		push	{r3, r4, r5, lr}
 300              		.cfi_def_cfa_offset 16
 301              		.cfi_offset 3, -16
 302              		.cfi_offset 4, -12
 303              		.cfi_offset 5, -8
 304              		.cfi_offset 14, -4
 305              		.loc 1 812 0
 306 0002 041C     		mov	r4, r0
 813:Generated_Source\PSoC4/CapSense_SensingCSD_LL.c **** 
 814:Generated_Source\PSoC4/CapSense_SensingCSD_LL.c ****     uint8 interruptState;
 815:Generated_Source\PSoC4/CapSense_SensingCSD_LL.c **** 
 816:Generated_Source\PSoC4/CapSense_SensingCSD_LL.c **** #if (CapSense_ENABLE == CapSense_CSDV2)
 817:Generated_Source\PSoC4/CapSense_SensingCSD_LL.c ****     uint32 idacARegValue;
 818:Generated_Source\PSoC4/CapSense_SensingCSD_LL.c ****     #if ((CapSense_ENABLE == CapSense_CSD_IDAC_COMP_EN) && \
 819:Generated_Source\PSoC4/CapSense_SensingCSD_LL.c ****          (CapSense_ENABLE == CapSense_CSD_DEDICATED_IDAC_COMP_EN))
 820:Generated_Source\PSoC4/CapSense_SensingCSD_LL.c ****         uint32 idacBRegValue;
 821:Generated_Source\PSoC4/CapSense_SensingCSD_LL.c ****     #endif /* ((CapSense_ENABLE == CapSense_CSD_IDAC_COMP_EN) && \
 822:Generated_Source\PSoC4/CapSense_SensingCSD_LL.c ****                (CapSense_ENABLE == CapSense_CSD_DEDICATED_IDAC_COMP_EN)) */
 823:Generated_Source\PSoC4/CapSense_SensingCSD_LL.c **** 
 824:Generated_Source\PSoC4/CapSense_SensingCSD_LL.c ****     interruptState = CyEnterCriticalSection();
 307              		.loc 1 824 0
 308 0004 FFF7FEFF 		bl	CyEnterCriticalSection
 309              	.LVL21:
 825:Generated_Source\PSoC4/CapSense_SensingCSD_LL.c **** 
 826:Generated_Source\PSoC4/CapSense_SensingCSD_LL.c ****     /* Get IDACA Value */
 827:Generated_Source\PSoC4/CapSense_SensingCSD_LL.c ****     idacARegValue = CY_GET_REG32(CapSense_IDAC_MOD_PTR);
 828:Generated_Source\PSoC4/CapSense_SensingCSD_LL.c **** 
 829:Generated_Source\PSoC4/CapSense_SensingCSD_LL.c ****     /* Set IDACA Value mask */
 830:Generated_Source\PSoC4/CapSense_SensingCSD_LL.c ****     idacARegValue &= ~(CapSense_IDAC_MOD_VAL_MASK);
 310              		.loc 1 830 0
 311 0008 7F21     		mov	r1, #127
 831:Generated_Source\PSoC4/CapSense_SensingCSD_LL.c **** 
 832:Generated_Source\PSoC4/CapSense_SensingCSD_LL.c ****     /* Set IDACA value */
 833:Generated_Source\PSoC4/CapSense_SensingCSD_LL.c ****     #if (CapSense_CSD_MATRIX_WIDGET_EN | CapSense_CSD_TOUCHPAD_WIDGET_EN)
 834:Generated_Source\PSoC4/CapSense_SensingCSD_LL.c ****         if (CapSense_dsFlash.wdgtArray[(CapSense_widgetIndex)].numCols <= CapSense_sensorIndex)
 835:Generated_Source\PSoC4/CapSense_SensingCSD_LL.c ****         {
 836:Generated_Source\PSoC4/CapSense_SensingCSD_LL.c ****             idacARegValue |= (uint32)ptrWdgt->rowIdacMod[CapSense_scanFreqIndex];
ARM GAS  C:\Users\Jerry\AppData\Local\Temp\cc2mbs0O.s 			page 22


 837:Generated_Source\PSoC4/CapSense_SensingCSD_LL.c ****         }
 838:Generated_Source\PSoC4/CapSense_SensingCSD_LL.c ****         else
 839:Generated_Source\PSoC4/CapSense_SensingCSD_LL.c ****         {
 840:Generated_Source\PSoC4/CapSense_SensingCSD_LL.c ****             idacARegValue |= (uint32)ptrWdgt->idacMod[CapSense_scanFreqIndex];
 841:Generated_Source\PSoC4/CapSense_SensingCSD_LL.c ****         }
 842:Generated_Source\PSoC4/CapSense_SensingCSD_LL.c ****     #else
 843:Generated_Source\PSoC4/CapSense_SensingCSD_LL.c ****         idacARegValue |= (uint32)ptrWdgt->idacMod[CapSense_scanFreqIndex];
 312              		.loc 1 843 0
 313 000a 0A4A     		ldr	r2, .L12
 827:Generated_Source\PSoC4/CapSense_SensingCSD_LL.c **** 
 314              		.loc 1 827 0
 315 000c 0A4D     		ldr	r5, .L12+4
 316              		.loc 1 843 0
 317 000e 1278     		ldrb	r2, [r2]
 827:Generated_Source\PSoC4/CapSense_SensingCSD_LL.c **** 
 318              		.loc 1 827 0
 319 0010 2B68     		ldr	r3, [r5]
 320              	.LVL22:
 321              		.loc 1 843 0
 322 0012 A418     		add	r4, r4, r2
 323              	.LVL23:
 324 0014 A47A     		ldrb	r4, [r4, #10]
 830:Generated_Source\PSoC4/CapSense_SensingCSD_LL.c **** 
 325              		.loc 1 830 0
 326 0016 8B43     		bic	r3, r1
 327              	.LVL24:
 328              		.loc 1 843 0
 329 0018 2343     		orr	r3, r4
 330              	.LVL25:
 844:Generated_Source\PSoC4/CapSense_SensingCSD_LL.c ****     #endif /* (CapSense_CSD_MATRIX_WIDGET_EN | CapSense_CSD_TOUCHPAD_WIDGET_EN) */
 845:Generated_Source\PSoC4/CapSense_SensingCSD_LL.c **** 
 846:Generated_Source\PSoC4/CapSense_SensingCSD_LL.c ****     /* Update IDACA register with new value */
 847:Generated_Source\PSoC4/CapSense_SensingCSD_LL.c ****     CY_SET_REG32(CapSense_IDAC_MOD_PTR, idacARegValue);
 848:Generated_Source\PSoC4/CapSense_SensingCSD_LL.c **** 
 849:Generated_Source\PSoC4/CapSense_SensingCSD_LL.c ****     #if ((CapSense_ENABLE == CapSense_CSD_IDAC_COMP_EN) && \
 850:Generated_Source\PSoC4/CapSense_SensingCSD_LL.c ****          (CapSense_ENABLE == CapSense_CSD_DEDICATED_IDAC_COMP_EN))
 851:Generated_Source\PSoC4/CapSense_SensingCSD_LL.c ****         /* Get IDACB Value */
 852:Generated_Source\PSoC4/CapSense_SensingCSD_LL.c ****         idacBRegValue = CY_GET_REG32(CapSense_IDAC_COMP_PTR);
 331              		.loc 1 852 0
 332 001a 084C     		ldr	r4, .L12+8
 847:Generated_Source\PSoC4/CapSense_SensingCSD_LL.c **** 
 333              		.loc 1 847 0
 334 001c 2B60     		str	r3, [r5]
 335              		.loc 1 852 0
 336 001e 2368     		ldr	r3, [r4]
 337              	.LVL26:
 853:Generated_Source\PSoC4/CapSense_SensingCSD_LL.c **** 
 854:Generated_Source\PSoC4/CapSense_SensingCSD_LL.c ****         /* Set IDACB Value mask */
 855:Generated_Source\PSoC4/CapSense_SensingCSD_LL.c ****         idacBRegValue &= ~(CapSense_IDAC_COMP_VAL_MASK);
 856:Generated_Source\PSoC4/CapSense_SensingCSD_LL.c **** 
 857:Generated_Source\PSoC4/CapSense_SensingCSD_LL.c ****         /* Set IDACB value */
 858:Generated_Source\PSoC4/CapSense_SensingCSD_LL.c ****         idacBRegValue |= (uint32)CapSense_curRamSnsPtr->idacComp[CapSense_scanFreqIndex];
 859:Generated_Source\PSoC4/CapSense_SensingCSD_LL.c **** 
 860:Generated_Source\PSoC4/CapSense_SensingCSD_LL.c ****         /* Update IDACA register with new value */
 861:Generated_Source\PSoC4/CapSense_SensingCSD_LL.c ****         CY_SET_REG32(CapSense_IDAC_COMP_PTR, idacBRegValue);
 862:Generated_Source\PSoC4/CapSense_SensingCSD_LL.c ****     #endif /* ((CapSense_ENABLE == CapSense_CSD_IDAC_COMP_EN) && \
 863:Generated_Source\PSoC4/CapSense_SensingCSD_LL.c ****                (CapSense_ENABLE == CapSense_CSD_DEDICATED_IDAC_COMP_EN)) */
ARM GAS  C:\Users\Jerry\AppData\Local\Temp\cc2mbs0O.s 			page 23


 864:Generated_Source\PSoC4/CapSense_SensingCSD_LL.c **** 
 865:Generated_Source\PSoC4/CapSense_SensingCSD_LL.c ****     CyExitCriticalSection(interruptState);
 866:Generated_Source\PSoC4/CapSense_SensingCSD_LL.c **** 
 867:Generated_Source\PSoC4/CapSense_SensingCSD_LL.c **** #else
 868:Generated_Source\PSoC4/CapSense_SensingCSD_LL.c **** 
 869:Generated_Source\PSoC4/CapSense_SensingCSD_LL.c ****     uint32 newRegValue;
 870:Generated_Source\PSoC4/CapSense_SensingCSD_LL.c ****     uint8 const *ptrIdacMod = ptrWdgt->idacMod;
 871:Generated_Source\PSoC4/CapSense_SensingCSD_LL.c **** 
 872:Generated_Source\PSoC4/CapSense_SensingCSD_LL.c ****     #if (CapSense_CSD_MATRIX_WIDGET_EN  | CapSense_CSD_TOUCHPAD_WIDGET_EN)
 873:Generated_Source\PSoC4/CapSense_SensingCSD_LL.c ****         if (CapSense_dsFlash.wdgtArray[(CapSense_widgetIndex)].numCols <= CapSense_sensorIndex)
 874:Generated_Source\PSoC4/CapSense_SensingCSD_LL.c ****         {
 875:Generated_Source\PSoC4/CapSense_SensingCSD_LL.c ****             ptrIdacMod = &ptrWdgt->rowIdacMod[0u];
 876:Generated_Source\PSoC4/CapSense_SensingCSD_LL.c ****         }
 877:Generated_Source\PSoC4/CapSense_SensingCSD_LL.c ****     #endif /* (CapSense_CSD_MATRIX_WIDGET_EN  | CapSense_CSD_TOUCHPAD_WIDGET_EN) */
 878:Generated_Source\PSoC4/CapSense_SensingCSD_LL.c **** 
 879:Generated_Source\PSoC4/CapSense_SensingCSD_LL.c ****     interruptState = CyEnterCriticalSection();
 880:Generated_Source\PSoC4/CapSense_SensingCSD_LL.c **** 
 881:Generated_Source\PSoC4/CapSense_SensingCSD_LL.c ****     /* Get Idac Value */
 882:Generated_Source\PSoC4/CapSense_SensingCSD_LL.c ****     newRegValue = CY_GET_REG32(CapSense_IDAC_PTR);
 883:Generated_Source\PSoC4/CapSense_SensingCSD_LL.c **** 
 884:Generated_Source\PSoC4/CapSense_SensingCSD_LL.c ****     /* Set Idac Value mask */
 885:Generated_Source\PSoC4/CapSense_SensingCSD_LL.c ****     #if (CapSense_ENABLE == CapSense_CSD_IDAC_COMP_EN)
 886:Generated_Source\PSoC4/CapSense_SensingCSD_LL.c ****         newRegValue &= ~(CapSense_IDAC_MOD_MASK | CapSense_IDAC_COMP_MASK);
 887:Generated_Source\PSoC4/CapSense_SensingCSD_LL.c ****     #else
 888:Generated_Source\PSoC4/CapSense_SensingCSD_LL.c ****         newRegValue &= ~(CapSense_IDAC_MOD_MASK);
 889:Generated_Source\PSoC4/CapSense_SensingCSD_LL.c ****     #endif /* (CapSense_ENABLE == CapSense_CSD_IDAC_COMP_EN) */
 890:Generated_Source\PSoC4/CapSense_SensingCSD_LL.c **** 
 891:Generated_Source\PSoC4/CapSense_SensingCSD_LL.c ****     /* Set Idac value */
 892:Generated_Source\PSoC4/CapSense_SensingCSD_LL.c ****     #if (CapSense_ENABLE == CapSense_CSD_IDAC_COMP_EN)
 893:Generated_Source\PSoC4/CapSense_SensingCSD_LL.c ****         newRegValue |= (ptrIdacMod[CapSense_scanFreqIndex] |
 894:Generated_Source\PSoC4/CapSense_SensingCSD_LL.c ****                        (uint32)((uint32)CapSense_curRamSnsPtr->idacComp[CapSense_scanFreqIndex] <<
 895:Generated_Source\PSoC4/CapSense_SensingCSD_LL.c ****                        CapSense_IDAC_COMP_DATA_OFFSET));
 896:Generated_Source\PSoC4/CapSense_SensingCSD_LL.c ****     #else
 897:Generated_Source\PSoC4/CapSense_SensingCSD_LL.c ****         newRegValue |= ptrIdacMod[CapSense_scanFreqIndex];
 898:Generated_Source\PSoC4/CapSense_SensingCSD_LL.c ****     #endif /* (CapSense_ENABLE == CapSense_CSD_IDAC_COMP_EN) */
 899:Generated_Source\PSoC4/CapSense_SensingCSD_LL.c ****     CY_SET_REG32(CapSense_IDAC_PTR, newRegValue);
 900:Generated_Source\PSoC4/CapSense_SensingCSD_LL.c **** 
 901:Generated_Source\PSoC4/CapSense_SensingCSD_LL.c ****     CyExitCriticalSection(interruptState);
 902:Generated_Source\PSoC4/CapSense_SensingCSD_LL.c **** 
 903:Generated_Source\PSoC4/CapSense_SensingCSD_LL.c **** #endif /* (CapSense_ENABLE == CapSense_CSDV2) */
 904:Generated_Source\PSoC4/CapSense_SensingCSD_LL.c **** }
 338              		.loc 1 904 0
 339              		@ sp needed
 855:Generated_Source\PSoC4/CapSense_SensingCSD_LL.c **** 
 340              		.loc 1 855 0
 341 0020 8B43     		bic	r3, r1
 342              	.LVL27:
 858:Generated_Source\PSoC4/CapSense_SensingCSD_LL.c **** 
 343              		.loc 1 858 0
 344 0022 0749     		ldr	r1, .L12+12
 345 0024 0968     		ldr	r1, [r1]
 346 0026 8A18     		add	r2, r1, r2
 347 0028 527A     		ldrb	r2, [r2, #9]
 348 002a 1343     		orr	r3, r2
 349              	.LVL28:
 861:Generated_Source\PSoC4/CapSense_SensingCSD_LL.c ****     #endif /* ((CapSense_ENABLE == CapSense_CSD_IDAC_COMP_EN) && \
 350              		.loc 1 861 0
ARM GAS  C:\Users\Jerry\AppData\Local\Temp\cc2mbs0O.s 			page 24


 351 002c 2360     		str	r3, [r4]
 352              	.LVL29:
 865:Generated_Source\PSoC4/CapSense_SensingCSD_LL.c **** 
 353              		.loc 1 865 0
 354 002e FFF7FEFF 		bl	CyExitCriticalSection
 355              	.LVL30:
 356              		.loc 1 904 0
 357 0032 38BD     		pop	{r3, r4, r5, pc}
 358              	.L13:
 359              		.align	2
 360              	.L12:
 361 0034 00000000 		.word	CapSense_scanFreqIndex
 362 0038 C0010C40 		.word	1074528704
 363 003c C4010C40 		.word	1074528708
 364 0040 00000000 		.word	CapSense_curRamSnsPtr
 365              		.cfi_endproc
 366              	.LFE6:
 367              		.size	CapSense_SsCSDSetUpIdacs, .-CapSense_SsCSDSetUpIdacs
 368              		.section	.text.CapSense_SsCSDGetNumberOfConversions,"ax",%progbits
 369              		.align	1
 370              		.global	CapSense_SsCSDGetNumberOfConversions
 371              		.code	16
 372              		.thumb_func
 373              		.type	CapSense_SsCSDGetNumberOfConversions, %function
 374              	CapSense_SsCSDGetNumberOfConversions:
 375              	.LFB7:
 905:Generated_Source\PSoC4/CapSense_SensingCSD_LL.c **** 
 906:Generated_Source\PSoC4/CapSense_SensingCSD_LL.c **** 
 907:Generated_Source\PSoC4/CapSense_SensingCSD_LL.c **** #if (CapSense_ENABLE == CapSense_CSDV2)
 908:Generated_Source\PSoC4/CapSense_SensingCSD_LL.c ****     /*******************************************************************************
 909:Generated_Source\PSoC4/CapSense_SensingCSD_LL.c ****     * Function Name: CapSense_SsCSDGetNumberOfConversions
 910:Generated_Source\PSoC4/CapSense_SensingCSD_LL.c ****     ****************************************************************************//**
 911:Generated_Source\PSoC4/CapSense_SensingCSD_LL.c ****     *
 912:Generated_Source\PSoC4/CapSense_SensingCSD_LL.c ****     * \brief
 913:Generated_Source\PSoC4/CapSense_SensingCSD_LL.c ****     *  This function gets Number of conversions.
 914:Generated_Source\PSoC4/CapSense_SensingCSD_LL.c ****     *
 915:Generated_Source\PSoC4/CapSense_SensingCSD_LL.c ****     * \details
 916:Generated_Source\PSoC4/CapSense_SensingCSD_LL.c ****     *  This function gets Number of conversions using foll.owing equation:
 917:Generated_Source\PSoC4/CapSense_SensingCSD_LL.c ****     *   conversionsNum = (2^resolution - 1) / snsClkDivider.
 918:Generated_Source\PSoC4/CapSense_SensingCSD_LL.c ****     *
 919:Generated_Source\PSoC4/CapSense_SensingCSD_LL.c ****     * \param
 920:Generated_Source\PSoC4/CapSense_SensingCSD_LL.c ****     *  snsClkDivider The divider value for the sense clock.
 921:Generated_Source\PSoC4/CapSense_SensingCSD_LL.c ****     *  resolution The widget resolution.
 922:Generated_Source\PSoC4/CapSense_SensingCSD_LL.c ****     *  snsClkSrc The current Sense Clock Source.
 923:Generated_Source\PSoC4/CapSense_SensingCSD_LL.c ****     *
 924:Generated_Source\PSoC4/CapSense_SensingCSD_LL.c ****     * \return Returns the Number of conversions.
 925:Generated_Source\PSoC4/CapSense_SensingCSD_LL.c ****     *
 926:Generated_Source\PSoC4/CapSense_SensingCSD_LL.c ****     *******************************************************************************/
 927:Generated_Source\PSoC4/CapSense_SensingCSD_LL.c ****     uint32 CapSense_SsCSDGetNumberOfConversions(uint32 snsClkDivider, uint32 resolution, uint32 sns
 928:Generated_Source\PSoC4/CapSense_SensingCSD_LL.c ****     {
 376              		.loc 1 928 0
 377              		.cfi_startproc
 378              	.LVL31:
 379 0000 70B5     		push	{r4, r5, r6, lr}
 380              		.cfi_def_cfa_offset 16
 381              		.cfi_offset 4, -16
 382              		.cfi_offset 5, -12
ARM GAS  C:\Users\Jerry\AppData\Local\Temp\cc2mbs0O.s 			page 25


 383              		.cfi_offset 6, -8
 384              		.cfi_offset 14, -4
 385              		.loc 1 928 0
 386 0002 051C     		mov	r5, r0
 929:Generated_Source\PSoC4/CapSense_SensingCSD_LL.c ****         uint32 conversionsNum;
 930:Generated_Source\PSoC4/CapSense_SensingCSD_LL.c ****         #if ((CapSense_MOD_CSD_CLK_12MHZ < CYDEV_BCLK__HFCLK__HZ) && (CapSense_ENABLE != CapSense_C
 931:Generated_Source\PSoC4/CapSense_SensingCSD_LL.c ****             uint32 sampleClkFreqHz;
 932:Generated_Source\PSoC4/CapSense_SensingCSD_LL.c ****         #endif /* ((CapSense_MOD_CSD_CLK_12MHZ < CYDEV_BCLK__HFCLK__HZ) && (CapSense_ENABLE != CapS
 933:Generated_Source\PSoC4/CapSense_SensingCSD_LL.c **** 
 934:Generated_Source\PSoC4/CapSense_SensingCSD_LL.c ****         /* Calculate scanning resolution value in register */
 935:Generated_Source\PSoC4/CapSense_SensingCSD_LL.c ****         conversionsNum = (uint32)((1uL << resolution) - 1uL);
 387              		.loc 1 935 0
 388 0004 0120     		mov	r0, #1
 389              	.LVL32:
 390 0006 8840     		lsl	r0, r0, r1
 928:Generated_Source\PSoC4/CapSense_SensingCSD_LL.c ****         uint32 conversionsNum;
 391              		.loc 1 928 0
 392 0008 161C     		mov	r6, r2
 393              		.loc 1 935 0
 394 000a 0138     		sub	r0, r0, #1
 395              	.LVL33:
 936:Generated_Source\PSoC4/CapSense_SensingCSD_LL.c **** 
 937:Generated_Source\PSoC4/CapSense_SensingCSD_LL.c ****         #if(CapSense_ENABLE != CapSense_CSDV2_REF9P6UA_EN)
 938:Generated_Source\PSoC4/CapSense_SensingCSD_LL.c ****             /* Apply correction to oveflow for 16 bit resolution */
 939:Generated_Source\PSoC4/CapSense_SensingCSD_LL.c ****             if (CapSense_RES16BIT == resolution)
 396              		.loc 1 939 0
 397 000c 1029     		cmp	r1, #16
 398 000e 0DD1     		bne	.L15
 940:Generated_Source\PSoC4/CapSense_SensingCSD_LL.c ****             {
 941:Generated_Source\PSoC4/CapSense_SensingCSD_LL.c ****                 conversionsNum -= ((snsClkDivider + 1u) >> 1u);
 942:Generated_Source\PSoC4/CapSense_SensingCSD_LL.c **** 
 943:Generated_Source\PSoC4/CapSense_SensingCSD_LL.c ****                 #if (CapSense_MOD_CSD_CLK_12MHZ < CYDEV_BCLK__HFCLK__HZ)
 944:Generated_Source\PSoC4/CapSense_SensingCSD_LL.c ****                     sampleClkFreqHz = CYDEV_BCLK__HFCLK__HZ / (uint32)CapSense_dsRam.modCsdClk;
 399              		.loc 1 944 0
 400 0010 104B     		ldr	r3, .L22
 941:Generated_Source\PSoC4/CapSense_SensingCSD_LL.c **** 
 401              		.loc 1 941 0
 402 0012 6C1C     		add	r4, r5, #1
 403 0014 6408     		lsr	r4, r4, #1
 404 0016 041B     		sub	r4, r0, r4
 405              	.LVL34:
 406              		.loc 1 944 0
 407 0018 197E     		ldrb	r1, [r3, #24]
 408              	.LVL35:
 409 001a 0F48     		ldr	r0, .L22+4
 410 001c FFF7FEFF 		bl	__aeabi_uidiv
 411              	.LVL36:
 945:Generated_Source\PSoC4/CapSense_SensingCSD_LL.c **** 
 946:Generated_Source\PSoC4/CapSense_SensingCSD_LL.c ****                     if (sampleClkFreqHz <= CapSense_MOD_CSD_CLK_12MHZ)
 412              		.loc 1 946 0
 413 0020 0E4B     		ldr	r3, .L22+8
 944:Generated_Source\PSoC4/CapSense_SensingCSD_LL.c **** 
 414              		.loc 1 944 0
 415 0022 021C     		mov	r2, r0
 947:Generated_Source\PSoC4/CapSense_SensingCSD_LL.c ****                     {
 948:Generated_Source\PSoC4/CapSense_SensingCSD_LL.c ****                         conversionsNum -= CapSense_CONFIG_FILTER_DELAY_2_CYCLES;
 949:Generated_Source\PSoC4/CapSense_SensingCSD_LL.c ****                     }
ARM GAS  C:\Users\Jerry\AppData\Local\Temp\cc2mbs0O.s 			page 26


 950:Generated_Source\PSoC4/CapSense_SensingCSD_LL.c ****                     else if (sampleClkFreqHz <= CapSense_MOD_CSD_CLK_24MHZ)
 951:Generated_Source\PSoC4/CapSense_SensingCSD_LL.c ****                     {
 952:Generated_Source\PSoC4/CapSense_SensingCSD_LL.c ****                         conversionsNum -= CapSense_CONFIG_FILTER_DELAY_3_CYCLES;
 416              		.loc 1 952 0
 417 0024 E01E     		sub	r0, r4, #3
 946:Generated_Source\PSoC4/CapSense_SensingCSD_LL.c ****                     {
 418              		.loc 1 946 0
 419 0026 9A42     		cmp	r2, r3
 420 0028 00D8     		bhi	.L15
 948:Generated_Source\PSoC4/CapSense_SensingCSD_LL.c ****                     }
 421              		.loc 1 948 0
 422 002a A01E     		sub	r0, r4, #2
 423              	.LVL37:
 424              	.L15:
 953:Generated_Source\PSoC4/CapSense_SensingCSD_LL.c ****                     }
 954:Generated_Source\PSoC4/CapSense_SensingCSD_LL.c ****                     else
 955:Generated_Source\PSoC4/CapSense_SensingCSD_LL.c ****                     {
 956:Generated_Source\PSoC4/CapSense_SensingCSD_LL.c ****                         conversionsNum -= CapSense_CONFIG_FILTER_DELAY_4_CYCLES;
 957:Generated_Source\PSoC4/CapSense_SensingCSD_LL.c ****                     }
 958:Generated_Source\PSoC4/CapSense_SensingCSD_LL.c ****                 #else
 959:Generated_Source\PSoC4/CapSense_SensingCSD_LL.c ****                     conversionsNum -= CapSense_CONFIG_FILTER_DELAY_2_CYCLES;
 960:Generated_Source\PSoC4/CapSense_SensingCSD_LL.c ****                 #endif /* (INSTANCE_NAME`_MOD_CSD_CLK_12MHZ < CYDEV_BCLK__HFCLK__HZ) */
 961:Generated_Source\PSoC4/CapSense_SensingCSD_LL.c ****             }
 962:Generated_Source\PSoC4/CapSense_SensingCSD_LL.c ****         #endif /* (CapSense_ENABLE != CapSense_CSDV2_REF9P6UA_EN) */
 963:Generated_Source\PSoC4/CapSense_SensingCSD_LL.c **** 
 964:Generated_Source\PSoC4/CapSense_SensingCSD_LL.c ****         if (0u < snsClkDivider)
 425              		.loc 1 964 0
 426 002c 002D     		cmp	r5, #0
 427 002e 02D0     		beq	.L17
 965:Generated_Source\PSoC4/CapSense_SensingCSD_LL.c ****         {
 966:Generated_Source\PSoC4/CapSense_SensingCSD_LL.c ****             conversionsNum /= snsClkDivider;
 428              		.loc 1 966 0
 429 0030 291C     		mov	r1, r5
 430 0032 FFF7FEFF 		bl	__aeabi_uidiv
 431              	.LVL38:
 432              	.L17:
 967:Generated_Source\PSoC4/CapSense_SensingCSD_LL.c ****         }
 968:Generated_Source\PSoC4/CapSense_SensingCSD_LL.c **** 
 969:Generated_Source\PSoC4/CapSense_SensingCSD_LL.c ****         #if (CapSense_CSD_SS_DIS != CapSense_CSD_AUTOTUNE)
 970:Generated_Source\PSoC4/CapSense_SensingCSD_LL.c ****             /* Use direct clock if pre-scalers have not been tuned */
 971:Generated_Source\PSoC4/CapSense_SensingCSD_LL.c ****             if (CapSense_ENABLE == CapSense_prescalersTuningDone)
 433              		.loc 1 971 0
 434 0036 0A4B     		ldr	r3, .L22+12
 435 0038 1B78     		ldrb	r3, [r3]
 436 003a 012B     		cmp	r3, #1
 437 003c 08D1     		bne	.L18
 972:Generated_Source\PSoC4/CapSense_SensingCSD_LL.c ****             {
 973:Generated_Source\PSoC4/CapSense_SensingCSD_LL.c ****         #endif /* (CapSense_CSD_SS_DIS != CapSense_CSD_AUTOTUNE) */
 974:Generated_Source\PSoC4/CapSense_SensingCSD_LL.c ****             #if ((CapSense_CLK_SOURCE_PRS12 == CapSense_CSD_SNS_CLK_SOURCE) || \
 975:Generated_Source\PSoC4/CapSense_SensingCSD_LL.c ****                  (CapSense_CLK_SOURCE_PRS8 == CapSense_CSD_SNS_CLK_SOURCE))
 976:Generated_Source\PSoC4/CapSense_SensingCSD_LL.c ****                  /* Divide by 4 for PRS8/PRS12 mode */
 977:Generated_Source\PSoC4/CapSense_SensingCSD_LL.c ****                  conversionsNum >>= 2u;
 978:Generated_Source\PSoC4/CapSense_SensingCSD_LL.c ****             #elif (CapSense_CLK_SOURCE_PRSAUTO == CapSense_CSD_SNS_CLK_SOURCE)
 979:Generated_Source\PSoC4/CapSense_SensingCSD_LL.c ****                  snsClkDivider = snsClkDivider * (uint32)CapSense_dsRam.modCsdClk;
 438              		.loc 1 979 0
 439 003e 054B     		ldr	r3, .L22
 980:Generated_Source\PSoC4/CapSense_SensingCSD_LL.c **** 
ARM GAS  C:\Users\Jerry\AppData\Local\Temp\cc2mbs0O.s 			page 27


 981:Generated_Source\PSoC4/CapSense_SensingCSD_LL.c ****                  /* Check if PRS8/12 mode was set */
 982:Generated_Source\PSoC4/CapSense_SensingCSD_LL.c ****                  if (((CapSense_CLK_SOURCE_PRS8 == snsClkSrc) ||
 440              		.loc 1 982 0
 441 0040 053E     		sub	r6, r6, #5
 442              	.LVL39:
 979:Generated_Source\PSoC4/CapSense_SensingCSD_LL.c **** 
 443              		.loc 1 979 0
 444 0042 1B7E     		ldrb	r3, [r3, #24]
 445              	.LVL40:
 446              		.loc 1 982 0
 447 0044 012E     		cmp	r6, #1
 448 0046 03D8     		bhi	.L18
 979:Generated_Source\PSoC4/CapSense_SensingCSD_LL.c **** 
 449              		.loc 1 979 0
 450 0048 5D43     		mul	r5, r3
 451              	.LVL41:
 983:Generated_Source\PSoC4/CapSense_SensingCSD_LL.c ****                       (CapSense_CLK_SOURCE_PRS12 == snsClkSrc)) &&
 452              		.loc 1 983 0
 453 004a A02D     		cmp	r5, #160
 454 004c 00D8     		bhi	.L18
 984:Generated_Source\PSoC4/CapSense_SensingCSD_LL.c ****                      (CapSense_HFCLK_SNSCLK_FACTOR >= snsClkDivider))
 985:Generated_Source\PSoC4/CapSense_SensingCSD_LL.c ****                  {
 986:Generated_Source\PSoC4/CapSense_SensingCSD_LL.c ****                      /* Divide by 4 for PRS8/PRS12 mode */
 987:Generated_Source\PSoC4/CapSense_SensingCSD_LL.c ****                      conversionsNum >>= 2u;
 455              		.loc 1 987 0
 456 004e 8008     		lsr	r0, r0, #2
 457              	.LVL42:
 458              	.L18:
 988:Generated_Source\PSoC4/CapSense_SensingCSD_LL.c ****                  }
 989:Generated_Source\PSoC4/CapSense_SensingCSD_LL.c ****             #else
 990:Generated_Source\PSoC4/CapSense_SensingCSD_LL.c ****                  /* SSC or Direct Clock mode  */
 991:Generated_Source\PSoC4/CapSense_SensingCSD_LL.c ****             #endif /* ((CapSense_CLK_SOURCE_PRS12 == CapSense_CSD_SNS_CLK_SOURCE) || \
 992:Generated_Source\PSoC4/CapSense_SensingCSD_LL.c ****                        (CapSense_CLK_SOURCE_PRS8 == CapSense_CSD_SNS_CLK_SOURCE)) */
 993:Generated_Source\PSoC4/CapSense_SensingCSD_LL.c ****         #if (CapSense_CSD_SS_DIS != CapSense_CSD_AUTOTUNE)
 994:Generated_Source\PSoC4/CapSense_SensingCSD_LL.c ****             }
 995:Generated_Source\PSoC4/CapSense_SensingCSD_LL.c ****         #endif /* (CapSense_CSD_SS_DIS != CapSense_CSD_AUTOTUNE) */
 996:Generated_Source\PSoC4/CapSense_SensingCSD_LL.c **** 
 997:Generated_Source\PSoC4/CapSense_SensingCSD_LL.c ****         return conversionsNum;
 998:Generated_Source\PSoC4/CapSense_SensingCSD_LL.c ****     }
 459              		.loc 1 998 0
 460              		@ sp needed
 461 0050 70BD     		pop	{r4, r5, r6, pc}
 462              	.L23:
 463 0052 C046     		.align	2
 464              	.L22:
 465 0054 00000000 		.word	CapSense_dsRam
 466 0058 00366E01 		.word	24000000
 467 005c 001BB700 		.word	12000000
 468 0060 00000000 		.word	CapSense_prescalersTuningDone
 469              		.cfi_endproc
 470              	.LFE7:
 471              		.size	CapSense_SsCSDGetNumberOfConversions, .-CapSense_SsCSDGetNumberOfConversions
 472              		.section	.text.CapSense_SsCSDConfigClock,"ax",%progbits
 473              		.align	1
 474              		.global	CapSense_SsCSDConfigClock
 475              		.code	16
 476              		.thumb_func
ARM GAS  C:\Users\Jerry\AppData\Local\Temp\cc2mbs0O.s 			page 28


 477              		.type	CapSense_SsCSDConfigClock, %function
 478              	CapSense_SsCSDConfigClock:
 479              	.LFB8:
 999:Generated_Source\PSoC4/CapSense_SensingCSD_LL.c **** #endif /* (CapSense_ENABLE == CapSense_CSDV2) */
1000:Generated_Source\PSoC4/CapSense_SensingCSD_LL.c **** 
1001:Generated_Source\PSoC4/CapSense_SensingCSD_LL.c **** 
1002:Generated_Source\PSoC4/CapSense_SensingCSD_LL.c **** /*******************************************************************************
1003:Generated_Source\PSoC4/CapSense_SensingCSD_LL.c **** * Function Name: CapSense_SsCSDConfigClock
1004:Generated_Source\PSoC4/CapSense_SensingCSD_LL.c **** ****************************************************************************//**
1005:Generated_Source\PSoC4/CapSense_SensingCSD_LL.c **** *
1006:Generated_Source\PSoC4/CapSense_SensingCSD_LL.c **** * \brief
1007:Generated_Source\PSoC4/CapSense_SensingCSD_LL.c **** *  This function configure sense clock for different modes.
1008:Generated_Source\PSoC4/CapSense_SensingCSD_LL.c **** *
1009:Generated_Source\PSoC4/CapSense_SensingCSD_LL.c **** * \details
1010:Generated_Source\PSoC4/CapSense_SensingCSD_LL.c **** *  Function sets the clock divider and configures the mode based on configuration.
1011:Generated_Source\PSoC4/CapSense_SensingCSD_LL.c **** *
1012:Generated_Source\PSoC4/CapSense_SensingCSD_LL.c **** *******************************************************************************/
1013:Generated_Source\PSoC4/CapSense_SensingCSD_LL.c **** void CapSense_SsCSDConfigClock(void)
1014:Generated_Source\PSoC4/CapSense_SensingCSD_LL.c **** {
 480              		.loc 1 1014 0
 481              		.cfi_startproc
 482 0000 08B5     		push	{r3, lr}
 483              		.cfi_def_cfa_offset 8
 484              		.cfi_offset 3, -8
 485              		.cfi_offset 14, -4
1015:Generated_Source\PSoC4/CapSense_SensingCSD_LL.c ****     uint32 snsClkDivider;
1016:Generated_Source\PSoC4/CapSense_SensingCSD_LL.c ****     uint32 newRegValue;
1017:Generated_Source\PSoC4/CapSense_SensingCSD_LL.c **** 
1018:Generated_Source\PSoC4/CapSense_SensingCSD_LL.c ****     #if ((CapSense_DISABLE == CapSense_CSD_COMMON_SNS_CLK_EN) || \
1019:Generated_Source\PSoC4/CapSense_SensingCSD_LL.c ****          (CapSense_CLK_SOURCE_PRSAUTO == CapSense_CSD_SNS_CLK_SOURCE))
1020:Generated_Source\PSoC4/CapSense_SensingCSD_LL.c ****         CapSense_RAM_WD_BASE_STRUCT const *ptrWdgt = (CapSense_RAM_WD_BASE_STRUCT *)
1021:Generated_Source\PSoC4/CapSense_SensingCSD_LL.c ****                  CapSense_dsFlash.wdgtArray[CapSense_widgetIndex].ptr2WdgtRam;
 486              		.loc 1 1021 0
 487 0002 0D4B     		ldr	r3, .L29
1020:Generated_Source\PSoC4/CapSense_SensingCSD_LL.c ****                  CapSense_dsFlash.wdgtArray[CapSense_widgetIndex].ptr2WdgtRam;
 488              		.loc 1 1020 0
 489 0004 0D4A     		ldr	r2, .L29+4
 490              		.loc 1 1021 0
 491 0006 1B78     		ldrb	r3, [r3]
1020:Generated_Source\PSoC4/CapSense_SensingCSD_LL.c ****                  CapSense_dsFlash.wdgtArray[CapSense_widgetIndex].ptr2WdgtRam;
 492              		.loc 1 1020 0
 493 0008 5B01     		lsl	r3, r3, #5
 494 000a D318     		add	r3, r2, r3
 495 000c 5B68     		ldr	r3, [r3, #4]
 496              	.LVL43:
1022:Generated_Source\PSoC4/CapSense_SensingCSD_LL.c ****     #endif /* ((CapSense_DISABLE == CapSense_CSD_COMMON_SNS_CLK_EN) || \
1023:Generated_Source\PSoC4/CapSense_SensingCSD_LL.c ****                (CapSense_CLK_SOURCE_PRSAUTO == CapSense_CSD_SNS_CLK_SOURCE)) */
1024:Generated_Source\PSoC4/CapSense_SensingCSD_LL.c **** 
1025:Generated_Source\PSoC4/CapSense_SensingCSD_LL.c ****     /* Get sense divider based on configuration */
1026:Generated_Source\PSoC4/CapSense_SensingCSD_LL.c ****     #if (CapSense_ENABLE == CapSense_CSD_COMMON_SNS_CLK_EN)
1027:Generated_Source\PSoC4/CapSense_SensingCSD_LL.c ****         snsClkDivider = (uint32)CapSense_dsRam.snsCsdClk;
1028:Generated_Source\PSoC4/CapSense_SensingCSD_LL.c ****     #else
1029:Generated_Source\PSoC4/CapSense_SensingCSD_LL.c ****         #if (CapSense_ENABLE == (CapSense_CSD_MATRIX_WIDGET_EN | \
1030:Generated_Source\PSoC4/CapSense_SensingCSD_LL.c ****                                          CapSense_CSD_TOUCHPAD_WIDGET_EN))
1031:Generated_Source\PSoC4/CapSense_SensingCSD_LL.c ****             /*  Get SnsClck divider for rows or columns */
1032:Generated_Source\PSoC4/CapSense_SensingCSD_LL.c ****             if (CapSense_dsFlash.wdgtArray[CapSense_widgetIndex].numCols <= CapSense_sensorIndex)
1033:Generated_Source\PSoC4/CapSense_SensingCSD_LL.c ****             {
ARM GAS  C:\Users\Jerry\AppData\Local\Temp\cc2mbs0O.s 			page 29


1034:Generated_Source\PSoC4/CapSense_SensingCSD_LL.c ****                 snsClkDivider = (uint32)(ptrWdgt->rowSnsClk);
1035:Generated_Source\PSoC4/CapSense_SensingCSD_LL.c ****             }
1036:Generated_Source\PSoC4/CapSense_SensingCSD_LL.c ****             else
1037:Generated_Source\PSoC4/CapSense_SensingCSD_LL.c ****             {
1038:Generated_Source\PSoC4/CapSense_SensingCSD_LL.c ****                 snsClkDivider = (uint32)(ptrWdgt->snsClk);
1039:Generated_Source\PSoC4/CapSense_SensingCSD_LL.c ****             }
1040:Generated_Source\PSoC4/CapSense_SensingCSD_LL.c ****         #else
1041:Generated_Source\PSoC4/CapSense_SensingCSD_LL.c ****             snsClkDivider = (uint32)(ptrWdgt->snsClk);
 497              		.loc 1 1041 0
 498 000e D87A     		ldrb	r0, [r3, #11]
 499              	.LVL44:
1042:Generated_Source\PSoC4/CapSense_SensingCSD_LL.c ****         #endif /*  (CapSense_ENABLE == (CapSense_CSD_MATRIX_WIDGET_EN | \
1043:Generated_Source\PSoC4/CapSense_SensingCSD_LL.c ****                                                 CapSense_CSD_TOUCHPAD_WIDGET_EN)) */
1044:Generated_Source\PSoC4/CapSense_SensingCSD_LL.c ****     #endif /* (CapSense_ENABLE == CapSense_CSD_COMMON_SNS_CLK_EN) */
1045:Generated_Source\PSoC4/CapSense_SensingCSD_LL.c **** 
1046:Generated_Source\PSoC4/CapSense_SensingCSD_LL.c ****     #if (CapSense_CLK_SOURCE_PRSAUTO == CapSense_CSD_SNS_CLK_SOURCE)
1047:Generated_Source\PSoC4/CapSense_SensingCSD_LL.c ****         /* Get sense clk source calculated in CapSense_SsCSDInitialize() before */
1048:Generated_Source\PSoC4/CapSense_SensingCSD_LL.c ****         #if (CapSense_ENABLE == (CapSense_CSD_MATRIX_WIDGET_EN | \
1049:Generated_Source\PSoC4/CapSense_SensingCSD_LL.c ****                                          CapSense_CSD_TOUCHPAD_WIDGET_EN))
1050:Generated_Source\PSoC4/CapSense_SensingCSD_LL.c ****             /*  Get SnsClc Source for rows or columns */
1051:Generated_Source\PSoC4/CapSense_SensingCSD_LL.c ****             if (CapSense_dsFlash.wdgtArray[CapSense_widgetIndex].numCols <= CapSense_sensorIndex)
1052:Generated_Source\PSoC4/CapSense_SensingCSD_LL.c ****             {
1053:Generated_Source\PSoC4/CapSense_SensingCSD_LL.c ****                 newRegValue = (uint32)ptrWdgt->rowSnsClkSource;
1054:Generated_Source\PSoC4/CapSense_SensingCSD_LL.c ****             }
1055:Generated_Source\PSoC4/CapSense_SensingCSD_LL.c ****             else
1056:Generated_Source\PSoC4/CapSense_SensingCSD_LL.c ****             {
1057:Generated_Source\PSoC4/CapSense_SensingCSD_LL.c ****                 newRegValue = (uint32)ptrWdgt->snsClkSource;
1058:Generated_Source\PSoC4/CapSense_SensingCSD_LL.c ****             }
1059:Generated_Source\PSoC4/CapSense_SensingCSD_LL.c ****         #else
1060:Generated_Source\PSoC4/CapSense_SensingCSD_LL.c ****             newRegValue = (uint32)ptrWdgt->snsClkSource;
 500              		.loc 1 1060 0
 501 0010 1B7B     		ldrb	r3, [r3, #12]
 502              	.LVL45:
1061:Generated_Source\PSoC4/CapSense_SensingCSD_LL.c ****         #endif /*  (CapSense_ENABLE == (CapSense_CSD_MATRIX_WIDGET_EN | \
1062:Generated_Source\PSoC4/CapSense_SensingCSD_LL.c ****                                                 CapSense_CSD_TOUCHPAD_WIDGET_EN)) */
1063:Generated_Source\PSoC4/CapSense_SensingCSD_LL.c ****     #else
1064:Generated_Source\PSoC4/CapSense_SensingCSD_LL.c ****         newRegValue = CapSense_DEFAULT_MODULATION_MODE;
1065:Generated_Source\PSoC4/CapSense_SensingCSD_LL.c ****     #endif /* (CapSense_CLK_SOURCE_PRSAUTO == CapSense_CSD_SNS_CLK_SOURCE) */
1066:Generated_Source\PSoC4/CapSense_SensingCSD_LL.c **** 
1067:Generated_Source\PSoC4/CapSense_SensingCSD_LL.c ****     #if (CapSense_ENABLE == CapSense_CSDV2)
1068:Generated_Source\PSoC4/CapSense_SensingCSD_LL.c ****         #if (CapSense_CLK_SOURCE_PRSAUTO == CapSense_CSD_SNS_CLK_SOURCE)
1069:Generated_Source\PSoC4/CapSense_SensingCSD_LL.c ****             if ((CapSense_CLK_SOURCE_PRS8 == newRegValue) ||
 503              		.loc 1 1069 0
 504 0012 5A1F     		sub	r2, r3, #5
 505 0014 1B04     		lsl	r3, r3, #16
 506              	.LVL46:
 507 0016 012A     		cmp	r2, #1
 508 0018 02D8     		bhi	.L26
1070:Generated_Source\PSoC4/CapSense_SensingCSD_LL.c ****                 (CapSense_CLK_SOURCE_PRS12 == newRegValue))
1071:Generated_Source\PSoC4/CapSense_SensingCSD_LL.c ****             {
1072:Generated_Source\PSoC4/CapSense_SensingCSD_LL.c ****                 newRegValue = (newRegValue << CapSense_SENSE_PERIOD_LFSR_SIZE_SHIFT) |
 509              		.loc 1 1072 0
 510 001a 8022     		mov	r2, #128
 511              	.LVL47:
 512 001c 9204     		lsl	r2, r2, #18
 513 001e 1343     		orr	r3, r2
 514              	.LVL48:
ARM GAS  C:\Users\Jerry\AppData\Local\Temp\cc2mbs0O.s 			page 30


 515              	.L26:
1073:Generated_Source\PSoC4/CapSense_SensingCSD_LL.c ****                                CapSense_SENSE_PERIOD_SEL_LFSR_MSB_MASK;
1074:Generated_Source\PSoC4/CapSense_SensingCSD_LL.c ****             }
1075:Generated_Source\PSoC4/CapSense_SensingCSD_LL.c ****             else
1076:Generated_Source\PSoC4/CapSense_SensingCSD_LL.c ****             {
1077:Generated_Source\PSoC4/CapSense_SensingCSD_LL.c ****                 newRegValue = (newRegValue << CapSense_SENSE_PERIOD_LFSR_SIZE_SHIFT);
1078:Generated_Source\PSoC4/CapSense_SensingCSD_LL.c ****             }
1079:Generated_Source\PSoC4/CapSense_SensingCSD_LL.c ****         #elif (CapSense_CLK_SOURCE_PRS8 == CapSense_CSD_SNS_CLK_SOURCE)
1080:Generated_Source\PSoC4/CapSense_SensingCSD_LL.c ****             newRegValue = (newRegValue << CapSense_SENSE_PERIOD_LFSR_SIZE_SHIFT) |
1081:Generated_Source\PSoC4/CapSense_SensingCSD_LL.c ****                            CapSense_SENSE_PERIOD_SEL_LFSR_MSB_MASK;
1082:Generated_Source\PSoC4/CapSense_SensingCSD_LL.c ****         #elif (CapSense_CLK_SOURCE_PRS12 == CapSense_CSD_SNS_CLK_SOURCE)
1083:Generated_Source\PSoC4/CapSense_SensingCSD_LL.c ****             newRegValue = (newRegValue << CapSense_SENSE_PERIOD_LFSR_SIZE_SHIFT) |
1084:Generated_Source\PSoC4/CapSense_SensingCSD_LL.c ****                            CapSense_SENSE_PERIOD_SEL_LFSR_MSB_MASK;
1085:Generated_Source\PSoC4/CapSense_SensingCSD_LL.c ****         #else    
1086:Generated_Source\PSoC4/CapSense_SensingCSD_LL.c ****             newRegValue = (newRegValue << CapSense_SENSE_PERIOD_LFSR_SIZE_SHIFT);
1087:Generated_Source\PSoC4/CapSense_SensingCSD_LL.c ****         #endif /* (CapSense_CLK_SOURCE_PRSAUTO == CapSense_CSD_SNS_CLK_SOURCE) */
1088:Generated_Source\PSoC4/CapSense_SensingCSD_LL.c ****     #endif /* (CapSense_ENABLE == CapSense_CSDV2) */
1089:Generated_Source\PSoC4/CapSense_SensingCSD_LL.c **** 
1090:Generated_Source\PSoC4/CapSense_SensingCSD_LL.c ****     #if (CapSense_CSD_SS_DIS != CapSense_CSD_AUTOTUNE)
1091:Generated_Source\PSoC4/CapSense_SensingCSD_LL.c ****         /* Use direct clock if pre-scalers have not been tuned */
1092:Generated_Source\PSoC4/CapSense_SensingCSD_LL.c ****         if (CapSense_ENABLE == CapSense_prescalersTuningDone)
 516              		.loc 1 1092 0
 517 0020 074A     		ldr	r2, .L29+8
 518 0022 1278     		ldrb	r2, [r2]
 519 0024 012A     		cmp	r2, #1
 520 0026 04D1     		bne	.L27
 521              	.LVL49:
 522              	.LBB12:
 523              	.LBB13:
 422:Generated_Source\PSoC4/CapSense_SensingCSD_LL.c ****     #else
 524              		.loc 1 422 0
 525 0028 0138     		sub	r0, r0, #1
 526              	.LVL50:
 527 002a 1843     		orr	r0, r3
 528              	.LVL51:
 529 002c 054B     		ldr	r3, .L29+12
 530              	.LVL52:
 531 002e 1860     		str	r0, [r3]
 532 0030 01E0     		b	.L24
 533              	.LVL53:
 534              	.L27:
 535              	.LBE13:
 536              	.LBE12:
1093:Generated_Source\PSoC4/CapSense_SensingCSD_LL.c ****         {
1094:Generated_Source\PSoC4/CapSense_SensingCSD_LL.c ****             CapSense_SsCSDSetModeSnsClockDivider(newRegValue, snsClkDivider);
1095:Generated_Source\PSoC4/CapSense_SensingCSD_LL.c ****         }
1096:Generated_Source\PSoC4/CapSense_SensingCSD_LL.c ****         else
1097:Generated_Source\PSoC4/CapSense_SensingCSD_LL.c ****         {
1098:Generated_Source\PSoC4/CapSense_SensingCSD_LL.c ****             CapSense_SsSetSnsClockDivider(snsClkDivider);
 537              		.loc 1 1098 0
 538 0032 FFF7FEFF 		bl	CapSense_SsSetSnsClockDivider
 539              	.LVL54:
 540              	.L24:
1099:Generated_Source\PSoC4/CapSense_SensingCSD_LL.c ****         }
1100:Generated_Source\PSoC4/CapSense_SensingCSD_LL.c ****     #else
1101:Generated_Source\PSoC4/CapSense_SensingCSD_LL.c ****         CapSense_SsCSDSetModeSnsClockDivider(newRegValue, snsClkDivider);
1102:Generated_Source\PSoC4/CapSense_SensingCSD_LL.c ****     #endif /* (CapSense_CSD_SS_DIS != CapSense_CSD_AUTOTUNE) */
ARM GAS  C:\Users\Jerry\AppData\Local\Temp\cc2mbs0O.s 			page 31


1103:Generated_Source\PSoC4/CapSense_SensingCSD_LL.c **** }
 541              		.loc 1 1103 0
 542              		@ sp needed
 543 0036 08BD     		pop	{r3, pc}
 544              	.L30:
 545              		.align	2
 546              	.L29:
 547 0038 00000000 		.word	CapSense_widgetIndex
 548 003c 00000000 		.word	CapSense_dsFlash
 549 0040 00000000 		.word	CapSense_prescalersTuningDone
 550 0044 00020C40 		.word	1074528768
 551              		.cfi_endproc
 552              	.LFE8:
 553              		.size	CapSense_SsCSDConfigClock, .-CapSense_SsCSDConfigClock
 554              		.section	.text.CapSense_SsCSDCalculateScanDuration,"ax",%progbits
 555              		.align	1
 556              		.global	CapSense_SsCSDCalculateScanDuration
 557              		.code	16
 558              		.thumb_func
 559              		.type	CapSense_SsCSDCalculateScanDuration, %function
 560              	CapSense_SsCSDCalculateScanDuration:
 561              	.LFB9:
1104:Generated_Source\PSoC4/CapSense_SensingCSD_LL.c **** 
1105:Generated_Source\PSoC4/CapSense_SensingCSD_LL.c **** 
1106:Generated_Source\PSoC4/CapSense_SensingCSD_LL.c **** /*******************************************************************************
1107:Generated_Source\PSoC4/CapSense_SensingCSD_LL.c **** * Function Name: CapSense_SsCSDCalculateScanDuration
1108:Generated_Source\PSoC4/CapSense_SensingCSD_LL.c **** ****************************************************************************//**
1109:Generated_Source\PSoC4/CapSense_SensingCSD_LL.c **** *
1110:Generated_Source\PSoC4/CapSense_SensingCSD_LL.c **** * \brief
1111:Generated_Source\PSoC4/CapSense_SensingCSD_LL.c **** *   Calculates Scan Duration which is defined by scan resolution
1112:Generated_Source\PSoC4/CapSense_SensingCSD_LL.c **** *
1113:Generated_Source\PSoC4/CapSense_SensingCSD_LL.c **** * \details
1114:Generated_Source\PSoC4/CapSense_SensingCSD_LL.c **** *   For CSDv2: The function calculates the number of conversions and updates
1115:Generated_Source\PSoC4/CapSense_SensingCSD_LL.c **** *   SEQ_NORM_CNT register. The number of conversions depends on resolution and
1116:Generated_Source\PSoC4/CapSense_SensingCSD_LL.c **** *   snsClk divider.
1117:Generated_Source\PSoC4/CapSense_SensingCSD_LL.c **** *   For CSDv1: The function recalculate the resolution using following equation:
1118:Generated_Source\PSoC4/CapSense_SensingCSD_LL.c **** *   2^resolution - 1. The calculated value is contained in
1119:Generated_Source\PSoC4/CapSense_SensingCSD_LL.c **** *   CapSense_counterResolution global variable and used in
1120:Generated_Source\PSoC4/CapSense_SensingCSD_LL.c **** *   CapSense_SsCSDStartSample() function to trigger the scan process.
1121:Generated_Source\PSoC4/CapSense_SensingCSD_LL.c **** *
1122:Generated_Source\PSoC4/CapSense_SensingCSD_LL.c **** * \param  wdgtIndex
1123:Generated_Source\PSoC4/CapSense_SensingCSD_LL.c **** *  ptrWdgt The pointer to the RAM_WD_BASE_STRUCT structure.
1124:Generated_Source\PSoC4/CapSense_SensingCSD_LL.c **** *
1125:Generated_Source\PSoC4/CapSense_SensingCSD_LL.c **** *******************************************************************************/
1126:Generated_Source\PSoC4/CapSense_SensingCSD_LL.c **** void CapSense_SsCSDCalculateScanDuration(CapSense_RAM_WD_BASE_STRUCT const *ptrWdgt)
1127:Generated_Source\PSoC4/CapSense_SensingCSD_LL.c **** {
 562              		.loc 1 1127 0
 563              		.cfi_startproc
 564              	.LVL55:
 565 0000 08B5     		push	{r3, lr}
 566              		.cfi_def_cfa_offset 8
 567              		.cfi_offset 3, -8
 568              		.cfi_offset 14, -4
 569              		.loc 1 1127 0
 570 0002 031C     		mov	r3, r0
1128:Generated_Source\PSoC4/CapSense_SensingCSD_LL.c ****     #if (CapSense_ENABLE == CapSense_CSDV2)
1129:Generated_Source\PSoC4/CapSense_SensingCSD_LL.c ****         uint32 conversionsNum;
ARM GAS  C:\Users\Jerry\AppData\Local\Temp\cc2mbs0O.s 			page 32


1130:Generated_Source\PSoC4/CapSense_SensingCSD_LL.c ****         uint32 snsClkDivider;
1131:Generated_Source\PSoC4/CapSense_SensingCSD_LL.c **** 
1132:Generated_Source\PSoC4/CapSense_SensingCSD_LL.c ****         /* Get Number Of Conversions */
1133:Generated_Source\PSoC4/CapSense_SensingCSD_LL.c ****         #if (CapSense_ENABLE == CapSense_CSD_COMMON_SNS_CLK_EN)
1134:Generated_Source\PSoC4/CapSense_SensingCSD_LL.c ****             snsClkDivider = CapSense_dsRam.snsCsdClk;
1135:Generated_Source\PSoC4/CapSense_SensingCSD_LL.c ****         #else
1136:Generated_Source\PSoC4/CapSense_SensingCSD_LL.c ****             #if (CapSense_ENABLE == (CapSense_CSD_MATRIX_WIDGET_EN | CapSense_CSD_TOUCHPAD_WIDGET_E
1137:Generated_Source\PSoC4/CapSense_SensingCSD_LL.c ****                 /*  Get SnsClck divider for rows or columns */
1138:Generated_Source\PSoC4/CapSense_SensingCSD_LL.c ****                 if (CapSense_dsFlash.wdgtArray[CapSense_widgetIndex].numCols <= CapSense_sensorInde
1139:Generated_Source\PSoC4/CapSense_SensingCSD_LL.c ****                 {
1140:Generated_Source\PSoC4/CapSense_SensingCSD_LL.c ****                     snsClkDivider = (uint32)(ptrWdgt->rowSnsClk);
1141:Generated_Source\PSoC4/CapSense_SensingCSD_LL.c ****                 }
1142:Generated_Source\PSoC4/CapSense_SensingCSD_LL.c ****                 else
1143:Generated_Source\PSoC4/CapSense_SensingCSD_LL.c ****                 {
1144:Generated_Source\PSoC4/CapSense_SensingCSD_LL.c ****                     snsClkDivider = (uint32)(ptrWdgt->snsClk);
1145:Generated_Source\PSoC4/CapSense_SensingCSD_LL.c ****                 }
1146:Generated_Source\PSoC4/CapSense_SensingCSD_LL.c ****             #else
1147:Generated_Source\PSoC4/CapSense_SensingCSD_LL.c ****                 snsClkDivider = (uint32)(ptrWdgt->snsClk);
 571              		.loc 1 1147 0
 572 0004 C07A     		ldrb	r0, [r0, #11]
 573              	.LVL56:
1148:Generated_Source\PSoC4/CapSense_SensingCSD_LL.c ****             #endif /*  (CapSense_ENABLE == (CapSense_CSD_MATRIX_WIDGET_EN | CapSense_CSD_TOUCHPAD_W
1149:Generated_Source\PSoC4/CapSense_SensingCSD_LL.c ****         #endif /* (CapSense_ENABLE == CapSense_CSDV2) */
1150:Generated_Source\PSoC4/CapSense_SensingCSD_LL.c **** 
1151:Generated_Source\PSoC4/CapSense_SensingCSD_LL.c ****         conversionsNum = CapSense_SsCSDGetNumberOfConversions(snsClkDivider, (uint32)ptrWdgt->resol
 574              		.loc 1 1151 0
 575 0006 1988     		ldrh	r1, [r3]
 576 0008 1A7B     		ldrb	r2, [r3, #12]
 577 000a FFF7FEFF 		bl	CapSense_SsCSDGetNumberOfConversions
 578              	.LVL57:
1152:Generated_Source\PSoC4/CapSense_SensingCSD_LL.c **** 
1153:Generated_Source\PSoC4/CapSense_SensingCSD_LL.c ****         /* Set Number Of Conversions based on scanning resolution */
1154:Generated_Source\PSoC4/CapSense_SensingCSD_LL.c ****         CY_SET_REG32(CapSense_SEQ_NORM_CNT_PTR, (conversionsNum & CapSense_SEQ_NORM_CNT_CONV_CNT_MA
 579              		.loc 1 1154 0
 580 000e 024B     		ldr	r3, .L32
 581 0010 80B2     		uxth	r0, r0
 582              	.LVL58:
 583 0012 1860     		str	r0, [r3]
1155:Generated_Source\PSoC4/CapSense_SensingCSD_LL.c ****     #else
1156:Generated_Source\PSoC4/CapSense_SensingCSD_LL.c ****         /*  Set up scanning resolution  */
1157:Generated_Source\PSoC4/CapSense_SensingCSD_LL.c ****         CapSense_counterResolution = (uint32)((0x00000001Lu << ptrWdgt->resolution) - 1u) << CapSen
1158:Generated_Source\PSoC4/CapSense_SensingCSD_LL.c ****     #endif /* (CapSense_ENABLE == CapSense_CSDV2) */
1159:Generated_Source\PSoC4/CapSense_SensingCSD_LL.c **** }
 584              		.loc 1 1159 0
 585              		@ sp needed
 586 0014 08BD     		pop	{r3, pc}
 587              	.L33:
 588 0016 C046     		.align	2
 589              	.L32:
 590 0018 14030C40 		.word	1074529044
 591              		.cfi_endproc
 592              	.LFE9:
 593              		.size	CapSense_SsCSDCalculateScanDuration, .-CapSense_SsCSDCalculateScanDuration
 594              		.section	.text.CapSense_SsCSDStartSample,"ax",%progbits
 595              		.align	1
 596              		.global	CapSense_SsCSDStartSample
 597              		.code	16
ARM GAS  C:\Users\Jerry\AppData\Local\Temp\cc2mbs0O.s 			page 33


 598              		.thumb_func
 599              		.type	CapSense_SsCSDStartSample, %function
 600              	CapSense_SsCSDStartSample:
 601              	.LFB12:
1160:Generated_Source\PSoC4/CapSense_SensingCSD_LL.c **** 
1161:Generated_Source\PSoC4/CapSense_SensingCSD_LL.c **** 
1162:Generated_Source\PSoC4/CapSense_SensingCSD_LL.c **** /*******************************************************************************
1163:Generated_Source\PSoC4/CapSense_SensingCSD_LL.c **** * Function Name: CapSense_CSDSetupWidget
1164:Generated_Source\PSoC4/CapSense_SensingCSD_LL.c **** ****************************************************************************//**
1165:Generated_Source\PSoC4/CapSense_SensingCSD_LL.c **** *
1166:Generated_Source\PSoC4/CapSense_SensingCSD_LL.c **** * \brief
1167:Generated_Source\PSoC4/CapSense_SensingCSD_LL.c **** *  Performs hardware and firmware initialization required for scanning sensors
1168:Generated_Source\PSoC4/CapSense_SensingCSD_LL.c **** *  in a specific widget using the CSD sensing method. The
1169:Generated_Source\PSoC4/CapSense_SensingCSD_LL.c **** *  CapSense_CSDScan() function should be used to start scanning when
1170:Generated_Source\PSoC4/CapSense_SensingCSD_LL.c **** *  using this function.
1171:Generated_Source\PSoC4/CapSense_SensingCSD_LL.c **** *
1172:Generated_Source\PSoC4/CapSense_SensingCSD_LL.c **** * \details
1173:Generated_Source\PSoC4/CapSense_SensingCSD_LL.c **** *  This function initializes the specific widget common parameters to perform
1174:Generated_Source\PSoC4/CapSense_SensingCSD_LL.c **** *  the CSD scanning. The initialization includes setting up a Modulator and
1175:Generated_Source\PSoC4/CapSense_SensingCSD_LL.c **** *  Sense clock frequency and scanning resolution.
1176:Generated_Source\PSoC4/CapSense_SensingCSD_LL.c **** *
1177:Generated_Source\PSoC4/CapSense_SensingCSD_LL.c **** *  This function does not connect any specific sensors to the scanning hardware
1178:Generated_Source\PSoC4/CapSense_SensingCSD_LL.c **** *  and also does not start a scanning process. The CapSense_CSDScan()
1179:Generated_Source\PSoC4/CapSense_SensingCSD_LL.c **** *  API must be called after initializing the widget to start scanning.
1180:Generated_Source\PSoC4/CapSense_SensingCSD_LL.c **** *
1181:Generated_Source\PSoC4/CapSense_SensingCSD_LL.c **** *  This function should be called when no scanning in progress. I.e.
1182:Generated_Source\PSoC4/CapSense_SensingCSD_LL.c **** *  CapSense_IsBusy() returns a non-busy status.
1183:Generated_Source\PSoC4/CapSense_SensingCSD_LL.c **** *
1184:Generated_Source\PSoC4/CapSense_SensingCSD_LL.c **** *  This function is called by the CapSense_SetupWidget() API if the
1185:Generated_Source\PSoC4/CapSense_SensingCSD_LL.c **** *  given widget uses the CSD sensing method.
1186:Generated_Source\PSoC4/CapSense_SensingCSD_LL.c **** *
1187:Generated_Source\PSoC4/CapSense_SensingCSD_LL.c **** *  It is not recommended to call this function directly from the application
1188:Generated_Source\PSoC4/CapSense_SensingCSD_LL.c **** *  layer. This function should be used to implement only the users specific
1189:Generated_Source\PSoC4/CapSense_SensingCSD_LL.c **** *  use cases (for faster execution time or pipeline scanning for example).
1190:Generated_Source\PSoC4/CapSense_SensingCSD_LL.c **** *
1191:Generated_Source\PSoC4/CapSense_SensingCSD_LL.c **** * \param  wdgtIndex
1192:Generated_Source\PSoC4/CapSense_SensingCSD_LL.c **** *  Specify the ID number of the widget to perform hardware and firmware
1193:Generated_Source\PSoC4/CapSense_SensingCSD_LL.c **** *  initialization required for scanning sensors in the specific widget.
1194:Generated_Source\PSoC4/CapSense_SensingCSD_LL.c **** *  A macro for the widget ID can be found in the CapSense Configuration header
1195:Generated_Source\PSoC4/CapSense_SensingCSD_LL.c **** *  file defined as CapSense_<WidgetName>_WDGT_ID.
1196:Generated_Source\PSoC4/CapSense_SensingCSD_LL.c **** *
1197:Generated_Source\PSoC4/CapSense_SensingCSD_LL.c **** *******************************************************************************/
1198:Generated_Source\PSoC4/CapSense_SensingCSD_LL.c **** void CapSense_CSDSetupWidget(uint32 wdgtIndex)
1199:Generated_Source\PSoC4/CapSense_SensingCSD_LL.c **** {
1200:Generated_Source\PSoC4/CapSense_SensingCSD_LL.c **** 
1201:Generated_Source\PSoC4/CapSense_SensingCSD_LL.c ****     CapSense_RAM_WD_BASE_STRUCT const *ptrWdgt = (CapSense_RAM_WD_BASE_STRUCT *)
1202:Generated_Source\PSoC4/CapSense_SensingCSD_LL.c ****                                                     CapSense_dsFlash.wdgtArray[wdgtIndex].ptr2WdgtR
1203:Generated_Source\PSoC4/CapSense_SensingCSD_LL.c **** 
1204:Generated_Source\PSoC4/CapSense_SensingCSD_LL.c ****     #if ((CapSense_ENABLE == CapSense_CSD_CSX_EN) || \
1205:Generated_Source\PSoC4/CapSense_SensingCSD_LL.c ****         (CapSense_ENABLE == CapSense_SELF_TEST_EN) || \
1206:Generated_Source\PSoC4/CapSense_SensingCSD_LL.c ****         (CapSense_ENABLE == CapSense_ADC_EN))
1207:Generated_Source\PSoC4/CapSense_SensingCSD_LL.c ****          CapSense_SsSwitchSensingMode(CapSense_SENSE_METHOD_CSD_E);
1208:Generated_Source\PSoC4/CapSense_SensingCSD_LL.c ****     #endif /* ((CapSense_ENABLE == CapSense_CSD_CSX_EN) || \
1209:Generated_Source\PSoC4/CapSense_SensingCSD_LL.c ****                (CapSense_ENABLE == CapSense_SELF_TEST_EN) || \
1210:Generated_Source\PSoC4/CapSense_SensingCSD_LL.c ****                (CapSense_ENABLE == CapSense_ADC_EN)) */
1211:Generated_Source\PSoC4/CapSense_SensingCSD_LL.c **** 
1212:Generated_Source\PSoC4/CapSense_SensingCSD_LL.c ****     /* Disconnect previous electrode if it has been connected */
ARM GAS  C:\Users\Jerry\AppData\Local\Temp\cc2mbs0O.s 			page 34


1213:Generated_Source\PSoC4/CapSense_SensingCSD_LL.c ****     CapSense_SsCSDElectrodeCheck();
1214:Generated_Source\PSoC4/CapSense_SensingCSD_LL.c **** 
1215:Generated_Source\PSoC4/CapSense_SensingCSD_LL.c ****     /* Save widget Id to have assess to it after scanning  */
1216:Generated_Source\PSoC4/CapSense_SensingCSD_LL.c ****     CapSense_widgetIndex = (uint8)wdgtIndex;
1217:Generated_Source\PSoC4/CapSense_SensingCSD_LL.c **** 
1218:Generated_Source\PSoC4/CapSense_SensingCSD_LL.c ****     /* Initialize IO Sns electrode structure pointer to current widget */
1219:Generated_Source\PSoC4/CapSense_SensingCSD_LL.c ****     CapSense_curSnsIOPtr = (CapSense_FLASH_IO_STRUCT const *)
1220:Generated_Source\PSoC4/CapSense_SensingCSD_LL.c ****                                     CapSense_dsFlash.wdgtArray[CapSense_widgetIndex].ptr2SnsFlash;
1221:Generated_Source\PSoC4/CapSense_SensingCSD_LL.c **** 
1222:Generated_Source\PSoC4/CapSense_SensingCSD_LL.c ****     /* Update status register in Data structure */
1223:Generated_Source\PSoC4/CapSense_SensingCSD_LL.c ****     CapSense_dsRam.status &= ~CapSense_STATUS_WDGT0_MASK;
1224:Generated_Source\PSoC4/CapSense_SensingCSD_LL.c ****     CapSense_dsRam.status |= CapSense_widgetIndex;
1225:Generated_Source\PSoC4/CapSense_SensingCSD_LL.c **** 
1226:Generated_Source\PSoC4/CapSense_SensingCSD_LL.c ****     /* Set up scanning resolution (Number ofconversion for CSDv2) */
1227:Generated_Source\PSoC4/CapSense_SensingCSD_LL.c ****     CapSense_SsCSDCalculateScanDuration(ptrWdgt);
1228:Generated_Source\PSoC4/CapSense_SensingCSD_LL.c **** 
1229:Generated_Source\PSoC4/CapSense_SensingCSD_LL.c ****     #if ((CapSense_DISABLE == CapSense_CSD_COMMON_SNS_CLK_EN) ||\
1230:Generated_Source\PSoC4/CapSense_SensingCSD_LL.c ****          (CapSense_CLK_SOURCE_DIRECT != CapSense_CSD_SNS_CLK_SOURCE))
1231:Generated_Source\PSoC4/CapSense_SensingCSD_LL.c ****         CapSense_SsCSDConfigClock();
1232:Generated_Source\PSoC4/CapSense_SensingCSD_LL.c ****     #endif /* ((CapSense_DISABLE == CapSense_CSD_COMMON_SNS_CLK_EN) ||\
1233:Generated_Source\PSoC4/CapSense_SensingCSD_LL.c ****                (CapSense_CLK_SOURCE_DIRECT != CapSense_CSD_SNS_CLK_SOURCE)) */
1234:Generated_Source\PSoC4/CapSense_SensingCSD_LL.c **** }
1235:Generated_Source\PSoC4/CapSense_SensingCSD_LL.c **** 
1236:Generated_Source\PSoC4/CapSense_SensingCSD_LL.c **** 
1237:Generated_Source\PSoC4/CapSense_SensingCSD_LL.c **** /*******************************************************************************
1238:Generated_Source\PSoC4/CapSense_SensingCSD_LL.c **** * Function Name: CapSense_CSDSetupWidgetExt
1239:Generated_Source\PSoC4/CapSense_SensingCSD_LL.c **** ****************************************************************************//**
1240:Generated_Source\PSoC4/CapSense_SensingCSD_LL.c **** *
1241:Generated_Source\PSoC4/CapSense_SensingCSD_LL.c **** * \brief
1242:Generated_Source\PSoC4/CapSense_SensingCSD_LL.c **** *  Performs extended initialization for the CSD widget and also performs
1243:Generated_Source\PSoC4/CapSense_SensingCSD_LL.c **** *  initialization required for a specific sensor in the widget. The
1244:Generated_Source\PSoC4/CapSense_SensingCSD_LL.c **** *  CapSense_CSDScanExt() function should be called to initiate a scan
1245:Generated_Source\PSoC4/CapSense_SensingCSD_LL.c **** *  when using this function.
1246:Generated_Source\PSoC4/CapSense_SensingCSD_LL.c **** *
1247:Generated_Source\PSoC4/CapSense_SensingCSD_LL.c **** * \details
1248:Generated_Source\PSoC4/CapSense_SensingCSD_LL.c **** *  This function does the same as CapSense_CSDSetupWidget() and also
1249:Generated_Source\PSoC4/CapSense_SensingCSD_LL.c **** *  the following tasks:
1250:Generated_Source\PSoC4/CapSense_SensingCSD_LL.c **** *    1. Connects the first sensor of the widget.
1251:Generated_Source\PSoC4/CapSense_SensingCSD_LL.c **** *    2. Configures the IDAC value.
1252:Generated_Source\PSoC4/CapSense_SensingCSD_LL.c **** *    3. Initializes an interrupt callback function to initialize a scan of the
1253:Generated_Source\PSoC4/CapSense_SensingCSD_LL.c **** *  next sensors in a widget.
1254:Generated_Source\PSoC4/CapSense_SensingCSD_LL.c **** *
1255:Generated_Source\PSoC4/CapSense_SensingCSD_LL.c **** *  Once this function is called to initialize a widget and a sensor, the
1256:Generated_Source\PSoC4/CapSense_SensingCSD_LL.c **** *  CapSense_CSDScanExt() function should be called to scan the sensor.
1257:Generated_Source\PSoC4/CapSense_SensingCSD_LL.c **** *
1258:Generated_Source\PSoC4/CapSense_SensingCSD_LL.c **** *  This function should be called when no scanning in progress. I.e.
1259:Generated_Source\PSoC4/CapSense_SensingCSD_LL.c **** *  CapSense_IsBusy() returns a non-busy status.
1260:Generated_Source\PSoC4/CapSense_SensingCSD_LL.c **** *
1261:Generated_Source\PSoC4/CapSense_SensingCSD_LL.c **** *  It is not recommended to call this function directly from the application
1262:Generated_Source\PSoC4/CapSense_SensingCSD_LL.c **** *  layer. This function should be used to implement only the users specific
1263:Generated_Source\PSoC4/CapSense_SensingCSD_LL.c **** *  use cases (for faster execution time or pipeline scanning for example).
1264:Generated_Source\PSoC4/CapSense_SensingCSD_LL.c **** *
1265:Generated_Source\PSoC4/CapSense_SensingCSD_LL.c **** * \param wdgtIndex
1266:Generated_Source\PSoC4/CapSense_SensingCSD_LL.c **** *  Specify the ID number of the widget to perform hardware and firmware
1267:Generated_Source\PSoC4/CapSense_SensingCSD_LL.c **** *  initialization required for scanning the specific sensor in the specific
1268:Generated_Source\PSoC4/CapSense_SensingCSD_LL.c **** *  widget.
1269:Generated_Source\PSoC4/CapSense_SensingCSD_LL.c **** *  A macro for the widget ID can be found in the CapSense Configuration header
ARM GAS  C:\Users\Jerry\AppData\Local\Temp\cc2mbs0O.s 			page 35


1270:Generated_Source\PSoC4/CapSense_SensingCSD_LL.c **** *  file defined as CapSense_<WidgetName>_WDGT_ID.
1271:Generated_Source\PSoC4/CapSense_SensingCSD_LL.c **** *
1272:Generated_Source\PSoC4/CapSense_SensingCSD_LL.c **** * \param snsIndex
1273:Generated_Source\PSoC4/CapSense_SensingCSD_LL.c **** *  Specify the ID number of the sensor within the widget to perform hardware
1274:Generated_Source\PSoC4/CapSense_SensingCSD_LL.c **** *  and firmware initialization required for scanning a specific sensor in a
1275:Generated_Source\PSoC4/CapSense_SensingCSD_LL.c **** *  specific widget.
1276:Generated_Source\PSoC4/CapSense_SensingCSD_LL.c **** *  A macro for the sensor ID within a specified widget can be found in the
1277:Generated_Source\PSoC4/CapSense_SensingCSD_LL.c **** *  CapSense Configuration header file defined as
1278:Generated_Source\PSoC4/CapSense_SensingCSD_LL.c **** *  CapSense_<WidgetName>_SNS<SensorNumber>_ID
1279:Generated_Source\PSoC4/CapSense_SensingCSD_LL.c **** *
1280:Generated_Source\PSoC4/CapSense_SensingCSD_LL.c **** *******************************************************************************/
1281:Generated_Source\PSoC4/CapSense_SensingCSD_LL.c **** void CapSense_CSDSetupWidgetExt(uint32 wdgtIndex, uint32 snsIndex)
1282:Generated_Source\PSoC4/CapSense_SensingCSD_LL.c **** {
1283:Generated_Source\PSoC4/CapSense_SensingCSD_LL.c ****     CapSense_RAM_WD_BASE_STRUCT const *ptrWdgt = (CapSense_RAM_WD_BASE_STRUCT *)
1284:Generated_Source\PSoC4/CapSense_SensingCSD_LL.c ****                                                     CapSense_dsFlash.wdgtArray[wdgtIndex].ptr2WdgtR
1285:Generated_Source\PSoC4/CapSense_SensingCSD_LL.c **** 
1286:Generated_Source\PSoC4/CapSense_SensingCSD_LL.c ****     /* Save widget and sensor Ids to have access to it after scanning  */
1287:Generated_Source\PSoC4/CapSense_SensingCSD_LL.c ****     CapSense_sensorIndex = (uint8)snsIndex;
1288:Generated_Source\PSoC4/CapSense_SensingCSD_LL.c **** 
1289:Generated_Source\PSoC4/CapSense_SensingCSD_LL.c ****     /*  Update global pointer to CapSense_RAM_SNS_STRUCT to current sensor  */
1290:Generated_Source\PSoC4/CapSense_SensingCSD_LL.c ****     CapSense_curRamSnsPtr = (CapSense_RAM_SNS_STRUCT *)
1291:Generated_Source\PSoC4/CapSense_SensingCSD_LL.c ****                                               CapSense_dsFlash.wdgtArray[wdgtIndex].ptr2SnsRam
1292:Generated_Source\PSoC4/CapSense_SensingCSD_LL.c ****                                               + CapSense_sensorIndex;
1293:Generated_Source\PSoC4/CapSense_SensingCSD_LL.c **** 
1294:Generated_Source\PSoC4/CapSense_SensingCSD_LL.c ****     CapSense_CSDSetupWidget(wdgtIndex);
1295:Generated_Source\PSoC4/CapSense_SensingCSD_LL.c **** 
1296:Generated_Source\PSoC4/CapSense_SensingCSD_LL.c ****      /* Setup Idac Value */
1297:Generated_Source\PSoC4/CapSense_SensingCSD_LL.c ****     CapSense_SsCSDSetUpIdacs(ptrWdgt);
1298:Generated_Source\PSoC4/CapSense_SensingCSD_LL.c **** 
1299:Generated_Source\PSoC4/CapSense_SensingCSD_LL.c ****     #if (CapSense_ENABLE == CapSense_CSD_GANGED_SNS_EN)
1300:Generated_Source\PSoC4/CapSense_SensingCSD_LL.c ****         /*  Initialise access pointers for current pointer to widget configuration in Flash */
1301:Generated_Source\PSoC4/CapSense_SensingCSD_LL.c ****         CapSense_curFlashWdgtPtr = &CapSense_dsFlash.wdgtArray[wdgtIndex];
1302:Generated_Source\PSoC4/CapSense_SensingCSD_LL.c ****     #endif /* (CapSense_ENABLE == CapSense_CSD_GANGED_SNS_EN)  */
1303:Generated_Source\PSoC4/CapSense_SensingCSD_LL.c **** 
1304:Generated_Source\PSoC4/CapSense_SensingCSD_LL.c ****     #if (CapSense_ENABLE == CapSense_CSD_GANGED_SNS_EN)
1305:Generated_Source\PSoC4/CapSense_SensingCSD_LL.c ****         CapSense_SsCSDConnectSensorExt(wdgtIndex, snsIndex);
1306:Generated_Source\PSoC4/CapSense_SensingCSD_LL.c ****     #else
1307:Generated_Source\PSoC4/CapSense_SensingCSD_LL.c ****         /* Enable sensor */
1308:Generated_Source\PSoC4/CapSense_SensingCSD_LL.c ****         CapSense_curSnsIOPtr += CapSense_sensorIndex;
1309:Generated_Source\PSoC4/CapSense_SensingCSD_LL.c ****         CapSense_CSDConnectSns(CapSense_curSnsIOPtr);
1310:Generated_Source\PSoC4/CapSense_SensingCSD_LL.c ****     #endif /* (CapSense_ENABLE == CapSense_CSD_GANGED_SNS_EN)  */
1311:Generated_Source\PSoC4/CapSense_SensingCSD_LL.c **** 
1312:Generated_Source\PSoC4/CapSense_SensingCSD_LL.c ****     #if (CapSense_ENABLE == CapSense_CSD_GANGED_SNS_EN)
1313:Generated_Source\PSoC4/CapSense_SensingCSD_LL.c ****         /* Save sns pointer */
1314:Generated_Source\PSoC4/CapSense_SensingCSD_LL.c ****         CapSense_curFlashSnsPtr = (CapSense_FLASH_SNS_STRUCT const *)
1315:Generated_Source\PSoC4/CapSense_SensingCSD_LL.c ****                                            CapSense_dsFlash.wdgtArray[CapSense_widgetIndex].ptr2Sns
1316:Generated_Source\PSoC4/CapSense_SensingCSD_LL.c ****                                            CapSense_sensorIndex;
1317:Generated_Source\PSoC4/CapSense_SensingCSD_LL.c ****     #endif /* (CapSense_ENABLE == CapSense_CSD_GANGED_SNS_EN) */
1318:Generated_Source\PSoC4/CapSense_SensingCSD_LL.c **** 
1319:Generated_Source\PSoC4/CapSense_SensingCSD_LL.c ****     CapSense_eleCsdDisconnectFlag = CapSense_DISCONNECT_IO_FLAG;
1320:Generated_Source\PSoC4/CapSense_SensingCSD_LL.c **** 
1321:Generated_Source\PSoC4/CapSense_SensingCSD_LL.c ****     /*  Setup ISR handler to single-sensor scan function */
1322:Generated_Source\PSoC4/CapSense_SensingCSD_LL.c ****     CapSense_ISR_StartEx(&CapSense_CSDPostSingleScan);
1323:Generated_Source\PSoC4/CapSense_SensingCSD_LL.c **** }
1324:Generated_Source\PSoC4/CapSense_SensingCSD_LL.c **** 
1325:Generated_Source\PSoC4/CapSense_SensingCSD_LL.c **** /*******************************************************************************
1326:Generated_Source\PSoC4/CapSense_SensingCSD_LL.c **** * Function Name: CapSense_SsCSDStartSample
ARM GAS  C:\Users\Jerry\AppData\Local\Temp\cc2mbs0O.s 			page 36


1327:Generated_Source\PSoC4/CapSense_SensingCSD_LL.c **** ****************************************************************************//**
1328:Generated_Source\PSoC4/CapSense_SensingCSD_LL.c **** *
1329:Generated_Source\PSoC4/CapSense_SensingCSD_LL.c **** * \brief
1330:Generated_Source\PSoC4/CapSense_SensingCSD_LL.c **** *   Starts the CSD conversion.
1331:Generated_Source\PSoC4/CapSense_SensingCSD_LL.c **** *
1332:Generated_Source\PSoC4/CapSense_SensingCSD_LL.c **** * \details
1333:Generated_Source\PSoC4/CapSense_SensingCSD_LL.c **** *   This function assumes that the CSD block is already set up using
1334:Generated_Source\PSoC4/CapSense_SensingCSD_LL.c **** *   the CapSense_CSDSetupWidget API and the sensor port-pin is connected to the CSD
1335:Generated_Source\PSoC4/CapSense_SensingCSD_LL.c **** *   block using CapSense_CSDConnectSns.
1336:Generated_Source\PSoC4/CapSense_SensingCSD_LL.c **** *   For CSDv1 the function performs the following tasks:
1337:Generated_Source\PSoC4/CapSense_SensingCSD_LL.c **** *   1. Disconnects the Vref buffer from AMUX;
1338:Generated_Source\PSoC4/CapSense_SensingCSD_LL.c **** *   2. Precharges Cmod;
1339:Generated_Source\PSoC4/CapSense_SensingCSD_LL.c **** *   3. Makes the PreSettling delay to have a stable Vref voltage;
1340:Generated_Source\PSoC4/CapSense_SensingCSD_LL.c **** *   4. Sets the resolution to the Counter register to start scanning.
1341:Generated_Source\PSoC4/CapSense_SensingCSD_LL.c **** *
1342:Generated_Source\PSoC4/CapSense_SensingCSD_LL.c **** *******************************************************************************/
1343:Generated_Source\PSoC4/CapSense_SensingCSD_LL.c **** void CapSense_SsCSDStartSample(void)
1344:Generated_Source\PSoC4/CapSense_SensingCSD_LL.c **** {
 602              		.loc 1 1344 0
 603              		.cfi_startproc
 604 0000 F0B5     		push	{r4, r5, r6, r7, lr}
 605              		.cfi_def_cfa_offset 20
 606              		.cfi_offset 4, -20
 607              		.cfi_offset 5, -16
 608              		.cfi_offset 6, -12
 609              		.cfi_offset 7, -8
 610              		.cfi_offset 14, -4
1345:Generated_Source\PSoC4/CapSense_SensingCSD_LL.c **** #if (CapSense_ENABLE == CapSense_CSDV2)
1346:Generated_Source\PSoC4/CapSense_SensingCSD_LL.c ****     /* CSDv2 HW IP block section */
1347:Generated_Source\PSoC4/CapSense_SensingCSD_LL.c **** 
1348:Generated_Source\PSoC4/CapSense_SensingCSD_LL.c ****     /* Disable CSD interrupt to prevent it during coarse initialization */
1349:Generated_Source\PSoC4/CapSense_SensingCSD_LL.c ****     CyIntDisable(CapSense_ISR_NUMBER);
1350:Generated_Source\PSoC4/CapSense_SensingCSD_LL.c **** 
1351:Generated_Source\PSoC4/CapSense_SensingCSD_LL.c ****     /* Enable power to sub-blocks */
1352:Generated_Source\PSoC4/CapSense_SensingCSD_LL.c ****     CY_SET_REG32(CapSense_HSCMP_PTR, CapSense_HSCMP_INIT_MASK);
 611              		.loc 1 1352 0
 612 0002 0125     		mov	r5, #1
 613 0004 364C     		ldr	r4, .L45
1344:Generated_Source\PSoC4/CapSense_SensingCSD_LL.c **** #if (CapSense_ENABLE == CapSense_CSDV2)
 614              		.loc 1 1344 0
 615 0006 87B0     		sub	sp, sp, #28
 616              		.cfi_def_cfa_offset 48
1349:Generated_Source\PSoC4/CapSense_SensingCSD_LL.c **** 
 617              		.loc 1 1349 0
 618 0008 0E20     		mov	r0, #14
 619 000a FFF7FEFF 		bl	CyIntDisable
 620              	.LVL59:
 621              		.loc 1 1352 0
 622 000e 2560     		str	r5, [r4]
1353:Generated_Source\PSoC4/CapSense_SensingCSD_LL.c **** 
1354:Generated_Source\PSoC4/CapSense_SensingCSD_LL.c ****     #if (CapSense_ENABLE == CapSense_BLOCK_OFF_AFTER_SCAN_EN)
1355:Generated_Source\PSoC4/CapSense_SensingCSD_LL.c ****         CY_SET_REG32(CapSense_CONFIG_PTR, CapSense_configCsd |
1356:Generated_Source\PSoC4/CapSense_SensingCSD_LL.c ****                                                   CapSense_CONFIG_SENSE_EN_MASK |
1357:Generated_Source\PSoC4/CapSense_SensingCSD_LL.c ****                                                   CapSense_CONFIG_ENABLE_MASK);
1358:Generated_Source\PSoC4/CapSense_SensingCSD_LL.c **** 
1359:Generated_Source\PSoC4/CapSense_SensingCSD_LL.c ****         /*  Wait until CSD block powers ON */
1360:Generated_Source\PSoC4/CapSense_SensingCSD_LL.c ****         CyDelayCycles(CapSense_CSD_ON_DELAY);
ARM GAS  C:\Users\Jerry\AppData\Local\Temp\cc2mbs0O.s 			page 37


1361:Generated_Source\PSoC4/CapSense_SensingCSD_LL.c ****     #else
1362:Generated_Source\PSoC4/CapSense_SensingCSD_LL.c ****         /*  Wait until HSCMP powers ON */
1363:Generated_Source\PSoC4/CapSense_SensingCSD_LL.c ****         CyDelayCycles(CapSense_HSCMP_ON_DELAY);
 623              		.loc 1 1363 0
 624 0010 1820     		mov	r0, #24
 625 0012 FFF7FEFF 		bl	CyDelayCycles
 626              	.LVL60:
 627              	.LBB18:
 628              	.LBB19:
1364:Generated_Source\PSoC4/CapSense_SensingCSD_LL.c ****     #endif /* (CapSense_ENABLE == CapSense_BLOCK_OFF_AFTER_SCAN_EN) */
1365:Generated_Source\PSoC4/CapSense_SensingCSD_LL.c **** 
1366:Generated_Source\PSoC4/CapSense_SensingCSD_LL.c ****     /* Precharging Cmod and Csh */
1367:Generated_Source\PSoC4/CapSense_SensingCSD_LL.c ****     CapSense_SsCSDCmodPrecharge();
1368:Generated_Source\PSoC4/CapSense_SensingCSD_LL.c **** 
1369:Generated_Source\PSoC4/CapSense_SensingCSD_LL.c ****     /* Trigger Scan */
1370:Generated_Source\PSoC4/CapSense_SensingCSD_LL.c ****     CapSense_SsCSDTriggerScan();
1371:Generated_Source\PSoC4/CapSense_SensingCSD_LL.c **** 
1372:Generated_Source\PSoC4/CapSense_SensingCSD_LL.c **** #else
1373:Generated_Source\PSoC4/CapSense_SensingCSD_LL.c ****     /* CSDv1 HW IP block section */
1374:Generated_Source\PSoC4/CapSense_SensingCSD_LL.c **** 
1375:Generated_Source\PSoC4/CapSense_SensingCSD_LL.c ****     uint8 interruptState;
1376:Generated_Source\PSoC4/CapSense_SensingCSD_LL.c **** 
1377:Generated_Source\PSoC4/CapSense_SensingCSD_LL.c ****     interruptState = CyEnterCriticalSection();
1378:Generated_Source\PSoC4/CapSense_SensingCSD_LL.c **** 
1379:Generated_Source\PSoC4/CapSense_SensingCSD_LL.c ****     /*  Enable CSD block. Disconnect Vref Buffer from AMUX */
1380:Generated_Source\PSoC4/CapSense_SensingCSD_LL.c ****     #if ((CapSense_CSH_PRECHARGE_IO_BUF == CapSense_CSD_CSH_PRECHARGE_SRC) &&\
1381:Generated_Source\PSoC4/CapSense_SensingCSD_LL.c ****          (CapSense_ENABLE == CapSense_CSD_SHIELD_TANK_EN))
1382:Generated_Source\PSoC4/CapSense_SensingCSD_LL.c ****         CY_SET_REG32(CapSense_CONFIG_PTR, CapSense_configCsd | CapSense_CMOD_PRECHARGE_CONFIG_CSD_E
1383:Generated_Source\PSoC4/CapSense_SensingCSD_LL.c ****     #else
1384:Generated_Source\PSoC4/CapSense_SensingCSD_LL.c ****         CY_SET_REG32(CapSense_CONFIG_PTR, CapSense_configCsd | CapSense_CTANK_PRECHARGE_CONFIG_CSD_
1385:Generated_Source\PSoC4/CapSense_SensingCSD_LL.c ****     #endif /* ((CapSense_CSH_PRECHARGE_IO_BUF == CapSense_CSD_CSH_PRECHARGE_SRC) &&\
1386:Generated_Source\PSoC4/CapSense_SensingCSD_LL.c ****                (CapSense_ENABLE == CapSense_CSD_SHIELD_TANK_EN)) */
1387:Generated_Source\PSoC4/CapSense_SensingCSD_LL.c **** 
1388:Generated_Source\PSoC4/CapSense_SensingCSD_LL.c ****     /* Restart the clocks. Scan one cycle to reset the flip-flop for Direct clock mode */
1389:Generated_Source\PSoC4/CapSense_SensingCSD_LL.c ****     CapSense_SsCSDClockRestart();
1390:Generated_Source\PSoC4/CapSense_SensingCSD_LL.c **** 
1391:Generated_Source\PSoC4/CapSense_SensingCSD_LL.c ****     /* Precharging Cmod to Vref */
1392:Generated_Source\PSoC4/CapSense_SensingCSD_LL.c ****     CapSense_SsCSDCmodPrecharge();
1393:Generated_Source\PSoC4/CapSense_SensingCSD_LL.c **** 
1394:Generated_Source\PSoC4/CapSense_SensingCSD_LL.c ****     #if (CapSense_CLK_SOURCE_DIRECT != CapSense_CSD_SNS_CLK_SOURCE)
1395:Generated_Source\PSoC4/CapSense_SensingCSD_LL.c ****         /* Set PreSettling delay to skip IDAC glitch before scanning */
1396:Generated_Source\PSoC4/CapSense_SensingCSD_LL.c ****         CyDelayCycles(CapSense_GLITCH_ELIMINATION_CYCLES);
1397:Generated_Source\PSoC4/CapSense_SensingCSD_LL.c ****     #endif /* (CapSense_CSD_SNS_CLK_SOURCE != CapSense_CLK_SOURCE_DIRECT) */
1398:Generated_Source\PSoC4/CapSense_SensingCSD_LL.c **** 
1399:Generated_Source\PSoC4/CapSense_SensingCSD_LL.c ****     /* Trigger Scan */
1400:Generated_Source\PSoC4/CapSense_SensingCSD_LL.c ****     CapSense_SsCSDTriggerScan();
1401:Generated_Source\PSoC4/CapSense_SensingCSD_LL.c **** 
1402:Generated_Source\PSoC4/CapSense_SensingCSD_LL.c ****     CyExitCriticalSection(interruptState);
1403:Generated_Source\PSoC4/CapSense_SensingCSD_LL.c **** #endif /* (CapSense_ENABLE == CapSense_CSDV2) */
1404:Generated_Source\PSoC4/CapSense_SensingCSD_LL.c **** }
1405:Generated_Source\PSoC4/CapSense_SensingCSD_LL.c **** 
1406:Generated_Source\PSoC4/CapSense_SensingCSD_LL.c **** 
1407:Generated_Source\PSoC4/CapSense_SensingCSD_LL.c **** /*******************************************************************************
1408:Generated_Source\PSoC4/CapSense_SensingCSD_LL.c **** * Function Name: CapSense_CSDScanExt
1409:Generated_Source\PSoC4/CapSense_SensingCSD_LL.c **** ****************************************************************************//**
1410:Generated_Source\PSoC4/CapSense_SensingCSD_LL.c **** *
1411:Generated_Source\PSoC4/CapSense_SensingCSD_LL.c **** * \brief
ARM GAS  C:\Users\Jerry\AppData\Local\Temp\cc2mbs0O.s 			page 38


1412:Generated_Source\PSoC4/CapSense_SensingCSD_LL.c **** *  Starts the CSD conversion on the preconfigured sensor.
1413:Generated_Source\PSoC4/CapSense_SensingCSD_LL.c **** *  CapSense_CSDSetupWidgetExt() function should be used to setup the
1414:Generated_Source\PSoC4/CapSense_SensingCSD_LL.c **** *  widget when using this function.
1415:Generated_Source\PSoC4/CapSense_SensingCSD_LL.c **** *
1416:Generated_Source\PSoC4/CapSense_SensingCSD_LL.c **** * \details
1417:Generated_Source\PSoC4/CapSense_SensingCSD_LL.c **** *  This function performs single scanning of one sensor in the widget configured
1418:Generated_Source\PSoC4/CapSense_SensingCSD_LL.c **** *  by the CapSense_CSDSetupWidgetExt() function. It does the following
1419:Generated_Source\PSoC4/CapSense_SensingCSD_LL.c **** *  tasks:
1420:Generated_Source\PSoC4/CapSense_SensingCSD_LL.c **** *    1. Sets the busy flag in the CapSense_dsRam structure.
1421:Generated_Source\PSoC4/CapSense_SensingCSD_LL.c **** *    2. Performs the clock-phase alignment of the sense and modulator clocks.
1422:Generated_Source\PSoC4/CapSense_SensingCSD_LL.c **** *    3. Performs Cmod pre-charging.
1423:Generated_Source\PSoC4/CapSense_SensingCSD_LL.c **** *    4. Starts single scanning.
1424:Generated_Source\PSoC4/CapSense_SensingCSD_LL.c **** *
1425:Generated_Source\PSoC4/CapSense_SensingCSD_LL.c **** *  It is not recommended to call this function directly from the application
1426:Generated_Source\PSoC4/CapSense_SensingCSD_LL.c **** *  layer. This function should be used to implement only the users specific
1427:Generated_Source\PSoC4/CapSense_SensingCSD_LL.c **** *  use cases (for faster execution time or pipeline scanning for example).
1428:Generated_Source\PSoC4/CapSense_SensingCSD_LL.c **** *  This function should be called when no scanning in progress. I.e.
1429:Generated_Source\PSoC4/CapSense_SensingCSD_LL.c **** *  CapSense_IsBusy() returns a non-busy status.
1430:Generated_Source\PSoC4/CapSense_SensingCSD_LL.c **** *
1431:Generated_Source\PSoC4/CapSense_SensingCSD_LL.c **** *  The sensor must be preconfigured by using the
1432:Generated_Source\PSoC4/CapSense_SensingCSD_LL.c **** *  CapSense_CSDSetupWidgetExt() API prior to calling this function.
1433:Generated_Source\PSoC4/CapSense_SensingCSD_LL.c **** *  The sensor remains ready for the next scan if a previous scan was triggered
1434:Generated_Source\PSoC4/CapSense_SensingCSD_LL.c **** *  by using the CapSense_CSDScanExt() function. In this case, calling
1435:Generated_Source\PSoC4/CapSense_SensingCSD_LL.c **** *  CapSense_CSDSetupWidgetExt() is not required every time before the
1436:Generated_Source\PSoC4/CapSense_SensingCSD_LL.c **** *  CapSense_CSDScanExt() function. If a previous scan was triggered in
1437:Generated_Source\PSoC4/CapSense_SensingCSD_LL.c **** *  any other way: CapSense_Scan(), CapSense_ScanAllWidgets() or
1438:Generated_Source\PSoC4/CapSense_SensingCSD_LL.c **** *  CapSense_RunTuner() (see the CapSense_RunTuner() function
1439:Generated_Source\PSoC4/CapSense_SensingCSD_LL.c **** *  description for more details), the sensor must be preconfigured again by
1440:Generated_Source\PSoC4/CapSense_SensingCSD_LL.c **** *  using the CapSense_CSDSetupWidgetExt() API prior to calling the
1441:Generated_Source\PSoC4/CapSense_SensingCSD_LL.c **** *  CapSense_CSDScanExt() function.
1442:Generated_Source\PSoC4/CapSense_SensingCSD_LL.c **** *
1443:Generated_Source\PSoC4/CapSense_SensingCSD_LL.c **** *  If disconnection of the sensors is required after calling
1444:Generated_Source\PSoC4/CapSense_SensingCSD_LL.c **** *  CapSense_CSDScanExt(), the CapSense_CSDDisconnectSns()
1445:Generated_Source\PSoC4/CapSense_SensingCSD_LL.c **** *  function can be used.
1446:Generated_Source\PSoC4/CapSense_SensingCSD_LL.c **** *
1447:Generated_Source\PSoC4/CapSense_SensingCSD_LL.c **** *******************************************************************************/
1448:Generated_Source\PSoC4/CapSense_SensingCSD_LL.c **** void CapSense_CSDScanExt(void)
1449:Generated_Source\PSoC4/CapSense_SensingCSD_LL.c **** {
1450:Generated_Source\PSoC4/CapSense_SensingCSD_LL.c ****     /* Set Start of sensor scan flag */
1451:Generated_Source\PSoC4/CapSense_SensingCSD_LL.c ****     CapSense_dsRam.status |= (CapSense_SW_STS_BUSY | CapSense_WDGT_SW_STS_BUSY);
1452:Generated_Source\PSoC4/CapSense_SensingCSD_LL.c **** 
1453:Generated_Source\PSoC4/CapSense_SensingCSD_LL.c ****     CapSense_SsCSDStartSample();
1454:Generated_Source\PSoC4/CapSense_SensingCSD_LL.c **** }
1455:Generated_Source\PSoC4/CapSense_SensingCSD_LL.c **** 
1456:Generated_Source\PSoC4/CapSense_SensingCSD_LL.c **** 
1457:Generated_Source\PSoC4/CapSense_SensingCSD_LL.c **** /*******************************************************************************
1458:Generated_Source\PSoC4/CapSense_SensingCSD_LL.c **** * Function Name: CapSense_CSDScan
1459:Generated_Source\PSoC4/CapSense_SensingCSD_LL.c **** ****************************************************************************//**
1460:Generated_Source\PSoC4/CapSense_SensingCSD_LL.c **** *
1461:Generated_Source\PSoC4/CapSense_SensingCSD_LL.c **** * \brief
1462:Generated_Source\PSoC4/CapSense_SensingCSD_LL.c **** *  This function initiates the scan for sensors of the widget initialized by the
1463:Generated_Source\PSoC4/CapSense_SensingCSD_LL.c **** *  CapSense_CSDSetupWidget() function.
1464:Generated_Source\PSoC4/CapSense_SensingCSD_LL.c **** *
1465:Generated_Source\PSoC4/CapSense_SensingCSD_LL.c **** * \details
1466:Generated_Source\PSoC4/CapSense_SensingCSD_LL.c **** *  This function performs scanning of all sensors in the widget configured by
1467:Generated_Source\PSoC4/CapSense_SensingCSD_LL.c **** *  the CapSense_CSDSetupWidget() function. It does the following tasks:
1468:Generated_Source\PSoC4/CapSense_SensingCSD_LL.c **** *    1. Connects the first sensor of the widget.
ARM GAS  C:\Users\Jerry\AppData\Local\Temp\cc2mbs0O.s 			page 39


1469:Generated_Source\PSoC4/CapSense_SensingCSD_LL.c **** *    2. Configures the IDAC value.
1470:Generated_Source\PSoC4/CapSense_SensingCSD_LL.c **** *    3. Initializes the interrupt callback function to initialize a scan of
1471:Generated_Source\PSoC4/CapSense_SensingCSD_LL.c **** *       the next sensors in a widget.
1472:Generated_Source\PSoC4/CapSense_SensingCSD_LL.c **** *    4. Starts scanning for the first sensor in the widget.
1473:Generated_Source\PSoC4/CapSense_SensingCSD_LL.c **** *
1474:Generated_Source\PSoC4/CapSense_SensingCSD_LL.c **** *  This function is called by the CapSense_Scan() API if the given
1475:Generated_Source\PSoC4/CapSense_SensingCSD_LL.c **** *  widget uses the CSD sensing method.
1476:Generated_Source\PSoC4/CapSense_SensingCSD_LL.c **** *
1477:Generated_Source\PSoC4/CapSense_SensingCSD_LL.c **** *  It is not recommended to call this function directly from the application
1478:Generated_Source\PSoC4/CapSense_SensingCSD_LL.c **** *  layer. This function should be used to implement only the users specific
1479:Generated_Source\PSoC4/CapSense_SensingCSD_LL.c **** *  use cases (for faster execution time or pipeline scanning for example).
1480:Generated_Source\PSoC4/CapSense_SensingCSD_LL.c **** *
1481:Generated_Source\PSoC4/CapSense_SensingCSD_LL.c **** *  This function should be called when no scanning in progress. I.e.
1482:Generated_Source\PSoC4/CapSense_SensingCSD_LL.c **** *  CapSense_IsBusy() returns a non-busy status. The widget must be
1483:Generated_Source\PSoC4/CapSense_SensingCSD_LL.c **** *  preconfigured by the CapSense_CSDSetupWidget() function if other
1484:Generated_Source\PSoC4/CapSense_SensingCSD_LL.c **** *  widget was previously scanned or other type of scan functions were used.
1485:Generated_Source\PSoC4/CapSense_SensingCSD_LL.c **** *
1486:Generated_Source\PSoC4/CapSense_SensingCSD_LL.c **** *******************************************************************************/
1487:Generated_Source\PSoC4/CapSense_SensingCSD_LL.c **** void CapSense_CSDScan(void)
1488:Generated_Source\PSoC4/CapSense_SensingCSD_LL.c **** {
1489:Generated_Source\PSoC4/CapSense_SensingCSD_LL.c ****     CapSense_RAM_WD_BASE_STRUCT const *ptrWdgt = (CapSense_RAM_WD_BASE_STRUCT *)
1490:Generated_Source\PSoC4/CapSense_SensingCSD_LL.c ****                                                     CapSense_dsFlash.wdgtArray[CapSense_widgetIndex
1491:Generated_Source\PSoC4/CapSense_SensingCSD_LL.c **** 
1492:Generated_Source\PSoC4/CapSense_SensingCSD_LL.c ****      /*
1493:Generated_Source\PSoC4/CapSense_SensingCSD_LL.c ****       * Update CapSense_sensorIndex with the first sensor in
1494:Generated_Source\PSoC4/CapSense_SensingCSD_LL.c ****       * widget to use it in ISR handler to configure the next sensor
1495:Generated_Source\PSoC4/CapSense_SensingCSD_LL.c ****       */
1496:Generated_Source\PSoC4/CapSense_SensingCSD_LL.c ****     CapSense_sensorIndex = 0u;
1497:Generated_Source\PSoC4/CapSense_SensingCSD_LL.c **** 
1498:Generated_Source\PSoC4/CapSense_SensingCSD_LL.c ****     /*  Update global pointer to CapSense_RAM_SNS_STRUCT to current sensor  */
1499:Generated_Source\PSoC4/CapSense_SensingCSD_LL.c ****     CapSense_curRamSnsPtr = (CapSense_RAM_SNS_STRUCT *)
1500:Generated_Source\PSoC4/CapSense_SensingCSD_LL.c ****                                               CapSense_dsFlash.wdgtArray[CapSense_widgetIndex].ptr2
1501:Generated_Source\PSoC4/CapSense_SensingCSD_LL.c ****                                               + CapSense_sensorIndex;
1502:Generated_Source\PSoC4/CapSense_SensingCSD_LL.c **** 
1503:Generated_Source\PSoC4/CapSense_SensingCSD_LL.c ****     /* Setup Idac Value */
1504:Generated_Source\PSoC4/CapSense_SensingCSD_LL.c ****    CapSense_SsCSDSetUpIdacs(ptrWdgt);
1505:Generated_Source\PSoC4/CapSense_SensingCSD_LL.c **** 
1506:Generated_Source\PSoC4/CapSense_SensingCSD_LL.c ****     #if (CapSense_ENABLE == CapSense_CSD_GANGED_SNS_EN)
1507:Generated_Source\PSoC4/CapSense_SensingCSD_LL.c ****         /* Check ganged sns flag  */
1508:Generated_Source\PSoC4/CapSense_SensingCSD_LL.c ****         if (CapSense_GANGED_SNS_MASK == (CapSense_dsFlash.wdgtArray[CapSense_widgetIndex].staticCon
1509:Generated_Source\PSoC4/CapSense_SensingCSD_LL.c ****             CapSense_GANGED_SNS_MASK))
1510:Generated_Source\PSoC4/CapSense_SensingCSD_LL.c ****         {
1511:Generated_Source\PSoC4/CapSense_SensingCSD_LL.c ****             /*  Setup ISR handler to multiple-sensor scan function with ganged sensors */
1512:Generated_Source\PSoC4/CapSense_SensingCSD_LL.c ****             CapSense_ISR_StartEx(&CapSense_CSDPostMultiScanGanged);
1513:Generated_Source\PSoC4/CapSense_SensingCSD_LL.c ****         }
1514:Generated_Source\PSoC4/CapSense_SensingCSD_LL.c ****         else
1515:Generated_Source\PSoC4/CapSense_SensingCSD_LL.c ****         {
1516:Generated_Source\PSoC4/CapSense_SensingCSD_LL.c ****             /*  Set up ISR handler to multiple-sensor scan function without ganged sensors */
1517:Generated_Source\PSoC4/CapSense_SensingCSD_LL.c ****             CapSense_ISR_StartEx(&CapSense_CSDPostMultiScan);
1518:Generated_Source\PSoC4/CapSense_SensingCSD_LL.c ****         }
1519:Generated_Source\PSoC4/CapSense_SensingCSD_LL.c **** 
1520:Generated_Source\PSoC4/CapSense_SensingCSD_LL.c ****         CapSense_SsCSDConnectSensorExt((uint32)CapSense_widgetIndex, (uint32)CapSense_sensorIndex);
1521:Generated_Source\PSoC4/CapSense_SensingCSD_LL.c ****     #else
1522:Generated_Source\PSoC4/CapSense_SensingCSD_LL.c ****         /* Initialise ptr to sensor IO structure to appropriate address */
1523:Generated_Source\PSoC4/CapSense_SensingCSD_LL.c ****         CapSense_curSnsIOPtr = (CapSense_FLASH_IO_STRUCT const *)
1524:Generated_Source\PSoC4/CapSense_SensingCSD_LL.c ****                                         CapSense_dsFlash.wdgtArray[CapSense_widgetIndex].ptr2SnsFla
1525:Generated_Source\PSoC4/CapSense_SensingCSD_LL.c ****                                         + CapSense_sensorIndex;
ARM GAS  C:\Users\Jerry\AppData\Local\Temp\cc2mbs0O.s 			page 40


1526:Generated_Source\PSoC4/CapSense_SensingCSD_LL.c **** 
1527:Generated_Source\PSoC4/CapSense_SensingCSD_LL.c ****         /* Enable sensor */
1528:Generated_Source\PSoC4/CapSense_SensingCSD_LL.c ****         CapSense_CSDConnectSns(CapSense_curSnsIOPtr);
1529:Generated_Source\PSoC4/CapSense_SensingCSD_LL.c **** 
1530:Generated_Source\PSoC4/CapSense_SensingCSD_LL.c ****         /*  Set-up ISR handler to multiple-sensor scan function without ganged sensors */
1531:Generated_Source\PSoC4/CapSense_SensingCSD_LL.c ****         CapSense_ISR_StartEx(&CapSense_CSDPostMultiScan);
1532:Generated_Source\PSoC4/CapSense_SensingCSD_LL.c ****     #endif /* (CapSense_ENABLE == CapSense_CSD_GANGED_SNS_EN)  */
1533:Generated_Source\PSoC4/CapSense_SensingCSD_LL.c **** 
1534:Generated_Source\PSoC4/CapSense_SensingCSD_LL.c ****     /* Start scanning */
1535:Generated_Source\PSoC4/CapSense_SensingCSD_LL.c ****     CapSense_CSDScanExt();
1536:Generated_Source\PSoC4/CapSense_SensingCSD_LL.c **** }
1537:Generated_Source\PSoC4/CapSense_SensingCSD_LL.c **** 
1538:Generated_Source\PSoC4/CapSense_SensingCSD_LL.c **** 
1539:Generated_Source\PSoC4/CapSense_SensingCSD_LL.c **** /*******************************************************************************
1540:Generated_Source\PSoC4/CapSense_SensingCSD_LL.c **** * Function Name: CapSense_SsCSDConnectSensorExt
1541:Generated_Source\PSoC4/CapSense_SensingCSD_LL.c **** ****************************************************************************//**
1542:Generated_Source\PSoC4/CapSense_SensingCSD_LL.c **** *
1543:Generated_Source\PSoC4/CapSense_SensingCSD_LL.c **** * \brief
1544:Generated_Source\PSoC4/CapSense_SensingCSD_LL.c **** *  Connects a ganged sensor port-pin to the CapSense block via the AMUX bus.
1545:Generated_Source\PSoC4/CapSense_SensingCSD_LL.c **** *
1546:Generated_Source\PSoC4/CapSense_SensingCSD_LL.c **** * \details
1547:Generated_Source\PSoC4/CapSense_SensingCSD_LL.c **** *   The function gets the IO configuration registers addresses, their shifts and
1548:Generated_Source\PSoC4/CapSense_SensingCSD_LL.c **** *   masks from the FLASH_IO_STRUCT object. Basing on this data, it updates the HSIOM and
1549:Generated_Source\PSoC4/CapSense_SensingCSD_LL.c **** *   PC registers.
1550:Generated_Source\PSoC4/CapSense_SensingCSD_LL.c **** *
1551:Generated_Source\PSoC4/CapSense_SensingCSD_LL.c **** * \param
1552:Generated_Source\PSoC4/CapSense_SensingCSD_LL.c **** *   wdgtIndex Specifies ID of the widget.
1553:Generated_Source\PSoC4/CapSense_SensingCSD_LL.c **** *   sensorIndex Specifies ID of the sensor in the widget.
1554:Generated_Source\PSoC4/CapSense_SensingCSD_LL.c **** *
1555:Generated_Source\PSoC4/CapSense_SensingCSD_LL.c **** *******************************************************************************/
1556:Generated_Source\PSoC4/CapSense_SensingCSD_LL.c **** void CapSense_SsCSDConnectSensorExt(uint32 wdgtIndex, uint32 sensorIndex)
1557:Generated_Source\PSoC4/CapSense_SensingCSD_LL.c **** {
1558:Generated_Source\PSoC4/CapSense_SensingCSD_LL.c ****     #if (CapSense_ENABLE == CapSense_CSD_GANGED_SNS_EN)
1559:Generated_Source\PSoC4/CapSense_SensingCSD_LL.c ****         uint32 tempVal;
1560:Generated_Source\PSoC4/CapSense_SensingCSD_LL.c ****     #endif /* (CapSense_ENABLE == CapSense_CSD_GANGED_SNS_EN) */
1561:Generated_Source\PSoC4/CapSense_SensingCSD_LL.c **** 
1562:Generated_Source\PSoC4/CapSense_SensingCSD_LL.c ****     /*  Initialise ptr to sensor IO structure to appropriate address */
1563:Generated_Source\PSoC4/CapSense_SensingCSD_LL.c ****     CapSense_curSnsIOPtr = (CapSense_FLASH_IO_STRUCT const *)
1564:Generated_Source\PSoC4/CapSense_SensingCSD_LL.c ****                                                       CapSense_dsFlash.wdgtArray[wdgtIndex].ptr2Sns
1565:Generated_Source\PSoC4/CapSense_SensingCSD_LL.c ****                                                       + sensorIndex;
1566:Generated_Source\PSoC4/CapSense_SensingCSD_LL.c **** 
1567:Generated_Source\PSoC4/CapSense_SensingCSD_LL.c ****     #if (CapSense_ENABLE == CapSense_CSD_GANGED_SNS_EN)
1568:Generated_Source\PSoC4/CapSense_SensingCSD_LL.c ****         /* Check ganged sns flag  */
1569:Generated_Source\PSoC4/CapSense_SensingCSD_LL.c ****         if (CapSense_GANGED_SNS_MASK ==
1570:Generated_Source\PSoC4/CapSense_SensingCSD_LL.c ****            (CapSense_dsFlash.wdgtArray[wdgtIndex].staticConfig &
1571:Generated_Source\PSoC4/CapSense_SensingCSD_LL.c ****             CapSense_GANGED_SNS_MASK))
1572:Generated_Source\PSoC4/CapSense_SensingCSD_LL.c ****         {
1573:Generated_Source\PSoC4/CapSense_SensingCSD_LL.c ****             /* Get sns pointer */
1574:Generated_Source\PSoC4/CapSense_SensingCSD_LL.c ****             CapSense_curFlashSnsPtr = (CapSense_FLASH_SNS_STRUCT const *)
1575:Generated_Source\PSoC4/CapSense_SensingCSD_LL.c ****                                                CapSense_dsFlash.wdgtArray[wdgtIndex].ptr2SnsFlash +
1576:Generated_Source\PSoC4/CapSense_SensingCSD_LL.c ****                                                sensorIndex;
1577:Generated_Source\PSoC4/CapSense_SensingCSD_LL.c **** 
1578:Generated_Source\PSoC4/CapSense_SensingCSD_LL.c ****             /* Get number of ganged pins */
1579:Generated_Source\PSoC4/CapSense_SensingCSD_LL.c ****             tempVal = CapSense_curFlashSnsPtr->numPins;
1580:Generated_Source\PSoC4/CapSense_SensingCSD_LL.c **** 
1581:Generated_Source\PSoC4/CapSense_SensingCSD_LL.c ****             /* Get IO pointer  */
1582:Generated_Source\PSoC4/CapSense_SensingCSD_LL.c ****             CapSense_curSnsIOPtr = &CapSense_ioList[CapSense_curFlashSnsPtr->firstPinId];
ARM GAS  C:\Users\Jerry\AppData\Local\Temp\cc2mbs0O.s 			page 41


1583:Generated_Source\PSoC4/CapSense_SensingCSD_LL.c **** 
1584:Generated_Source\PSoC4/CapSense_SensingCSD_LL.c ****             /* Connect all ganged sensors  */
1585:Generated_Source\PSoC4/CapSense_SensingCSD_LL.c ****             do
1586:Generated_Source\PSoC4/CapSense_SensingCSD_LL.c ****             {
1587:Generated_Source\PSoC4/CapSense_SensingCSD_LL.c ****                 CapSense_CSDConnectSns(CapSense_curSnsIOPtr);
1588:Generated_Source\PSoC4/CapSense_SensingCSD_LL.c ****                 CapSense_curSnsIOPtr++;
1589:Generated_Source\PSoC4/CapSense_SensingCSD_LL.c ****                 tempVal--;
1590:Generated_Source\PSoC4/CapSense_SensingCSD_LL.c ****             } while (0u != tempVal);
1591:Generated_Source\PSoC4/CapSense_SensingCSD_LL.c ****         }
1592:Generated_Source\PSoC4/CapSense_SensingCSD_LL.c ****         else
1593:Generated_Source\PSoC4/CapSense_SensingCSD_LL.c ****         {
1594:Generated_Source\PSoC4/CapSense_SensingCSD_LL.c ****             /* Connect sensor */
1595:Generated_Source\PSoC4/CapSense_SensingCSD_LL.c ****             CapSense_CSDConnectSns(CapSense_curSnsIOPtr);
1596:Generated_Source\PSoC4/CapSense_SensingCSD_LL.c ****         }
1597:Generated_Source\PSoC4/CapSense_SensingCSD_LL.c ****     #else
1598:Generated_Source\PSoC4/CapSense_SensingCSD_LL.c ****         /* Connect sensor */
1599:Generated_Source\PSoC4/CapSense_SensingCSD_LL.c ****         CapSense_CSDConnectSns(CapSense_curSnsIOPtr);
1600:Generated_Source\PSoC4/CapSense_SensingCSD_LL.c ****     #endif /* (CapSense_ENABLE == CapSense_CSD_GANGED_SNS_EN) */
1601:Generated_Source\PSoC4/CapSense_SensingCSD_LL.c **** }
1602:Generated_Source\PSoC4/CapSense_SensingCSD_LL.c **** 
1603:Generated_Source\PSoC4/CapSense_SensingCSD_LL.c **** 
1604:Generated_Source\PSoC4/CapSense_SensingCSD_LL.c **** /*******************************************************************************
1605:Generated_Source\PSoC4/CapSense_SensingCSD_LL.c **** * Function Name: CapSense_SsCSDDisconnectSnsExt
1606:Generated_Source\PSoC4/CapSense_SensingCSD_LL.c **** ****************************************************************************//**
1607:Generated_Source\PSoC4/CapSense_SensingCSD_LL.c **** *
1608:Generated_Source\PSoC4/CapSense_SensingCSD_LL.c **** * \brief
1609:Generated_Source\PSoC4/CapSense_SensingCSD_LL.c **** *  Disconnects a ganged sensor port-pin from the CapSense block and AMUX bus.
1610:Generated_Source\PSoC4/CapSense_SensingCSD_LL.c **** *  Sets the default state of the un-scanned sensor.
1611:Generated_Source\PSoC4/CapSense_SensingCSD_LL.c **** *
1612:Generated_Source\PSoC4/CapSense_SensingCSD_LL.c **** * \details
1613:Generated_Source\PSoC4/CapSense_SensingCSD_LL.c **** *   The function gets the IO configuration registers addresses, their shifts and
1614:Generated_Source\PSoC4/CapSense_SensingCSD_LL.c **** *   masks from the FLASH_IO_STRUCT object. Basing on this data and Inactive sensor
1615:Generated_Source\PSoC4/CapSense_SensingCSD_LL.c **** *   connection parameter, it updates the HSIOM, PC and DR registers.
1616:Generated_Source\PSoC4/CapSense_SensingCSD_LL.c **** *   The HSIOM register is updated only when the Inactive sensor connection parameter
1617:Generated_Source\PSoC4/CapSense_SensingCSD_LL.c **** *   is set to Shield.
1618:Generated_Source\PSoC4/CapSense_SensingCSD_LL.c **** *
1619:Generated_Source\PSoC4/CapSense_SensingCSD_LL.c **** * \param  snsAddrPtr
1620:Generated_Source\PSoC4/CapSense_SensingCSD_LL.c **** *   wdgtIndex Specifies ID of the widget.
1621:Generated_Source\PSoC4/CapSense_SensingCSD_LL.c **** *   sensorIndex Specifies ID of the sensor in the widget.
1622:Generated_Source\PSoC4/CapSense_SensingCSD_LL.c **** *
1623:Generated_Source\PSoC4/CapSense_SensingCSD_LL.c **** *******************************************************************************/
1624:Generated_Source\PSoC4/CapSense_SensingCSD_LL.c **** void CapSense_SsCSDDisconnectSnsExt(uint32 wdgtIndex, uint32 sensorIndex)
1625:Generated_Source\PSoC4/CapSense_SensingCSD_LL.c **** {
1626:Generated_Source\PSoC4/CapSense_SensingCSD_LL.c ****     #if (CapSense_ENABLE == CapSense_CSD_GANGED_SNS_EN)
1627:Generated_Source\PSoC4/CapSense_SensingCSD_LL.c ****         uint32 tempVal;
1628:Generated_Source\PSoC4/CapSense_SensingCSD_LL.c ****     #endif /* (CapSense_ENABLE == CapSense_CSD_GANGED_SNS_EN) */
1629:Generated_Source\PSoC4/CapSense_SensingCSD_LL.c **** 
1630:Generated_Source\PSoC4/CapSense_SensingCSD_LL.c ****     /*  Initialise ptr to sensor IO structure to appropriate address        */
1631:Generated_Source\PSoC4/CapSense_SensingCSD_LL.c ****     CapSense_curSnsIOPtr = (CapSense_FLASH_IO_STRUCT const *)
1632:Generated_Source\PSoC4/CapSense_SensingCSD_LL.c ****                                                       CapSense_dsFlash.wdgtArray[wdgtIndex].ptr2Sns
1633:Generated_Source\PSoC4/CapSense_SensingCSD_LL.c ****                                                       + sensorIndex;
1634:Generated_Source\PSoC4/CapSense_SensingCSD_LL.c **** 
1635:Generated_Source\PSoC4/CapSense_SensingCSD_LL.c ****     #if (CapSense_ENABLE == CapSense_CSD_GANGED_SNS_EN)
1636:Generated_Source\PSoC4/CapSense_SensingCSD_LL.c ****         /* Check ganged sns flag  */
1637:Generated_Source\PSoC4/CapSense_SensingCSD_LL.c ****         if ((CapSense_dsFlash.wdgtArray[wdgtIndex].staticConfig &
1638:Generated_Source\PSoC4/CapSense_SensingCSD_LL.c ****             CapSense_GANGED_SNS_MASK) == CapSense_GANGED_SNS_MASK)
1639:Generated_Source\PSoC4/CapSense_SensingCSD_LL.c ****         {
ARM GAS  C:\Users\Jerry\AppData\Local\Temp\cc2mbs0O.s 			page 42


1640:Generated_Source\PSoC4/CapSense_SensingCSD_LL.c ****             /* Get sns pointer */
1641:Generated_Source\PSoC4/CapSense_SensingCSD_LL.c ****             CapSense_curFlashSnsPtr = (CapSense_FLASH_SNS_STRUCT const *)
1642:Generated_Source\PSoC4/CapSense_SensingCSD_LL.c ****                                                CapSense_dsFlash.wdgtArray[wdgtIndex].ptr2SnsFlash +
1643:Generated_Source\PSoC4/CapSense_SensingCSD_LL.c ****                                                sensorIndex;
1644:Generated_Source\PSoC4/CapSense_SensingCSD_LL.c **** 
1645:Generated_Source\PSoC4/CapSense_SensingCSD_LL.c ****             /* Get number of ganged pins */
1646:Generated_Source\PSoC4/CapSense_SensingCSD_LL.c ****             tempVal = CapSense_curFlashSnsPtr->numPins;
1647:Generated_Source\PSoC4/CapSense_SensingCSD_LL.c **** 
1648:Generated_Source\PSoC4/CapSense_SensingCSD_LL.c ****             /* Get IO pointer  */
1649:Generated_Source\PSoC4/CapSense_SensingCSD_LL.c ****             CapSense_curSnsIOPtr = &CapSense_ioList[CapSense_curFlashSnsPtr->firstPinId];
1650:Generated_Source\PSoC4/CapSense_SensingCSD_LL.c **** 
1651:Generated_Source\PSoC4/CapSense_SensingCSD_LL.c ****             /* Disconnect all ganged sensors */
1652:Generated_Source\PSoC4/CapSense_SensingCSD_LL.c ****             do
1653:Generated_Source\PSoC4/CapSense_SensingCSD_LL.c ****             {
1654:Generated_Source\PSoC4/CapSense_SensingCSD_LL.c ****                 CapSense_CSDDisconnectSns(CapSense_curSnsIOPtr);
1655:Generated_Source\PSoC4/CapSense_SensingCSD_LL.c ****                 CapSense_curSnsIOPtr++;
1656:Generated_Source\PSoC4/CapSense_SensingCSD_LL.c ****                 tempVal--;
1657:Generated_Source\PSoC4/CapSense_SensingCSD_LL.c ****             } while (0u != tempVal);
1658:Generated_Source\PSoC4/CapSense_SensingCSD_LL.c ****         }
1659:Generated_Source\PSoC4/CapSense_SensingCSD_LL.c ****         else
1660:Generated_Source\PSoC4/CapSense_SensingCSD_LL.c ****         {
1661:Generated_Source\PSoC4/CapSense_SensingCSD_LL.c ****             /* Disconnect ganged sensor */
1662:Generated_Source\PSoC4/CapSense_SensingCSD_LL.c ****             CapSense_CSDDisconnectSns(CapSense_curSnsIOPtr);
1663:Generated_Source\PSoC4/CapSense_SensingCSD_LL.c ****         }
1664:Generated_Source\PSoC4/CapSense_SensingCSD_LL.c ****     #else
1665:Generated_Source\PSoC4/CapSense_SensingCSD_LL.c ****         /* Disconnect ganged sensor */
1666:Generated_Source\PSoC4/CapSense_SensingCSD_LL.c ****         CapSense_CSDDisconnectSns(CapSense_curSnsIOPtr);
1667:Generated_Source\PSoC4/CapSense_SensingCSD_LL.c ****     #endif /* (CapSense_ENABLE == CapSense_CSD_GANGED_SNS_EN) */
1668:Generated_Source\PSoC4/CapSense_SensingCSD_LL.c **** }
1669:Generated_Source\PSoC4/CapSense_SensingCSD_LL.c **** 
1670:Generated_Source\PSoC4/CapSense_SensingCSD_LL.c **** 
1671:Generated_Source\PSoC4/CapSense_SensingCSD_LL.c **** /*******************************************************************************
1672:Generated_Source\PSoC4/CapSense_SensingCSD_LL.c **** * Function Name: CapSense_CSDConnectSns
1673:Generated_Source\PSoC4/CapSense_SensingCSD_LL.c **** ****************************************************************************//**
1674:Generated_Source\PSoC4/CapSense_SensingCSD_LL.c **** *
1675:Generated_Source\PSoC4/CapSense_SensingCSD_LL.c **** * \brief
1676:Generated_Source\PSoC4/CapSense_SensingCSD_LL.c **** *  Connects a port-pin used by the sensor to AMUX bus of CapSense block.
1677:Generated_Source\PSoC4/CapSense_SensingCSD_LL.c **** *
1678:Generated_Source\PSoC4/CapSense_SensingCSD_LL.c **** * \details
1679:Generated_Source\PSoC4/CapSense_SensingCSD_LL.c **** *  Connects a port-pin used by the sensor to the AMUX bus of the CapSense block
1680:Generated_Source\PSoC4/CapSense_SensingCSD_LL.c **** *  while a sensor is being scanned. The function does not take into account if
1681:Generated_Source\PSoC4/CapSense_SensingCSD_LL.c **** *  the sensor is a ganged sensor and connects only a specified pin.
1682:Generated_Source\PSoC4/CapSense_SensingCSD_LL.c **** *
1683:Generated_Source\PSoC4/CapSense_SensingCSD_LL.c **** *  Scanning should be completed before calling this API.
1684:Generated_Source\PSoC4/CapSense_SensingCSD_LL.c **** *
1685:Generated_Source\PSoC4/CapSense_SensingCSD_LL.c **** *  It is not recommended to call this function directly from the application
1686:Generated_Source\PSoC4/CapSense_SensingCSD_LL.c **** *  layer. This function should be used to implement only the users specific
1687:Generated_Source\PSoC4/CapSense_SensingCSD_LL.c **** *  use cases. Functions that perform a setup and scan of sensor/widget
1688:Generated_Source\PSoC4/CapSense_SensingCSD_LL.c **** *  automatically set the needed pin states and perform the sensor connection.
1689:Generated_Source\PSoC4/CapSense_SensingCSD_LL.c **** *  They do not take into account changes in the design made by the
1690:Generated_Source\PSoC4/CapSense_SensingCSD_LL.c **** *  CapSense_CSDConnectSns() function.
1691:Generated_Source\PSoC4/CapSense_SensingCSD_LL.c **** *
1692:Generated_Source\PSoC4/CapSense_SensingCSD_LL.c **** * \param  snsAddrPtr
1693:Generated_Source\PSoC4/CapSense_SensingCSD_LL.c **** *  Specify the pointer to the FLASH_IO_STRUCT object belonging to a sensor
1694:Generated_Source\PSoC4/CapSense_SensingCSD_LL.c **** *  which should be connected to the CapSense block.
1695:Generated_Source\PSoC4/CapSense_SensingCSD_LL.c **** *
1696:Generated_Source\PSoC4/CapSense_SensingCSD_LL.c **** *******************************************************************************/
ARM GAS  C:\Users\Jerry\AppData\Local\Temp\cc2mbs0O.s 			page 43


1697:Generated_Source\PSoC4/CapSense_SensingCSD_LL.c **** void CapSense_CSDConnectSns(CapSense_FLASH_IO_STRUCT const *snsAddrPtr)
1698:Generated_Source\PSoC4/CapSense_SensingCSD_LL.c **** {
1699:Generated_Source\PSoC4/CapSense_SensingCSD_LL.c ****     uint32 newRegisterValue;
1700:Generated_Source\PSoC4/CapSense_SensingCSD_LL.c ****     uint8  interruptState;
1701:Generated_Source\PSoC4/CapSense_SensingCSD_LL.c ****     uint32 pinModeShift;
1702:Generated_Source\PSoC4/CapSense_SensingCSD_LL.c ****     uint32 pinHSIOMShift;
1703:Generated_Source\PSoC4/CapSense_SensingCSD_LL.c **** 
1704:Generated_Source\PSoC4/CapSense_SensingCSD_LL.c ****     /* Get offsets for sensor */
1705:Generated_Source\PSoC4/CapSense_SensingCSD_LL.c ****     pinModeShift = (uint32)snsAddrPtr->shift;
1706:Generated_Source\PSoC4/CapSense_SensingCSD_LL.c ****     pinHSIOMShift = (uint32)snsAddrPtr->hsiomShift;
1707:Generated_Source\PSoC4/CapSense_SensingCSD_LL.c **** 
1708:Generated_Source\PSoC4/CapSense_SensingCSD_LL.c ****     interruptState = CyEnterCriticalSection();
1709:Generated_Source\PSoC4/CapSense_SensingCSD_LL.c **** 
1710:Generated_Source\PSoC4/CapSense_SensingCSD_LL.c ****     /* Use temporary variable to update registers without multiple writings to them */
1711:Generated_Source\PSoC4/CapSense_SensingCSD_LL.c ****     newRegisterValue = CY_GET_REG32(snsAddrPtr->hsiomPtr);
1712:Generated_Source\PSoC4/CapSense_SensingCSD_LL.c ****     newRegisterValue &= ~(CapSense_HSIOM_SEL_MASK << pinHSIOMShift);
1713:Generated_Source\PSoC4/CapSense_SensingCSD_LL.c ****     newRegisterValue |= (uint32)((uint32)CapSense_HSIOM_SEL_CSD_SENSE << pinHSIOMShift);
1714:Generated_Source\PSoC4/CapSense_SensingCSD_LL.c **** 
1715:Generated_Source\PSoC4/CapSense_SensingCSD_LL.c ****     /* Update port configuration register (drive mode) for sensor */
1716:Generated_Source\PSoC4/CapSense_SensingCSD_LL.c ****     CY_SET_REG32(snsAddrPtr->pcPtr, CY_GET_REG32(snsAddrPtr->pcPtr) & (uint32)~((uint32)CapSense_GP
1717:Generated_Source\PSoC4/CapSense_SensingCSD_LL.c **** 
1718:Generated_Source\PSoC4/CapSense_SensingCSD_LL.c ****     /* Update HSIOM register for sensor */
1719:Generated_Source\PSoC4/CapSense_SensingCSD_LL.c ****     CY_SET_REG32(snsAddrPtr->hsiomPtr, newRegisterValue);
1720:Generated_Source\PSoC4/CapSense_SensingCSD_LL.c **** 
1721:Generated_Source\PSoC4/CapSense_SensingCSD_LL.c ****     CyExitCriticalSection(interruptState);
1722:Generated_Source\PSoC4/CapSense_SensingCSD_LL.c **** }
1723:Generated_Source\PSoC4/CapSense_SensingCSD_LL.c **** 
1724:Generated_Source\PSoC4/CapSense_SensingCSD_LL.c **** 
1725:Generated_Source\PSoC4/CapSense_SensingCSD_LL.c **** /*******************************************************************************
1726:Generated_Source\PSoC4/CapSense_SensingCSD_LL.c **** * Function Name: CapSense_CSDDisconnectSns
1727:Generated_Source\PSoC4/CapSense_SensingCSD_LL.c **** ****************************************************************************//**
1728:Generated_Source\PSoC4/CapSense_SensingCSD_LL.c **** *
1729:Generated_Source\PSoC4/CapSense_SensingCSD_LL.c **** * \brief
1730:Generated_Source\PSoC4/CapSense_SensingCSD_LL.c **** *  Disconnects a sensor port-pin from the CapSense block and AMUX bus. Sets
1731:Generated_Source\PSoC4/CapSense_SensingCSD_LL.c **** *  the default state of the un-scanned sensor.
1732:Generated_Source\PSoC4/CapSense_SensingCSD_LL.c **** *
1733:Generated_Source\PSoC4/CapSense_SensingCSD_LL.c **** * \details
1734:Generated_Source\PSoC4/CapSense_SensingCSD_LL.c **** *  This function works identically to CapSense_CSDConnectSns() except
1735:Generated_Source\PSoC4/CapSense_SensingCSD_LL.c **** *  it disconnects the specified port-pin used by the sensor.
1736:Generated_Source\PSoC4/CapSense_SensingCSD_LL.c **** *
1737:Generated_Source\PSoC4/CapSense_SensingCSD_LL.c **** *  It is not recommended to call this function directly from the application
1738:Generated_Source\PSoC4/CapSense_SensingCSD_LL.c **** *  layer. This function should be used to implement only the users specific
1739:Generated_Source\PSoC4/CapSense_SensingCSD_LL.c **** *  use cases. Functions that perform a setup and scan of sensor/widget
1740:Generated_Source\PSoC4/CapSense_SensingCSD_LL.c **** *  automatically set the needed pin states and perform the sensor connection.
1741:Generated_Source\PSoC4/CapSense_SensingCSD_LL.c **** *  They do not take into account changes in the design made by the
1742:Generated_Source\PSoC4/CapSense_SensingCSD_LL.c **** *  CapSense_CSDDisconnectSns() function.
1743:Generated_Source\PSoC4/CapSense_SensingCSD_LL.c **** *
1744:Generated_Source\PSoC4/CapSense_SensingCSD_LL.c **** * \param  snsAddrPtr
1745:Generated_Source\PSoC4/CapSense_SensingCSD_LL.c **** *  Specify the pointer to the FLASH_IO_STRUCT object belonging to a sensor
1746:Generated_Source\PSoC4/CapSense_SensingCSD_LL.c **** *  which should be disconnected from the CapSense block.
1747:Generated_Source\PSoC4/CapSense_SensingCSD_LL.c **** *
1748:Generated_Source\PSoC4/CapSense_SensingCSD_LL.c **** *******************************************************************************/
1749:Generated_Source\PSoC4/CapSense_SensingCSD_LL.c **** void CapSense_CSDDisconnectSns(CapSense_FLASH_IO_STRUCT const *snsAddrPtr)
1750:Generated_Source\PSoC4/CapSense_SensingCSD_LL.c **** {
1751:Generated_Source\PSoC4/CapSense_SensingCSD_LL.c ****     uint32 pinHSIOMShift;
1752:Generated_Source\PSoC4/CapSense_SensingCSD_LL.c ****     uint32 newRegisterValue;
1753:Generated_Source\PSoC4/CapSense_SensingCSD_LL.c ****     uint32 pinModeShift;
ARM GAS  C:\Users\Jerry\AppData\Local\Temp\cc2mbs0O.s 			page 44


1754:Generated_Source\PSoC4/CapSense_SensingCSD_LL.c **** 
1755:Generated_Source\PSoC4/CapSense_SensingCSD_LL.c ****     #if ((CapSense_DISABLE == CapSense_CSD_SHIELD_EN) || \
1756:Generated_Source\PSoC4/CapSense_SensingCSD_LL.c ****         (CapSense_SNS_CONNECTION_SHIELD != CapSense_CSD_INACTIVE_SNS_CONNECTION))
1757:Generated_Source\PSoC4/CapSense_SensingCSD_LL.c ****         uint8  interruptState;
1758:Generated_Source\PSoC4/CapSense_SensingCSD_LL.c ****     #endif /* ((CapSense_DISABLE == CapSense_CSD_SHIELD_EN) && \
1759:Generated_Source\PSoC4/CapSense_SensingCSD_LL.c ****                 (CapSense_SNS_CONNECTION_SHIELD != CapSense_CSD_INACTIVE_SNS_CONNECTION))) */
1760:Generated_Source\PSoC4/CapSense_SensingCSD_LL.c **** 
1761:Generated_Source\PSoC4/CapSense_SensingCSD_LL.c ****     pinHSIOMShift = (uint32)snsAddrPtr->hsiomShift;
1762:Generated_Source\PSoC4/CapSense_SensingCSD_LL.c ****     pinModeShift = (uint32)snsAddrPtr->shift;
1763:Generated_Source\PSoC4/CapSense_SensingCSD_LL.c **** 
1764:Generated_Source\PSoC4/CapSense_SensingCSD_LL.c ****     #if ((CapSense_DISABLE == CapSense_CSD_SHIELD_EN) ||  \
1765:Generated_Source\PSoC4/CapSense_SensingCSD_LL.c ****         (CapSense_SNS_CONNECTION_SHIELD != CapSense_CSD_INACTIVE_SNS_CONNECTION))
1766:Generated_Source\PSoC4/CapSense_SensingCSD_LL.c ****         /* Update HSIOM register to disconnect sensor */
1767:Generated_Source\PSoC4/CapSense_SensingCSD_LL.c ****         CY_SET_REG32(snsAddrPtr->hsiomPtr, CY_GET_REG32(snsAddrPtr->hsiomPtr) & ~(CapSense_HSIOM_SE
1768:Generated_Source\PSoC4/CapSense_SensingCSD_LL.c **** 
1769:Generated_Source\PSoC4/CapSense_SensingCSD_LL.c ****         interruptState = CyEnterCriticalSection();
1770:Generated_Source\PSoC4/CapSense_SensingCSD_LL.c **** 
1771:Generated_Source\PSoC4/CapSense_SensingCSD_LL.c ****         /* Update port configuration register (drive mode) for sensor */
1772:Generated_Source\PSoC4/CapSense_SensingCSD_LL.c ****         newRegisterValue = CY_GET_REG32(snsAddrPtr->pcPtr);
1773:Generated_Source\PSoC4/CapSense_SensingCSD_LL.c ****         newRegisterValue &= ~(CapSense_GPIO_PC_MASK << pinModeShift);
1774:Generated_Source\PSoC4/CapSense_SensingCSD_LL.c ****         newRegisterValue |= CapSense_CSD_INACTIVE_SNS_CONNECTION << pinModeShift;
1775:Generated_Source\PSoC4/CapSense_SensingCSD_LL.c ****         CY_SET_REG32(snsAddrPtr->pcPtr, newRegisterValue);
1776:Generated_Source\PSoC4/CapSense_SensingCSD_LL.c **** 
1777:Generated_Source\PSoC4/CapSense_SensingCSD_LL.c ****         CyExitCriticalSection(interruptState);
1778:Generated_Source\PSoC4/CapSense_SensingCSD_LL.c **** 
1779:Generated_Source\PSoC4/CapSense_SensingCSD_LL.c ****         /* Set logic 0 to port data register */
1780:Generated_Source\PSoC4/CapSense_SensingCSD_LL.c ****         CY_SET_REG32(snsAddrPtr->drPtr, CY_GET_REG32(snsAddrPtr->drPtr) & (uint32)~(uint32)((uint32
1781:Generated_Source\PSoC4/CapSense_SensingCSD_LL.c ****     #else
1782:Generated_Source\PSoC4/CapSense_SensingCSD_LL.c ****         /* Update port configuration register (drive mode to HiZ Analog) for sensor */
1783:Generated_Source\PSoC4/CapSense_SensingCSD_LL.c ****         CY_SET_REG32(snsAddrPtr->pcPtr, CY_GET_REG32(snsAddrPtr->pcPtr) & (uint32)~((uint32)CapSens
1784:Generated_Source\PSoC4/CapSense_SensingCSD_LL.c **** 
1785:Generated_Source\PSoC4/CapSense_SensingCSD_LL.c ****         /* Connect to Shield */
1786:Generated_Source\PSoC4/CapSense_SensingCSD_LL.c ****         newRegisterValue = CY_GET_REG32(snsAddrPtr->hsiomPtr) & ~(CapSense_HSIOM_SEL_MASK << pinHSI
1787:Generated_Source\PSoC4/CapSense_SensingCSD_LL.c ****         newRegisterValue |= (CapSense_HSIOM_SEL_CSD_SHIELD << pinHSIOMShift);
1788:Generated_Source\PSoC4/CapSense_SensingCSD_LL.c ****         CY_SET_REG32(snsAddrPtr->hsiomPtr, newRegisterValue);
1789:Generated_Source\PSoC4/CapSense_SensingCSD_LL.c ****     #endif /* ((CapSense_DISABLE == CapSense_CSD_SHIELD_EN) && \
1790:Generated_Source\PSoC4/CapSense_SensingCSD_LL.c ****                 (CapSense_SNS_CONNECTION_SHIELD != CapSense_CSD_INACTIVE_SNS_CONNECTION)) */
1791:Generated_Source\PSoC4/CapSense_SensingCSD_LL.c **** }
1792:Generated_Source\PSoC4/CapSense_SensingCSD_LL.c **** 
1793:Generated_Source\PSoC4/CapSense_SensingCSD_LL.c **** #if ((CapSense_CSD_SS_DIS != CapSense_CSD_AUTOTUNE) || \
1794:Generated_Source\PSoC4/CapSense_SensingCSD_LL.c ****      (CapSense_ENABLE == CapSense_SELF_TEST_EN) || \
1795:Generated_Source\PSoC4/CapSense_SensingCSD_LL.c ****      (CapSense_ENABLE == CapSense_CSD_IDAC_AUTOCAL_EN))
1796:Generated_Source\PSoC4/CapSense_SensingCSD_LL.c ****     #if (CapSense_ENABLE == CapSense_CSD_IDAC_COMP_EN)
1797:Generated_Source\PSoC4/CapSense_SensingCSD_LL.c ****         /*******************************************************************************
1798:Generated_Source\PSoC4/CapSense_SensingCSD_LL.c ****         * Function Name: CapSense_SsCSDSetSingleIdacMode
1799:Generated_Source\PSoC4/CapSense_SensingCSD_LL.c ****         ****************************************************************************//**
1800:Generated_Source\PSoC4/CapSense_SensingCSD_LL.c ****         *
1801:Generated_Source\PSoC4/CapSense_SensingCSD_LL.c ****         * \brief
1802:Generated_Source\PSoC4/CapSense_SensingCSD_LL.c ****         *  This function set single IDAC mode.
1803:Generated_Source\PSoC4/CapSense_SensingCSD_LL.c ****         *
1804:Generated_Source\PSoC4/CapSense_SensingCSD_LL.c ****         * \details
1805:Generated_Source\PSoC4/CapSense_SensingCSD_LL.c ****         *   For CSDv1: The function enables Modulator IDAC only in variable mode.
1806:Generated_Source\PSoC4/CapSense_SensingCSD_LL.c ****         *   For CSDv2: The function enables IDACA LEG1 in CSD mode, IDACA LEG2 in GP mode.
1807:Generated_Source\PSoC4/CapSense_SensingCSD_LL.c ****         *
1808:Generated_Source\PSoC4/CapSense_SensingCSD_LL.c ****         *******************************************************************************/
1809:Generated_Source\PSoC4/CapSense_SensingCSD_LL.c ****         void CapSense_SsCSDSetSingleIdacMode(void)
1810:Generated_Source\PSoC4/CapSense_SensingCSD_LL.c ****         {
ARM GAS  C:\Users\Jerry\AppData\Local\Temp\cc2mbs0O.s 			page 45


1811:Generated_Source\PSoC4/CapSense_SensingCSD_LL.c ****             uint32 newRegValue;
1812:Generated_Source\PSoC4/CapSense_SensingCSD_LL.c **** 
1813:Generated_Source\PSoC4/CapSense_SensingCSD_LL.c ****             #if (CapSense_ENABLE == CapSense_CSDV2)
1814:Generated_Source\PSoC4/CapSense_SensingCSD_LL.c ****                 /* Enable IDACA LEG1 in CSD mode, IDACA LEG2 in GP mode */
1815:Generated_Source\PSoC4/CapSense_SensingCSD_LL.c ****                 newRegValue = CY_GET_REG32(CapSense_IDAC_MOD_PTR) &
1816:Generated_Source\PSoC4/CapSense_SensingCSD_LL.c ****                               CapSense_IDAC_MOD_VAL_MASK;
1817:Generated_Source\PSoC4/CapSense_SensingCSD_LL.c ****                 newRegValue |= CapSense_CALIBRATE_IDAC_MOD;
1818:Generated_Source\PSoC4/CapSense_SensingCSD_LL.c ****                 CY_SET_REG32(CapSense_IDAC_MOD_PTR, newRegValue);
1819:Generated_Source\PSoC4/CapSense_SensingCSD_LL.c ****                 #if (CapSense_ENABLE == CapSense_CSD_IDAC_COMP_EN) && \
1820:Generated_Source\PSoC4/CapSense_SensingCSD_LL.c ****                     (CapSense_ENABLE == CapSense_CSD_DEDICATED_IDAC_COMP_EN)
1821:Generated_Source\PSoC4/CapSense_SensingCSD_LL.c ****                     newRegValue = CY_GET_REG32(CapSense_IDAC_COMP_PTR) &
1822:Generated_Source\PSoC4/CapSense_SensingCSD_LL.c ****                                   CapSense_IDAC_COMP_VAL_MASK;
1823:Generated_Source\PSoC4/CapSense_SensingCSD_LL.c ****                     newRegValue |= CapSense_CALIBRATE_IDAC_COMP;
1824:Generated_Source\PSoC4/CapSense_SensingCSD_LL.c ****                     CY_SET_REG32(CapSense_IDAC_COMP_PTR, newRegValue);
1825:Generated_Source\PSoC4/CapSense_SensingCSD_LL.c ****                 #endif /* (CapSense_ENABLE == CapSense_CSD_IDAC_COMP_EN) && \
1826:Generated_Source\PSoC4/CapSense_SensingCSD_LL.c ****                           (CapSense_ENABLE == CapSense_CSD_DEDICATED_IDAC_COMP_EN */
1827:Generated_Source\PSoC4/CapSense_SensingCSD_LL.c ****             #else
1828:Generated_Source\PSoC4/CapSense_SensingCSD_LL.c ****                 /* Enable Modulator IDAC only in variable mode */
1829:Generated_Source\PSoC4/CapSense_SensingCSD_LL.c ****                 newRegValue = CY_GET_REG32(CapSense_IDAC_PTR) &
1830:Generated_Source\PSoC4/CapSense_SensingCSD_LL.c ****                               ~(CapSense_IDAC_MOD_MODE_MASK | CapSense_IDAC_COMP_MODE_MASK);
1831:Generated_Source\PSoC4/CapSense_SensingCSD_LL.c ****                 newRegValue |= CapSense_IDAC_MOD_MODE_VARIABLE;
1832:Generated_Source\PSoC4/CapSense_SensingCSD_LL.c ****                 CY_SET_REG32(CapSense_IDAC_PTR, newRegValue);
1833:Generated_Source\PSoC4/CapSense_SensingCSD_LL.c ****             #endif /* (CapSense_ENABLE == CapSense_CSDV2) */
1834:Generated_Source\PSoC4/CapSense_SensingCSD_LL.c ****         }
1835:Generated_Source\PSoC4/CapSense_SensingCSD_LL.c ****     #endif /* (CapSense_ENABLE == CapSense_CSD_IDAC_COMP_EN) */
1836:Generated_Source\PSoC4/CapSense_SensingCSD_LL.c **** #endif /* ((CapSense_CSD_SS_DIS != CapSense_CSD_AUTOTUNE) || \
1837:Generated_Source\PSoC4/CapSense_SensingCSD_LL.c ****            (CapSense_ENABLE == CapSense_SELF_TEST_EN) || \
1838:Generated_Source\PSoC4/CapSense_SensingCSD_LL.c ****            (CapSense_ENABLE == CapSense_CSD_IDAC_AUTOCAL_EN)) */
1839:Generated_Source\PSoC4/CapSense_SensingCSD_LL.c **** 
1840:Generated_Source\PSoC4/CapSense_SensingCSD_LL.c **** #if ((CapSense_CSD_SS_DIS != CapSense_CSD_AUTOTUNE) || \
1841:Generated_Source\PSoC4/CapSense_SensingCSD_LL.c ****      (CapSense_ENABLE == CapSense_CSD_IDAC_AUTOCAL_EN))
1842:Generated_Source\PSoC4/CapSense_SensingCSD_LL.c ****     #if (CapSense_ENABLE == CapSense_CSD_IDAC_COMP_EN)
1843:Generated_Source\PSoC4/CapSense_SensingCSD_LL.c ****         /*******************************************************************************
1844:Generated_Source\PSoC4/CapSense_SensingCSD_LL.c ****         * Function Name: CapSense_SsCSDRestoreIdacMode
1845:Generated_Source\PSoC4/CapSense_SensingCSD_LL.c ****         ****************************************************************************//**
1846:Generated_Source\PSoC4/CapSense_SensingCSD_LL.c ****         *
1847:Generated_Source\PSoC4/CapSense_SensingCSD_LL.c ****         * \brief
1848:Generated_Source\PSoC4/CapSense_SensingCSD_LL.c ****         *  This function restores IDAC configuration.
1849:Generated_Source\PSoC4/CapSense_SensingCSD_LL.c ****         *
1850:Generated_Source\PSoC4/CapSense_SensingCSD_LL.c ****         * \details
1851:Generated_Source\PSoC4/CapSense_SensingCSD_LL.c ****         *   The function restores Compensation IDAC if it is enabled.
1852:Generated_Source\PSoC4/CapSense_SensingCSD_LL.c ****         *
1853:Generated_Source\PSoC4/CapSense_SensingCSD_LL.c ****         *******************************************************************************/
1854:Generated_Source\PSoC4/CapSense_SensingCSD_LL.c ****         static void CapSense_SsCSDRestoreIdacMode(void)
1855:Generated_Source\PSoC4/CapSense_SensingCSD_LL.c ****         {
1856:Generated_Source\PSoC4/CapSense_SensingCSD_LL.c ****             /* Restore IDAC configuration */
1857:Generated_Source\PSoC4/CapSense_SensingCSD_LL.c ****             #if (CapSense_ENABLE == CapSense_CSDV2)
1858:Generated_Source\PSoC4/CapSense_SensingCSD_LL.c ****                 uint32 newRegValue;
1859:Generated_Source\PSoC4/CapSense_SensingCSD_LL.c **** 
1860:Generated_Source\PSoC4/CapSense_SensingCSD_LL.c ****                 newRegValue = CY_GET_REG32(CapSense_SW_REFGEN_SEL_PTR);
1861:Generated_Source\PSoC4/CapSense_SensingCSD_LL.c ****                 newRegValue |= CapSense_DEFAULT_SW_REFGEN_SEL;
1862:Generated_Source\PSoC4/CapSense_SensingCSD_LL.c ****                 CY_SET_REG32(CapSense_SW_REFGEN_SEL_PTR, newRegValue);
1863:Generated_Source\PSoC4/CapSense_SensingCSD_LL.c ****                 CY_SET_REG32(CapSense_IDAC_MOD_PTR, CapSense_DEFAULT_IDAC_MOD);
1864:Generated_Source\PSoC4/CapSense_SensingCSD_LL.c ****                 #if (CapSense_ENABLE == CapSense_CSD_IDAC_COMP_EN) && \
1865:Generated_Source\PSoC4/CapSense_SensingCSD_LL.c ****                     (CapSense_ENABLE == CapSense_CSD_DEDICATED_IDAC_COMP_EN)
1866:Generated_Source\PSoC4/CapSense_SensingCSD_LL.c ****                     CY_SET_REG32(CapSense_IDAC_COMP_PTR, (uint32)CapSense_DEFAULT_IDAC_COMP);
1867:Generated_Source\PSoC4/CapSense_SensingCSD_LL.c ****                 #endif /* (CapSense_ENABLE == CapSense_CSD_IDAC_COMP_EN) && \
ARM GAS  C:\Users\Jerry\AppData\Local\Temp\cc2mbs0O.s 			page 46


1868:Generated_Source\PSoC4/CapSense_SensingCSD_LL.c ****                           (CapSense_ENABLE == CapSense_CSD_DEDICATED_IDAC_COMP_EN */
1869:Generated_Source\PSoC4/CapSense_SensingCSD_LL.c ****             #else
1870:Generated_Source\PSoC4/CapSense_SensingCSD_LL.c ****                 #if (CapSense_ENABLE == CapSense_CSD_IDAC_COMP_EN)
1871:Generated_Source\PSoC4/CapSense_SensingCSD_LL.c ****                     CY_SET_REG32(CapSense_IDAC_PTR, CapSense_DEFAULT_CSD_IDAC_CONFIG);
1872:Generated_Source\PSoC4/CapSense_SensingCSD_LL.c ****                 #else
1873:Generated_Source\PSoC4/CapSense_SensingCSD_LL.c ****                     CY_SET_REG32(CapSense_IDAC_PTR, CY_GET_REG32(CapSense_IDAC_PTR) &
1874:Generated_Source\PSoC4/CapSense_SensingCSD_LL.c ****                                                                         ~(CapSense_IDAC_MOD_MODE_MA
1875:Generated_Source\PSoC4/CapSense_SensingCSD_LL.c ****                     CY_SET_REG32(CapSense_IDAC_PTR, CY_GET_REG32(CapSense_IDAC_PTR) | CapSense_DEFA
1876:Generated_Source\PSoC4/CapSense_SensingCSD_LL.c ****                 #endif /* (CapSense_ENABLE == CapSense_CSD_IDAC_COMP_EN) */
1877:Generated_Source\PSoC4/CapSense_SensingCSD_LL.c ****             #endif /* (CapSense_ENABLE == CapSense_CSDV2) */
1878:Generated_Source\PSoC4/CapSense_SensingCSD_LL.c ****         }
1879:Generated_Source\PSoC4/CapSense_SensingCSD_LL.c ****     #endif /* (CapSense_ENABLE == CapSense_CSD_IDAC_COMP_EN) */
1880:Generated_Source\PSoC4/CapSense_SensingCSD_LL.c **** 
1881:Generated_Source\PSoC4/CapSense_SensingCSD_LL.c ****     /*******************************************************************************
1882:Generated_Source\PSoC4/CapSense_SensingCSD_LL.c ****     * Function Name: CapSense_SsCSDCalibrateCheck
1883:Generated_Source\PSoC4/CapSense_SensingCSD_LL.c ****     ****************************************************************************//**
1884:Generated_Source\PSoC4/CapSense_SensingCSD_LL.c ****     *
1885:Generated_Source\PSoC4/CapSense_SensingCSD_LL.c ****     * \brief
1886:Generated_Source\PSoC4/CapSense_SensingCSD_LL.c ****     *  This internal function checks if the calibration is performed successfully.
1887:Generated_Source\PSoC4/CapSense_SensingCSD_LL.c ****     *
1888:Generated_Source\PSoC4/CapSense_SensingCSD_LL.c ****     * \details
1889:Generated_Source\PSoC4/CapSense_SensingCSD_LL.c ****     *   The function verifies calibration error based on maximum raw count level.
1890:Generated_Source\PSoC4/CapSense_SensingCSD_LL.c ****     *
1891:Generated_Source\PSoC4/CapSense_SensingCSD_LL.c ****     * \param rawLevel The raw data level which should be reached during the
1892:Generated_Source\PSoC4/CapSense_SensingCSD_LL.c ****     *   calibration procedure.
1893:Generated_Source\PSoC4/CapSense_SensingCSD_LL.c ****     * \param rawData  Calibrated raw counts.
1894:Generated_Source\PSoC4/CapSense_SensingCSD_LL.c ****     *
1895:Generated_Source\PSoC4/CapSense_SensingCSD_LL.c ****     * \return Returns the status of operation:
1896:Generated_Source\PSoC4/CapSense_SensingCSD_LL.c ****     *   - Zero     - All the sensors in the widget are calibrated successfully.
1897:Generated_Source\PSoC4/CapSense_SensingCSD_LL.c ****     *   - Non-Zero - Calibration failed for any sensor in the widget.
1898:Generated_Source\PSoC4/CapSense_SensingCSD_LL.c ****     *
1899:Generated_Source\PSoC4/CapSense_SensingCSD_LL.c ****     *******************************************************************************/
1900:Generated_Source\PSoC4/CapSense_SensingCSD_LL.c ****     static cystatus CapSense_SsCSDCalibrateCheck(CapSense_RAM_WD_BASE_STRUCT const *ptrWdgt, uint32
1901:Generated_Source\PSoC4/CapSense_SensingCSD_LL.c ****     {
1902:Generated_Source\PSoC4/CapSense_SensingCSD_LL.c ****         cystatus calibrateStatus;
1903:Generated_Source\PSoC4/CapSense_SensingCSD_LL.c ****         uint32 rawCountsError;
1904:Generated_Source\PSoC4/CapSense_SensingCSD_LL.c ****         uint32 minRawLevel = 0u;
1905:Generated_Source\PSoC4/CapSense_SensingCSD_LL.c ****         uint32 maxRawLevel = (0x00000001Lu << ptrWdgt->resolution) - 1u;
1906:Generated_Source\PSoC4/CapSense_SensingCSD_LL.c **** 
1907:Generated_Source\PSoC4/CapSense_SensingCSD_LL.c ****         /* Calculate the error in rawcounts for given resolution (round to floor) */
1908:Generated_Source\PSoC4/CapSense_SensingCSD_LL.c ****         rawCountsError = ((maxRawLevel * CapSense_IDAC_MOD_MAX_CALIB_ERROR_NEG) /
1909:Generated_Source\PSoC4/CapSense_SensingCSD_LL.c ****                           CapSense_PERCENTAGE_100) + 1u;
1910:Generated_Source\PSoC4/CapSense_SensingCSD_LL.c **** 
1911:Generated_Source\PSoC4/CapSense_SensingCSD_LL.c ****         /* Get minimum and maximum range values */
1912:Generated_Source\PSoC4/CapSense_SensingCSD_LL.c ****         if ((rawLevel + rawCountsError) <= maxRawLevel)
1913:Generated_Source\PSoC4/CapSense_SensingCSD_LL.c ****         {
1914:Generated_Source\PSoC4/CapSense_SensingCSD_LL.c ****             maxRawLevel = rawLevel + rawCountsError;
1915:Generated_Source\PSoC4/CapSense_SensingCSD_LL.c ****         }
1916:Generated_Source\PSoC4/CapSense_SensingCSD_LL.c ****         if (rawLevel >= rawCountsError)
1917:Generated_Source\PSoC4/CapSense_SensingCSD_LL.c ****         {
1918:Generated_Source\PSoC4/CapSense_SensingCSD_LL.c ****             minRawLevel = rawLevel - rawCountsError;
1919:Generated_Source\PSoC4/CapSense_SensingCSD_LL.c ****         }
1920:Generated_Source\PSoC4/CapSense_SensingCSD_LL.c **** 
1921:Generated_Source\PSoC4/CapSense_SensingCSD_LL.c ****         /* Check if calibration is in valid range */
1922:Generated_Source\PSoC4/CapSense_SensingCSD_LL.c ****         if ((rawData < minRawLevel) || (rawData > maxRawLevel))
1923:Generated_Source\PSoC4/CapSense_SensingCSD_LL.c ****         {
1924:Generated_Source\PSoC4/CapSense_SensingCSD_LL.c ****             calibrateStatus = CYRET_BAD_DATA;
ARM GAS  C:\Users\Jerry\AppData\Local\Temp\cc2mbs0O.s 			page 47


1925:Generated_Source\PSoC4/CapSense_SensingCSD_LL.c ****         }
1926:Generated_Source\PSoC4/CapSense_SensingCSD_LL.c ****         else
1927:Generated_Source\PSoC4/CapSense_SensingCSD_LL.c ****         {
1928:Generated_Source\PSoC4/CapSense_SensingCSD_LL.c ****             calibrateStatus = CYRET_SUCCESS;
1929:Generated_Source\PSoC4/CapSense_SensingCSD_LL.c ****         }
1930:Generated_Source\PSoC4/CapSense_SensingCSD_LL.c **** 
1931:Generated_Source\PSoC4/CapSense_SensingCSD_LL.c ****         return (calibrateStatus);
1932:Generated_Source\PSoC4/CapSense_SensingCSD_LL.c ****     }
1933:Generated_Source\PSoC4/CapSense_SensingCSD_LL.c **** 
1934:Generated_Source\PSoC4/CapSense_SensingCSD_LL.c ****     /*******************************************************************************
1935:Generated_Source\PSoC4/CapSense_SensingCSD_LL.c ****     * Function Name: CapSense_SsCSDCalibrateOneSensor
1936:Generated_Source\PSoC4/CapSense_SensingCSD_LL.c ****     ****************************************************************************//**
1937:Generated_Source\PSoC4/CapSense_SensingCSD_LL.c ****     *
1938:Generated_Source\PSoC4/CapSense_SensingCSD_LL.c ****     * \brief
1939:Generated_Source\PSoC4/CapSense_SensingCSD_LL.c ****     *  Computes the Modulator IDAC value for one sensor that provides raw signal at
1940:Generated_Source\PSoC4/CapSense_SensingCSD_LL.c ****     *  the specified level.
1941:Generated_Source\PSoC4/CapSense_SensingCSD_LL.c ****     *
1942:Generated_Source\PSoC4/CapSense_SensingCSD_LL.c ****     * \details
1943:Generated_Source\PSoC4/CapSense_SensingCSD_LL.c ****     *   The function performs the following tasks:
1944:Generated_Source\PSoC4/CapSense_SensingCSD_LL.c ****     *   1. Initialises The Compensation IDAC to zero
1945:Generated_Source\PSoC4/CapSense_SensingCSD_LL.c ****     *   2. Enables the calibrated sensor
1946:Generated_Source\PSoC4/CapSense_SensingCSD_LL.c ****     *   3. Performs eight iteration steps to get the target = rawLevel
1947:Generated_Source\PSoC4/CapSense_SensingCSD_LL.c ****     *      setting and resetting the IDAC value bits beginning from the
1948:Generated_Source\PSoC4/CapSense_SensingCSD_LL.c ****     *      MSB bit to an MSB bit.
1949:Generated_Source\PSoC4/CapSense_SensingCSD_LL.c ****     *   4. Disables the calibrated sensor
1950:Generated_Source\PSoC4/CapSense_SensingCSD_LL.c ****     *   5. Checks if the IDAC is in the correct range
1951:Generated_Source\PSoC4/CapSense_SensingCSD_LL.c ****     *   6. Updates the maximum IDAC value in the widget
1952:Generated_Source\PSoC4/CapSense_SensingCSD_LL.c ****     *   7. Stores the temporary ModIDAC8 value (in the single-IDAC mode).
1953:Generated_Source\PSoC4/CapSense_SensingCSD_LL.c ****     *
1954:Generated_Source\PSoC4/CapSense_SensingCSD_LL.c ****     *  The CSD block should be initialized with the CapSense_SsCSDInitialize()
1955:Generated_Source\PSoC4/CapSense_SensingCSD_LL.c ****     *  API before using this function.
1956:Generated_Source\PSoC4/CapSense_SensingCSD_LL.c ****     *
1957:Generated_Source\PSoC4/CapSense_SensingCSD_LL.c ****     * \param  rawLevel
1958:Generated_Source\PSoC4/CapSense_SensingCSD_LL.c ****     *   The raw data level which should be reached during the calibration procedure.
1959:Generated_Source\PSoC4/CapSense_SensingCSD_LL.c ****     * \param  ptrIdac  The pointer to IDAC.
1960:Generated_Source\PSoC4/CapSense_SensingCSD_LL.c ****     * \param  iDAC8Max The pointer to the maximum IDAC value in the widget.
1961:Generated_Source\PSoC4/CapSense_SensingCSD_LL.c ****     *
1962:Generated_Source\PSoC4/CapSense_SensingCSD_LL.c ****     * \return Returns the status of operation:
1963:Generated_Source\PSoC4/CapSense_SensingCSD_LL.c ****     *  - Zero     - All the sensors in the widget are calibrated successfully.
1964:Generated_Source\PSoC4/CapSense_SensingCSD_LL.c ****     *  - Non-Zero - Calibration failed for any sensor in the widget.
1965:Generated_Source\PSoC4/CapSense_SensingCSD_LL.c ****     *
1966:Generated_Source\PSoC4/CapSense_SensingCSD_LL.c ****     *******************************************************************************/
1967:Generated_Source\PSoC4/CapSense_SensingCSD_LL.c ****     static cystatus CapSense_SsCSDCalibrateOneSensor(uint32 rawLevel,
1968:Generated_Source\PSoC4/CapSense_SensingCSD_LL.c ****                                                            uint8 *ptrIdac,
1969:Generated_Source\PSoC4/CapSense_SensingCSD_LL.c ****                                                            uint8 *iDAC8Max)
1970:Generated_Source\PSoC4/CapSense_SensingCSD_LL.c ****     {
1971:Generated_Source\PSoC4/CapSense_SensingCSD_LL.c ****         cystatus calibrateStatus;
1972:Generated_Source\PSoC4/CapSense_SensingCSD_LL.c ****         uint32 rawData0;
1973:Generated_Source\PSoC4/CapSense_SensingCSD_LL.c ****         uint8 calMask = (uint8)CapSense_CAL_MIDDLE_BIT;
1974:Generated_Source\PSoC4/CapSense_SensingCSD_LL.c ****         uint32 watchdogCounter;
1975:Generated_Source\PSoC4/CapSense_SensingCSD_LL.c ****         #if (CapSense_ENABLE == CapSense_MULTI_FREQ_SCAN_EN)
1976:Generated_Source\PSoC4/CapSense_SensingCSD_LL.c ****             uint32 rawData1;
1977:Generated_Source\PSoC4/CapSense_SensingCSD_LL.c ****             uint32 rawData2;
1978:Generated_Source\PSoC4/CapSense_SensingCSD_LL.c ****         #endif /* (CapSense_ENABLE == CapSense_MULTI_FREQ_SCAN_EN) */
1979:Generated_Source\PSoC4/CapSense_SensingCSD_LL.c **** 
1980:Generated_Source\PSoC4/CapSense_SensingCSD_LL.c ****         /*  Declare and initialise ptr to widget and sensor structures to appropriate address      
1981:Generated_Source\PSoC4/CapSense_SensingCSD_LL.c ****         CapSense_RAM_WD_BASE_STRUCT *ptrWdgt = (CapSense_RAM_WD_BASE_STRUCT *)
ARM GAS  C:\Users\Jerry\AppData\Local\Temp\cc2mbs0O.s 			page 48


1982:Generated_Source\PSoC4/CapSense_SensingCSD_LL.c ****                                                         CapSense_dsFlash.wdgtArray[CapSense_widgetI
1983:Generated_Source\PSoC4/CapSense_SensingCSD_LL.c **** 
1984:Generated_Source\PSoC4/CapSense_SensingCSD_LL.c ****         /* Init compensation IDAC */
1985:Generated_Source\PSoC4/CapSense_SensingCSD_LL.c ****         ptrIdac[0u] = calMask;
1986:Generated_Source\PSoC4/CapSense_SensingCSD_LL.c ****         #if (CapSense_ENABLE == CapSense_MULTI_FREQ_SCAN_EN)
1987:Generated_Source\PSoC4/CapSense_SensingCSD_LL.c ****             ptrIdac[CapSense_FREQ_CHANNEL_1] = calMask;
1988:Generated_Source\PSoC4/CapSense_SensingCSD_LL.c ****             ptrIdac[CapSense_FREQ_CHANNEL_2] = calMask;
1989:Generated_Source\PSoC4/CapSense_SensingCSD_LL.c ****         #endif /* (CapSense_ENABLE == CapSense_MULTI_FREQ_SCAN_EN) */
1990:Generated_Source\PSoC4/CapSense_SensingCSD_LL.c **** 
1991:Generated_Source\PSoC4/CapSense_SensingCSD_LL.c ****         /* Setup the calibrated sensor of the widget (Set IDAC = calMask and connect the sensor) */
1992:Generated_Source\PSoC4/CapSense_SensingCSD_LL.c ****         CapSense_CSDSetupWidgetExt((uint32)CapSense_widgetIndex, (uint32)CapSense_sensorIndex);
1993:Generated_Source\PSoC4/CapSense_SensingCSD_LL.c **** 
1994:Generated_Source\PSoC4/CapSense_SensingCSD_LL.c ****         #if (CapSense_ENABLE == CapSense_CSD_IDAC_COMP_EN)
1995:Generated_Source\PSoC4/CapSense_SensingCSD_LL.c ****             /* Set single IDAC mode */
1996:Generated_Source\PSoC4/CapSense_SensingCSD_LL.c ****             CapSense_SsCSDSetSingleIdacMode();
1997:Generated_Source\PSoC4/CapSense_SensingCSD_LL.c ****         #endif /* (CapSense_ENABLE == CapSense_MULTI_FREQ_SCAN_EN) */
1998:Generated_Source\PSoC4/CapSense_SensingCSD_LL.c **** 
1999:Generated_Source\PSoC4/CapSense_SensingCSD_LL.c ****         /*
2000:Generated_Source\PSoC4/CapSense_SensingCSD_LL.c ****          * Perform the iteration steps to get target = rawLevel.
2001:Generated_Source\PSoC4/CapSense_SensingCSD_LL.c ****          * The number of iteration steps is defined by calMask and depend on IDAC resolution.
2002:Generated_Source\PSoC4/CapSense_SensingCSD_LL.c ****          */
2003:Generated_Source\PSoC4/CapSense_SensingCSD_LL.c ****         do
2004:Generated_Source\PSoC4/CapSense_SensingCSD_LL.c ****         {
2005:Generated_Source\PSoC4/CapSense_SensingCSD_LL.c ****             /* Scan sensor */
2006:Generated_Source\PSoC4/CapSense_SensingCSD_LL.c ****             CapSense_CSDScanExt();
2007:Generated_Source\PSoC4/CapSense_SensingCSD_LL.c **** 
2008:Generated_Source\PSoC4/CapSense_SensingCSD_LL.c ****             /* Initialize Watchdog Counter with time interval which is enough to charge 100 nF capa
2009:Generated_Source\PSoC4/CapSense_SensingCSD_LL.c ****             watchdogCounter = CapSense_CALIBR_WATCHDOG_CYCLES_NUM;
2010:Generated_Source\PSoC4/CapSense_SensingCSD_LL.c ****             while (((*(volatile uint8 *)&CapSense_dsRam.status & CapSense_SW_STS_BUSY) != 0u) &&
2011:Generated_Source\PSoC4/CapSense_SensingCSD_LL.c ****                    (0u != watchdogCounter))
2012:Generated_Source\PSoC4/CapSense_SensingCSD_LL.c ****             {
2013:Generated_Source\PSoC4/CapSense_SensingCSD_LL.c ****                 /* Wait until scan complete and decrement Watchdog Counter to prevent unending loop
2014:Generated_Source\PSoC4/CapSense_SensingCSD_LL.c ****                 watchdogCounter--;
2015:Generated_Source\PSoC4/CapSense_SensingCSD_LL.c ****             }
2016:Generated_Source\PSoC4/CapSense_SensingCSD_LL.c **** 
2017:Generated_Source\PSoC4/CapSense_SensingCSD_LL.c ****             /* Read rawData */
2018:Generated_Source\PSoC4/CapSense_SensingCSD_LL.c ****             rawData0 = CapSense_curRamSnsPtr->raw[0u];
2019:Generated_Source\PSoC4/CapSense_SensingCSD_LL.c ****             #if(CapSense_ENABLE == CapSense_MULTI_FREQ_SCAN_EN)
2020:Generated_Source\PSoC4/CapSense_SensingCSD_LL.c ****                 rawData1 = CapSense_curRamSnsPtr->raw[CapSense_FREQ_CHANNEL_1];
2021:Generated_Source\PSoC4/CapSense_SensingCSD_LL.c ****                 rawData2 = CapSense_curRamSnsPtr->raw[CapSense_FREQ_CHANNEL_2];
2022:Generated_Source\PSoC4/CapSense_SensingCSD_LL.c ****             #endif /* (CapSense_ENABLE == CapSense_MULTI_FREQ_SCAN_EN) */
2023:Generated_Source\PSoC4/CapSense_SensingCSD_LL.c **** 
2024:Generated_Source\PSoC4/CapSense_SensingCSD_LL.c ****             /* Decrease IDAC until rawData reaches rawLevel */
2025:Generated_Source\PSoC4/CapSense_SensingCSD_LL.c ****             if (rawData0 < rawLevel)
2026:Generated_Source\PSoC4/CapSense_SensingCSD_LL.c ****             {
2027:Generated_Source\PSoC4/CapSense_SensingCSD_LL.c ****                 /* Reset bit for null channel (decrease IDAC -> will increase rawData) */
2028:Generated_Source\PSoC4/CapSense_SensingCSD_LL.c ****                 ptrIdac[0u] &= (uint8)(~calMask);
2029:Generated_Source\PSoC4/CapSense_SensingCSD_LL.c ****             }
2030:Generated_Source\PSoC4/CapSense_SensingCSD_LL.c ****             #if (CapSense_ENABLE == CapSense_MULTI_FREQ_SCAN_EN)
2031:Generated_Source\PSoC4/CapSense_SensingCSD_LL.c ****                 if (rawData1 < rawLevel)
2032:Generated_Source\PSoC4/CapSense_SensingCSD_LL.c ****                 {
2033:Generated_Source\PSoC4/CapSense_SensingCSD_LL.c ****                     /* Reset bit for null channel  */
2034:Generated_Source\PSoC4/CapSense_SensingCSD_LL.c ****                     ptrIdac[CapSense_FREQ_CHANNEL_1] &= (uint8)(~calMask);
2035:Generated_Source\PSoC4/CapSense_SensingCSD_LL.c ****                 }
2036:Generated_Source\PSoC4/CapSense_SensingCSD_LL.c ****                 if (rawData2 < rawLevel)
2037:Generated_Source\PSoC4/CapSense_SensingCSD_LL.c ****                 {
2038:Generated_Source\PSoC4/CapSense_SensingCSD_LL.c ****                     /* Reset bit for null channel  */
ARM GAS  C:\Users\Jerry\AppData\Local\Temp\cc2mbs0O.s 			page 49


2039:Generated_Source\PSoC4/CapSense_SensingCSD_LL.c ****                     ptrIdac[CapSense_FREQ_CHANNEL_2] &= (uint8)(~calMask);
2040:Generated_Source\PSoC4/CapSense_SensingCSD_LL.c ****                 }
2041:Generated_Source\PSoC4/CapSense_SensingCSD_LL.c ****             #endif /* (CapSense_ENABLE == CapSense_MULTI_FREQ_SCAN_EN) */
2042:Generated_Source\PSoC4/CapSense_SensingCSD_LL.c **** 
2043:Generated_Source\PSoC4/CapSense_SensingCSD_LL.c ****             /* Shift calMask to set or reset next bit */
2044:Generated_Source\PSoC4/CapSense_SensingCSD_LL.c ****             calMask >>= 1u;
2045:Generated_Source\PSoC4/CapSense_SensingCSD_LL.c **** 
2046:Generated_Source\PSoC4/CapSense_SensingCSD_LL.c ****             /* Set bit for null channel */
2047:Generated_Source\PSoC4/CapSense_SensingCSD_LL.c ****             ptrIdac[0u] |= calMask;
2048:Generated_Source\PSoC4/CapSense_SensingCSD_LL.c ****             #if (CapSense_ENABLE == CapSense_MULTI_FREQ_SCAN_EN)
2049:Generated_Source\PSoC4/CapSense_SensingCSD_LL.c ****                 ptrIdac[CapSense_FREQ_CHANNEL_1] |= calMask;
2050:Generated_Source\PSoC4/CapSense_SensingCSD_LL.c ****                 ptrIdac[CapSense_FREQ_CHANNEL_2] |= calMask;
2051:Generated_Source\PSoC4/CapSense_SensingCSD_LL.c ****             #endif /* (CapSense_ENABLE == CapSense_MULTI_FREQ_SCAN_EN) */
2052:Generated_Source\PSoC4/CapSense_SensingCSD_LL.c **** 
2053:Generated_Source\PSoC4/CapSense_SensingCSD_LL.c ****             /* Update IDAC */
2054:Generated_Source\PSoC4/CapSense_SensingCSD_LL.c ****             CapSense_SsCSDSetUpIdacs(ptrWdgt);
2055:Generated_Source\PSoC4/CapSense_SensingCSD_LL.c ****         }
2056:Generated_Source\PSoC4/CapSense_SensingCSD_LL.c ****         while (calMask > 0u);
2057:Generated_Source\PSoC4/CapSense_SensingCSD_LL.c **** 
2058:Generated_Source\PSoC4/CapSense_SensingCSD_LL.c ****         #if (CapSense_ENABLE == CapSense_CSD_GANGED_SNS_EN)
2059:Generated_Source\PSoC4/CapSense_SensingCSD_LL.c ****             CapSense_SsCSDDisconnectSnsExt((uint32)CapSense_widgetIndex, (uint32)CapSense_sensorInd
2060:Generated_Source\PSoC4/CapSense_SensingCSD_LL.c ****         #else
2061:Generated_Source\PSoC4/CapSense_SensingCSD_LL.c ****             /*  Initialise pointer to sensor IO structure    */
2062:Generated_Source\PSoC4/CapSense_SensingCSD_LL.c ****             CapSense_curSnsIOPtr = (CapSense_FLASH_IO_STRUCT const *)
2063:Generated_Source\PSoC4/CapSense_SensingCSD_LL.c ****                                             CapSense_dsFlash.wdgtArray[CapSense_widgetIndex].ptr2Sn
2064:Generated_Source\PSoC4/CapSense_SensingCSD_LL.c ****                                             + CapSense_sensorIndex;
2065:Generated_Source\PSoC4/CapSense_SensingCSD_LL.c **** 
2066:Generated_Source\PSoC4/CapSense_SensingCSD_LL.c ****             /* Disable sensor */
2067:Generated_Source\PSoC4/CapSense_SensingCSD_LL.c ****             CapSense_CSDDisconnectSns(CapSense_curSnsIOPtr);
2068:Generated_Source\PSoC4/CapSense_SensingCSD_LL.c ****         #endif /* (CapSense_ENABLE == CapSense_CSD_GANGED_SNS_EN)  */
2069:Generated_Source\PSoC4/CapSense_SensingCSD_LL.c **** 
2070:Generated_Source\PSoC4/CapSense_SensingCSD_LL.c ****         /* Set flag about disconnecting the electrode */
2071:Generated_Source\PSoC4/CapSense_SensingCSD_LL.c ****         CapSense_eleCsdDisconnectFlag = 0u;
2072:Generated_Source\PSoC4/CapSense_SensingCSD_LL.c **** 
2073:Generated_Source\PSoC4/CapSense_SensingCSD_LL.c ****         #if (CapSense_ENABLE == CapSense_CSD_IDAC_COMP_EN)
2074:Generated_Source\PSoC4/CapSense_SensingCSD_LL.c ****             /* Restore IDAC configuration to default state */
2075:Generated_Source\PSoC4/CapSense_SensingCSD_LL.c ****             CapSense_SsCSDRestoreIdacMode();
2076:Generated_Source\PSoC4/CapSense_SensingCSD_LL.c ****         #endif /* (CapSense_ENABLE == CapSense_MULTI_FREQ_SCAN_EN) */
2077:Generated_Source\PSoC4/CapSense_SensingCSD_LL.c **** 
2078:Generated_Source\PSoC4/CapSense_SensingCSD_LL.c ****         /* Check if IDAC is in correct range */
2079:Generated_Source\PSoC4/CapSense_SensingCSD_LL.c ****         calibrateStatus = CapSense_SsCSDCalibrateCheck(ptrWdgt, rawLevel, rawData0);
2080:Generated_Source\PSoC4/CapSense_SensingCSD_LL.c ****         #if (CapSense_ENABLE == CapSense_MULTI_FREQ_SCAN_EN)
2081:Generated_Source\PSoC4/CapSense_SensingCSD_LL.c ****             calibrateStatus |= CapSense_SsCSDCalibrateCheck(ptrWdgt, rawLevel, rawData1);
2082:Generated_Source\PSoC4/CapSense_SensingCSD_LL.c ****             calibrateStatus |= CapSense_SsCSDCalibrateCheck(ptrWdgt, rawLevel, rawData2);
2083:Generated_Source\PSoC4/CapSense_SensingCSD_LL.c ****         #endif /* (CapSense_ENABLE == CapSense_MULTI_FREQ_SCAN_EN) */
2084:Generated_Source\PSoC4/CapSense_SensingCSD_LL.c **** 
2085:Generated_Source\PSoC4/CapSense_SensingCSD_LL.c ****         /*
2086:Generated_Source\PSoC4/CapSense_SensingCSD_LL.c ****          * Update maximum IDAC value in widget. iDAC8Max variable will contain
2087:Generated_Source\PSoC4/CapSense_SensingCSD_LL.c ****          * maximum IDAC value after all sensors in widget have been scanned.
2088:Generated_Source\PSoC4/CapSense_SensingCSD_LL.c ****          */
2089:Generated_Source\PSoC4/CapSense_SensingCSD_LL.c ****         #if (CapSense_ENABLE == CapSense_MULTI_FREQ_SCAN_EN)
2090:Generated_Source\PSoC4/CapSense_SensingCSD_LL.c ****             if (iDAC8Max[CapSense_FREQ_CHANNEL_0] < ptrIdac[CapSense_FREQ_CHANNEL_0])
2091:Generated_Source\PSoC4/CapSense_SensingCSD_LL.c ****             {
2092:Generated_Source\PSoC4/CapSense_SensingCSD_LL.c ****                 iDAC8Max[CapSense_FREQ_CHANNEL_0] = ptrIdac[CapSense_FREQ_CHANNEL_0];
2093:Generated_Source\PSoC4/CapSense_SensingCSD_LL.c ****             }
2094:Generated_Source\PSoC4/CapSense_SensingCSD_LL.c ****             if (iDAC8Max[CapSense_FREQ_CHANNEL_1] < ptrIdac[CapSense_FREQ_CHANNEL_1])
2095:Generated_Source\PSoC4/CapSense_SensingCSD_LL.c ****             {
ARM GAS  C:\Users\Jerry\AppData\Local\Temp\cc2mbs0O.s 			page 50


2096:Generated_Source\PSoC4/CapSense_SensingCSD_LL.c ****                 iDAC8Max[CapSense_FREQ_CHANNEL_1] = ptrIdac[CapSense_FREQ_CHANNEL_1];
2097:Generated_Source\PSoC4/CapSense_SensingCSD_LL.c ****             }
2098:Generated_Source\PSoC4/CapSense_SensingCSD_LL.c ****             if (iDAC8Max[CapSense_FREQ_CHANNEL_2] < ptrIdac[CapSense_FREQ_CHANNEL_2])
2099:Generated_Source\PSoC4/CapSense_SensingCSD_LL.c ****             {
2100:Generated_Source\PSoC4/CapSense_SensingCSD_LL.c ****                 iDAC8Max[CapSense_FREQ_CHANNEL_2] = ptrIdac[CapSense_FREQ_CHANNEL_2];
2101:Generated_Source\PSoC4/CapSense_SensingCSD_LL.c ****             }
2102:Generated_Source\PSoC4/CapSense_SensingCSD_LL.c ****         #else
2103:Generated_Source\PSoC4/CapSense_SensingCSD_LL.c ****             if (*iDAC8Max < ptrIdac[0u])
2104:Generated_Source\PSoC4/CapSense_SensingCSD_LL.c ****             {
2105:Generated_Source\PSoC4/CapSense_SensingCSD_LL.c ****                 *iDAC8Max = ptrIdac[0u];
2106:Generated_Source\PSoC4/CapSense_SensingCSD_LL.c ****             }
2107:Generated_Source\PSoC4/CapSense_SensingCSD_LL.c ****         #endif /* (CapSense_ENABLE == CapSense_MULTI_FREQ_SCAN_EN) */
2108:Generated_Source\PSoC4/CapSense_SensingCSD_LL.c **** 
2109:Generated_Source\PSoC4/CapSense_SensingCSD_LL.c ****         #if (CapSense_ENABLE == CapSense_CSD_IDAC_COMP_EN)
2110:Generated_Source\PSoC4/CapSense_SensingCSD_LL.c ****             /*
2111:Generated_Source\PSoC4/CapSense_SensingCSD_LL.c ****              * Store temporary ModIDAC8 value (in single-IDAC mode) in idacComp variable.
2112:Generated_Source\PSoC4/CapSense_SensingCSD_LL.c ****              * We need this value to calculate idacMod value the in the dual-IDAC mode.
2113:Generated_Source\PSoC4/CapSense_SensingCSD_LL.c ****              */
2114:Generated_Source\PSoC4/CapSense_SensingCSD_LL.c ****             CapSense_curRamSnsPtr->idacComp[0u] = ptrIdac[0u];
2115:Generated_Source\PSoC4/CapSense_SensingCSD_LL.c ****             #if (CapSense_ENABLE == CapSense_MULTI_FREQ_SCAN_EN)
2116:Generated_Source\PSoC4/CapSense_SensingCSD_LL.c ****                 CapSense_curRamSnsPtr->idacComp[CapSense_FREQ_CHANNEL_1] = ptrIdac[CapSense_FREQ_CH
2117:Generated_Source\PSoC4/CapSense_SensingCSD_LL.c ****                 CapSense_curRamSnsPtr->idacComp[CapSense_FREQ_CHANNEL_2] = ptrIdac[CapSense_FREQ_CH
2118:Generated_Source\PSoC4/CapSense_SensingCSD_LL.c ****             #endif /* (CapSense_ENABLE == CapSense_MULTI_FREQ_SCAN_EN) */
2119:Generated_Source\PSoC4/CapSense_SensingCSD_LL.c ****         #endif /* (CapSense_ENABLE == CapSense_CSD_IDAC_COMP_EN) */
2120:Generated_Source\PSoC4/CapSense_SensingCSD_LL.c **** 
2121:Generated_Source\PSoC4/CapSense_SensingCSD_LL.c ****         return (calibrateStatus);
2122:Generated_Source\PSoC4/CapSense_SensingCSD_LL.c ****     }
2123:Generated_Source\PSoC4/CapSense_SensingCSD_LL.c **** 
2124:Generated_Source\PSoC4/CapSense_SensingCSD_LL.c **** 
2125:Generated_Source\PSoC4/CapSense_SensingCSD_LL.c ****     /*******************************************************************************
2126:Generated_Source\PSoC4/CapSense_SensingCSD_LL.c ****     * Function Name: CapSense_CSDCalibrateWidget
2127:Generated_Source\PSoC4/CapSense_SensingCSD_LL.c ****     ****************************************************************************//**
2128:Generated_Source\PSoC4/CapSense_SensingCSD_LL.c ****     *
2129:Generated_Source\PSoC4/CapSense_SensingCSD_LL.c ****     * \brief
2130:Generated_Source\PSoC4/CapSense_SensingCSD_LL.c ****     *  Executes IDAC calibration for all sensors in the widget specified in an
2131:Generated_Source\PSoC4/CapSense_SensingCSD_LL.c ****     *  input.
2132:Generated_Source\PSoC4/CapSense_SensingCSD_LL.c ****     *
2133:Generated_Source\PSoC4/CapSense_SensingCSD_LL.c ****     * \details
2134:Generated_Source\PSoC4/CapSense_SensingCSD_LL.c ****     *  Performs a successive approximation search algorithm to find appropriate
2135:Generated_Source\PSoC4/CapSense_SensingCSD_LL.c ****     *  IDAC values for sensors in the specified widget that provides the raw
2136:Generated_Source\PSoC4/CapSense_SensingCSD_LL.c ****     *  count to the level specified by the target parameter.
2137:Generated_Source\PSoC4/CapSense_SensingCSD_LL.c ****     *
2138:Generated_Source\PSoC4/CapSense_SensingCSD_LL.c ****     *  Calibration is always performed in the single IDAC mode and if the dual
2139:Generated_Source\PSoC4/CapSense_SensingCSD_LL.c ****     *  IDAC mode (Enable compensation IDAC is enabled) is configured, the IDAC
2140:Generated_Source\PSoC4/CapSense_SensingCSD_LL.c ****     *  values are re-calculated to match the raw count target. If a widget
2141:Generated_Source\PSoC4/CapSense_SensingCSD_LL.c ****     *  consists of two or more elements (buttons, slider segments, etc.), then
2142:Generated_Source\PSoC4/CapSense_SensingCSD_LL.c ****     *  calibration is performed by the element with the highest sensor
2143:Generated_Source\PSoC4/CapSense_SensingCSD_LL.c ****     *  capacitance.
2144:Generated_Source\PSoC4/CapSense_SensingCSD_LL.c ****     *
2145:Generated_Source\PSoC4/CapSense_SensingCSD_LL.c ****     *  Calibration fails if the achieved raw count is outside of the +/-10%
2146:Generated_Source\PSoC4/CapSense_SensingCSD_LL.c ****     *  range of the target.
2147:Generated_Source\PSoC4/CapSense_SensingCSD_LL.c ****     *
2148:Generated_Source\PSoC4/CapSense_SensingCSD_LL.c ****     *  This function is available when the CSD Enable IDAC auto-calibration
2149:Generated_Source\PSoC4/CapSense_SensingCSD_LL.c ****     *  parameter is enabled or the  SmartSense auto-tuning mode is configured.
2150:Generated_Source\PSoC4/CapSense_SensingCSD_LL.c ****     *
2151:Generated_Source\PSoC4/CapSense_SensingCSD_LL.c ****     * \param wdgtIndex
2152:Generated_Source\PSoC4/CapSense_SensingCSD_LL.c ****     *  Specify the ID number of the CSD widget to calibrate its raw count.
ARM GAS  C:\Users\Jerry\AppData\Local\Temp\cc2mbs0O.s 			page 51


2153:Generated_Source\PSoC4/CapSense_SensingCSD_LL.c ****     *  A macro for the widget ID can be found in the
2154:Generated_Source\PSoC4/CapSense_SensingCSD_LL.c ****     *  CapSense Configuration header file defined as
2155:Generated_Source\PSoC4/CapSense_SensingCSD_LL.c ****     *  CapSense_<WidgetName>_WDGT_ID.
2156:Generated_Source\PSoC4/CapSense_SensingCSD_LL.c ****     *
2157:Generated_Source\PSoC4/CapSense_SensingCSD_LL.c ****     * \param target
2158:Generated_Source\PSoC4/CapSense_SensingCSD_LL.c ****     *  Specify the calibration target in percentages of the maximum raw count.
2159:Generated_Source\PSoC4/CapSense_SensingCSD_LL.c ****     *
2160:Generated_Source\PSoC4/CapSense_SensingCSD_LL.c ****     * \return
2161:Generated_Source\PSoC4/CapSense_SensingCSD_LL.c ****     *  Returns the status of the specified widget calibration:
2162:Generated_Source\PSoC4/CapSense_SensingCSD_LL.c ****     *    - CYRET_SUCCESS if the operation is successfully completed.
2163:Generated_Source\PSoC4/CapSense_SensingCSD_LL.c ****     *    - CYRET_BAD_PARAM if the input parameter is invalid.
2164:Generated_Source\PSoC4/CapSense_SensingCSD_LL.c ****     *    - CYRET_BAD_DATA if the calibration failed and the component may not operate as expected.
2165:Generated_Source\PSoC4/CapSense_SensingCSD_LL.c ****     *
2166:Generated_Source\PSoC4/CapSense_SensingCSD_LL.c ****     *******************************************************************************/
2167:Generated_Source\PSoC4/CapSense_SensingCSD_LL.c ****     cystatus CapSense_CSDCalibrateWidget(uint32 wdgtIndex, uint32 target)
2168:Generated_Source\PSoC4/CapSense_SensingCSD_LL.c ****     {
2169:Generated_Source\PSoC4/CapSense_SensingCSD_LL.c ****         uint32 rawLevel;
2170:Generated_Source\PSoC4/CapSense_SensingCSD_LL.c ****         cystatus calibrateStatus = CYRET_SUCCESS;
2171:Generated_Source\PSoC4/CapSense_SensingCSD_LL.c **** 
2172:Generated_Source\PSoC4/CapSense_SensingCSD_LL.c ****         /*  Declare and initialise ptr to widget and sensor structures to appropriate address      
2173:Generated_Source\PSoC4/CapSense_SensingCSD_LL.c ****         CapSense_RAM_WD_BASE_STRUCT *ptrWdgt = (CapSense_RAM_WD_BASE_STRUCT *)
2174:Generated_Source\PSoC4/CapSense_SensingCSD_LL.c ****                                               CapSense_dsFlash.wdgtArray[wdgtIndex].ptr2WdgtRam;
2175:Generated_Source\PSoC4/CapSense_SensingCSD_LL.c **** 
2176:Generated_Source\PSoC4/CapSense_SensingCSD_LL.c ****         #if (1u == CapSense_NUM_SCAN_FREQS)
2177:Generated_Source\PSoC4/CapSense_SensingCSD_LL.c ****             uint8 iDAC8Max[CapSense_NUM_SCAN_FREQS] = {1u};
2178:Generated_Source\PSoC4/CapSense_SensingCSD_LL.c ****         #else
2179:Generated_Source\PSoC4/CapSense_SensingCSD_LL.c ****             uint8 iDAC8Max[CapSense_NUM_SCAN_FREQS] = {1u, 1u, 1u};
2180:Generated_Source\PSoC4/CapSense_SensingCSD_LL.c ****         #endif /* (1u == CapSense_NUM_SCAN_FREQS) */
2181:Generated_Source\PSoC4/CapSense_SensingCSD_LL.c ****         
2182:Generated_Source\PSoC4/CapSense_SensingCSD_LL.c ****         uint8 *ptrIdac;
2183:Generated_Source\PSoC4/CapSense_SensingCSD_LL.c **** 
2184:Generated_Source\PSoC4/CapSense_SensingCSD_LL.c ****         /* Calibrate maximum level for given resolution */
2185:Generated_Source\PSoC4/CapSense_SensingCSD_LL.c ****         rawLevel = (0x00000001Lu << ptrWdgt->resolution) - 1u;
2186:Generated_Source\PSoC4/CapSense_SensingCSD_LL.c **** 
2187:Generated_Source\PSoC4/CapSense_SensingCSD_LL.c ****         /* Calculate percentage of maximum value */
2188:Generated_Source\PSoC4/CapSense_SensingCSD_LL.c ****         rawLevel = (rawLevel * target) / CapSense_PERCENTAGE_100;
2189:Generated_Source\PSoC4/CapSense_SensingCSD_LL.c **** 
2190:Generated_Source\PSoC4/CapSense_SensingCSD_LL.c ****         /* Update CapSense_widgetIndex */
2191:Generated_Source\PSoC4/CapSense_SensingCSD_LL.c ****         CapSense_widgetIndex = (uint8)wdgtIndex;
2192:Generated_Source\PSoC4/CapSense_SensingCSD_LL.c **** 
2193:Generated_Source\PSoC4/CapSense_SensingCSD_LL.c ****         /* Setup ISR handler to single-sensor scan function */
2194:Generated_Source\PSoC4/CapSense_SensingCSD_LL.c ****         CapSense_ISR_StartEx(&CapSense_CSDPostSingleScan);
2195:Generated_Source\PSoC4/CapSense_SensingCSD_LL.c **** 
2196:Generated_Source\PSoC4/CapSense_SensingCSD_LL.c ****         /* Init pointer to Modulator IDAC */
2197:Generated_Source\PSoC4/CapSense_SensingCSD_LL.c ****         ptrIdac = &ptrWdgt->idacMod[0u];
2198:Generated_Source\PSoC4/CapSense_SensingCSD_LL.c **** 
2199:Generated_Source\PSoC4/CapSense_SensingCSD_LL.c ****         /* Go through all sensors (or columns of touchpad) of widget to calibrate them */
2200:Generated_Source\PSoC4/CapSense_SensingCSD_LL.c ****         for (CapSense_sensorIndex = 0u;
2201:Generated_Source\PSoC4/CapSense_SensingCSD_LL.c ****              CapSense_sensorIndex < CapSense_dsFlash.wdgtArray[(wdgtIndex)].numCols;
2202:Generated_Source\PSoC4/CapSense_SensingCSD_LL.c ****              CapSense_sensorIndex++)
2203:Generated_Source\PSoC4/CapSense_SensingCSD_LL.c ****         {
2204:Generated_Source\PSoC4/CapSense_SensingCSD_LL.c ****             /* Calibrate current sensor in widget */
2205:Generated_Source\PSoC4/CapSense_SensingCSD_LL.c ****             calibrateStatus |= CapSense_SsCSDCalibrateOneSensor(rawLevel, ptrIdac, iDAC8Max);
2206:Generated_Source\PSoC4/CapSense_SensingCSD_LL.c ****         }
2207:Generated_Source\PSoC4/CapSense_SensingCSD_LL.c **** 
2208:Generated_Source\PSoC4/CapSense_SensingCSD_LL.c ****         /* Normalize idacMod and idacComp values */
2209:Generated_Source\PSoC4/CapSense_SensingCSD_LL.c ****         #if (CapSense_ENABLE == CapSense_CSD_IDAC_COMP_EN)
ARM GAS  C:\Users\Jerry\AppData\Local\Temp\cc2mbs0O.s 			page 52


2210:Generated_Source\PSoC4/CapSense_SensingCSD_LL.c ****             /* Calculate Modulator value: idacMod = (iDAC8Max + 1)/2  */
2211:Generated_Source\PSoC4/CapSense_SensingCSD_LL.c ****             ptrIdac[0u] = (iDAC8Max[0u] + 1u) >> 1u;
2212:Generated_Source\PSoC4/CapSense_SensingCSD_LL.c **** 
2213:Generated_Source\PSoC4/CapSense_SensingCSD_LL.c ****             #if (CapSense_ENABLE == CapSense_MULTI_FREQ_SCAN_EN)
2214:Generated_Source\PSoC4/CapSense_SensingCSD_LL.c ****                 /* Do same for first frequency channel  */
2215:Generated_Source\PSoC4/CapSense_SensingCSD_LL.c ****                 ptrIdac[CapSense_FREQ_CHANNEL_1] =  (iDAC8Max[CapSense_FREQ_CHANNEL_1] + 1u) >> 1u;
2216:Generated_Source\PSoC4/CapSense_SensingCSD_LL.c **** 
2217:Generated_Source\PSoC4/CapSense_SensingCSD_LL.c ****                 /* Do same for second frequency channel  */
2218:Generated_Source\PSoC4/CapSense_SensingCSD_LL.c ****                 ptrIdac[CapSense_FREQ_CHANNEL_2] = (iDAC8Max[CapSense_FREQ_CHANNEL_2] + 1u) >> 1u;
2219:Generated_Source\PSoC4/CapSense_SensingCSD_LL.c ****             #endif /* (CapSense_ENABLE == CapSense_MULTI_FREQ_SCAN_EN) */
2220:Generated_Source\PSoC4/CapSense_SensingCSD_LL.c **** 
2221:Generated_Source\PSoC4/CapSense_SensingCSD_LL.c ****             /* Go through all columns of touchpad (or all sensors in button) to normalize them */
2222:Generated_Source\PSoC4/CapSense_SensingCSD_LL.c ****             for (CapSense_sensorIndex = 0u;
2223:Generated_Source\PSoC4/CapSense_SensingCSD_LL.c ****                  CapSense_sensorIndex < CapSense_dsFlash.wdgtArray[(wdgtIndex)].numCols;
2224:Generated_Source\PSoC4/CapSense_SensingCSD_LL.c ****                  CapSense_sensorIndex++)
2225:Generated_Source\PSoC4/CapSense_SensingCSD_LL.c ****             {
2226:Generated_Source\PSoC4/CapSense_SensingCSD_LL.c ****                 CapSense_curRamSnsPtr = (CapSense_RAM_SNS_STRUCT *)
2227:Generated_Source\PSoC4/CapSense_SensingCSD_LL.c ****                          CapSense_dsFlash.wdgtArray[wdgtIndex].ptr2SnsRam + CapSense_sensorIndex;
2228:Generated_Source\PSoC4/CapSense_SensingCSD_LL.c ****                 /* Calculate Compensation IDAC value: idacComp(i) = (iDAC8(i) - idacMod) * 85% */
2229:Generated_Source\PSoC4/CapSense_SensingCSD_LL.c ****                 if (CapSense_curRamSnsPtr->idacComp[0u] >= ptrIdac[0u])
2230:Generated_Source\PSoC4/CapSense_SensingCSD_LL.c ****                 {
2231:Generated_Source\PSoC4/CapSense_SensingCSD_LL.c ****                     CapSense_curRamSnsPtr->idacComp[0u] -= ptrIdac[0u];
2232:Generated_Source\PSoC4/CapSense_SensingCSD_LL.c ****                     #if ((CapSense_ENABLE == CapSense_CSD_DEDICATED_IDAC_COMP_EN) ||\
2233:Generated_Source\PSoC4/CapSense_SensingCSD_LL.c ****                          (CapSense_DISABLE == CapSense_CSDV2))
2234:Generated_Source\PSoC4/CapSense_SensingCSD_LL.c ****                         CapSense_curRamSnsPtr->idacComp[0u] =
2235:Generated_Source\PSoC4/CapSense_SensingCSD_LL.c ****                             (uint8)((((target * CapSense_curRamSnsPtr->idacComp[0u]) + CapSense_PER
2236:Generated_Source\PSoC4/CapSense_SensingCSD_LL.c ****                             CapSense_PERCENTAGE_100);
2237:Generated_Source\PSoC4/CapSense_SensingCSD_LL.c ****                     #endif /* ((CapSense_ENABLE == CapSense_CSD_DEDICATED_IDAC_COMP_EN) ||\
2238:Generated_Source\PSoC4/CapSense_SensingCSD_LL.c ****                                (CapSense_DISABLE == CapSense_CSDV2)) */
2239:Generated_Source\PSoC4/CapSense_SensingCSD_LL.c ****                 }
2240:Generated_Source\PSoC4/CapSense_SensingCSD_LL.c ****                 else
2241:Generated_Source\PSoC4/CapSense_SensingCSD_LL.c ****                 {
2242:Generated_Source\PSoC4/CapSense_SensingCSD_LL.c ****                     CapSense_curRamSnsPtr->idacComp[0u] = 0u;
2243:Generated_Source\PSoC4/CapSense_SensingCSD_LL.c ****                 }
2244:Generated_Source\PSoC4/CapSense_SensingCSD_LL.c ****                 #if (CapSense_ENABLE == CapSense_MULTI_FREQ_SCAN_EN)
2245:Generated_Source\PSoC4/CapSense_SensingCSD_LL.c ****                     /* Do same for first frequency channel  */
2246:Generated_Source\PSoC4/CapSense_SensingCSD_LL.c ****                     if (CapSense_curRamSnsPtr->idacComp[CapSense_FREQ_CHANNEL_1] >= ptrIdac[CapSens
2247:Generated_Source\PSoC4/CapSense_SensingCSD_LL.c ****                     {
2248:Generated_Source\PSoC4/CapSense_SensingCSD_LL.c ****                         CapSense_curRamSnsPtr->idacComp[CapSense_FREQ_CHANNEL_1] -= ptrIdac[CapSens
2249:Generated_Source\PSoC4/CapSense_SensingCSD_LL.c ****                         #if ((CapSense_ENABLE == CapSense_CSD_DEDICATED_IDAC_COMP_EN) ||\
2250:Generated_Source\PSoC4/CapSense_SensingCSD_LL.c ****                              (CapSense_DISABLE == CapSense_CSDV2))
2251:Generated_Source\PSoC4/CapSense_SensingCSD_LL.c ****                             CapSense_curRamSnsPtr->idacComp[CapSense_FREQ_CHANNEL_1] =
2252:Generated_Source\PSoC4/CapSense_SensingCSD_LL.c ****                                 (uint8)((((target * CapSense_curRamSnsPtr->idacComp[CapSense_FREQ_C
2253:Generated_Source\PSoC4/CapSense_SensingCSD_LL.c ****                                 CapSense_PERCENTAGE_100) - 1u) / CapSense_PERCENTAGE_100);
2254:Generated_Source\PSoC4/CapSense_SensingCSD_LL.c ****                         #endif /* ((CapSense_ENABLE == CapSense_CSD_DEDICATED_IDAC_COMP_EN) ||\
2255:Generated_Source\PSoC4/CapSense_SensingCSD_LL.c ****                                    (CapSense_DISABLE == CapSense_CSDV2)) */
2256:Generated_Source\PSoC4/CapSense_SensingCSD_LL.c ****                     }
2257:Generated_Source\PSoC4/CapSense_SensingCSD_LL.c ****                     else
2258:Generated_Source\PSoC4/CapSense_SensingCSD_LL.c ****                     {
2259:Generated_Source\PSoC4/CapSense_SensingCSD_LL.c ****                        CapSense_curRamSnsPtr->idacComp[CapSense_FREQ_CHANNEL_1] = 0u;
2260:Generated_Source\PSoC4/CapSense_SensingCSD_LL.c ****                     }
2261:Generated_Source\PSoC4/CapSense_SensingCSD_LL.c ****                     /* Do same for second frequency channel  */
2262:Generated_Source\PSoC4/CapSense_SensingCSD_LL.c ****                     if (CapSense_curRamSnsPtr->idacComp[CapSense_FREQ_CHANNEL_2] >= ptrIdac[CapSens
2263:Generated_Source\PSoC4/CapSense_SensingCSD_LL.c ****                     {
2264:Generated_Source\PSoC4/CapSense_SensingCSD_LL.c ****                         CapSense_curRamSnsPtr->idacComp[CapSense_FREQ_CHANNEL_2] -= ptrIdac[CapSens
2265:Generated_Source\PSoC4/CapSense_SensingCSD_LL.c ****                         #if ((CapSense_ENABLE == CapSense_CSD_DEDICATED_IDAC_COMP_EN) ||\
2266:Generated_Source\PSoC4/CapSense_SensingCSD_LL.c ****                              (CapSense_DISABLE == CapSense_CSDV2))
ARM GAS  C:\Users\Jerry\AppData\Local\Temp\cc2mbs0O.s 			page 53


2267:Generated_Source\PSoC4/CapSense_SensingCSD_LL.c ****                             CapSense_curRamSnsPtr->idacComp[CapSense_FREQ_CHANNEL_2] =
2268:Generated_Source\PSoC4/CapSense_SensingCSD_LL.c ****                                 (uint8)((((target * CapSense_curRamSnsPtr->idacComp[CapSense_FREQ_C
2269:Generated_Source\PSoC4/CapSense_SensingCSD_LL.c ****                                 CapSense_PERCENTAGE_100) - 1u) / CapSense_PERCENTAGE_100);
2270:Generated_Source\PSoC4/CapSense_SensingCSD_LL.c ****                         #endif /* ((CapSense_ENABLE == CapSense_CSD_DEDICATED_IDAC_COMP_EN) ||\
2271:Generated_Source\PSoC4/CapSense_SensingCSD_LL.c ****                                    (CapSense_DISABLE == CapSense_CSDV2)) */
2272:Generated_Source\PSoC4/CapSense_SensingCSD_LL.c ****                     }
2273:Generated_Source\PSoC4/CapSense_SensingCSD_LL.c ****                     else
2274:Generated_Source\PSoC4/CapSense_SensingCSD_LL.c ****                     {
2275:Generated_Source\PSoC4/CapSense_SensingCSD_LL.c ****                         CapSense_curRamSnsPtr->idacComp[CapSense_FREQ_CHANNEL_2] = 0u;
2276:Generated_Source\PSoC4/CapSense_SensingCSD_LL.c ****                     }
2277:Generated_Source\PSoC4/CapSense_SensingCSD_LL.c ****                 #endif /* (CapSense_ENABLE == CapSense_MULTI_FREQ_SCAN_EN) */
2278:Generated_Source\PSoC4/CapSense_SensingCSD_LL.c ****             }
2279:Generated_Source\PSoC4/CapSense_SensingCSD_LL.c ****         #else
2280:Generated_Source\PSoC4/CapSense_SensingCSD_LL.c ****             /* Normalize widget for single-IDAC mode*/
2281:Generated_Source\PSoC4/CapSense_SensingCSD_LL.c ****             ptrIdac[0u] = iDAC8Max[0u];
2282:Generated_Source\PSoC4/CapSense_SensingCSD_LL.c ****             #if (CapSense_ENABLE == CapSense_MULTI_FREQ_SCAN_EN)
2283:Generated_Source\PSoC4/CapSense_SensingCSD_LL.c ****                 ptrIdac[CapSense_FREQ_CHANNEL_1] = iDAC8Max[CapSense_FREQ_CHANNEL_1];
2284:Generated_Source\PSoC4/CapSense_SensingCSD_LL.c ****                 ptrIdac[CapSense_FREQ_CHANNEL_2] = iDAC8Max[CapSense_FREQ_CHANNEL_2];
2285:Generated_Source\PSoC4/CapSense_SensingCSD_LL.c ****             #endif /* (CapSense_ENABLE == CapSense_MULTI_FREQ_SCAN_EN) */
2286:Generated_Source\PSoC4/CapSense_SensingCSD_LL.c ****         #endif /* (CapSense_ENABLE == CapSense_CSD_IDAC_COMP_EN) */
2287:Generated_Source\PSoC4/CapSense_SensingCSD_LL.c **** 
2288:Generated_Source\PSoC4/CapSense_SensingCSD_LL.c ****         #if (CapSense_CSD_MATRIX_WIDGET_EN | CapSense_CSD_TOUCHPAD_WIDGET_EN)
2289:Generated_Source\PSoC4/CapSense_SensingCSD_LL.c ****             if ((CapSense_WD_TOUCHPAD_E == (CapSense_WD_TYPE_ENUM)CapSense_dsFlash.wdgtArray[(wdgtI
2290:Generated_Source\PSoC4/CapSense_SensingCSD_LL.c ****                 (CapSense_WD_MATRIX_BUTTON_E == (CapSense_WD_TYPE_ENUM)CapSense_dsFlash.wdgtArray[(
2291:Generated_Source\PSoC4/CapSense_SensingCSD_LL.c ****             {
2292:Generated_Source\PSoC4/CapSense_SensingCSD_LL.c ****                 /* Init pointer to Modulator IDAC for columns */
2293:Generated_Source\PSoC4/CapSense_SensingCSD_LL.c ****                 ptrIdac = &ptrWdgt->rowIdacMod[0u];
2294:Generated_Source\PSoC4/CapSense_SensingCSD_LL.c **** 
2295:Generated_Source\PSoC4/CapSense_SensingCSD_LL.c ****                 /* Reset the maximum value for columns */
2296:Generated_Source\PSoC4/CapSense_SensingCSD_LL.c ****                 iDAC8Max[0u] = 1u;
2297:Generated_Source\PSoC4/CapSense_SensingCSD_LL.c ****                 #if (CapSense_ENABLE == CapSense_MULTI_FREQ_SCAN_EN)
2298:Generated_Source\PSoC4/CapSense_SensingCSD_LL.c ****                     /* Do same for first frequency channel  */
2299:Generated_Source\PSoC4/CapSense_SensingCSD_LL.c ****                     iDAC8Max[CapSense_FREQ_CHANNEL_1] = 1u;
2300:Generated_Source\PSoC4/CapSense_SensingCSD_LL.c **** 
2301:Generated_Source\PSoC4/CapSense_SensingCSD_LL.c ****                     /* Do same for second frequency channel  */
2302:Generated_Source\PSoC4/CapSense_SensingCSD_LL.c ****                     iDAC8Max[CapSense_FREQ_CHANNEL_2] = 1u;
2303:Generated_Source\PSoC4/CapSense_SensingCSD_LL.c ****                 #endif /* (CapSense_ENABLE == CapSense_MULTI_FREQ_SCAN_EN) */
2304:Generated_Source\PSoC4/CapSense_SensingCSD_LL.c **** 
2305:Generated_Source\PSoC4/CapSense_SensingCSD_LL.c ****                 /* Go through all columns of touchpad to calibrate them */
2306:Generated_Source\PSoC4/CapSense_SensingCSD_LL.c ****                 for (CapSense_sensorIndex = CapSense_dsFlash.wdgtArray[(wdgtIndex)].numCols;
2307:Generated_Source\PSoC4/CapSense_SensingCSD_LL.c ****                      CapSense_sensorIndex < (uint8)CapSense_dsFlash.wdgtArray[(wdgtIndex)].totalNum
2308:Generated_Source\PSoC4/CapSense_SensingCSD_LL.c ****                      CapSense_sensorIndex++)
2309:Generated_Source\PSoC4/CapSense_SensingCSD_LL.c ****                 {
2310:Generated_Source\PSoC4/CapSense_SensingCSD_LL.c ****                     /* Calibrate current sensor in widget */
2311:Generated_Source\PSoC4/CapSense_SensingCSD_LL.c ****                     calibrateStatus |= CapSense_SsCSDCalibrateOneSensor(rawLevel, ptrIdac, iDAC8Max
2312:Generated_Source\PSoC4/CapSense_SensingCSD_LL.c ****                 }
2313:Generated_Source\PSoC4/CapSense_SensingCSD_LL.c **** 
2314:Generated_Source\PSoC4/CapSense_SensingCSD_LL.c ****                 /* Normalize idacMod and idacComp values */
2315:Generated_Source\PSoC4/CapSense_SensingCSD_LL.c ****                 #if (CapSense_ENABLE == CapSense_CSD_IDAC_COMP_EN)
2316:Generated_Source\PSoC4/CapSense_SensingCSD_LL.c ****                     /* Calculate Modulator value: idacMod = (iDAC8Max + 1)/2  */
2317:Generated_Source\PSoC4/CapSense_SensingCSD_LL.c ****                     ptrIdac[0u] = (iDAC8Max[0u] + 1u) >> 1u;
2318:Generated_Source\PSoC4/CapSense_SensingCSD_LL.c ****                     #if (CapSense_ENABLE == CapSense_MULTI_FREQ_SCAN_EN)
2319:Generated_Source\PSoC4/CapSense_SensingCSD_LL.c ****                         /* Do same for first frequency channel  */
2320:Generated_Source\PSoC4/CapSense_SensingCSD_LL.c ****                         ptrIdac[CapSense_FREQ_CHANNEL_1] =  (iDAC8Max[CapSense_FREQ_CHANNEL_1] + 1u
2321:Generated_Source\PSoC4/CapSense_SensingCSD_LL.c **** 
2322:Generated_Source\PSoC4/CapSense_SensingCSD_LL.c ****                         /* Do same for second frequency channel  */
2323:Generated_Source\PSoC4/CapSense_SensingCSD_LL.c ****                         ptrIdac[CapSense_FREQ_CHANNEL_2] = (iDAC8Max[CapSense_FREQ_CHANNEL_2] + 1u)
ARM GAS  C:\Users\Jerry\AppData\Local\Temp\cc2mbs0O.s 			page 54


2324:Generated_Source\PSoC4/CapSense_SensingCSD_LL.c ****                     #endif /* (CapSense_ENABLE == CapSense_MULTI_FREQ_SCAN_EN) */
2325:Generated_Source\PSoC4/CapSense_SensingCSD_LL.c **** 
2326:Generated_Source\PSoC4/CapSense_SensingCSD_LL.c ****                     /* Go through all columns of touchpad to normalize them */
2327:Generated_Source\PSoC4/CapSense_SensingCSD_LL.c ****                     for (CapSense_sensorIndex = CapSense_dsFlash.wdgtArray[(wdgtIndex)].numCols;
2328:Generated_Source\PSoC4/CapSense_SensingCSD_LL.c ****                          CapSense_sensorIndex < (uint8)CapSense_dsFlash.wdgtArray[(wdgtIndex)].tota
2329:Generated_Source\PSoC4/CapSense_SensingCSD_LL.c ****                          CapSense_sensorIndex++)
2330:Generated_Source\PSoC4/CapSense_SensingCSD_LL.c ****                     {
2331:Generated_Source\PSoC4/CapSense_SensingCSD_LL.c ****                         CapSense_curRamSnsPtr = (CapSense_RAM_SNS_STRUCT *)
2332:Generated_Source\PSoC4/CapSense_SensingCSD_LL.c ****                                  CapSense_dsFlash.wdgtArray[wdgtIndex].ptr2SnsRam + CapSense_sensor
2333:Generated_Source\PSoC4/CapSense_SensingCSD_LL.c **** 
2334:Generated_Source\PSoC4/CapSense_SensingCSD_LL.c ****                         /* Calculate Compensation IDAC value: idacComp(i) = (iDAC8(i) - idacMod) * 
2335:Generated_Source\PSoC4/CapSense_SensingCSD_LL.c ****                         if (CapSense_curRamSnsPtr->idacComp[0u] >= ptrIdac[0u])
2336:Generated_Source\PSoC4/CapSense_SensingCSD_LL.c ****                         {
2337:Generated_Source\PSoC4/CapSense_SensingCSD_LL.c ****                             CapSense_curRamSnsPtr->idacComp[0u] -= ptrIdac[0u];
2338:Generated_Source\PSoC4/CapSense_SensingCSD_LL.c ****                             #if ((CapSense_ENABLE == CapSense_CSD_DEDICATED_IDAC_COMP_EN) ||\
2339:Generated_Source\PSoC4/CapSense_SensingCSD_LL.c ****                                  (CapSense_DISABLE == CapSense_CSDV2))
2340:Generated_Source\PSoC4/CapSense_SensingCSD_LL.c ****                                 CapSense_curRamSnsPtr->idacComp[0u] =
2341:Generated_Source\PSoC4/CapSense_SensingCSD_LL.c ****                                     (uint8)((((target * CapSense_curRamSnsPtr->idacComp[0u]) +
2342:Generated_Source\PSoC4/CapSense_SensingCSD_LL.c ****                                         CapSense_PERCENTAGE_100) - 1u) / CapSense_PERCENTAGE_100);
2343:Generated_Source\PSoC4/CapSense_SensingCSD_LL.c ****                             #endif /* ((CapSense_ENABLE == CapSense_CSD_DEDICATED_IDAC_COMP_EN) ||\
2344:Generated_Source\PSoC4/CapSense_SensingCSD_LL.c ****                                        (CapSense_DISABLE == CapSense_CSDV2)) */
2345:Generated_Source\PSoC4/CapSense_SensingCSD_LL.c ****                         }
2346:Generated_Source\PSoC4/CapSense_SensingCSD_LL.c ****                         #if (CapSense_ENABLE == CapSense_MULTI_FREQ_SCAN_EN)
2347:Generated_Source\PSoC4/CapSense_SensingCSD_LL.c ****                             /* Do same for first frequency channel  */
2348:Generated_Source\PSoC4/CapSense_SensingCSD_LL.c ****                             if (CapSense_curRamSnsPtr->idacComp[CapSense_FREQ_CHANNEL_1] >= ptrIdac
2349:Generated_Source\PSoC4/CapSense_SensingCSD_LL.c ****                             {
2350:Generated_Source\PSoC4/CapSense_SensingCSD_LL.c ****                                 CapSense_curRamSnsPtr->idacComp[CapSense_FREQ_CHANNEL_1] -= ptrIdac
2351:Generated_Source\PSoC4/CapSense_SensingCSD_LL.c ****                                 #if ((CapSense_ENABLE == CapSense_CSD_DEDICATED_IDAC_COMP_EN) ||\
2352:Generated_Source\PSoC4/CapSense_SensingCSD_LL.c ****                                      (CapSense_DISABLE == CapSense_CSDV2))
2353:Generated_Source\PSoC4/CapSense_SensingCSD_LL.c ****                                     CapSense_curRamSnsPtr->idacComp[CapSense_FREQ_CHANNEL_1] =
2354:Generated_Source\PSoC4/CapSense_SensingCSD_LL.c ****                                         (uint8)((((target * CapSense_curRamSnsPtr->idacComp[CapSens
2355:Generated_Source\PSoC4/CapSense_SensingCSD_LL.c ****                                         CapSense_PERCENTAGE_100) - 1u) / CapSense_PERCENTAGE_100);
2356:Generated_Source\PSoC4/CapSense_SensingCSD_LL.c ****                                 #endif /* ((CapSense_ENABLE == CapSense_CSD_DEDICATED_IDAC_COMP_EN)
2357:Generated_Source\PSoC4/CapSense_SensingCSD_LL.c ****                                            (CapSense_DISABLE == CapSense_CSDV2)) */
2358:Generated_Source\PSoC4/CapSense_SensingCSD_LL.c ****                             }
2359:Generated_Source\PSoC4/CapSense_SensingCSD_LL.c ****                             /* Do same for second frequency channel  */
2360:Generated_Source\PSoC4/CapSense_SensingCSD_LL.c ****                             if (CapSense_curRamSnsPtr->idacComp[CapSense_FREQ_CHANNEL_2] >= ptrIdac
2361:Generated_Source\PSoC4/CapSense_SensingCSD_LL.c ****                             {
2362:Generated_Source\PSoC4/CapSense_SensingCSD_LL.c ****                                 CapSense_curRamSnsPtr->idacComp[CapSense_FREQ_CHANNEL_2] -= ptrIdac
2363:Generated_Source\PSoC4/CapSense_SensingCSD_LL.c ****                                 #if ((CapSense_ENABLE == CapSense_CSD_DEDICATED_IDAC_COMP_EN) ||\
2364:Generated_Source\PSoC4/CapSense_SensingCSD_LL.c ****                                      (CapSense_DISABLE == CapSense_CSDV2))
2365:Generated_Source\PSoC4/CapSense_SensingCSD_LL.c ****                                     CapSense_curRamSnsPtr->idacComp[CapSense_FREQ_CHANNEL_2] =
2366:Generated_Source\PSoC4/CapSense_SensingCSD_LL.c ****                                         (uint8)((((target * CapSense_curRamSnsPtr->idacComp[CapSens
2367:Generated_Source\PSoC4/CapSense_SensingCSD_LL.c ****                                         CapSense_PERCENTAGE_100) - 1u) / CapSense_PERCENTAGE_100);
2368:Generated_Source\PSoC4/CapSense_SensingCSD_LL.c ****                                 #endif /* ((CapSense_ENABLE == CapSense_CSD_DEDICATED_IDAC_COMP_EN)
2369:Generated_Source\PSoC4/CapSense_SensingCSD_LL.c ****                                            (CapSense_DISABLE == CapSense_CSDV2)) */
2370:Generated_Source\PSoC4/CapSense_SensingCSD_LL.c ****                             }
2371:Generated_Source\PSoC4/CapSense_SensingCSD_LL.c ****                         #endif /* (CapSense_ENABLE == CapSense_MULTI_FREQ_SCAN_EN) */
2372:Generated_Source\PSoC4/CapSense_SensingCSD_LL.c ****                     }
2373:Generated_Source\PSoC4/CapSense_SensingCSD_LL.c ****                 #else
2374:Generated_Source\PSoC4/CapSense_SensingCSD_LL.c ****                     /* Normalize widget for single-IDAC mode*/
2375:Generated_Source\PSoC4/CapSense_SensingCSD_LL.c ****                     ptrIdac[0u] = iDAC8Max[0u];
2376:Generated_Source\PSoC4/CapSense_SensingCSD_LL.c ****                     #if (CapSense_ENABLE == CapSense_MULTI_FREQ_SCAN_EN)
2377:Generated_Source\PSoC4/CapSense_SensingCSD_LL.c ****                         ptrIdac[CapSense_FREQ_CHANNEL_1] = iDAC8Max[CapSense_FREQ_CHANNEL_1];
2378:Generated_Source\PSoC4/CapSense_SensingCSD_LL.c ****                         ptrIdac[CapSense_FREQ_CHANNEL_2] = iDAC8Max[CapSense_FREQ_CHANNEL_2];
2379:Generated_Source\PSoC4/CapSense_SensingCSD_LL.c ****                     #endif /* (CapSense_ENABLE == CapSense_MULTI_FREQ_SCAN_EN) */
2380:Generated_Source\PSoC4/CapSense_SensingCSD_LL.c ****                 #endif /* (CapSense_ENABLE == CapSense_CSD_IDAC_COMP_EN) */
ARM GAS  C:\Users\Jerry\AppData\Local\Temp\cc2mbs0O.s 			page 55


2381:Generated_Source\PSoC4/CapSense_SensingCSD_LL.c ****             }
2382:Generated_Source\PSoC4/CapSense_SensingCSD_LL.c ****         #endif /* (CapSense_CSD_MATRIX_WIDGET_EN | CapSense_CSD_TOUCHPAD_WIDGET_EN) */
2383:Generated_Source\PSoC4/CapSense_SensingCSD_LL.c **** 
2384:Generated_Source\PSoC4/CapSense_SensingCSD_LL.c ****         CapSense_sensorIndex = 0u;
2385:Generated_Source\PSoC4/CapSense_SensingCSD_LL.c **** 
2386:Generated_Source\PSoC4/CapSense_SensingCSD_LL.c ****         return calibrateStatus;
2387:Generated_Source\PSoC4/CapSense_SensingCSD_LL.c ****     }
2388:Generated_Source\PSoC4/CapSense_SensingCSD_LL.c **** #endif /* ((CapSense_CSD_SS_DIS != CapSense_CSD_AUTOTUNE)) || \
2389:Generated_Source\PSoC4/CapSense_SensingCSD_LL.c ****             (CapSense_ENABLE == CapSense_CSD_IDAC_AUTOCAL_EN))  */
2390:Generated_Source\PSoC4/CapSense_SensingCSD_LL.c **** 
2391:Generated_Source\PSoC4/CapSense_SensingCSD_LL.c **** 
2392:Generated_Source\PSoC4/CapSense_SensingCSD_LL.c **** #if (CapSense_DISABLE == CapSense_CSDV2)
2393:Generated_Source\PSoC4/CapSense_SensingCSD_LL.c ****     /*******************************************************************************
2394:Generated_Source\PSoC4/CapSense_SensingCSD_LL.c ****     * Function Name: CapSense_SsCSDClockRestart
2395:Generated_Source\PSoC4/CapSense_SensingCSD_LL.c ****     ****************************************************************************//**
2396:Generated_Source\PSoC4/CapSense_SensingCSD_LL.c ****     *
2397:Generated_Source\PSoC4/CapSense_SensingCSD_LL.c ****     * \brief
2398:Generated_Source\PSoC4/CapSense_SensingCSD_LL.c ****     *  This function restarts the clocks.
2399:Generated_Source\PSoC4/CapSense_SensingCSD_LL.c ****     *
2400:Generated_Source\PSoC4/CapSense_SensingCSD_LL.c ****     * \details
2401:Generated_Source\PSoC4/CapSense_SensingCSD_LL.c ****     *  The function performs following:
2402:Generated_Source\PSoC4/CapSense_SensingCSD_LL.c ****     *  1) Stops, sets dividers and starts ModClk clock;
2403:Generated_Source\PSoC4/CapSense_SensingCSD_LL.c ****     *  2) Stops and starts SnsClk clock;
2404:Generated_Source\PSoC4/CapSense_SensingCSD_LL.c ****     *  3) Scan one cycle to reset the flip-flop for Direct clock mode.
2405:Generated_Source\PSoC4/CapSense_SensingCSD_LL.c ****     *
2406:Generated_Source\PSoC4/CapSense_SensingCSD_LL.c ****     *******************************************************************************/
2407:Generated_Source\PSoC4/CapSense_SensingCSD_LL.c ****     CY_INLINE static void CapSense_SsCSDClockRestart(void)
2408:Generated_Source\PSoC4/CapSense_SensingCSD_LL.c ****     {
2409:Generated_Source\PSoC4/CapSense_SensingCSD_LL.c ****         /*  Stop clocks, set dividers, and start clock to align clock phase */
2410:Generated_Source\PSoC4/CapSense_SensingCSD_LL.c ****         CapSense_SsSetModClkClockDivider((uint32)CapSense_dsRam.modCsdClk);
2411:Generated_Source\PSoC4/CapSense_SensingCSD_LL.c **** 
2412:Generated_Source\PSoC4/CapSense_SensingCSD_LL.c ****         #if (CapSense_ENABLE == CapSense_IS_M0S8PERI_BLOCK)
2413:Generated_Source\PSoC4/CapSense_SensingCSD_LL.c ****             /*  Stop sense clock clock   */
2414:Generated_Source\PSoC4/CapSense_SensingCSD_LL.c ****             CY_SET_REG32(CapSense_SNSCLK_CMD_PTR,
2415:Generated_Source\PSoC4/CapSense_SensingCSD_LL.c ****                          ((uint32)CapSense_SnsClk__DIV_ID <<
2416:Generated_Source\PSoC4/CapSense_SensingCSD_LL.c ****                          CapSense_SNSCLK_CMD_DIV_SHIFT)|
2417:Generated_Source\PSoC4/CapSense_SensingCSD_LL.c ****                          ((uint32)CapSense_SNSCLK_CMD_DISABLE_MASK));
2418:Generated_Source\PSoC4/CapSense_SensingCSD_LL.c **** 
2419:Generated_Source\PSoC4/CapSense_SensingCSD_LL.c ****             /*  Check whether previous sense clock start command has finished. */
2420:Generated_Source\PSoC4/CapSense_SensingCSD_LL.c ****             while(0u != (CY_GET_REG32(CapSense_SNSCLK_CMD_PTR) & CapSense_SNSCLK_CMD_ENABLE_MASK))
2421:Generated_Source\PSoC4/CapSense_SensingCSD_LL.c ****             {
2422:Generated_Source\PSoC4/CapSense_SensingCSD_LL.c ****                 /*  Wait until previous sense clock start command has finished. */
2423:Generated_Source\PSoC4/CapSense_SensingCSD_LL.c ****             }
2424:Generated_Source\PSoC4/CapSense_SensingCSD_LL.c **** 
2425:Generated_Source\PSoC4/CapSense_SensingCSD_LL.c ****             /* Start sense clock aligned to previously started modulator clock. */
2426:Generated_Source\PSoC4/CapSense_SensingCSD_LL.c ****             CY_SET_REG32(CapSense_SNSCLK_CMD_PTR,
2427:Generated_Source\PSoC4/CapSense_SensingCSD_LL.c ****                          (uint32)(((uint32)CapSense_SnsClk__DIV_ID << CapSense_SNSCLK_CMD_DIV_SHIFT
2428:Generated_Source\PSoC4/CapSense_SensingCSD_LL.c ****                           ((uint32)CapSense_ModClk__PA_DIV_ID << CapSense_SNSCLK_CMD_PA_DIV_SHIFT) 
2429:Generated_Source\PSoC4/CapSense_SensingCSD_LL.c ****                           CapSense_SNSCLK_CMD_ENABLE_MASK));
2430:Generated_Source\PSoC4/CapSense_SensingCSD_LL.c ****         #else
2431:Generated_Source\PSoC4/CapSense_SensingCSD_LL.c ****             /* Clear bit to disable SnsClk clock. */
2432:Generated_Source\PSoC4/CapSense_SensingCSD_LL.c ****             CY_SET_REG32(CapSense_SNSCLK_CMD_PTR,
2433:Generated_Source\PSoC4/CapSense_SensingCSD_LL.c ****                          CY_GET_REG32(CapSense_SNSCLK_CMD_PTR) &
2434:Generated_Source\PSoC4/CapSense_SensingCSD_LL.c ****                          (uint32)(~(uint32)CapSense_SnsClk__ENABLE_MASK));
2435:Generated_Source\PSoC4/CapSense_SensingCSD_LL.c **** 
2436:Generated_Source\PSoC4/CapSense_SensingCSD_LL.c ****             /* Set bit to enable SnsClk clock. */
2437:Generated_Source\PSoC4/CapSense_SensingCSD_LL.c ****             CY_SET_REG32(CapSense_SNSCLK_CMD_PTR,
ARM GAS  C:\Users\Jerry\AppData\Local\Temp\cc2mbs0O.s 			page 56


2438:Generated_Source\PSoC4/CapSense_SensingCSD_LL.c ****                          CY_GET_REG32(CapSense_SNSCLK_CMD_PTR) |
2439:Generated_Source\PSoC4/CapSense_SensingCSD_LL.c ****                         CapSense_SnsClk__ENABLE_MASK);
2440:Generated_Source\PSoC4/CapSense_SensingCSD_LL.c ****         #endif /* (CapSense_ENABLE == CapSense_IS_M0S8PERI_BLOCK) */
2441:Generated_Source\PSoC4/CapSense_SensingCSD_LL.c **** 
2442:Generated_Source\PSoC4/CapSense_SensingCSD_LL.c ****         #if (CapSense_CLK_SOURCE_DIRECT == CapSense_CSD_SNS_CLK_SOURCE)
2443:Generated_Source\PSoC4/CapSense_SensingCSD_LL.c ****             /*  Scan one cycle to reset the flip-flop for Direct clock mode */
2444:Generated_Source\PSoC4/CapSense_SensingCSD_LL.c ****             CyIntDisable(CapSense_ISR_NUMBER);
2445:Generated_Source\PSoC4/CapSense_SensingCSD_LL.c ****             CY_SET_REG32(CapSense_COUNTER_PTR, CapSense_ONE_CYCLE);
2446:Generated_Source\PSoC4/CapSense_SensingCSD_LL.c **** 
2447:Generated_Source\PSoC4/CapSense_SensingCSD_LL.c ****             while(0u != (CY_GET_REG32(CapSense_COUNTER_PTR) & CapSense_RESOLUTION_16_BITS))
2448:Generated_Source\PSoC4/CapSense_SensingCSD_LL.c ****             {
2449:Generated_Source\PSoC4/CapSense_SensingCSD_LL.c ****                 /* Wait until scanning is complete */
2450:Generated_Source\PSoC4/CapSense_SensingCSD_LL.c ****             }
2451:Generated_Source\PSoC4/CapSense_SensingCSD_LL.c ****             CY_SET_REG32(CapSense_INTR_PTR, CapSense_INTR_SET_MASK);
2452:Generated_Source\PSoC4/CapSense_SensingCSD_LL.c ****             CyIntClearPending(CapSense_ISR_NUMBER);
2453:Generated_Source\PSoC4/CapSense_SensingCSD_LL.c ****         #endif /* (CapSense_CLK_SOURCE_DIRECT == CapSense_CSD_SNS_CLK_SOURCE) */
2454:Generated_Source\PSoC4/CapSense_SensingCSD_LL.c ****     }
2455:Generated_Source\PSoC4/CapSense_SensingCSD_LL.c **** #endif /* (CapSense_DISABLE == CapSense_CSDV2) */
2456:Generated_Source\PSoC4/CapSense_SensingCSD_LL.c **** 
2457:Generated_Source\PSoC4/CapSense_SensingCSD_LL.c **** 
2458:Generated_Source\PSoC4/CapSense_SensingCSD_LL.c **** /*******************************************************************************
2459:Generated_Source\PSoC4/CapSense_SensingCSD_LL.c **** * Function Name: CapSense_SsCSDCmodPrecharge
2460:Generated_Source\PSoC4/CapSense_SensingCSD_LL.c **** ****************************************************************************//**
2461:Generated_Source\PSoC4/CapSense_SensingCSD_LL.c **** *
2462:Generated_Source\PSoC4/CapSense_SensingCSD_LL.c **** * \brief
2463:Generated_Source\PSoC4/CapSense_SensingCSD_LL.c **** *  This function initializes the Cmod charging to Vref.
2464:Generated_Source\PSoC4/CapSense_SensingCSD_LL.c **** *
2465:Generated_Source\PSoC4/CapSense_SensingCSD_LL.c **** * \details
2466:Generated_Source\PSoC4/CapSense_SensingCSD_LL.c **** *  For CSDv1:
2467:Generated_Source\PSoC4/CapSense_SensingCSD_LL.c **** *  The function initializes the Cmod charging to Vref.
2468:Generated_Source\PSoC4/CapSense_SensingCSD_LL.c **** *  Then it waits the even when Cmod is completely charged
2469:Generated_Source\PSoC4/CapSense_SensingCSD_LL.c **** *  to Vref to have stable Rawcounts. Software Watchdog Counter is implemented to
2470:Generated_Source\PSoC4/CapSense_SensingCSD_LL.c **** *  prevent the project hanging.
2471:Generated_Source\PSoC4/CapSense_SensingCSD_LL.c **** *
2472:Generated_Source\PSoC4/CapSense_SensingCSD_LL.c **** *  For CSDv2:
2473:Generated_Source\PSoC4/CapSense_SensingCSD_LL.c **** *  Coarse initialization for CMOD and Cch.
2474:Generated_Source\PSoC4/CapSense_SensingCSD_LL.c **** *  The coarse initialization is performed by HSCOMP.
2475:Generated_Source\PSoC4/CapSense_SensingCSD_LL.c **** *  The HSCOMP monitors the Cmod voltage via Cmod sense path
2476:Generated_Source\PSoC4/CapSense_SensingCSD_LL.c **** *  and charges the Cmod using HCAV switch via CSDBUS-A, AMUXBUS-A
2477:Generated_Source\PSoC4/CapSense_SensingCSD_LL.c **** *  and static connection of Cmod to AMUXBUS-A.
2478:Generated_Source\PSoC4/CapSense_SensingCSD_LL.c **** *
2479:Generated_Source\PSoC4/CapSense_SensingCSD_LL.c **** *******************************************************************************/
2480:Generated_Source\PSoC4/CapSense_SensingCSD_LL.c **** CY_INLINE static void CapSense_SsCSDCmodPrecharge(void)
2481:Generated_Source\PSoC4/CapSense_SensingCSD_LL.c **** {
2482:Generated_Source\PSoC4/CapSense_SensingCSD_LL.c ****     #if (CapSense_ENABLE == CapSense_CSDV2)
2483:Generated_Source\PSoC4/CapSense_SensingCSD_LL.c **** 
2484:Generated_Source\PSoC4/CapSense_SensingCSD_LL.c ****         /* CSDv2 HW IP block section */
2485:Generated_Source\PSoC4/CapSense_SensingCSD_LL.c **** 
2486:Generated_Source\PSoC4/CapSense_SensingCSD_LL.c ****         uint32 watchdogCounter;
2487:Generated_Source\PSoC4/CapSense_SensingCSD_LL.c **** 
2488:Generated_Source\PSoC4/CapSense_SensingCSD_LL.c ****         #if ((CapSense_ENABLE == CapSense_CSD_SHIELD_EN) && \
2489:Generated_Source\PSoC4/CapSense_SensingCSD_LL.c ****              (0u != CapSense_CSD_SHIELD_TANK_EN))
2490:Generated_Source\PSoC4/CapSense_SensingCSD_LL.c ****             uint32 tmpRegValue;
2491:Generated_Source\PSoC4/CapSense_SensingCSD_LL.c ****         #endif /* ((CapSense_ENABLE == CapSense_CSD_SHIELD_EN) && \
2492:Generated_Source\PSoC4/CapSense_SensingCSD_LL.c ****                    (0u != CapSense_CSD_SHIELD_TANK_EN)) */
2493:Generated_Source\PSoC4/CapSense_SensingCSD_LL.c **** 
2494:Generated_Source\PSoC4/CapSense_SensingCSD_LL.c ****         CY_SET_REG32(CapSense_SW_FW_MOD_SEL_PTR,  CapSense_CSD_SW_FW_MOD_SEL_INIT);
ARM GAS  C:\Users\Jerry\AppData\Local\Temp\cc2mbs0O.s 			page 57


 629              		.loc 1 2494 0
 630 0016 334B     		ldr	r3, .L45+4
2495:Generated_Source\PSoC4/CapSense_SensingCSD_LL.c ****         CY_SET_REG32(CapSense_SW_FW_TANK_SEL_PTR, CapSense_CSD_SW_FW_TANK_SEL_INIT);
 631              		.loc 1 2495 0
 632 0018 334F     		ldr	r7, .L45+8
2494:Generated_Source\PSoC4/CapSense_SensingCSD_LL.c ****         CY_SET_REG32(CapSense_SW_FW_TANK_SEL_PTR, CapSense_CSD_SW_FW_TANK_SEL_INIT);
 633              		.loc 1 2494 0
 634 001a 9C46     		mov	ip, r3
 635 001c 0023     		mov	r3, #0
 636 001e 6246     		mov	r2, ip
2496:Generated_Source\PSoC4/CapSense_SensingCSD_LL.c ****         CY_SET_REG32(CapSense_SW_SHIELD_SEL_PTR,  CapSense_SW_SHIELD_SEL_SW_HCAV_HSCMP);
 637              		.loc 1 2496 0
 638 0020 324E     		ldr	r6, .L45+12
2494:Generated_Source\PSoC4/CapSense_SensingCSD_LL.c ****         CY_SET_REG32(CapSense_SW_FW_TANK_SEL_PTR, CapSense_CSD_SW_FW_TANK_SEL_INIT);
 639              		.loc 1 2494 0
 640 0022 1360     		str	r3, [r2]
2497:Generated_Source\PSoC4/CapSense_SensingCSD_LL.c ****         #if (CapSense_ENABLE == CapSense_CSD_SHIELD_EN)
2498:Generated_Source\PSoC4/CapSense_SensingCSD_LL.c ****             /*
2499:Generated_Source\PSoC4/CapSense_SensingCSD_LL.c ****              * Connect CMOD to (sense path) to HSCOMP: HMPM or HMPS or HMPT switches depend on Cmod
2500:Generated_Source\PSoC4/CapSense_SensingCSD_LL.c ****              * Connect AMUXBUS-B to HSCMP positive input
2501:Generated_Source\PSoC4/CapSense_SensingCSD_LL.c ****              */
2502:Generated_Source\PSoC4/CapSense_SensingCSD_LL.c ****             CY_SET_REG32(CapSense_SW_HS_P_SEL_PTR, CapSense_SW_HS_P_SEL_COARSE);
2503:Generated_Source\PSoC4/CapSense_SensingCSD_LL.c ****             CY_SET_REG32(CapSense_SW_HS_N_SEL_PTR, CapSense_SW_HS_N_SEL_SW_HCRH_STATIC_CLOSE);
2504:Generated_Source\PSoC4/CapSense_SensingCSD_LL.c **** 
2505:Generated_Source\PSoC4/CapSense_SensingCSD_LL.c ****             #if(0u != CapSense_CSD_SHIELD_TANK_EN)
2506:Generated_Source\PSoC4/CapSense_SensingCSD_LL.c ****                 /* Connect CTANK to AMUXBUS-A */
2507:Generated_Source\PSoC4/CapSense_SensingCSD_LL.c ****                 tmpRegValue = CY_GET_REG32(CapSense_CSH_HSIOM_PTR);
2508:Generated_Source\PSoC4/CapSense_SensingCSD_LL.c ****                 tmpRegValue &= (uint32)(~(uint32)CapSense_CSH_HSIOM_MASK);
2509:Generated_Source\PSoC4/CapSense_SensingCSD_LL.c ****                 tmpRegValue |= (CapSense_HSIOM_SEL_AMUXA << CapSense_CSH_HSIOM_SHIFT);
2510:Generated_Source\PSoC4/CapSense_SensingCSD_LL.c ****                 CY_SET_REG32(CapSense_CSH_HSIOM_PTR, tmpRegValue);
2511:Generated_Source\PSoC4/CapSense_SensingCSD_LL.c ****             #endif /* (0u != CapSense_CSD_SHIELD_TANK_EN) */
2512:Generated_Source\PSoC4/CapSense_SensingCSD_LL.c ****         #else
2513:Generated_Source\PSoC4/CapSense_SensingCSD_LL.c ****             /* Connect CMOD to (sense path) to HSCOMP: HMPM or HMPS or HMPT switches depend on Cmod
2514:Generated_Source\PSoC4/CapSense_SensingCSD_LL.c ****             CY_SET_REG32(CapSense_SW_HS_P_SEL_PTR, CapSense_SW_HS_P_SEL_COARSE);
 641              		.loc 1 2514 0
 642 0024 3248     		ldr	r0, .L45+16
2495:Generated_Source\PSoC4/CapSense_SensingCSD_LL.c ****         CY_SET_REG32(CapSense_SW_SHIELD_SEL_PTR,  CapSense_SW_SHIELD_SEL_SW_HCAV_HSCMP);
 643              		.loc 1 2495 0
 644 0026 3B60     		str	r3, [r7]
2496:Generated_Source\PSoC4/CapSense_SensingCSD_LL.c ****         CY_SET_REG32(CapSense_SW_SHIELD_SEL_PTR,  CapSense_SW_SHIELD_SEL_SW_HCAV_HSCMP);
 645              		.loc 1 2496 0
 646 0028 0633     		add	r3, r3, #6
 647 002a 3360     		str	r3, [r6]
 648              		.loc 1 2514 0
 649 002c FA33     		add	r3, r3, #250
 650 002e 0360     		str	r3, [r0]
2515:Generated_Source\PSoC4/CapSense_SensingCSD_LL.c ****             CY_SET_REG32(CapSense_SW_HS_N_SEL_PTR, CapSense_SW_HS_N_SEL_SW_HCRH_STATIC_CLOSE);
 651              		.loc 1 2515 0
 652 0030 8023     		mov	r3, #128
 653 0032 3049     		ldr	r1, .L45+20
2516:Generated_Source\PSoC4/CapSense_SensingCSD_LL.c ****         #endif /* (CapSense_ENABLE == CapSense_CSD_SHIELD_EN) */
2517:Generated_Source\PSoC4/CapSense_SensingCSD_LL.c **** 
2518:Generated_Source\PSoC4/CapSense_SensingCSD_LL.c ****         CY_SET_REG32(CapSense_SW_RES_PTR, CapSense_CSD_SW_RES_INIT);
 654              		.loc 1 2518 0
 655 0034 304A     		ldr	r2, .L45+24
2515:Generated_Source\PSoC4/CapSense_SensingCSD_LL.c ****             CY_SET_REG32(CapSense_SW_HS_N_SEL_PTR, CapSense_SW_HS_N_SEL_SW_HCRH_STATIC_CLOSE);
 656              		.loc 1 2515 0
ARM GAS  C:\Users\Jerry\AppData\Local\Temp\cc2mbs0O.s 			page 58


 657 0036 5B04     		lsl	r3, r3, #17
 658 0038 0B60     		str	r3, [r1]
 659              		.loc 1 2518 0
 660 003a 1560     		str	r5, [r2]
2519:Generated_Source\PSoC4/CapSense_SensingCSD_LL.c **** 
2520:Generated_Source\PSoC4/CapSense_SensingCSD_LL.c ****         /* Clear all interrupt pending requests */
2521:Generated_Source\PSoC4/CapSense_SensingCSD_LL.c ****         CY_SET_REG32(CapSense_INTR_PTR, CapSense_INTR_SET_SAMPLE_MASK |
 661              		.loc 1 2521 0
 662 003c 2F4B     		ldr	r3, .L45+28
 663 003e 0635     		add	r5, r5, #6
 664 0040 FF35     		add	r5, r5, #255
 665 0042 1D60     		str	r5, [r3]
2522:Generated_Source\PSoC4/CapSense_SensingCSD_LL.c ****                                                 CapSense_INTR_SET_INIT_MASK |
2523:Generated_Source\PSoC4/CapSense_SensingCSD_LL.c ****                                                 CapSense_INTR_SET_ADC_RES_MASK);
2524:Generated_Source\PSoC4/CapSense_SensingCSD_LL.c **** 
2525:Generated_Source\PSoC4/CapSense_SensingCSD_LL.c ****         /* Enable INIT interrupt */
2526:Generated_Source\PSoC4/CapSense_SensingCSD_LL.c ****         CY_SET_REG32(CapSense_INTR_MASK_PTR, CapSense_INTR_MASK_INIT_MASK);
 666              		.loc 1 2526 0
 667 0044 2E4B     		ldr	r3, .L45+32
 668 0046 033D     		sub	r5, r5, #3
 669 0048 FF3D     		sub	r5, r5, #255
 670 004a 1D60     		str	r5, [r3]
2527:Generated_Source\PSoC4/CapSense_SensingCSD_LL.c **** 
2528:Generated_Source\PSoC4/CapSense_SensingCSD_LL.c ****         /* Start SEQUENCER for coarse initialization for Cmod */
2529:Generated_Source\PSoC4/CapSense_SensingCSD_LL.c ****         CY_SET_REG32(CapSense_SEQ_START_PTR, CapSense_SEQ_START_SEQ_MODE_MASK |
 671              		.loc 1 2529 0
 672 004c 2D4B     		ldr	r3, .L45+36
 673 004e 013D     		sub	r5, r5, #1
 674 0050 1D60     		str	r5, [r3]
 675              	.LVL61:
 676 0052 0194     		str	r4, [sp, #4]
 677 0054 141C     		mov	r4, r2
2530:Generated_Source\PSoC4/CapSense_SensingCSD_LL.c ****                                                      CapSense_SEQ_START_START_MASK);
2531:Generated_Source\PSoC4/CapSense_SensingCSD_LL.c **** 
2532:Generated_Source\PSoC4/CapSense_SensingCSD_LL.c ****         /* Init Watchdog Counter to prevent a hang */
2533:Generated_Source\PSoC4/CapSense_SensingCSD_LL.c ****         watchdogCounter = CapSense_SOFTWARE_WDT_CYCLES_NUM;
 678              		.loc 1 2533 0
 679 0056 DE35     		add	r5, r5, #222
 680 0058 0297     		str	r7, [sp, #8]
 681 005a 0396     		str	r6, [sp, #12]
 682 005c 274B     		ldr	r3, .L45+28
 683 005e 284E     		ldr	r6, .L45+32
 684 0060 284F     		ldr	r7, .L45+36
 685 0062 FF35     		add	r5, r5, #255
 686 0064 0490     		str	r0, [sp, #16]
 687 0066 0591     		str	r1, [sp, #20]
 688              	.LVL62:
 689              	.L35:
2534:Generated_Source\PSoC4/CapSense_SensingCSD_LL.c **** 
2535:Generated_Source\PSoC4/CapSense_SensingCSD_LL.c ****         /* Wait for INTR.INIT goes high */
2536:Generated_Source\PSoC4/CapSense_SensingCSD_LL.c ****         while((0u == (CY_GET_REG32(CapSense_INTR_PTR) & CapSense_INTR_INIT_MASK)) && (0u != watchdo
 690              		.loc 1 2536 0
 691 0068 1A68     		ldr	r2, [r3]
 692 006a 5207     		lsl	r2, r2, #29
 693 006c 03D4     		bmi	.L36
 694 006e 002D     		cmp	r5, #0
 695 0070 03D0     		beq	.L38
ARM GAS  C:\Users\Jerry\AppData\Local\Temp\cc2mbs0O.s 			page 59


2537:Generated_Source\PSoC4/CapSense_SensingCSD_LL.c ****         {
2538:Generated_Source\PSoC4/CapSense_SensingCSD_LL.c ****             watchdogCounter--;
 696              		.loc 1 2538 0
 697 0072 013D     		sub	r5, r5, #1
 698              	.LVL63:
 699 0074 F8E7     		b	.L35
 700              	.L36:
2539:Generated_Source\PSoC4/CapSense_SensingCSD_LL.c ****         }
2540:Generated_Source\PSoC4/CapSense_SensingCSD_LL.c **** 
2541:Generated_Source\PSoC4/CapSense_SensingCSD_LL.c ****         if (0u == watchdogCounter)
 701              		.loc 1 2541 0
 702 0076 002D     		cmp	r5, #0
 703 0078 01D1     		bne	.L39
 704              	.L38:
2542:Generated_Source\PSoC4/CapSense_SensingCSD_LL.c ****         {
2543:Generated_Source\PSoC4/CapSense_SensingCSD_LL.c ****             /* Set sequencer to idle state if coarse initialization fails */
2544:Generated_Source\PSoC4/CapSense_SensingCSD_LL.c ****             CY_SET_REG32(CapSense_SEQ_START_PTR, CapSense_SEQ_START_ABORT_MASK);
 705              		.loc 1 2544 0
 706 007a 0822     		mov	r2, #8
 707 007c 3A60     		str	r2, [r7]
 708              	.L39:
2545:Generated_Source\PSoC4/CapSense_SensingCSD_LL.c ****         }
2546:Generated_Source\PSoC4/CapSense_SensingCSD_LL.c **** 
2547:Generated_Source\PSoC4/CapSense_SensingCSD_LL.c ****         /* Set scanning configuration for switches */
2548:Generated_Source\PSoC4/CapSense_SensingCSD_LL.c ****         CY_SET_REG32(CapSense_SW_FW_MOD_SEL_PTR, CapSense_CSD_SW_FW_MOD_SEL_SCAN);
 709              		.loc 1 2548 0
 710 007e 0025     		mov	r5, #0
 711              	.LVL64:
 712 0080 6246     		mov	r2, ip
 713 0082 1560     		str	r5, [r2]
2549:Generated_Source\PSoC4/CapSense_SensingCSD_LL.c ****         CY_SET_REG32(CapSense_SW_FW_TANK_SEL_PTR,CapSense_CSD_SW_FW_TANK_SEL_SCAN);
 714              		.loc 1 2549 0
 715 0084 029A     		ldr	r2, [sp, #8]
 716              	.LBE19:
 717              	.LBE18:
 718              	.LBB21:
 719              	.LBB22:
2550:Generated_Source\PSoC4/CapSense_SensingCSD_LL.c **** 
2551:Generated_Source\PSoC4/CapSense_SensingCSD_LL.c ****     #else
2552:Generated_Source\PSoC4/CapSense_SensingCSD_LL.c **** 
2553:Generated_Source\PSoC4/CapSense_SensingCSD_LL.c ****         uint32 newRegValue;
2554:Generated_Source\PSoC4/CapSense_SensingCSD_LL.c ****         uint32 watchdogCounter;
2555:Generated_Source\PSoC4/CapSense_SensingCSD_LL.c **** 
2556:Generated_Source\PSoC4/CapSense_SensingCSD_LL.c ****         /*  Save the current IDAC configuration */
2557:Generated_Source\PSoC4/CapSense_SensingCSD_LL.c ****         newRegValue = CY_GET_REG32(CapSense_IDAC_PTR);
2558:Generated_Source\PSoC4/CapSense_SensingCSD_LL.c **** 
2559:Generated_Source\PSoC4/CapSense_SensingCSD_LL.c ****         /*  Wait until Cmod discharges below Vref */
2560:Generated_Source\PSoC4/CapSense_SensingCSD_LL.c ****         CyDelayCycles(CapSense_CMOD_DISCHARGE_CYCLES);
2561:Generated_Source\PSoC4/CapSense_SensingCSD_LL.c **** 
2562:Generated_Source\PSoC4/CapSense_SensingCSD_LL.c ****         /*  Set the IDAC configuration for fast Cmod precharge to Vref */
2563:Generated_Source\PSoC4/CapSense_SensingCSD_LL.c ****         CY_SET_REG32(CapSense_IDAC_PTR, CapSense_CSD_IDAC_PRECHARGE_CONFIG);
2564:Generated_Source\PSoC4/CapSense_SensingCSD_LL.c **** 
2565:Generated_Source\PSoC4/CapSense_SensingCSD_LL.c ****         #if (CapSense_IDAC_SINKING == CapSense_CSD_IDAC_CONFIG)
2566:Generated_Source\PSoC4/CapSense_SensingCSD_LL.c ****             CY_SET_REG32(CapSense_CONFIG_PTR, CY_GET_REG32(CapSense_CONFIG_PTR) & ~CapSense_CONFIG_
2567:Generated_Source\PSoC4/CapSense_SensingCSD_LL.c ****         #endif /* (CapSense_IDAC_SINKING == CapSense_CSD_IDAC_CONFIG) */
2568:Generated_Source\PSoC4/CapSense_SensingCSD_LL.c **** 
2569:Generated_Source\PSoC4/CapSense_SensingCSD_LL.c ****         /*  Init Watchdog Counter to prevent a hang */
ARM GAS  C:\Users\Jerry\AppData\Local\Temp\cc2mbs0O.s 			page 60


2570:Generated_Source\PSoC4/CapSense_SensingCSD_LL.c ****         watchdogCounter = CapSense_SOFTWARE_WDT_CYCLES_NUM;
2571:Generated_Source\PSoC4/CapSense_SensingCSD_LL.c **** 
2572:Generated_Source\PSoC4/CapSense_SensingCSD_LL.c ****         /*  Wait until Cmod reaches to Vref */
2573:Generated_Source\PSoC4/CapSense_SensingCSD_LL.c ****         while((0u == (CY_GET_REG32(CapSense_STATUS_PTR) & CapSense_STATUS_SAMPLE)) && (0u != watchd
2574:Generated_Source\PSoC4/CapSense_SensingCSD_LL.c ****         {
2575:Generated_Source\PSoC4/CapSense_SensingCSD_LL.c ****             watchdogCounter--;
2576:Generated_Source\PSoC4/CapSense_SensingCSD_LL.c ****         }
2577:Generated_Source\PSoC4/CapSense_SensingCSD_LL.c **** 
2578:Generated_Source\PSoC4/CapSense_SensingCSD_LL.c ****         #if (CapSense_IDAC_SINKING == CapSense_CSD_IDAC_CONFIG)
2579:Generated_Source\PSoC4/CapSense_SensingCSD_LL.c ****             CY_SET_REG32(CapSense_CONFIG_PTR, CY_GET_REG32(CapSense_CONFIG_PTR) | CapSense_CONFIG_P
2580:Generated_Source\PSoC4/CapSense_SensingCSD_LL.c ****         #endif /* (CapSense_IDAC_SINKING == CapSense_CSD_IDAC_CONFIG) */
2581:Generated_Source\PSoC4/CapSense_SensingCSD_LL.c **** 
2582:Generated_Source\PSoC4/CapSense_SensingCSD_LL.c ****         /*  Restore the current IDAC configuration */
2583:Generated_Source\PSoC4/CapSense_SensingCSD_LL.c ****         CY_SET_REG32(CapSense_IDAC_PTR, newRegValue);
2584:Generated_Source\PSoC4/CapSense_SensingCSD_LL.c **** 
2585:Generated_Source\PSoC4/CapSense_SensingCSD_LL.c ****         /*  Enable the sense modulator output */
2586:Generated_Source\PSoC4/CapSense_SensingCSD_LL.c ****         CY_SET_REG32(CapSense_CONFIG_PTR, CapSense_configCsd | CapSense_CTANK_PRECHARGE_CONFIG_CSD_
2587:Generated_Source\PSoC4/CapSense_SensingCSD_LL.c **** 
2588:Generated_Source\PSoC4/CapSense_SensingCSD_LL.c ****         CyIntEnable(CapSense_ISR_NUMBER);
2589:Generated_Source\PSoC4/CapSense_SensingCSD_LL.c **** 
2590:Generated_Source\PSoC4/CapSense_SensingCSD_LL.c ****     #endif /* (CapSense_ENABLE == CapSense_CSDV2) */
2591:Generated_Source\PSoC4/CapSense_SensingCSD_LL.c **** }
2592:Generated_Source\PSoC4/CapSense_SensingCSD_LL.c **** 
2593:Generated_Source\PSoC4/CapSense_SensingCSD_LL.c **** 
2594:Generated_Source\PSoC4/CapSense_SensingCSD_LL.c **** /*******************************************************************************
2595:Generated_Source\PSoC4/CapSense_SensingCSD_LL.c **** * Function Name: CapSense_SsCSDTriggerScan
2596:Generated_Source\PSoC4/CapSense_SensingCSD_LL.c **** ****************************************************************************//**
2597:Generated_Source\PSoC4/CapSense_SensingCSD_LL.c **** *
2598:Generated_Source\PSoC4/CapSense_SensingCSD_LL.c **** * \brief
2599:Generated_Source\PSoC4/CapSense_SensingCSD_LL.c **** *  This function triggers the scanning.
2600:Generated_Source\PSoC4/CapSense_SensingCSD_LL.c **** *
2601:Generated_Source\PSoC4/CapSense_SensingCSD_LL.c **** * \details
2602:Generated_Source\PSoC4/CapSense_SensingCSD_LL.c **** *  For CSDv1:
2603:Generated_Source\PSoC4/CapSense_SensingCSD_LL.c **** *  Writes resolution to start the scanning.
2604:Generated_Source\PSoC4/CapSense_SensingCSD_LL.c **** *
2605:Generated_Source\PSoC4/CapSense_SensingCSD_LL.c **** *  For CSDv2:
2606:Generated_Source\PSoC4/CapSense_SensingCSD_LL.c **** *  Trigger the fine initialization (scan some dummy cycles) and start sampling.
2607:Generated_Source\PSoC4/CapSense_SensingCSD_LL.c **** *  Fine initialization for CMOD and Start scan.
2608:Generated_Source\PSoC4/CapSense_SensingCSD_LL.c **** *  For the fine initialization and sampling, Cmod is static connected to AMUXBUS-A
2609:Generated_Source\PSoC4/CapSense_SensingCSD_LL.c **** *  and in every conversion (one cycle of SnsClk), the sensor capacitance is charged
2610:Generated_Source\PSoC4/CapSense_SensingCSD_LL.c **** *  from Cmod and discharged to ground using the switches in GPIO cell.
2611:Generated_Source\PSoC4/CapSense_SensingCSD_LL.c **** *  The CSDCOMP monitors voltage on Cmod using the sense path and charges Cmod back
2612:Generated_Source\PSoC4/CapSense_SensingCSD_LL.c **** *  to Vref using IDACs by connecting IDAC to CSDBUS-A and then the AMUXBUS-A.
2613:Generated_Source\PSoC4/CapSense_SensingCSD_LL.c **** *
2614:Generated_Source\PSoC4/CapSense_SensingCSD_LL.c **** *******************************************************************************/
2615:Generated_Source\PSoC4/CapSense_SensingCSD_LL.c **** CY_INLINE static void CapSense_SsCSDTriggerScan(void)
2616:Generated_Source\PSoC4/CapSense_SensingCSD_LL.c **** {
2617:Generated_Source\PSoC4/CapSense_SensingCSD_LL.c ****     #if (CapSense_ENABLE == CapSense_CSDV2)
2618:Generated_Source\PSoC4/CapSense_SensingCSD_LL.c **** 
2619:Generated_Source\PSoC4/CapSense_SensingCSD_LL.c ****         /* CSDv2 HW IP block section */
2620:Generated_Source\PSoC4/CapSense_SensingCSD_LL.c **** 
2621:Generated_Source\PSoC4/CapSense_SensingCSD_LL.c ****         uint32 watchdogCounter;
2622:Generated_Source\PSoC4/CapSense_SensingCSD_LL.c **** 
2623:Generated_Source\PSoC4/CapSense_SensingCSD_LL.c ****         /* Clear previous interrupts */
2624:Generated_Source\PSoC4/CapSense_SensingCSD_LL.c ****         CY_SET_REG32(CapSense_INTR_PTR, CapSense_INTR_SET_SAMPLE_MASK |
2625:Generated_Source\PSoC4/CapSense_SensingCSD_LL.c ****                                                 CapSense_INTR_SET_INIT_MASK |
2626:Generated_Source\PSoC4/CapSense_SensingCSD_LL.c ****                                                 CapSense_INTR_SET_ADC_RES_MASK);
ARM GAS  C:\Users\Jerry\AppData\Local\Temp\cc2mbs0O.s 			page 61


2627:Generated_Source\PSoC4/CapSense_SensingCSD_LL.c **** 
2628:Generated_Source\PSoC4/CapSense_SensingCSD_LL.c ****         /* Clear pending interrupts  */
2629:Generated_Source\PSoC4/CapSense_SensingCSD_LL.c ****         CyIntClearPending(CapSense_ISR_NUMBER);
 720              		.loc 1 2629 0
 721 0086 0E20     		mov	r0, #14
 722              	.LBE22:
 723              	.LBE21:
 724              	.LBB24:
 725              	.LBB20:
2549:Generated_Source\PSoC4/CapSense_SensingCSD_LL.c ****         CY_SET_REG32(CapSense_SW_FW_TANK_SEL_PTR,CapSense_CSD_SW_FW_TANK_SEL_SCAN);
 726              		.loc 1 2549 0
 727 0088 1560     		str	r5, [r2]
 728              	.LBE20:
 729              	.LBE24:
 730              	.LBB25:
 731              	.LBB23:
2624:Generated_Source\PSoC4/CapSense_SensingCSD_LL.c ****                                                 CapSense_INTR_SET_INIT_MASK |
 732              		.loc 1 2624 0
 733 008a 8322     		mov	r2, #131
 734 008c 5200     		lsl	r2, r2, #1
 735 008e 1A60     		str	r2, [r3]
 736              		.loc 1 2629 0
 737 0090 FFF7FEFF 		bl	CyIntClearPending
 738              	.LVL65:
2630:Generated_Source\PSoC4/CapSense_SensingCSD_LL.c **** 
2631:Generated_Source\PSoC4/CapSense_SensingCSD_LL.c ****         /* Enable CSD interrupt */
2632:Generated_Source\PSoC4/CapSense_SensingCSD_LL.c ****         CyIntEnable(CapSense_ISR_NUMBER);
 739              		.loc 1 2632 0
 740 0094 0E20     		mov	r0, #14
 741 0096 FFF7FEFF 		bl	CyIntEnable
 742              	.LVL66:
2633:Generated_Source\PSoC4/CapSense_SensingCSD_LL.c **** 
2634:Generated_Source\PSoC4/CapSense_SensingCSD_LL.c ****         #if (CapSense_ENABLE == CapSense_CSD_SHIELD_EN)
2635:Generated_Source\PSoC4/CapSense_SensingCSD_LL.c ****             CY_SET_REG32(CapSense_SW_SHIELD_SEL_PTR,    CapSense_DEFAULT_SW_SHIELD_SEL);
2636:Generated_Source\PSoC4/CapSense_SensingCSD_LL.c ****             CY_SET_REG32(CapSense_SW_HS_P_SEL_PTR, CapSense_SW_HS_P_SEL_SCAN);
2637:Generated_Source\PSoC4/CapSense_SensingCSD_LL.c ****             #if (CapSense_ENABLE == CapSense_CSD_SHIELD_TANK_EN)
2638:Generated_Source\PSoC4/CapSense_SensingCSD_LL.c ****                 CY_SET_REG32(CapSense_SW_HS_N_SEL_PTR, CapSense_SW_HS_N_SEL_SW_HCRH_STATIC_CLOSE);
2639:Generated_Source\PSoC4/CapSense_SensingCSD_LL.c **** 
2640:Generated_Source\PSoC4/CapSense_SensingCSD_LL.c ****                 /* Connect CTANK to AMUXBUS-B */
2641:Generated_Source\PSoC4/CapSense_SensingCSD_LL.c ****                 CapSense_SsCSDEnableShieldTank();
2642:Generated_Source\PSoC4/CapSense_SensingCSD_LL.c ****             #else
2643:Generated_Source\PSoC4/CapSense_SensingCSD_LL.c ****                 CY_SET_REG32(CapSense_SW_HS_N_SEL_PTR, CapSense_SW_HS_N_SEL_SW_HCRL_STATIC_CLOSE);
2644:Generated_Source\PSoC4/CapSense_SensingCSD_LL.c ****             #endif /* (CapSense_ENABLE == CapSense_CSD_SHIELD_TANK_EN) */
2645:Generated_Source\PSoC4/CapSense_SensingCSD_LL.c ****         #else
2646:Generated_Source\PSoC4/CapSense_SensingCSD_LL.c ****             CY_SET_REG32(CapSense_SW_SHIELD_SEL_PTR, 0x00000000uL);
 743              		.loc 1 2646 0
 744 009a 039B     		ldr	r3, [sp, #12]
2647:Generated_Source\PSoC4/CapSense_SensingCSD_LL.c ****             CY_SET_REG32(CapSense_SW_HS_P_SEL_PTR, CapSense_STATIC_OPEN);
2648:Generated_Source\PSoC4/CapSense_SensingCSD_LL.c ****             CY_SET_REG32(CapSense_SW_HS_N_SEL_PTR, CapSense_STATIC_OPEN);
2649:Generated_Source\PSoC4/CapSense_SensingCSD_LL.c ****         #endif /* (CapSense_ENABLE == CapSense_CSD_SHIELD_EN) */
2650:Generated_Source\PSoC4/CapSense_SensingCSD_LL.c **** 
2651:Generated_Source\PSoC4/CapSense_SensingCSD_LL.c ****         CY_SET_REG32(CapSense_SW_RES_PTR, CapSense_CSD_SW_RES_SCAN);
2652:Generated_Source\PSoC4/CapSense_SensingCSD_LL.c **** 
2653:Generated_Source\PSoC4/CapSense_SensingCSD_LL.c ****         #if (CapSense_ENABLE == CapSense_CSD_AUTO_ZERO_EN)
2654:Generated_Source\PSoC4/CapSense_SensingCSD_LL.c ****             /* Enable CSDCMP */
2655:Generated_Source\PSoC4/CapSense_SensingCSD_LL.c ****             CY_SET_REG32(CapSense_CSDCMP_PTR, CapSense_CSDCMP_CSDCMP_EN_MASK |
2656:Generated_Source\PSoC4/CapSense_SensingCSD_LL.c ****                                                       CapSense_CSDCMP_AZ_EN_MASK);
ARM GAS  C:\Users\Jerry\AppData\Local\Temp\cc2mbs0O.s 			page 62


2657:Generated_Source\PSoC4/CapSense_SensingCSD_LL.c ****         #else
2658:Generated_Source\PSoC4/CapSense_SensingCSD_LL.c ****             /* Enable CSDCMP */
2659:Generated_Source\PSoC4/CapSense_SensingCSD_LL.c ****             CY_SET_REG32(CapSense_CSDCMP_PTR, CapSense_CSDCMP_CSDCMP_EN_MASK);
 745              		.loc 1 2659 0
 746 009c 0122     		mov	r2, #1
2646:Generated_Source\PSoC4/CapSense_SensingCSD_LL.c ****             CY_SET_REG32(CapSense_SW_HS_P_SEL_PTR, CapSense_STATIC_OPEN);
 747              		.loc 1 2646 0
 748 009e 1D60     		str	r5, [r3]
2647:Generated_Source\PSoC4/CapSense_SensingCSD_LL.c ****             CY_SET_REG32(CapSense_SW_HS_P_SEL_PTR, CapSense_STATIC_OPEN);
 749              		.loc 1 2647 0
 750 00a0 049B     		ldr	r3, [sp, #16]
2660:Generated_Source\PSoC4/CapSense_SensingCSD_LL.c ****         #endif /* (CapSense_ENABLE == CapSense_CSD_AUTO_ZERO_EN) */
2661:Generated_Source\PSoC4/CapSense_SensingCSD_LL.c **** 
2662:Generated_Source\PSoC4/CapSense_SensingCSD_LL.c ****         #if ((CapSense_ENABLE == CapSense_CSD_SHIELD_EN) && \
2663:Generated_Source\PSoC4/CapSense_SensingCSD_LL.c ****              (CapSense_2000_MV <= CapSense_CYDEV_VDDA_MV))
2664:Generated_Source\PSoC4/CapSense_SensingCSD_LL.c ****                 /*  Connect Vrefhi to AMUBUF positive input. Connect AMUBUF output to CSDBUSB with 
2665:Generated_Source\PSoC4/CapSense_SensingCSD_LL.c ****                 CY_SET_REG32(CapSense_SW_AMUXBUF_SEL_PTR, CapSense_SW_AMUXBUF_SEL_SW_IRH_STATIC_CLO
2666:Generated_Source\PSoC4/CapSense_SensingCSD_LL.c ****                                                                   CapSense_SW_AMUXBUF_SEL_SW_ICB_PH
2667:Generated_Source\PSoC4/CapSense_SensingCSD_LL.c ****         #endif /* ((CapSense_ENABLE == CapSense_CSD_SHIELD_EN) && \
2668:Generated_Source\PSoC4/CapSense_SensingCSD_LL.c ****                    (CapSense_2000_MV <= CapSense_CYDEV_VDDA_MV)) */
2669:Generated_Source\PSoC4/CapSense_SensingCSD_LL.c **** 
2670:Generated_Source\PSoC4/CapSense_SensingCSD_LL.c ****         #if (CapSense_DISABLE == CapSense_CSD_SHIELD_EN)
2671:Generated_Source\PSoC4/CapSense_SensingCSD_LL.c ****             /* Disable HSCOMP during the sampling phase when shield is disabled */
2672:Generated_Source\PSoC4/CapSense_SensingCSD_LL.c ****             CY_SET_REG32(CapSense_HSCMP_PTR, 0u);
2673:Generated_Source\PSoC4/CapSense_SensingCSD_LL.c ****         #else
2674:Generated_Source\PSoC4/CapSense_SensingCSD_LL.c ****             CY_SET_REG32(CapSense_HSCMP_PTR, CapSense_HSCMP_SCAN_MASK);
2675:Generated_Source\PSoC4/CapSense_SensingCSD_LL.c ****         #endif /* (CapSense_DISABLE == CapSense_CSD_SHIELD_EN) */
2676:Generated_Source\PSoC4/CapSense_SensingCSD_LL.c **** 
2677:Generated_Source\PSoC4/CapSense_SensingCSD_LL.c ****         #if (CapSense_CLK_SOURCE_DIRECT != CapSense_CSD_SNS_CLK_SOURCE)
2678:Generated_Source\PSoC4/CapSense_SensingCSD_LL.c ****             /*  Force the LFSR to it's initial state (all ones) */
2679:Generated_Source\PSoC4/CapSense_SensingCSD_LL.c ****             CY_SET_REG32(CapSense_SENSE_PERIOD_PTR, CY_GET_REG32(CapSense_SENSE_PERIOD_PTR) |
 751              		.loc 1 2679 0
 752 00a2 8021     		mov	r1, #128
2647:Generated_Source\PSoC4/CapSense_SensingCSD_LL.c ****             CY_SET_REG32(CapSense_SW_HS_N_SEL_PTR, CapSense_STATIC_OPEN);
 753              		.loc 1 2647 0
 754 00a4 1D60     		str	r5, [r3]
2648:Generated_Source\PSoC4/CapSense_SensingCSD_LL.c ****         #endif /* (CapSense_ENABLE == CapSense_CSD_SHIELD_EN) */
 755              		.loc 1 2648 0
 756 00a6 059B     		ldr	r3, [sp, #20]
 757              		.loc 1 2679 0
 758 00a8 4904     		lsl	r1, r1, #17
2648:Generated_Source\PSoC4/CapSense_SensingCSD_LL.c ****         #endif /* (CapSense_ENABLE == CapSense_CSD_SHIELD_EN) */
 759              		.loc 1 2648 0
 760 00aa 1D60     		str	r5, [r3]
2651:Generated_Source\PSoC4/CapSense_SensingCSD_LL.c **** 
 761              		.loc 1 2651 0
 762 00ac 5023     		mov	r3, #80
 763 00ae 2360     		str	r3, [r4]
2659:Generated_Source\PSoC4/CapSense_SensingCSD_LL.c ****         #endif /* (CapSense_ENABLE == CapSense_CSD_AUTO_ZERO_EN) */
 764              		.loc 1 2659 0
 765 00b0 154B     		ldr	r3, .L45+40
 766 00b2 1A60     		str	r2, [r3]
2672:Generated_Source\PSoC4/CapSense_SensingCSD_LL.c ****         #else
 767              		.loc 1 2672 0
 768 00b4 019B     		ldr	r3, [sp, #4]
 769              		.loc 1 2679 0
 770 00b6 154A     		ldr	r2, .L45+44
ARM GAS  C:\Users\Jerry\AppData\Local\Temp\cc2mbs0O.s 			page 63


2672:Generated_Source\PSoC4/CapSense_SensingCSD_LL.c ****         #else
 771              		.loc 1 2672 0
 772 00b8 1D60     		str	r5, [r3]
 773              		.loc 1 2679 0
 774 00ba 1368     		ldr	r3, [r2]
 775 00bc 0B43     		orr	r3, r1
 776 00be 1360     		str	r3, [r2]
2680:Generated_Source\PSoC4/CapSense_SensingCSD_LL.c ****                                                            CapSense_SENSE_PERIOD_LFSR_CLEAR_MASK);
2681:Generated_Source\PSoC4/CapSense_SensingCSD_LL.c ****         #endif /* (CapSense_CLK_SOURCE_DIRECT != CapSense_CSD_SNS_CLK_SOURCE) */
2682:Generated_Source\PSoC4/CapSense_SensingCSD_LL.c **** 
2683:Generated_Source\PSoC4/CapSense_SensingCSD_LL.c ****         /* Enable SAMPLE interrupt */
2684:Generated_Source\PSoC4/CapSense_SensingCSD_LL.c ****         CY_SET_REG32(CapSense_INTR_MASK_PTR, CapSense_INTR_MASK_SAMPLE_MASK);
 777              		.loc 1 2684 0
 778 00c0 0223     		mov	r3, #2
 779 00c2 3360     		str	r3, [r6]
 780              	.LVL67:
 781 00c4 E223     		mov	r3, #226
 782 00c6 FF33     		add	r3, r3, #255
 783              	.LVL68:
 784              	.L41:
2685:Generated_Source\PSoC4/CapSense_SensingCSD_LL.c **** 
2686:Generated_Source\PSoC4/CapSense_SensingCSD_LL.c ****         /* Init Watchdog Counter to prevent a hang */
2687:Generated_Source\PSoC4/CapSense_SensingCSD_LL.c ****         watchdogCounter = CapSense_SOFTWARE_WDT_CYCLES_NUM;
2688:Generated_Source\PSoC4/CapSense_SensingCSD_LL.c **** 
2689:Generated_Source\PSoC4/CapSense_SensingCSD_LL.c ****         /* Wait for IDLE state of the CSDv2 HW sequencer */
2690:Generated_Source\PSoC4/CapSense_SensingCSD_LL.c ****         while((0u != (CY_GET_REG32(CapSense_STAT_SEQ_PTR) & CapSense_STAT_SEQ_SEQ_STATE_MASK)) && (
 785              		.loc 1 2690 0
 786 00c8 114A     		ldr	r2, .L45+48
 787 00ca 1268     		ldr	r2, [r2]
 788 00cc 5207     		lsl	r2, r2, #29
 789 00ce 02D0     		beq	.L40
 790 00d0 013B     		sub	r3, r3, #1
 791              	.LVL69:
 792 00d2 002B     		cmp	r3, #0
 793 00d4 F8D1     		bne	.L41
 794              	.LVL70:
 795              	.L40:
2691:Generated_Source\PSoC4/CapSense_SensingCSD_LL.c ****         {
2692:Generated_Source\PSoC4/CapSense_SensingCSD_LL.c ****             watchdogCounter--;
2693:Generated_Source\PSoC4/CapSense_SensingCSD_LL.c ****         }
2694:Generated_Source\PSoC4/CapSense_SensingCSD_LL.c **** 
2695:Generated_Source\PSoC4/CapSense_SensingCSD_LL.c ****         /* Start SEQUENCER for fine initialization scan for Cmod and then for normal scan */
2696:Generated_Source\PSoC4/CapSense_SensingCSD_LL.c ****         CY_SET_REG32(CapSense_SEQ_START_PTR, CapSense_SEQ_START_AZ0_SKIP_MASK |
 796              		.loc 1 2696 0
 797 00d6 0F4B     		ldr	r3, .L45+52
 798 00d8 3B60     		str	r3, [r7]
 799              	.LBE23:
 800              	.LBE25:
1404:Generated_Source\PSoC4/CapSense_SensingCSD_LL.c **** 
 801              		.loc 1 1404 0
 802 00da 07B0     		add	sp, sp, #28
 803              		@ sp needed
 804 00dc F0BD     		pop	{r4, r5, r6, r7, pc}
 805              	.L46:
 806 00de C046     		.align	2
 807              	.L45:
 808 00e0 80010C40 		.word	1074528640
ARM GAS  C:\Users\Jerry\AppData\Local\Temp\cc2mbs0O.s 			page 64


 809 00e4 B0020C40 		.word	1074528944
 810 00e8 B4020C40 		.word	1074528948
 811 00ec 88020C40 		.word	1074528904
 812 00f0 80020C40 		.word	1074528896
 813 00f4 84020C40 		.word	1074528900
 814 00f8 F0010C40 		.word	1074528752
 815 00fc F0000C40 		.word	1074528496
 816 0100 F8000C40 		.word	1074528504
 817 0104 40030C40 		.word	1074529088
 818 0108 8C010C40 		.word	1074528652
 819 010c 00020C40 		.word	1074528768
 820 0110 00000C40 		.word	1074528256
 821 0114 01030000 		.word	769
 822              		.cfi_endproc
 823              	.LFE12:
 824              		.size	CapSense_SsCSDStartSample, .-CapSense_SsCSDStartSample
 825              		.section	.text.CapSense_CSDScanExt,"ax",%progbits
 826              		.align	1
 827              		.global	CapSense_CSDScanExt
 828              		.code	16
 829              		.thumb_func
 830              		.type	CapSense_CSDScanExt, %function
 831              	CapSense_CSDScanExt:
 832              	.LFB13:
1449:Generated_Source\PSoC4/CapSense_SensingCSD_LL.c ****     /* Set Start of sensor scan flag */
 833              		.loc 1 1449 0
 834              		.cfi_startproc
 835 0000 08B5     		push	{r3, lr}
 836              		.cfi_def_cfa_offset 8
 837              		.cfi_offset 3, -8
 838              		.cfi_offset 14, -4
1451:Generated_Source\PSoC4/CapSense_SensingCSD_LL.c **** 
 839              		.loc 1 1451 0
 840 0002 044A     		ldr	r2, .L48
 841 0004 044B     		ldr	r3, .L48+4
 842 0006 9168     		ldr	r1, [r2, #8]
1454:Generated_Source\PSoC4/CapSense_SensingCSD_LL.c **** 
 843              		.loc 1 1454 0
 844              		@ sp needed
1451:Generated_Source\PSoC4/CapSense_SensingCSD_LL.c **** 
 845              		.loc 1 1451 0
 846 0008 0B43     		orr	r3, r1
 847 000a 9360     		str	r3, [r2, #8]
1453:Generated_Source\PSoC4/CapSense_SensingCSD_LL.c **** }
 848              		.loc 1 1453 0
 849 000c FFF7FEFF 		bl	CapSense_SsCSDStartSample
 850              	.LVL71:
1454:Generated_Source\PSoC4/CapSense_SensingCSD_LL.c **** 
 851              		.loc 1 1454 0
 852 0010 08BD     		pop	{r3, pc}
 853              	.L49:
 854 0012 C046     		.align	2
 855              	.L48:
 856 0014 00000000 		.word	CapSense_dsRam
 857 0018 80000100 		.word	65664
 858              		.cfi_endproc
 859              	.LFE13:
ARM GAS  C:\Users\Jerry\AppData\Local\Temp\cc2mbs0O.s 			page 65


 860              		.size	CapSense_CSDScanExt, .-CapSense_CSDScanExt
 861              		.section	.text.CapSense_CSDConnectSns,"ax",%progbits
 862              		.align	1
 863              		.global	CapSense_CSDConnectSns
 864              		.code	16
 865              		.thumb_func
 866              		.type	CapSense_CSDConnectSns, %function
 867              	CapSense_CSDConnectSns:
 868              	.LFB17:
1698:Generated_Source\PSoC4/CapSense_SensingCSD_LL.c ****     uint32 newRegisterValue;
 869              		.loc 1 1698 0
 870              		.cfi_startproc
 871              	.LVL72:
 872 0000 F8B5     		push	{r3, r4, r5, r6, r7, lr}
 873              		.cfi_def_cfa_offset 24
 874              		.cfi_offset 3, -24
 875              		.cfi_offset 4, -20
 876              		.cfi_offset 5, -16
 877              		.cfi_offset 6, -12
 878              		.cfi_offset 7, -8
 879              		.cfi_offset 14, -4
1698:Generated_Source\PSoC4/CapSense_SensingCSD_LL.c ****     uint32 newRegisterValue;
 880              		.loc 1 1698 0
 881 0002 041C     		mov	r4, r0
1706:Generated_Source\PSoC4/CapSense_SensingCSD_LL.c **** 
 882              		.loc 1 1706 0
 883 0004 077E     		ldrb	r7, [r0, #24]
1705:Generated_Source\PSoC4/CapSense_SensingCSD_LL.c ****     pinHSIOMShift = (uint32)snsAddrPtr->hsiomShift;
 884              		.loc 1 1705 0
 885 0006 857E     		ldrb	r5, [r0, #26]
 886              	.LVL73:
1708:Generated_Source\PSoC4/CapSense_SensingCSD_LL.c **** 
 887              		.loc 1 1708 0
 888 0008 FFF7FEFF 		bl	CyEnterCriticalSection
 889              	.LVL74:
1712:Generated_Source\PSoC4/CapSense_SensingCSD_LL.c ****     newRegisterValue |= (uint32)((uint32)CapSense_HSIOM_SEL_CSD_SENSE << pinHSIOMShift);
 890              		.loc 1 1712 0
 891 000c 0F22     		mov	r2, #15
 892 000e BA40     		lsl	r2, r2, r7
1711:Generated_Source\PSoC4/CapSense_SensingCSD_LL.c ****     newRegisterValue &= ~(CapSense_HSIOM_SEL_MASK << pinHSIOMShift);
 893              		.loc 1 1711 0
 894 0010 2668     		ldr	r6, [r4]
1716:Generated_Source\PSoC4/CapSense_SensingCSD_LL.c **** 
 895              		.loc 1 1716 0
 896 0012 0721     		mov	r1, #7
1711:Generated_Source\PSoC4/CapSense_SensingCSD_LL.c ****     newRegisterValue &= ~(CapSense_HSIOM_SEL_MASK << pinHSIOMShift);
 897              		.loc 1 1711 0
 898 0014 3368     		ldr	r3, [r6]
 899              	.LVL75:
1716:Generated_Source\PSoC4/CapSense_SensingCSD_LL.c **** 
 900              		.loc 1 1716 0
 901 0016 A940     		lsl	r1, r1, r5
1712:Generated_Source\PSoC4/CapSense_SensingCSD_LL.c ****     newRegisterValue |= (uint32)((uint32)CapSense_HSIOM_SEL_CSD_SENSE << pinHSIOMShift);
 902              		.loc 1 1712 0
 903 0018 9343     		bic	r3, r2
 904              	.LVL76:
1713:Generated_Source\PSoC4/CapSense_SensingCSD_LL.c **** 
ARM GAS  C:\Users\Jerry\AppData\Local\Temp\cc2mbs0O.s 			page 66


 905              		.loc 1 1713 0
 906 001a 0422     		mov	r2, #4
 907 001c BA40     		lsl	r2, r2, r7
1716:Generated_Source\PSoC4/CapSense_SensingCSD_LL.c **** 
 908              		.loc 1 1716 0
 909 001e 6468     		ldr	r4, [r4, #4]
 910              	.LVL77:
1713:Generated_Source\PSoC4/CapSense_SensingCSD_LL.c **** 
 911              		.loc 1 1713 0
 912 0020 1343     		orr	r3, r2
 913              	.LVL78:
1716:Generated_Source\PSoC4/CapSense_SensingCSD_LL.c **** 
 914              		.loc 1 1716 0
 915 0022 2268     		ldr	r2, [r4]
1722:Generated_Source\PSoC4/CapSense_SensingCSD_LL.c **** 
 916              		.loc 1 1722 0
 917              		@ sp needed
1716:Generated_Source\PSoC4/CapSense_SensingCSD_LL.c **** 
 918              		.loc 1 1716 0
 919 0024 8A43     		bic	r2, r1
 920 0026 2260     		str	r2, [r4]
1719:Generated_Source\PSoC4/CapSense_SensingCSD_LL.c **** 
 921              		.loc 1 1719 0
 922 0028 3360     		str	r3, [r6]
1721:Generated_Source\PSoC4/CapSense_SensingCSD_LL.c **** }
 923              		.loc 1 1721 0
 924 002a FFF7FEFF 		bl	CyExitCriticalSection
 925              	.LVL79:
 926              	.LVL80:
 927              	.LVL81:
1722:Generated_Source\PSoC4/CapSense_SensingCSD_LL.c **** 
 928              		.loc 1 1722 0
 929 002e F8BD     		pop	{r3, r4, r5, r6, r7, pc}
 930              		.cfi_endproc
 931              	.LFE17:
 932              		.size	CapSense_CSDConnectSns, .-CapSense_CSDConnectSns
 933              		.section	.text.CapSense_CSDScan,"ax",%progbits
 934              		.align	1
 935              		.global	CapSense_CSDScan
 936              		.code	16
 937              		.thumb_func
 938              		.type	CapSense_CSDScan, %function
 939              	CapSense_CSDScan:
 940              	.LFB14:
1488:Generated_Source\PSoC4/CapSense_SensingCSD_LL.c ****     CapSense_RAM_WD_BASE_STRUCT const *ptrWdgt = (CapSense_RAM_WD_BASE_STRUCT *)
 941              		.loc 1 1488 0
 942              		.cfi_startproc
 943 0000 70B5     		push	{r4, r5, r6, lr}
 944              		.cfi_def_cfa_offset 16
 945              		.cfi_offset 4, -16
 946              		.cfi_offset 5, -12
 947              		.cfi_offset 6, -8
 948              		.cfi_offset 14, -4
1490:Generated_Source\PSoC4/CapSense_SensingCSD_LL.c **** 
 949              		.loc 1 1490 0
 950 0002 134E     		ldr	r6, .L52
1489:Generated_Source\PSoC4/CapSense_SensingCSD_LL.c ****                                                     CapSense_dsFlash.wdgtArray[CapSense_widgetIndex
ARM GAS  C:\Users\Jerry\AppData\Local\Temp\cc2mbs0O.s 			page 67


 951              		.loc 1 1489 0
 952 0004 134C     		ldr	r4, .L52+4
1490:Generated_Source\PSoC4/CapSense_SensingCSD_LL.c **** 
 953              		.loc 1 1490 0
 954 0006 3378     		ldrb	r3, [r6]
1496:Generated_Source\PSoC4/CapSense_SensingCSD_LL.c **** 
 955              		.loc 1 1496 0
 956 0008 134D     		ldr	r5, .L52+8
1489:Generated_Source\PSoC4/CapSense_SensingCSD_LL.c ****                                                     CapSense_dsFlash.wdgtArray[CapSense_widgetIndex
 957              		.loc 1 1489 0
 958 000a 5B01     		lsl	r3, r3, #5
 959 000c E318     		add	r3, r4, r3
 960 000e 5868     		ldr	r0, [r3, #4]
 961              	.LVL82:
1496:Generated_Source\PSoC4/CapSense_SensingCSD_LL.c **** 
 962              		.loc 1 1496 0
 963 0010 0023     		mov	r3, #0
 964 0012 2B70     		strb	r3, [r5]
1500:Generated_Source\PSoC4/CapSense_SensingCSD_LL.c ****                                               + CapSense_sensorIndex;
 965              		.loc 1 1500 0
 966 0014 3278     		ldrb	r2, [r6]
1501:Generated_Source\PSoC4/CapSense_SensingCSD_LL.c **** 
 967              		.loc 1 1501 0
 968 0016 2978     		ldrb	r1, [r5]
 969 0018 0A33     		add	r3, r3, #10
 970 001a 4B43     		mul	r3, r1
1500:Generated_Source\PSoC4/CapSense_SensingCSD_LL.c ****                                               + CapSense_sensorIndex;
 971              		.loc 1 1500 0
 972 001c 5201     		lsl	r2, r2, #5
 973 001e A218     		add	r2, r4, r2
1501:Generated_Source\PSoC4/CapSense_SensingCSD_LL.c **** 
 974              		.loc 1 1501 0
 975 0020 9268     		ldr	r2, [r2, #8]
1536:Generated_Source\PSoC4/CapSense_SensingCSD_LL.c **** 
 976              		.loc 1 1536 0
 977              		@ sp needed
1501:Generated_Source\PSoC4/CapSense_SensingCSD_LL.c **** 
 978              		.loc 1 1501 0
 979 0022 D318     		add	r3, r2, r3
1499:Generated_Source\PSoC4/CapSense_SensingCSD_LL.c ****                                               CapSense_dsFlash.wdgtArray[CapSense_widgetIndex].ptr2
 980              		.loc 1 1499 0
 981 0024 0D4A     		ldr	r2, .L52+12
 982 0026 1360     		str	r3, [r2]
1504:Generated_Source\PSoC4/CapSense_SensingCSD_LL.c **** 
 983              		.loc 1 1504 0
 984 0028 FFF7FEFF 		bl	CapSense_SsCSDSetUpIdacs
 985              	.LVL83:
1525:Generated_Source\PSoC4/CapSense_SensingCSD_LL.c **** 
 986              		.loc 1 1525 0
 987 002c 1C23     		mov	r3, #28
1523:Generated_Source\PSoC4/CapSense_SensingCSD_LL.c ****                                         CapSense_dsFlash.wdgtArray[CapSense_widgetIndex].ptr2SnsFla
 988              		.loc 1 1523 0
 989 002e 3278     		ldrb	r2, [r6]
1525:Generated_Source\PSoC4/CapSense_SensingCSD_LL.c **** 
 990              		.loc 1 1525 0
 991 0030 2878     		ldrb	r0, [r5]
1524:Generated_Source\PSoC4/CapSense_SensingCSD_LL.c ****                                         + CapSense_sensorIndex;
ARM GAS  C:\Users\Jerry\AppData\Local\Temp\cc2mbs0O.s 			page 68


 992              		.loc 1 1524 0
 993 0032 5201     		lsl	r2, r2, #5
1525:Generated_Source\PSoC4/CapSense_SensingCSD_LL.c **** 
 994              		.loc 1 1525 0
 995 0034 5843     		mul	r0, r3
 996 0036 1359     		ldr	r3, [r2, r4]
 997 0038 1818     		add	r0, r3, r0
1523:Generated_Source\PSoC4/CapSense_SensingCSD_LL.c ****                                         CapSense_dsFlash.wdgtArray[CapSense_widgetIndex].ptr2SnsFla
 998              		.loc 1 1523 0
 999 003a 094B     		ldr	r3, .L52+16
 1000 003c 1860     		str	r0, [r3]
1528:Generated_Source\PSoC4/CapSense_SensingCSD_LL.c **** 
 1001              		.loc 1 1528 0
 1002 003e FFF7FEFF 		bl	CapSense_CSDConnectSns
 1003              	.LVL84:
1531:Generated_Source\PSoC4/CapSense_SensingCSD_LL.c ****     #endif /* (CapSense_ENABLE == CapSense_CSD_GANGED_SNS_EN)  */
 1004              		.loc 1 1531 0
 1005 0042 0848     		ldr	r0, .L52+20
 1006 0044 FFF7FEFF 		bl	CapSense_ISR_StartEx
 1007              	.LVL85:
1535:Generated_Source\PSoC4/CapSense_SensingCSD_LL.c **** }
 1008              		.loc 1 1535 0
 1009 0048 FFF7FEFF 		bl	CapSense_CSDScanExt
 1010              	.LVL86:
1536:Generated_Source\PSoC4/CapSense_SensingCSD_LL.c **** 
 1011              		.loc 1 1536 0
 1012 004c 70BD     		pop	{r4, r5, r6, pc}
 1013              	.L53:
 1014 004e C046     		.align	2
 1015              	.L52:
 1016 0050 00000000 		.word	CapSense_widgetIndex
 1017 0054 00000000 		.word	CapSense_dsFlash
 1018 0058 00000000 		.word	CapSense_sensorIndex
 1019 005c 00000000 		.word	CapSense_curRamSnsPtr
 1020 0060 00000000 		.word	CapSense_curSnsIOPtr
 1021 0064 00000000 		.word	CapSense_CSDPostMultiScan
 1022              		.cfi_endproc
 1023              	.LFE14:
 1024              		.size	CapSense_CSDScan, .-CapSense_CSDScan
 1025              		.section	.text.CapSense_SsCSDConnectSensorExt,"ax",%progbits
 1026              		.align	1
 1027              		.global	CapSense_SsCSDConnectSensorExt
 1028              		.code	16
 1029              		.thumb_func
 1030              		.type	CapSense_SsCSDConnectSensorExt, %function
 1031              	CapSense_SsCSDConnectSensorExt:
 1032              	.LFB15:
1557:Generated_Source\PSoC4/CapSense_SensingCSD_LL.c ****     #if (CapSense_ENABLE == CapSense_CSD_GANGED_SNS_EN)
 1033              		.loc 1 1557 0
 1034              		.cfi_startproc
 1035              	.LVL87:
 1036 0000 08B5     		push	{r3, lr}
 1037              		.cfi_def_cfa_offset 8
 1038              		.cfi_offset 3, -8
 1039              		.cfi_offset 14, -4
1565:Generated_Source\PSoC4/CapSense_SensingCSD_LL.c **** 
 1040              		.loc 1 1565 0
ARM GAS  C:\Users\Jerry\AppData\Local\Temp\cc2mbs0O.s 			page 69


 1041 0002 1C23     		mov	r3, #28
 1042 0004 5943     		mul	r1, r3
 1043              	.LVL88:
 1044 0006 044B     		ldr	r3, .L55
1564:Generated_Source\PSoC4/CapSense_SensingCSD_LL.c ****                                                       + sensorIndex;
 1045              		.loc 1 1564 0
 1046 0008 4201     		lsl	r2, r0, #5
1565:Generated_Source\PSoC4/CapSense_SensingCSD_LL.c **** 
 1047              		.loc 1 1565 0
 1048 000a D058     		ldr	r0, [r2, r3]
 1049              	.LVL89:
1563:Generated_Source\PSoC4/CapSense_SensingCSD_LL.c ****                                                       CapSense_dsFlash.wdgtArray[wdgtIndex].ptr2Sns
 1050              		.loc 1 1563 0
 1051 000c 034B     		ldr	r3, .L55+4
1565:Generated_Source\PSoC4/CapSense_SensingCSD_LL.c **** 
 1052              		.loc 1 1565 0
 1053 000e 4018     		add	r0, r0, r1
1563:Generated_Source\PSoC4/CapSense_SensingCSD_LL.c ****                                                       CapSense_dsFlash.wdgtArray[wdgtIndex].ptr2Sns
 1054              		.loc 1 1563 0
 1055 0010 1860     		str	r0, [r3]
1601:Generated_Source\PSoC4/CapSense_SensingCSD_LL.c **** 
 1056              		.loc 1 1601 0
 1057              		@ sp needed
1599:Generated_Source\PSoC4/CapSense_SensingCSD_LL.c ****     #endif /* (CapSense_ENABLE == CapSense_CSD_GANGED_SNS_EN) */
 1058              		.loc 1 1599 0
 1059 0012 FFF7FEFF 		bl	CapSense_CSDConnectSns
 1060              	.LVL90:
1601:Generated_Source\PSoC4/CapSense_SensingCSD_LL.c **** 
 1061              		.loc 1 1601 0
 1062 0016 08BD     		pop	{r3, pc}
 1063              	.L56:
 1064              		.align	2
 1065              	.L55:
 1066 0018 00000000 		.word	CapSense_dsFlash
 1067 001c 00000000 		.word	CapSense_curSnsIOPtr
 1068              		.cfi_endproc
 1069              	.LFE15:
 1070              		.size	CapSense_SsCSDConnectSensorExt, .-CapSense_SsCSDConnectSensorExt
 1071              		.section	.text.CapSense_CSDDisconnectSns,"ax",%progbits
 1072              		.align	1
 1073              		.global	CapSense_CSDDisconnectSns
 1074              		.code	16
 1075              		.thumb_func
 1076              		.type	CapSense_CSDDisconnectSns, %function
 1077              	CapSense_CSDDisconnectSns:
 1078              	.LFB18:
1750:Generated_Source\PSoC4/CapSense_SensingCSD_LL.c ****     uint32 pinHSIOMShift;
 1079              		.loc 1 1750 0
 1080              		.cfi_startproc
 1081              	.LVL91:
1767:Generated_Source\PSoC4/CapSense_SensingCSD_LL.c **** 
 1082              		.loc 1 1767 0
 1083 0000 0F22     		mov	r2, #15
1750:Generated_Source\PSoC4/CapSense_SensingCSD_LL.c ****     uint32 pinHSIOMShift;
 1084              		.loc 1 1750 0
 1085 0002 38B5     		push	{r3, r4, r5, lr}
 1086              		.cfi_def_cfa_offset 16
ARM GAS  C:\Users\Jerry\AppData\Local\Temp\cc2mbs0O.s 			page 70


 1087              		.cfi_offset 3, -16
 1088              		.cfi_offset 4, -12
 1089              		.cfi_offset 5, -8
 1090              		.cfi_offset 14, -4
1767:Generated_Source\PSoC4/CapSense_SensingCSD_LL.c **** 
 1091              		.loc 1 1767 0
 1092 0004 0168     		ldr	r1, [r0]
1762:Generated_Source\PSoC4/CapSense_SensingCSD_LL.c **** 
 1093              		.loc 1 1762 0
 1094 0006 857E     		ldrb	r5, [r0, #26]
 1095              	.LVL92:
1750:Generated_Source\PSoC4/CapSense_SensingCSD_LL.c ****     uint32 pinHSIOMShift;
 1096              		.loc 1 1750 0
 1097 0008 041C     		mov	r4, r0
1767:Generated_Source\PSoC4/CapSense_SensingCSD_LL.c **** 
 1098              		.loc 1 1767 0
 1099 000a 007E     		ldrb	r0, [r0, #24]
 1100              	.LVL93:
 1101 000c 0B68     		ldr	r3, [r1]
 1102 000e 8240     		lsl	r2, r2, r0
 1103 0010 9343     		bic	r3, r2
 1104 0012 0B60     		str	r3, [r1]
 1105              	.LVL94:
1769:Generated_Source\PSoC4/CapSense_SensingCSD_LL.c **** 
 1106              		.loc 1 1769 0
 1107 0014 FFF7FEFF 		bl	CyEnterCriticalSection
 1108              	.LVL95:
1773:Generated_Source\PSoC4/CapSense_SensingCSD_LL.c ****         newRegisterValue |= CapSense_CSD_INACTIVE_SNS_CONNECTION << pinModeShift;
 1109              		.loc 1 1773 0
 1110 0018 0722     		mov	r2, #7
 1111 001a AA40     		lsl	r2, r2, r5
1772:Generated_Source\PSoC4/CapSense_SensingCSD_LL.c ****         newRegisterValue &= ~(CapSense_GPIO_PC_MASK << pinModeShift);
 1112              		.loc 1 1772 0
 1113 001c 6168     		ldr	r1, [r4, #4]
1791:Generated_Source\PSoC4/CapSense_SensingCSD_LL.c **** 
 1114              		.loc 1 1791 0
 1115              		@ sp needed
1772:Generated_Source\PSoC4/CapSense_SensingCSD_LL.c ****         newRegisterValue &= ~(CapSense_GPIO_PC_MASK << pinModeShift);
 1116              		.loc 1 1772 0
 1117 001e 0B68     		ldr	r3, [r1]
 1118              	.LVL96:
1773:Generated_Source\PSoC4/CapSense_SensingCSD_LL.c ****         newRegisterValue |= CapSense_CSD_INACTIVE_SNS_CONNECTION << pinModeShift;
 1119              		.loc 1 1773 0
 1120 0020 9343     		bic	r3, r2
 1121              	.LVL97:
1774:Generated_Source\PSoC4/CapSense_SensingCSD_LL.c ****         CY_SET_REG32(snsAddrPtr->pcPtr, newRegisterValue);
 1122              		.loc 1 1774 0
 1123 0022 0622     		mov	r2, #6
 1124 0024 AA40     		lsl	r2, r2, r5
 1125 0026 1343     		orr	r3, r2
 1126              	.LVL98:
1775:Generated_Source\PSoC4/CapSense_SensingCSD_LL.c **** 
 1127              		.loc 1 1775 0
 1128 0028 0B60     		str	r3, [r1]
1777:Generated_Source\PSoC4/CapSense_SensingCSD_LL.c **** 
 1129              		.loc 1 1777 0
 1130 002a FFF7FEFF 		bl	CyExitCriticalSection
ARM GAS  C:\Users\Jerry\AppData\Local\Temp\cc2mbs0O.s 			page 71


 1131              	.LVL99:
1780:Generated_Source\PSoC4/CapSense_SensingCSD_LL.c ****     #else
 1132              		.loc 1 1780 0
 1133 002e 0122     		mov	r2, #1
 1134 0030 607E     		ldrb	r0, [r4, #25]
 1135 0032 A168     		ldr	r1, [r4, #8]
 1136 0034 8240     		lsl	r2, r2, r0
 1137 0036 0B68     		ldr	r3, [r1]
 1138 0038 9343     		bic	r3, r2
 1139 003a 0B60     		str	r3, [r1]
 1140              	.LVL100:
 1141              	.LVL101:
1791:Generated_Source\PSoC4/CapSense_SensingCSD_LL.c **** 
 1142              		.loc 1 1791 0
 1143 003c 38BD     		pop	{r3, r4, r5, pc}
 1144              		.cfi_endproc
 1145              	.LFE18:
 1146              		.size	CapSense_CSDDisconnectSns, .-CapSense_CSDDisconnectSns
 1147              		.section	.text.CapSense_SsCSDElectrodeCheck,"ax",%progbits
 1148              		.align	1
 1149              		.global	CapSense_SsCSDElectrodeCheck
 1150              		.code	16
 1151              		.thumb_func
 1152              		.type	CapSense_SsCSDElectrodeCheck, %function
 1153              	CapSense_SsCSDElectrodeCheck:
 1154              	.LFB5:
 751:Generated_Source\PSoC4/CapSense_SensingCSD_LL.c ****     #if (CapSense_ENABLE == CapSense_CSD_GANGED_SNS_EN)
 1155              		.loc 1 751 0
 1156              		.cfi_startproc
 1157 0000 10B5     		push	{r4, lr}
 1158              		.cfi_def_cfa_offset 8
 1159              		.cfi_offset 4, -8
 1160              		.cfi_offset 14, -4
 756:Generated_Source\PSoC4/CapSense_SensingCSD_LL.c ****     {
 1161              		.loc 1 756 0
 1162 0002 054C     		ldr	r4, .L60
 1163 0004 2378     		ldrb	r3, [r4]
 1164 0006 012B     		cmp	r3, #1
 1165 0008 05D1     		bne	.L58
 1166              	.LBB28:
 1167              	.LBB29:
 784:Generated_Source\PSoC4/CapSense_SensingCSD_LL.c ****         #endif /* (CapSense_ENABLE == CapSense_CSD_GANGED_SNS_EN)  */
 1168              		.loc 1 784 0
 1169 000a 044B     		ldr	r3, .L60+4
 1170 000c 1868     		ldr	r0, [r3]
 1171 000e FFF7FEFF 		bl	CapSense_CSDDisconnectSns
 1172              	.LVL102:
 787:Generated_Source\PSoC4/CapSense_SensingCSD_LL.c ****     }
 1173              		.loc 1 787 0
 1174 0012 0023     		mov	r3, #0
 1175 0014 2370     		strb	r3, [r4]
 1176              	.L58:
 1177              	.LBE29:
 1178              	.LBE28:
 789:Generated_Source\PSoC4/CapSense_SensingCSD_LL.c **** 
 1179              		.loc 1 789 0
 1180              		@ sp needed
ARM GAS  C:\Users\Jerry\AppData\Local\Temp\cc2mbs0O.s 			page 72


 1181 0016 10BD     		pop	{r4, pc}
 1182              	.L61:
 1183              		.align	2
 1184              	.L60:
 1185 0018 00000000 		.word	.LANCHOR1
 1186 001c 00000000 		.word	CapSense_curSnsIOPtr
 1187              		.cfi_endproc
 1188              	.LFE5:
 1189              		.size	CapSense_SsCSDElectrodeCheck, .-CapSense_SsCSDElectrodeCheck
 1190              		.section	.text.CapSense_CSDSetupWidget,"ax",%progbits
 1191              		.align	1
 1192              		.global	CapSense_CSDSetupWidget
 1193              		.code	16
 1194              		.thumb_func
 1195              		.type	CapSense_CSDSetupWidget, %function
 1196              	CapSense_CSDSetupWidget:
 1197              	.LFB10:
1199:Generated_Source\PSoC4/CapSense_SensingCSD_LL.c **** 
 1198              		.loc 1 1199 0
 1199              		.cfi_startproc
 1200              	.LVL103:
 1201 0000 70B5     		push	{r4, r5, r6, lr}
 1202              		.cfi_def_cfa_offset 16
 1203              		.cfi_offset 4, -16
 1204              		.cfi_offset 5, -12
 1205              		.cfi_offset 6, -8
 1206              		.cfi_offset 14, -4
1199:Generated_Source\PSoC4/CapSense_SensingCSD_LL.c **** 
 1207              		.loc 1 1199 0
 1208 0002 041C     		mov	r4, r0
1201:Generated_Source\PSoC4/CapSense_SensingCSD_LL.c ****                                                     CapSense_dsFlash.wdgtArray[wdgtIndex].ptr2WdgtR
 1209              		.loc 1 1201 0
 1210 0004 0D4E     		ldr	r6, .L63
 1211 0006 4301     		lsl	r3, r0, #5
 1212 0008 F318     		add	r3, r6, r3
 1213 000a 5D68     		ldr	r5, [r3, #4]
 1214              	.LVL104:
1213:Generated_Source\PSoC4/CapSense_SensingCSD_LL.c **** 
 1215              		.loc 1 1213 0
 1216 000c FFF7FEFF 		bl	CapSense_SsCSDElectrodeCheck
 1217              	.LVL105:
1216:Generated_Source\PSoC4/CapSense_SensingCSD_LL.c **** 
 1218              		.loc 1 1216 0
 1219 0010 0B4B     		ldr	r3, .L63+4
 1220 0012 E4B2     		uxtb	r4, r4
 1221              	.LVL106:
 1222 0014 1C70     		strb	r4, [r3]
1220:Generated_Source\PSoC4/CapSense_SensingCSD_LL.c **** 
 1223              		.loc 1 1220 0
 1224 0016 1A78     		ldrb	r2, [r3]
1234:Generated_Source\PSoC4/CapSense_SensingCSD_LL.c **** 
 1225              		.loc 1 1234 0
 1226              		@ sp needed
1220:Generated_Source\PSoC4/CapSense_SensingCSD_LL.c **** 
 1227              		.loc 1 1220 0
 1228 0018 5201     		lsl	r2, r2, #5
1219:Generated_Source\PSoC4/CapSense_SensingCSD_LL.c ****                                     CapSense_dsFlash.wdgtArray[CapSense_widgetIndex].ptr2SnsFlash;
ARM GAS  C:\Users\Jerry\AppData\Local\Temp\cc2mbs0O.s 			page 73


 1229              		.loc 1 1219 0
 1230 001a 9159     		ldr	r1, [r2, r6]
 1231 001c 094A     		ldr	r2, .L63+8
 1232 001e 1160     		str	r1, [r2]
1224:Generated_Source\PSoC4/CapSense_SensingCSD_LL.c **** 
 1233              		.loc 1 1224 0
 1234 0020 1978     		ldrb	r1, [r3]
1223:Generated_Source\PSoC4/CapSense_SensingCSD_LL.c ****     CapSense_dsRam.status |= CapSense_widgetIndex;
 1235              		.loc 1 1223 0
 1236 0022 7F23     		mov	r3, #127
1224:Generated_Source\PSoC4/CapSense_SensingCSD_LL.c **** 
 1237              		.loc 1 1224 0
 1238 0024 084A     		ldr	r2, .L63+12
1223:Generated_Source\PSoC4/CapSense_SensingCSD_LL.c ****     CapSense_dsRam.status |= CapSense_widgetIndex;
 1239              		.loc 1 1223 0
 1240 0026 9068     		ldr	r0, [r2, #8]
 1241 0028 9843     		bic	r0, r3
 1242 002a 031C     		mov	r3, r0
1227:Generated_Source\PSoC4/CapSense_SensingCSD_LL.c **** 
 1243              		.loc 1 1227 0
 1244 002c 281C     		mov	r0, r5
1224:Generated_Source\PSoC4/CapSense_SensingCSD_LL.c **** 
 1245              		.loc 1 1224 0
 1246 002e 0B43     		orr	r3, r1
 1247 0030 9360     		str	r3, [r2, #8]
1227:Generated_Source\PSoC4/CapSense_SensingCSD_LL.c **** 
 1248              		.loc 1 1227 0
 1249 0032 FFF7FEFF 		bl	CapSense_SsCSDCalculateScanDuration
 1250              	.LVL107:
1231:Generated_Source\PSoC4/CapSense_SensingCSD_LL.c ****     #endif /* ((CapSense_DISABLE == CapSense_CSD_COMMON_SNS_CLK_EN) ||\
 1251              		.loc 1 1231 0
 1252 0036 FFF7FEFF 		bl	CapSense_SsCSDConfigClock
 1253              	.LVL108:
 1254              	.LVL109:
 1255              	.LVL110:
1234:Generated_Source\PSoC4/CapSense_SensingCSD_LL.c **** 
 1256              		.loc 1 1234 0
 1257 003a 70BD     		pop	{r4, r5, r6, pc}
 1258              	.L64:
 1259              		.align	2
 1260              	.L63:
 1261 003c 00000000 		.word	CapSense_dsFlash
 1262 0040 00000000 		.word	CapSense_widgetIndex
 1263 0044 00000000 		.word	CapSense_curSnsIOPtr
 1264 0048 00000000 		.word	CapSense_dsRam
 1265              		.cfi_endproc
 1266              	.LFE10:
 1267              		.size	CapSense_CSDSetupWidget, .-CapSense_CSDSetupWidget
 1268              		.section	.text.CapSense_CSDSetupWidgetExt,"ax",%progbits
 1269              		.align	1
 1270              		.global	CapSense_CSDSetupWidgetExt
 1271              		.code	16
 1272              		.thumb_func
 1273              		.type	CapSense_CSDSetupWidgetExt, %function
 1274              	CapSense_CSDSetupWidgetExt:
 1275              	.LFB11:
1282:Generated_Source\PSoC4/CapSense_SensingCSD_LL.c ****     CapSense_RAM_WD_BASE_STRUCT const *ptrWdgt = (CapSense_RAM_WD_BASE_STRUCT *)
ARM GAS  C:\Users\Jerry\AppData\Local\Temp\cc2mbs0O.s 			page 74


 1276              		.loc 1 1282 0
 1277              		.cfi_startproc
 1278              	.LVL111:
1283:Generated_Source\PSoC4/CapSense_SensingCSD_LL.c ****                                                     CapSense_dsFlash.wdgtArray[wdgtIndex].ptr2WdgtR
 1279              		.loc 1 1283 0
 1280 0000 114A     		ldr	r2, .L66
1282:Generated_Source\PSoC4/CapSense_SensingCSD_LL.c ****     CapSense_RAM_WD_BASE_STRUCT const *ptrWdgt = (CapSense_RAM_WD_BASE_STRUCT *)
 1281              		.loc 1 1282 0
 1282 0002 38B5     		push	{r3, r4, r5, lr}
 1283              		.cfi_def_cfa_offset 16
 1284              		.cfi_offset 3, -16
 1285              		.cfi_offset 4, -12
 1286              		.cfi_offset 5, -8
 1287              		.cfi_offset 14, -4
1283:Generated_Source\PSoC4/CapSense_SensingCSD_LL.c ****                                                     CapSense_dsFlash.wdgtArray[wdgtIndex].ptr2WdgtR
 1288              		.loc 1 1283 0
 1289 0004 4301     		lsl	r3, r0, #5
 1290 0006 D218     		add	r2, r2, r3
1292:Generated_Source\PSoC4/CapSense_SensingCSD_LL.c **** 
 1291              		.loc 1 1292 0
 1292 0008 0A23     		mov	r3, #10
1287:Generated_Source\PSoC4/CapSense_SensingCSD_LL.c **** 
 1293              		.loc 1 1287 0
 1294 000a 104C     		ldr	r4, .L66+4
 1295 000c C9B2     		uxtb	r1, r1
 1296              	.LVL112:
 1297 000e 2170     		strb	r1, [r4]
1292:Generated_Source\PSoC4/CapSense_SensingCSD_LL.c **** 
 1298              		.loc 1 1292 0
 1299 0010 2178     		ldrb	r1, [r4]
1283:Generated_Source\PSoC4/CapSense_SensingCSD_LL.c ****                                                     CapSense_dsFlash.wdgtArray[wdgtIndex].ptr2WdgtR
 1300              		.loc 1 1283 0
 1301 0012 5568     		ldr	r5, [r2, #4]
 1302              	.LVL113:
1292:Generated_Source\PSoC4/CapSense_SensingCSD_LL.c **** 
 1303              		.loc 1 1292 0
 1304 0014 4B43     		mul	r3, r1
 1305 0016 9268     		ldr	r2, [r2, #8]
1323:Generated_Source\PSoC4/CapSense_SensingCSD_LL.c **** 
 1306              		.loc 1 1323 0
 1307              		@ sp needed
1292:Generated_Source\PSoC4/CapSense_SensingCSD_LL.c **** 
 1308              		.loc 1 1292 0
 1309 0018 D318     		add	r3, r2, r3
1290:Generated_Source\PSoC4/CapSense_SensingCSD_LL.c ****                                               CapSense_dsFlash.wdgtArray[wdgtIndex].ptr2SnsRam
 1310              		.loc 1 1290 0
 1311 001a 0D4A     		ldr	r2, .L66+8
 1312 001c 1360     		str	r3, [r2]
1294:Generated_Source\PSoC4/CapSense_SensingCSD_LL.c **** 
 1313              		.loc 1 1294 0
 1314 001e FFF7FEFF 		bl	CapSense_CSDSetupWidget
 1315              	.LVL114:
1297:Generated_Source\PSoC4/CapSense_SensingCSD_LL.c **** 
 1316              		.loc 1 1297 0
 1317 0022 281C     		mov	r0, r5
 1318 0024 FFF7FEFF 		bl	CapSense_SsCSDSetUpIdacs
 1319              	.LVL115:
ARM GAS  C:\Users\Jerry\AppData\Local\Temp\cc2mbs0O.s 			page 75


1308:Generated_Source\PSoC4/CapSense_SensingCSD_LL.c ****         CapSense_CSDConnectSns(CapSense_curSnsIOPtr);
 1320              		.loc 1 1308 0
 1321 0028 1C23     		mov	r3, #28
 1322 002a 2078     		ldrb	r0, [r4]
 1323 002c 094A     		ldr	r2, .L66+12
 1324 002e 5843     		mul	r0, r3
 1325 0030 1368     		ldr	r3, [r2]
 1326 0032 1818     		add	r0, r3, r0
 1327 0034 1060     		str	r0, [r2]
1309:Generated_Source\PSoC4/CapSense_SensingCSD_LL.c ****     #endif /* (CapSense_ENABLE == CapSense_CSD_GANGED_SNS_EN)  */
 1328              		.loc 1 1309 0
 1329 0036 FFF7FEFF 		bl	CapSense_CSDConnectSns
 1330              	.LVL116:
1319:Generated_Source\PSoC4/CapSense_SensingCSD_LL.c **** 
 1331              		.loc 1 1319 0
 1332 003a 0122     		mov	r2, #1
 1333 003c 064B     		ldr	r3, .L66+16
1322:Generated_Source\PSoC4/CapSense_SensingCSD_LL.c **** }
 1334              		.loc 1 1322 0
 1335 003e 0748     		ldr	r0, .L66+20
1319:Generated_Source\PSoC4/CapSense_SensingCSD_LL.c **** 
 1336              		.loc 1 1319 0
 1337 0040 1A70     		strb	r2, [r3]
1322:Generated_Source\PSoC4/CapSense_SensingCSD_LL.c **** }
 1338              		.loc 1 1322 0
 1339 0042 FFF7FEFF 		bl	CapSense_ISR_StartEx
 1340              	.LVL117:
 1341              	.LVL118:
1323:Generated_Source\PSoC4/CapSense_SensingCSD_LL.c **** 
 1342              		.loc 1 1323 0
 1343 0046 38BD     		pop	{r3, r4, r5, pc}
 1344              	.L67:
 1345              		.align	2
 1346              	.L66:
 1347 0048 00000000 		.word	CapSense_dsFlash
 1348 004c 00000000 		.word	CapSense_sensorIndex
 1349 0050 00000000 		.word	CapSense_curRamSnsPtr
 1350 0054 00000000 		.word	CapSense_curSnsIOPtr
 1351 0058 00000000 		.word	.LANCHOR1
 1352 005c 00000000 		.word	CapSense_CSDPostSingleScan
 1353              		.cfi_endproc
 1354              	.LFE11:
 1355              		.size	CapSense_CSDSetupWidgetExt, .-CapSense_CSDSetupWidgetExt
 1356              		.section	.text.CapSense_SsCSDDisconnectSnsExt,"ax",%progbits
 1357              		.align	1
 1358              		.global	CapSense_SsCSDDisconnectSnsExt
 1359              		.code	16
 1360              		.thumb_func
 1361              		.type	CapSense_SsCSDDisconnectSnsExt, %function
 1362              	CapSense_SsCSDDisconnectSnsExt:
 1363              	.LFB16:
1625:Generated_Source\PSoC4/CapSense_SensingCSD_LL.c ****     #if (CapSense_ENABLE == CapSense_CSD_GANGED_SNS_EN)
 1364              		.loc 1 1625 0
 1365              		.cfi_startproc
 1366              	.LVL119:
 1367 0000 08B5     		push	{r3, lr}
 1368              		.cfi_def_cfa_offset 8
ARM GAS  C:\Users\Jerry\AppData\Local\Temp\cc2mbs0O.s 			page 76


 1369              		.cfi_offset 3, -8
 1370              		.cfi_offset 14, -4
1633:Generated_Source\PSoC4/CapSense_SensingCSD_LL.c **** 
 1371              		.loc 1 1633 0
 1372 0002 1C23     		mov	r3, #28
 1373 0004 5943     		mul	r1, r3
 1374              	.LVL120:
 1375 0006 044B     		ldr	r3, .L69
1632:Generated_Source\PSoC4/CapSense_SensingCSD_LL.c ****                                                       + sensorIndex;
 1376              		.loc 1 1632 0
 1377 0008 4201     		lsl	r2, r0, #5
1633:Generated_Source\PSoC4/CapSense_SensingCSD_LL.c **** 
 1378              		.loc 1 1633 0
 1379 000a D058     		ldr	r0, [r2, r3]
 1380              	.LVL121:
1631:Generated_Source\PSoC4/CapSense_SensingCSD_LL.c ****                                                       CapSense_dsFlash.wdgtArray[wdgtIndex].ptr2Sns
 1381              		.loc 1 1631 0
 1382 000c 034B     		ldr	r3, .L69+4
1633:Generated_Source\PSoC4/CapSense_SensingCSD_LL.c **** 
 1383              		.loc 1 1633 0
 1384 000e 4018     		add	r0, r0, r1
1631:Generated_Source\PSoC4/CapSense_SensingCSD_LL.c ****                                                       CapSense_dsFlash.wdgtArray[wdgtIndex].ptr2Sns
 1385              		.loc 1 1631 0
 1386 0010 1860     		str	r0, [r3]
1668:Generated_Source\PSoC4/CapSense_SensingCSD_LL.c **** 
 1387              		.loc 1 1668 0
 1388              		@ sp needed
1666:Generated_Source\PSoC4/CapSense_SensingCSD_LL.c ****     #endif /* (CapSense_ENABLE == CapSense_CSD_GANGED_SNS_EN) */
 1389              		.loc 1 1666 0
 1390 0012 FFF7FEFF 		bl	CapSense_CSDDisconnectSns
 1391              	.LVL122:
1668:Generated_Source\PSoC4/CapSense_SensingCSD_LL.c **** 
 1392              		.loc 1 1668 0
 1393 0016 08BD     		pop	{r3, pc}
 1394              	.L70:
 1395              		.align	2
 1396              	.L69:
 1397 0018 00000000 		.word	CapSense_dsFlash
 1398 001c 00000000 		.word	CapSense_curSnsIOPtr
 1399              		.cfi_endproc
 1400              	.LFE16:
 1401              		.size	CapSense_SsCSDDisconnectSnsExt, .-CapSense_SsCSDDisconnectSnsExt
 1402              		.section	.text.CapSense_SsCSDSetSingleIdacMode,"ax",%progbits
 1403              		.align	1
 1404              		.global	CapSense_SsCSDSetSingleIdacMode
 1405              		.code	16
 1406              		.thumb_func
 1407              		.type	CapSense_SsCSDSetSingleIdacMode, %function
 1408              	CapSense_SsCSDSetSingleIdacMode:
 1409              	.LFB19:
1810:Generated_Source\PSoC4/CapSense_SensingCSD_LL.c ****             uint32 newRegValue;
 1410              		.loc 1 1810 0
 1411              		.cfi_startproc
1815:Generated_Source\PSoC4/CapSense_SensingCSD_LL.c ****                               CapSense_IDAC_MOD_VAL_MASK;
 1412              		.loc 1 1815 0
 1413 0000 7F23     		mov	r3, #127
 1414 0002 0749     		ldr	r1, .L72
ARM GAS  C:\Users\Jerry\AppData\Local\Temp\cc2mbs0O.s 			page 77


1817:Generated_Source\PSoC4/CapSense_SensingCSD_LL.c ****                 CY_SET_REG32(CapSense_IDAC_MOD_PTR, newRegValue);
 1415              		.loc 1 1817 0
 1416 0004 0748     		ldr	r0, .L72+4
1815:Generated_Source\PSoC4/CapSense_SensingCSD_LL.c ****                               CapSense_IDAC_MOD_VAL_MASK;
 1417              		.loc 1 1815 0
 1418 0006 0A68     		ldr	r2, [r1]
1834:Generated_Source\PSoC4/CapSense_SensingCSD_LL.c ****     #endif /* (CapSense_ENABLE == CapSense_CSD_IDAC_COMP_EN) */
 1419              		.loc 1 1834 0
 1420              		@ sp needed
1815:Generated_Source\PSoC4/CapSense_SensingCSD_LL.c ****                               CapSense_IDAC_MOD_VAL_MASK;
 1421              		.loc 1 1815 0
 1422 0008 1A40     		and	r2, r3
 1423              	.LVL123:
1817:Generated_Source\PSoC4/CapSense_SensingCSD_LL.c ****                 CY_SET_REG32(CapSense_IDAC_MOD_PTR, newRegValue);
 1424              		.loc 1 1817 0
 1425 000a 0243     		orr	r2, r0
 1426              	.LVL124:
1818:Generated_Source\PSoC4/CapSense_SensingCSD_LL.c ****                 #if (CapSense_ENABLE == CapSense_CSD_IDAC_COMP_EN) && \
 1427              		.loc 1 1818 0
 1428 000c 0A60     		str	r2, [r1]
1821:Generated_Source\PSoC4/CapSense_SensingCSD_LL.c ****                                   CapSense_IDAC_COMP_VAL_MASK;
 1429              		.loc 1 1821 0
 1430 000e 064A     		ldr	r2, .L72+8
 1431              	.LVL125:
 1432 0010 1168     		ldr	r1, [r2]
 1433              	.LVL126:
 1434 0012 0B40     		and	r3, r1
 1435              	.LVL127:
1823:Generated_Source\PSoC4/CapSense_SensingCSD_LL.c ****                     CY_SET_REG32(CapSense_IDAC_COMP_PTR, newRegValue);
 1436              		.loc 1 1823 0
 1437 0014 8021     		mov	r1, #128
 1438 0016 0904     		lsl	r1, r1, #16
 1439 0018 0B43     		orr	r3, r1
 1440              	.LVL128:
1824:Generated_Source\PSoC4/CapSense_SensingCSD_LL.c ****                 #endif /* (CapSense_ENABLE == CapSense_CSD_IDAC_COMP_EN) && \
 1441              		.loc 1 1824 0
 1442 001a 1360     		str	r3, [r2]
1834:Generated_Source\PSoC4/CapSense_SensingCSD_LL.c ****     #endif /* (CapSense_ENABLE == CapSense_CSD_IDAC_COMP_EN) */
 1443              		.loc 1 1834 0
 1444 001c 7047     		bx	lr
 1445              	.L73:
 1446 001e C046     		.align	2
 1447              	.L72:
 1448 0020 C0010C40 		.word	1074528704
 1449 0024 00008301 		.word	25362432
 1450 0028 C4010C40 		.word	1074528708
 1451              		.cfi_endproc
 1452              	.LFE19:
 1453              		.size	CapSense_SsCSDSetSingleIdacMode, .-CapSense_SsCSDSetSingleIdacMode
 1454              		.section	.text.CapSense_CSDCalibrateWidget,"ax",%progbits
 1455              		.align	1
 1456              		.global	CapSense_CSDCalibrateWidget
 1457              		.code	16
 1458              		.thumb_func
 1459              		.type	CapSense_CSDCalibrateWidget, %function
 1460              	CapSense_CSDCalibrateWidget:
 1461              	.LFB23:
ARM GAS  C:\Users\Jerry\AppData\Local\Temp\cc2mbs0O.s 			page 78


2168:Generated_Source\PSoC4/CapSense_SensingCSD_LL.c ****         uint32 rawLevel;
 1462              		.loc 1 2168 0
 1463              		.cfi_startproc
 1464              	.LVL129:
 1465 0000 F0B5     		push	{r4, r5, r6, r7, lr}
 1466              		.cfi_def_cfa_offset 20
 1467              		.cfi_offset 4, -20
 1468              		.cfi_offset 5, -16
 1469              		.cfi_offset 6, -12
 1470              		.cfi_offset 7, -8
 1471              		.cfi_offset 14, -4
2185:Generated_Source\PSoC4/CapSense_SensingCSD_LL.c **** 
 1472              		.loc 1 2185 0
 1473 0002 0125     		mov	r5, #1
2173:Generated_Source\PSoC4/CapSense_SensingCSD_LL.c ****                                               CapSense_dsFlash.wdgtArray[wdgtIndex].ptr2WdgtRam;
 1474              		.loc 1 2173 0
 1475 0004 694A     		ldr	r2, .L93
 1476 0006 4301     		lsl	r3, r0, #5
 1477 0008 D318     		add	r3, r2, r3
 1478 000a 5C68     		ldr	r4, [r3, #4]
 1479              	.LVL130:
2185:Generated_Source\PSoC4/CapSense_SensingCSD_LL.c **** 
 1480              		.loc 1 2185 0
 1481 000c 2B1C     		mov	r3, r5
2168:Generated_Source\PSoC4/CapSense_SensingCSD_LL.c ****         uint32 rawLevel;
 1482              		.loc 1 2168 0
 1483 000e 87B0     		sub	sp, sp, #28
 1484              		.cfi_def_cfa_offset 48
2168:Generated_Source\PSoC4/CapSense_SensingCSD_LL.c ****         uint32 rawLevel;
 1485              		.loc 1 2168 0
 1486 0010 0290     		str	r0, [sp, #8]
2185:Generated_Source\PSoC4/CapSense_SensingCSD_LL.c **** 
 1487              		.loc 1 2185 0
 1488 0012 2088     		ldrh	r0, [r4]
 1489              	.LVL131:
2168:Generated_Source\PSoC4/CapSense_SensingCSD_LL.c ****         uint32 rawLevel;
 1490              		.loc 1 2168 0
 1491 0014 0591     		str	r1, [sp, #20]
2185:Generated_Source\PSoC4/CapSense_SensingCSD_LL.c **** 
 1492              		.loc 1 2185 0
 1493 0016 8340     		lsl	r3, r3, r0
 1494 0018 181C     		mov	r0, r3
 1495 001a 0138     		sub	r0, r0, #1
 1496              	.LVL132:
2188:Generated_Source\PSoC4/CapSense_SensingCSD_LL.c **** 
 1497              		.loc 1 2188 0
 1498 001c 4843     		mul	r0, r1
 1499              	.LVL133:
 1500 001e 6421     		mov	r1, #100
 1501              	.LVL134:
 1502 0020 FFF7FEFF 		bl	__aeabi_uidiv
 1503              	.LVL135:
2191:Generated_Source\PSoC4/CapSense_SensingCSD_LL.c **** 
 1504              		.loc 1 2191 0
 1505 0024 6B46     		mov	r3, sp
 1506 0026 1A7A     		ldrb	r2, [r3, #8]
 1507 0028 614B     		ldr	r3, .L93+4
ARM GAS  C:\Users\Jerry\AppData\Local\Temp\cc2mbs0O.s 			page 79


2188:Generated_Source\PSoC4/CapSense_SensingCSD_LL.c **** 
 1508              		.loc 1 2188 0
 1509 002a 0090     		str	r0, [sp]
 1510              	.LVL136:
2194:Generated_Source\PSoC4/CapSense_SensingCSD_LL.c **** 
 1511              		.loc 1 2194 0
 1512 002c 6148     		ldr	r0, .L93+8
 1513              	.LVL137:
2191:Generated_Source\PSoC4/CapSense_SensingCSD_LL.c **** 
 1514              		.loc 1 2191 0
 1515 002e 1A70     		strb	r2, [r3]
2194:Generated_Source\PSoC4/CapSense_SensingCSD_LL.c **** 
 1516              		.loc 1 2194 0
 1517 0030 FFF7FEFF 		bl	CapSense_ISR_StartEx
 1518              	.LVL138:
2200:Generated_Source\PSoC4/CapSense_SensingCSD_LL.c ****              CapSense_sensorIndex < CapSense_dsFlash.wdgtArray[(wdgtIndex)].numCols;
 1519              		.loc 1 2200 0
 1520 0034 0023     		mov	r3, #0
 1521 0036 604A     		ldr	r2, .L93+12
2177:Generated_Source\PSoC4/CapSense_SensingCSD_LL.c ****         #else
 1522              		.loc 1 2177 0
 1523 0038 0195     		str	r5, [sp, #4]
2200:Generated_Source\PSoC4/CapSense_SensingCSD_LL.c ****              CapSense_sensorIndex < CapSense_dsFlash.wdgtArray[(wdgtIndex)].numCols;
 1524              		.loc 1 2200 0
 1525 003a 1370     		strb	r3, [r2]
2170:Generated_Source\PSoC4/CapSense_SensingCSD_LL.c **** 
 1526              		.loc 1 2170 0
 1527 003c 0393     		str	r3, [sp, #12]
 1528              	.LVL139:
 1529              	.L75:
2201:Generated_Source\PSoC4/CapSense_SensingCSD_LL.c ****              CapSense_sensorIndex++)
 1530              		.loc 1 2201 0 discriminator 1
 1531 003e 029B     		ldr	r3, [sp, #8]
 1532 0040 5A48     		ldr	r0, .L93
 1533 0042 5D4A     		ldr	r2, .L93+12
 1534 0044 5B01     		lsl	r3, r3, #5
 1535 0046 C318     		add	r3, r0, r3
 1536 0048 1178     		ldrb	r1, [r2]
 1537 004a 5D7E     		ldrb	r5, [r3, #25]
 1538 004c 061C     		mov	r6, r0
2200:Generated_Source\PSoC4/CapSense_SensingCSD_LL.c ****              CapSense_sensorIndex < CapSense_dsFlash.wdgtArray[(wdgtIndex)].numCols;
 1539              		.loc 1 2200 0 discriminator 1
 1540 004e A942     		cmp	r1, r5
 1541 0050 7BD2     		bcs	.L91
 1542              	.LVL140:
 1543              	.LBB36:
 1544              	.LBB37:
1985:Generated_Source\PSoC4/CapSense_SensingCSD_LL.c ****         #if (CapSense_ENABLE == CapSense_MULTI_FREQ_SCAN_EN)
 1545              		.loc 1 1985 0
 1546 0052 4025     		mov	r5, #64
1982:Generated_Source\PSoC4/CapSense_SensingCSD_LL.c **** 
 1547              		.loc 1 1982 0
 1548 0054 5649     		ldr	r1, .L93+4
1985:Generated_Source\PSoC4/CapSense_SensingCSD_LL.c ****         #if (CapSense_ENABLE == CapSense_MULTI_FREQ_SCAN_EN)
 1549              		.loc 1 1985 0
 1550 0056 A572     		strb	r5, [r4, #10]
1982:Generated_Source\PSoC4/CapSense_SensingCSD_LL.c **** 
ARM GAS  C:\Users\Jerry\AppData\Local\Temp\cc2mbs0O.s 			page 80


 1551              		.loc 1 1982 0
 1552 0058 0B78     		ldrb	r3, [r1]
1996:Generated_Source\PSoC4/CapSense_SensingCSD_LL.c ****         #endif /* (CapSense_ENABLE == CapSense_MULTI_FREQ_SCAN_EN) */
 1553              		.loc 1 1996 0
 1554 005a 0726     		mov	r6, #7
1981:Generated_Source\PSoC4/CapSense_SensingCSD_LL.c ****                                                         CapSense_dsFlash.wdgtArray[CapSense_widgetI
 1555              		.loc 1 1981 0
 1556 005c 5B01     		lsl	r3, r3, #5
 1557 005e C318     		add	r3, r0, r3
1992:Generated_Source\PSoC4/CapSense_SensingCSD_LL.c **** 
 1558              		.loc 1 1992 0
 1559 0060 0878     		ldrb	r0, [r1]
 1560 0062 1178     		ldrb	r1, [r2]
1981:Generated_Source\PSoC4/CapSense_SensingCSD_LL.c ****                                                         CapSense_dsFlash.wdgtArray[CapSense_widgetI
 1561              		.loc 1 1981 0
 1562 0064 5B68     		ldr	r3, [r3, #4]
1992:Generated_Source\PSoC4/CapSense_SensingCSD_LL.c **** 
 1563              		.loc 1 1992 0
 1564 0066 C0B2     		uxtb	r0, r0
 1565 0068 C9B2     		uxtb	r1, r1
1981:Generated_Source\PSoC4/CapSense_SensingCSD_LL.c ****                                                         CapSense_dsFlash.wdgtArray[CapSense_widgetI
 1566              		.loc 1 1981 0
 1567 006a 0493     		str	r3, [sp, #16]
 1568              	.LVL141:
1992:Generated_Source\PSoC4/CapSense_SensingCSD_LL.c **** 
 1569              		.loc 1 1992 0
 1570 006c FFF7FEFF 		bl	CapSense_CSDSetupWidgetExt
 1571              	.LVL142:
1996:Generated_Source\PSoC4/CapSense_SensingCSD_LL.c ****         #endif /* (CapSense_ENABLE == CapSense_MULTI_FREQ_SCAN_EN) */
 1572              		.loc 1 1996 0
 1573 0070 FFF7FEFF 		bl	CapSense_SsCSDSetSingleIdacMode
 1574              	.LVL143:
 1575              	.L79:
2006:Generated_Source\PSoC4/CapSense_SensingCSD_LL.c **** 
 1576              		.loc 1 2006 0
 1577 0074 FFF7FEFF 		bl	CapSense_CSDScanExt
 1578              	.LVL144:
 1579 0078 504B     		ldr	r3, .L93+16
 1580              	.LVL145:
 1581              	.L77:
2010:Generated_Source\PSoC4/CapSense_SensingCSD_LL.c ****                    (0u != watchdogCounter))
 1582              		.loc 1 2010 0
 1583 007a 514A     		ldr	r2, .L93+20
 1584 007c 127A     		ldrb	r2, [r2, #8]
 1585 007e 52B2     		sxtb	r2, r2
 1586 0080 002A     		cmp	r2, #0
 1587 0082 02DA     		bge	.L76
 1588 0084 013B     		sub	r3, r3, #1
 1589              	.LVL146:
 1590 0086 002B     		cmp	r3, #0
 1591 0088 F7D1     		bne	.L77
 1592              	.LVL147:
 1593              	.L76:
2018:Generated_Source\PSoC4/CapSense_SensingCSD_LL.c ****             #if(CapSense_ENABLE == CapSense_MULTI_FREQ_SCAN_EN)
 1594              		.loc 1 2018 0
 1595 008a 4E4B     		ldr	r3, .L93+24
 1596 008c 1B68     		ldr	r3, [r3]
ARM GAS  C:\Users\Jerry\AppData\Local\Temp\cc2mbs0O.s 			page 81


 1597 008e 1F88     		ldrh	r7, [r3]
 1598              	.LVL148:
2025:Generated_Source\PSoC4/CapSense_SensingCSD_LL.c ****             {
 1599              		.loc 1 2025 0
 1600 0090 009B     		ldr	r3, [sp]
 1601 0092 9F42     		cmp	r7, r3
 1602 0094 02D2     		bcs	.L78
2028:Generated_Source\PSoC4/CapSense_SensingCSD_LL.c ****             }
 1603              		.loc 1 2028 0
 1604 0096 A37A     		ldrb	r3, [r4, #10]
 1605 0098 AB43     		bic	r3, r5
 1606 009a A372     		strb	r3, [r4, #10]
 1607              	.L78:
2047:Generated_Source\PSoC4/CapSense_SensingCSD_LL.c ****             #if (CapSense_ENABLE == CapSense_MULTI_FREQ_SCAN_EN)
 1608              		.loc 1 2047 0
 1609 009c A37A     		ldrb	r3, [r4, #10]
2044:Generated_Source\PSoC4/CapSense_SensingCSD_LL.c **** 
 1610              		.loc 1 2044 0
 1611 009e 6D08     		lsr	r5, r5, #1
 1612              	.LVL149:
2047:Generated_Source\PSoC4/CapSense_SensingCSD_LL.c ****             #if (CapSense_ENABLE == CapSense_MULTI_FREQ_SCAN_EN)
 1613              		.loc 1 2047 0
 1614 00a0 2B43     		orr	r3, r5
 1615 00a2 A372     		strb	r3, [r4, #10]
2054:Generated_Source\PSoC4/CapSense_SensingCSD_LL.c ****         }
 1616              		.loc 1 2054 0
 1617 00a4 0498     		ldr	r0, [sp, #16]
 1618 00a6 013E     		sub	r6, r6, #1
 1619 00a8 FFF7FEFF 		bl	CapSense_SsCSDSetUpIdacs
 1620              	.LVL150:
2056:Generated_Source\PSoC4/CapSense_SensingCSD_LL.c **** 
 1621              		.loc 1 2056 0
 1622 00ac 002E     		cmp	r6, #0
 1623 00ae E1D1     		bne	.L79
2062:Generated_Source\PSoC4/CapSense_SensingCSD_LL.c ****                                             CapSense_dsFlash.wdgtArray[CapSense_widgetIndex].ptr2Sn
 1624              		.loc 1 2062 0
 1625 00b0 3F4B     		ldr	r3, .L93+4
 1626 00b2 1A78     		ldrb	r2, [r3]
2064:Generated_Source\PSoC4/CapSense_SensingCSD_LL.c **** 
 1627              		.loc 1 2064 0
 1628 00b4 404B     		ldr	r3, .L93+12
2063:Generated_Source\PSoC4/CapSense_SensingCSD_LL.c ****                                             + CapSense_sensorIndex;
 1629              		.loc 1 2063 0
 1630 00b6 5201     		lsl	r2, r2, #5
2064:Generated_Source\PSoC4/CapSense_SensingCSD_LL.c **** 
 1631              		.loc 1 2064 0
 1632 00b8 1878     		ldrb	r0, [r3]
 1633 00ba 1C23     		mov	r3, #28
 1634 00bc 5843     		mul	r0, r3
 1635 00be 3B4B     		ldr	r3, .L93
 1636 00c0 D358     		ldr	r3, [r2, r3]
 1637 00c2 1818     		add	r0, r3, r0
2062:Generated_Source\PSoC4/CapSense_SensingCSD_LL.c ****                                             CapSense_dsFlash.wdgtArray[CapSense_widgetIndex].ptr2Sn
 1638              		.loc 1 2062 0
 1639 00c4 404B     		ldr	r3, .L93+28
 1640 00c6 1860     		str	r0, [r3]
2067:Generated_Source\PSoC4/CapSense_SensingCSD_LL.c ****         #endif /* (CapSense_ENABLE == CapSense_CSD_GANGED_SNS_EN)  */
ARM GAS  C:\Users\Jerry\AppData\Local\Temp\cc2mbs0O.s 			page 82


 1641              		.loc 1 2067 0
 1642 00c8 FFF7FEFF 		bl	CapSense_CSDDisconnectSns
 1643              	.LVL151:
2071:Generated_Source\PSoC4/CapSense_SensingCSD_LL.c **** 
 1644              		.loc 1 2071 0
 1645 00cc 3F4B     		ldr	r3, .L93+32
 1646              	.LBB38:
 1647              	.LBB39:
1860:Generated_Source\PSoC4/CapSense_SensingCSD_LL.c ****                 newRegValue |= CapSense_DEFAULT_SW_REFGEN_SEL;
 1648              		.loc 1 1860 0
 1649 00ce 404A     		ldr	r2, .L93+36
 1650              	.LBE39:
 1651              	.LBE38:
2071:Generated_Source\PSoC4/CapSense_SensingCSD_LL.c **** 
 1652              		.loc 1 2071 0
 1653 00d0 1E70     		strb	r6, [r3]
 1654              	.LBB43:
 1655              	.LBB40:
1860:Generated_Source\PSoC4/CapSense_SensingCSD_LL.c ****                 newRegValue |= CapSense_DEFAULT_SW_REFGEN_SEL;
 1656              		.loc 1 1860 0
 1657 00d2 1368     		ldr	r3, [r2]
 1658              	.LVL152:
1861:Generated_Source\PSoC4/CapSense_SensingCSD_LL.c ****                 CY_SET_REG32(CapSense_SW_REFGEN_SEL_PTR, newRegValue);
 1659              		.loc 1 1861 0
 1660 00d4 3F49     		ldr	r1, .L93+40
 1661              	.LBE40:
 1662              	.LBE43:
 1663              	.LBB44:
 1664              	.LBB45:
1908:Generated_Source\PSoC4/CapSense_SensingCSD_LL.c ****                           CapSense_PERCENTAGE_100) + 1u;
 1665              		.loc 1 1908 0
 1666 00d6 0A20     		mov	r0, #10
 1667              	.LBE45:
 1668              	.LBE44:
 1669              	.LBB48:
 1670              	.LBB41:
1861:Generated_Source\PSoC4/CapSense_SensingCSD_LL.c ****                 CY_SET_REG32(CapSense_SW_REFGEN_SEL_PTR, newRegValue);
 1671              		.loc 1 1861 0
 1672 00d8 0B43     		orr	r3, r1
 1673              	.LVL153:
1862:Generated_Source\PSoC4/CapSense_SensingCSD_LL.c ****                 CY_SET_REG32(CapSense_IDAC_MOD_PTR, CapSense_DEFAULT_IDAC_MOD);
 1674              		.loc 1 1862 0
 1675 00da 1360     		str	r3, [r2]
1863:Generated_Source\PSoC4/CapSense_SensingCSD_LL.c ****                 #if (CapSense_ENABLE == CapSense_CSD_IDAC_COMP_EN) && \
 1676              		.loc 1 1863 0
 1677 00dc 3E4A     		ldr	r2, .L93+44
 1678 00de 3F4B     		ldr	r3, .L93+48
 1679              	.LVL154:
 1680              	.LBE41:
 1681              	.LBE48:
 1682              	.LBB49:
 1683              	.LBB46:
1908:Generated_Source\PSoC4/CapSense_SensingCSD_LL.c ****                           CapSense_PERCENTAGE_100) + 1u;
 1684              		.loc 1 1908 0
 1685 00e0 6421     		mov	r1, #100
 1686              	.LBE46:
 1687              	.LBE49:
ARM GAS  C:\Users\Jerry\AppData\Local\Temp\cc2mbs0O.s 			page 83


 1688              	.LBB50:
 1689              	.LBB42:
1863:Generated_Source\PSoC4/CapSense_SensingCSD_LL.c ****                 #if (CapSense_ENABLE == CapSense_CSD_IDAC_COMP_EN) && \
 1690              		.loc 1 1863 0
 1691 00e2 1A60     		str	r2, [r3]
 1692              	.LVL155:
1866:Generated_Source\PSoC4/CapSense_SensingCSD_LL.c ****                 #endif /* (CapSense_ENABLE == CapSense_CSD_IDAC_COMP_EN) && \
 1693              		.loc 1 1866 0
 1694 00e4 C122     		mov	r2, #193
 1695 00e6 3E4B     		ldr	r3, .L93+52
 1696 00e8 5204     		lsl	r2, r2, #17
 1697 00ea 1A60     		str	r2, [r3]
 1698              	.LVL156:
 1699              	.LBE42:
 1700              	.LBE50:
 1701              	.LBB51:
 1702              	.LBB47:
1905:Generated_Source\PSoC4/CapSense_SensingCSD_LL.c **** 
 1703              		.loc 1 1905 0
 1704 00ec 049B     		ldr	r3, [sp, #16]
 1705 00ee 1D88     		ldrh	r5, [r3]
 1706              	.LVL157:
 1707 00f0 0123     		mov	r3, #1
 1708 00f2 AB40     		lsl	r3, r3, r5
 1709 00f4 1D1C     		mov	r5, r3
 1710 00f6 013D     		sub	r5, r5, #1
 1711              	.LVL158:
1908:Generated_Source\PSoC4/CapSense_SensingCSD_LL.c ****                           CapSense_PERCENTAGE_100) + 1u;
 1712              		.loc 1 1908 0
 1713 00f8 6843     		mul	r0, r5
 1714 00fa FFF7FEFF 		bl	__aeabi_uidiv
 1715              	.LVL159:
1916:Generated_Source\PSoC4/CapSense_SensingCSD_LL.c ****         {
 1716              		.loc 1 1916 0
 1717 00fe 009B     		ldr	r3, [sp]
1908:Generated_Source\PSoC4/CapSense_SensingCSD_LL.c ****                           CapSense_PERCENTAGE_100) + 1u;
 1718              		.loc 1 1908 0
 1719 0100 0130     		add	r0, r0, #1
 1720              	.LVL160:
1916:Generated_Source\PSoC4/CapSense_SensingCSD_LL.c ****         {
 1721              		.loc 1 1916 0
 1722 0102 8342     		cmp	r3, r0
 1723 0104 03D3     		bcc	.L80
 1724              	.LVL161:
1918:Generated_Source\PSoC4/CapSense_SensingCSD_LL.c ****         }
 1725              		.loc 1 1918 0
 1726 0106 1A1A     		sub	r2, r3, r0
 1727              	.LVL162:
1924:Generated_Source\PSoC4/CapSense_SensingCSD_LL.c ****         }
 1728              		.loc 1 1924 0
 1729 0108 0623     		mov	r3, #6
1922:Generated_Source\PSoC4/CapSense_SensingCSD_LL.c ****         {
 1730              		.loc 1 1922 0
 1731 010a 9742     		cmp	r7, r2
 1732 010c 08D3     		bcc	.L81
 1733              	.LVL163:
 1734              	.L80:
ARM GAS  C:\Users\Jerry\AppData\Local\Temp\cc2mbs0O.s 			page 84


1912:Generated_Source\PSoC4/CapSense_SensingCSD_LL.c ****         {
 1735              		.loc 1 1912 0
 1736 010e 009B     		ldr	r3, [sp]
 1737 0110 C018     		add	r0, r0, r3
 1738              	.LVL164:
 1739 0112 A842     		cmp	r0, r5
 1740 0114 00D9     		bls	.L82
 1741 0116 281C     		mov	r0, r5
 1742              	.L82:
1924:Generated_Source\PSoC4/CapSense_SensingCSD_LL.c ****         }
 1743              		.loc 1 1924 0
 1744 0118 0623     		mov	r3, #6
1928:Generated_Source\PSoC4/CapSense_SensingCSD_LL.c ****         }
 1745              		.loc 1 1928 0
 1746 011a B842     		cmp	r0, r7
 1747 011c BF41     		sbc	r7, r7, r7
 1748              	.LVL165:
 1749 011e 3B40     		and	r3, r7
 1750              	.L81:
 1751              	.LVL166:
 1752 0120 6946     		mov	r1, sp
 1753              	.LBE47:
 1754              	.LBE51:
2103:Generated_Source\PSoC4/CapSense_SensingCSD_LL.c ****             {
 1755              		.loc 1 2103 0
 1756 0122 A27A     		ldrb	r2, [r4, #10]
 1757 0124 0198     		ldr	r0, [sp, #4]
 1758 0126 0979     		ldrb	r1, [r1, #4]
 1759 0128 9042     		cmp	r0, r2
 1760 012a 00D2     		bcs	.L83
 1761 012c 111C     		add	r1, r2, #0
 1762              	.L83:
 1763 012e C9B2     		uxtb	r1, r1
 1764 0130 0191     		str	r1, [sp, #4]
 1765              	.LVL167:
2114:Generated_Source\PSoC4/CapSense_SensingCSD_LL.c ****             #if (CapSense_ENABLE == CapSense_MULTI_FREQ_SCAN_EN)
 1766              		.loc 1 2114 0
 1767 0132 2449     		ldr	r1, .L93+24
 1768 0134 0968     		ldr	r1, [r1]
 1769 0136 4A72     		strb	r2, [r1, #9]
 1770              	.LBE37:
 1771              	.LBE36:
2205:Generated_Source\PSoC4/CapSense_SensingCSD_LL.c ****         }
 1772              		.loc 1 2205 0
 1773 0138 039A     		ldr	r2, [sp, #12]
 1774 013a 1A43     		orr	r2, r3
 1775 013c 0392     		str	r2, [sp, #12]
 1776              	.LVL168:
2202:Generated_Source\PSoC4/CapSense_SensingCSD_LL.c ****         {
 1777              		.loc 1 2202 0
 1778 013e 1E4A     		ldr	r2, .L93+12
 1779              	.LVL169:
 1780 0140 1378     		ldrb	r3, [r2]
 1781              	.LVL170:
 1782 0142 0133     		add	r3, r3, #1
 1783 0144 DBB2     		uxtb	r3, r3
 1784 0146 1370     		strb	r3, [r2]
ARM GAS  C:\Users\Jerry\AppData\Local\Temp\cc2mbs0O.s 			page 85


 1785 0148 79E7     		b	.L75
 1786              	.LVL171:
 1787              	.L91:
2211:Generated_Source\PSoC4/CapSense_SensingCSD_LL.c **** 
 1788              		.loc 1 2211 0
 1789 014a 019B     		ldr	r3, [sp, #4]
 1790 014c 0133     		add	r3, r3, #1
 1791 014e 5B08     		lsr	r3, r3, #1
 1792 0150 A372     		strb	r3, [r4, #10]
2222:Generated_Source\PSoC4/CapSense_SensingCSD_LL.c ****                  CapSense_sensorIndex < CapSense_dsFlash.wdgtArray[(wdgtIndex)].numCols;
 1793              		.loc 1 2222 0
 1794 0152 0023     		mov	r3, #0
 1795 0154 1370     		strb	r3, [r2]
 1796 0156 1B4B     		ldr	r3, .L93+24
 1797 0158 1F68     		ldr	r7, [r3]
 1798              	.L85:
2223:Generated_Source\PSoC4/CapSense_SensingCSD_LL.c ****                  CapSense_sensorIndex++)
 1799              		.loc 1 2223 0 discriminator 1
 1800 015a 174B     		ldr	r3, .L93+12
 1801 015c 1A78     		ldrb	r2, [r3]
2222:Generated_Source\PSoC4/CapSense_SensingCSD_LL.c ****                  CapSense_sensorIndex < CapSense_dsFlash.wdgtArray[(wdgtIndex)].numCols;
 1802              		.loc 1 2222 0 discriminator 1
 1803 015e AA42     		cmp	r2, r5
 1804 0160 1DD2     		bcs	.L92
2227:Generated_Source\PSoC4/CapSense_SensingCSD_LL.c ****                 /* Calculate Compensation IDAC value: idacComp(i) = (iDAC8(i) - idacMod) * 85% */
 1805              		.loc 1 2227 0
 1806 0162 1F78     		ldrb	r7, [r3]
 1807 0164 029B     		ldr	r3, [sp, #8]
2229:Generated_Source\PSoC4/CapSense_SensingCSD_LL.c ****                 {
 1808              		.loc 1 2229 0
 1809 0166 A07A     		ldrb	r0, [r4, #10]
2227:Generated_Source\PSoC4/CapSense_SensingCSD_LL.c ****                 /* Calculate Compensation IDAC value: idacComp(i) = (iDAC8(i) - idacMod) * 85% */
 1810              		.loc 1 2227 0
 1811 0168 5A01     		lsl	r2, r3, #5
 1812 016a 0A23     		mov	r3, #10
 1813 016c 5F43     		mul	r7, r3
 1814 016e B218     		add	r2, r6, r2
 1815 0170 9368     		ldr	r3, [r2, #8]
 1816 0172 DF19     		add	r7, r3, r7
2229:Generated_Source\PSoC4/CapSense_SensingCSD_LL.c ****                 {
 1817              		.loc 1 2229 0
 1818 0174 7B7A     		ldrb	r3, [r7, #9]
 1819 0176 8342     		cmp	r3, r0
 1820 0178 09D3     		bcc	.L86
2231:Generated_Source\PSoC4/CapSense_SensingCSD_LL.c ****                     #if ((CapSense_ENABLE == CapSense_CSD_DEDICATED_IDAC_COMP_EN) ||\
 1821              		.loc 1 2231 0
 1822 017a 181A     		sub	r0, r3, r0
2235:Generated_Source\PSoC4/CapSense_SensingCSD_LL.c ****                             CapSense_PERCENTAGE_100);
 1823              		.loc 1 2235 0
 1824 017c 059B     		ldr	r3, [sp, #20]
 1825 017e C0B2     		uxtb	r0, r0
 1826 0180 5843     		mul	r0, r3
 1827 0182 6421     		mov	r1, #100
 1828 0184 6330     		add	r0, r0, #99
 1829 0186 FFF7FEFF 		bl	__aeabi_uidiv
 1830              	.LVL172:
2234:Generated_Source\PSoC4/CapSense_SensingCSD_LL.c ****                             (uint8)((((target * CapSense_curRamSnsPtr->idacComp[0u]) + CapSense_PER
ARM GAS  C:\Users\Jerry\AppData\Local\Temp\cc2mbs0O.s 			page 86


 1831              		.loc 1 2234 0
 1832 018a 7872     		strb	r0, [r7, #9]
 1833 018c 01E0     		b	.L87
 1834              	.L86:
2242:Generated_Source\PSoC4/CapSense_SensingCSD_LL.c ****                 }
 1835              		.loc 1 2242 0
 1836 018e 0023     		mov	r3, #0
 1837 0190 7B72     		strb	r3, [r7, #9]
 1838              	.L87:
2224:Generated_Source\PSoC4/CapSense_SensingCSD_LL.c ****             {
 1839              		.loc 1 2224 0
 1840 0192 094A     		ldr	r2, .L93+12
 1841 0194 1378     		ldrb	r3, [r2]
 1842 0196 0133     		add	r3, r3, #1
 1843 0198 DBB2     		uxtb	r3, r3
 1844 019a 1370     		strb	r3, [r2]
 1845 019c DDE7     		b	.L85
 1846              	.L92:
 1847 019e 094A     		ldr	r2, .L93+24
2387:Generated_Source\PSoC4/CapSense_SensingCSD_LL.c **** #endif /* ((CapSense_CSD_SS_DIS != CapSense_CSD_AUTOTUNE)) || \
 1848              		.loc 1 2387 0
 1849 01a0 0398     		ldr	r0, [sp, #12]
 1850 01a2 1760     		str	r7, [r2]
2384:Generated_Source\PSoC4/CapSense_SensingCSD_LL.c **** 
 1851              		.loc 1 2384 0
 1852 01a4 0022     		mov	r2, #0
 1853 01a6 1A70     		strb	r2, [r3]
2387:Generated_Source\PSoC4/CapSense_SensingCSD_LL.c **** #endif /* ((CapSense_CSD_SS_DIS != CapSense_CSD_AUTOTUNE)) || \
 1854              		.loc 1 2387 0
 1855 01a8 07B0     		add	sp, sp, #28
 1856              	.LVL173:
 1857              		@ sp needed
 1858              	.LVL174:
 1859              	.LVL175:
 1860 01aa F0BD     		pop	{r4, r5, r6, r7, pc}
 1861              	.L94:
 1862              		.align	2
 1863              	.L93:
 1864 01ac 00000000 		.word	CapSense_dsFlash
 1865 01b0 00000000 		.word	CapSense_widgetIndex
 1866 01b4 00000000 		.word	CapSense_CSDPostSingleScan
 1867 01b8 00000000 		.word	CapSense_sensorIndex
 1868 01bc 34330000 		.word	13108
 1869 01c0 00000000 		.word	CapSense_dsRam
 1870 01c4 00000000 		.word	CapSense_curRamSnsPtr
 1871 01c8 00000000 		.word	CapSense_curSnsIOPtr
 1872 01cc 00000000 		.word	.LANCHOR1
 1873 01d0 A8020C40 		.word	1074528936
 1874 01d4 01000010 		.word	268435457
 1875 01d8 00008301 		.word	25362432
 1876 01dc C0010C40 		.word	1074528704
 1877 01e0 C4010C40 		.word	1074528708
 1878              		.cfi_endproc
 1879              	.LFE23:
 1880              		.size	CapSense_CSDCalibrateWidget, .-CapSense_CSDCalibrateWidget
 1881              		.global	CapSense_configCsd
 1882              		.data
ARM GAS  C:\Users\Jerry\AppData\Local\Temp\cc2mbs0O.s 			page 87


 1883              		.align	2
 1884              		.set	.LANCHOR0,. + 0
 1885              		.type	CapSense_configCsd, %object
 1886              		.size	CapSense_configCsd, 4
 1887              	CapSense_configCsd:
 1888 0000 02000004 		.word	67108866
 1889              		.bss
 1890              		.set	.LANCHOR1,. + 0
 1891              		.type	CapSense_eleCsdDisconnectFlag, %object
 1892              		.size	CapSense_eleCsdDisconnectFlag, 1
 1893              	CapSense_eleCsdDisconnectFlag:
 1894 0000 00       		.space	1
 1895              		.text
 1896              	.Letext0:
 1897              		.file 2 "Generated_Source\\PSoC4/cytypes.h"
 1898              		.file 3 "Generated_Source\\PSoC4\\CapSense_Configuration.h"
 1899              		.file 4 "Generated_Source\\PSoC4\\CapSense_SmartSense_LL.h"
 1900              		.file 5 "Generated_Source\\PSoC4\\CapSense_Structure.h"
 1901              		.file 6 "Generated_Source\\PSoC4\\CapSense_Sensing.h"
 1902              		.file 7 "Generated_Source\\PSoC4/CyLib.h"
 1903              		.file 8 "Generated_Source\\PSoC4\\CapSense_ISR.h"
 1904              		.section	.debug_info,"",%progbits
 1905              	.Ldebug_info0:
 1906 0000 67100000 		.4byte	0x1067
 1907 0004 0400     		.2byte	0x4
 1908 0006 00000000 		.4byte	.Ldebug_abbrev0
 1909 000a 04       		.byte	0x4
 1910 000b 01       		.uleb128 0x1
 1911 000c 98050000 		.4byte	.LASF164
 1912 0010 01       		.byte	0x1
 1913 0011 7A060000 		.4byte	.LASF165
 1914 0015 1A090000 		.4byte	.LASF166
 1915 0019 78000000 		.4byte	.Ldebug_ranges0+0x78
 1916 001d 00000000 		.4byte	0
 1917 0021 00000000 		.4byte	.Ldebug_line0
 1918 0025 02       		.uleb128 0x2
 1919 0026 01       		.byte	0x1
 1920 0027 06       		.byte	0x6
 1921 0028 4A0A0000 		.4byte	.LASF0
 1922 002c 02       		.uleb128 0x2
 1923 002d 01       		.byte	0x1
 1924 002e 08       		.byte	0x8
 1925 002f 8D090000 		.4byte	.LASF1
 1926 0033 02       		.uleb128 0x2
 1927 0034 02       		.byte	0x2
 1928 0035 05       		.byte	0x5
 1929 0036 57070000 		.4byte	.LASF2
 1930 003a 02       		.uleb128 0x2
 1931 003b 02       		.byte	0x2
 1932 003c 07       		.byte	0x7
 1933 003d 720A0000 		.4byte	.LASF3
 1934 0041 02       		.uleb128 0x2
 1935 0042 04       		.byte	0x4
 1936 0043 05       		.byte	0x5
 1937 0044 B4070000 		.4byte	.LASF4
 1938 0048 02       		.uleb128 0x2
 1939 0049 04       		.byte	0x4
ARM GAS  C:\Users\Jerry\AppData\Local\Temp\cc2mbs0O.s 			page 88


 1940 004a 07       		.byte	0x7
 1941 004b AA080000 		.4byte	.LASF5
 1942 004f 02       		.uleb128 0x2
 1943 0050 08       		.byte	0x8
 1944 0051 05       		.byte	0x5
 1945 0052 9A040000 		.4byte	.LASF6
 1946 0056 02       		.uleb128 0x2
 1947 0057 08       		.byte	0x8
 1948 0058 07       		.byte	0x7
 1949 0059 0D020000 		.4byte	.LASF7
 1950 005d 03       		.uleb128 0x3
 1951 005e 04       		.byte	0x4
 1952 005f 05       		.byte	0x5
 1953 0060 696E7400 		.ascii	"int\000"
 1954 0064 02       		.uleb128 0x2
 1955 0065 04       		.byte	0x4
 1956 0066 07       		.byte	0x7
 1957 0067 8C000000 		.4byte	.LASF8
 1958 006b 04       		.uleb128 0x4
 1959 006c 9E0A0000 		.4byte	.LASF9
 1960 0070 02       		.byte	0x2
 1961 0071 B901     		.2byte	0x1b9
 1962 0073 2C000000 		.4byte	0x2c
 1963 0077 04       		.uleb128 0x4
 1964 0078 2A040000 		.4byte	.LASF10
 1965 007c 02       		.byte	0x2
 1966 007d BA01     		.2byte	0x1ba
 1967 007f 3A000000 		.4byte	0x3a
 1968 0083 04       		.uleb128 0x4
 1969 0084 31080000 		.4byte	.LASF11
 1970 0088 02       		.byte	0x2
 1971 0089 BB01     		.2byte	0x1bb
 1972 008b 48000000 		.4byte	0x48
 1973 008f 02       		.uleb128 0x2
 1974 0090 04       		.byte	0x4
 1975 0091 04       		.byte	0x4
 1976 0092 92010000 		.4byte	.LASF12
 1977 0096 02       		.uleb128 0x2
 1978 0097 08       		.byte	0x8
 1979 0098 04       		.byte	0x4
 1980 0099 A40A0000 		.4byte	.LASF13
 1981 009d 02       		.uleb128 0x2
 1982 009e 01       		.byte	0x1
 1983 009f 08       		.byte	0x8
 1984 00a0 D1030000 		.4byte	.LASF14
 1985 00a4 04       		.uleb128 0x4
 1986 00a5 46090000 		.4byte	.LASF15
 1987 00a9 02       		.byte	0x2
 1988 00aa 5B02     		.2byte	0x25b
 1989 00ac 48000000 		.4byte	0x48
 1990 00b0 05       		.uleb128 0x5
 1991 00b1 6B000000 		.4byte	0x6b
 1992 00b5 04       		.uleb128 0x4
 1993 00b6 C4060000 		.4byte	.LASF16
 1994 00ba 02       		.byte	0x2
 1995 00bb 6502     		.2byte	0x265
 1996 00bd C1000000 		.4byte	0xc1
ARM GAS  C:\Users\Jerry\AppData\Local\Temp\cc2mbs0O.s 			page 89


 1997 00c1 05       		.uleb128 0x5
 1998 00c2 83000000 		.4byte	0x83
 1999 00c6 04       		.uleb128 0x4
 2000 00c7 49050000 		.4byte	.LASF17
 2001 00cb 02       		.byte	0x2
 2002 00cc 7502     		.2byte	0x275
 2003 00ce D2000000 		.4byte	0xd2
 2004 00d2 06       		.uleb128 0x6
 2005 00d3 04       		.byte	0x4
 2006 00d4 D8000000 		.4byte	0xd8
 2007 00d8 07       		.uleb128 0x7
 2008 00d9 08       		.uleb128 0x8
 2009 00da B4090000 		.4byte	.LASF18
 2010 00de 03       		.byte	0x3
 2011 00df D7       		.byte	0xd7
 2012 00e0 77000000 		.4byte	0x77
 2013 00e4 08       		.uleb128 0x8
 2014 00e5 52040000 		.4byte	.LASF19
 2015 00e9 03       		.byte	0x3
 2016 00ea DB       		.byte	0xdb
 2017 00eb 6B000000 		.4byte	0x6b
 2018 00ef 09       		.uleb128 0x9
 2019 00f0 6B000000 		.4byte	0x6b
 2020 00f4 06       		.uleb128 0x6
 2021 00f5 04       		.byte	0x4
 2022 00f6 6B000000 		.4byte	0x6b
 2023 00fa 0A       		.uleb128 0xa
 2024 00fb 0C       		.byte	0xc
 2025 00fc 04       		.byte	0x4
 2026 00fd 6C       		.byte	0x6c
 2027 00fe 57010000 		.4byte	0x157
 2028 0102 0B       		.uleb128 0xb
 2029 0103 B90A0000 		.4byte	.LASF20
 2030 0107 04       		.byte	0x4
 2031 0108 6E       		.byte	0x6e
 2032 0109 77000000 		.4byte	0x77
 2033 010d 00       		.byte	0
 2034 010e 0B       		.uleb128 0xb
 2035 010f C00A0000 		.4byte	.LASF21
 2036 0113 04       		.byte	0x4
 2037 0114 6F       		.byte	0x6f
 2038 0115 77000000 		.4byte	0x77
 2039 0119 02       		.byte	0x2
 2040 011a 0B       		.uleb128 0xb
 2041 011b C70A0000 		.4byte	.LASF22
 2042 011f 04       		.byte	0x4
 2043 0120 70       		.byte	0x70
 2044 0121 77000000 		.4byte	0x77
 2045 0125 04       		.byte	0x4
 2046 0126 0B       		.uleb128 0xb
 2047 0127 CE0A0000 		.4byte	.LASF23
 2048 012b 04       		.byte	0x4
 2049 012c 71       		.byte	0x71
 2050 012d 77000000 		.4byte	0x77
 2051 0131 06       		.byte	0x6
 2052 0132 0B       		.uleb128 0xb
 2053 0133 D50A0000 		.4byte	.LASF24
ARM GAS  C:\Users\Jerry\AppData\Local\Temp\cc2mbs0O.s 			page 90


 2054 0137 04       		.byte	0x4
 2055 0138 72       		.byte	0x72
 2056 0139 77000000 		.4byte	0x77
 2057 013d 08       		.byte	0x8
 2058 013e 0B       		.uleb128 0xb
 2059 013f DC0A0000 		.4byte	.LASF25
 2060 0143 04       		.byte	0x4
 2061 0144 73       		.byte	0x73
 2062 0145 6B000000 		.4byte	0x6b
 2063 0149 0A       		.byte	0xa
 2064 014a 0B       		.uleb128 0xb
 2065 014b E30A0000 		.4byte	.LASF26
 2066 014f 04       		.byte	0x4
 2067 0150 74       		.byte	0x74
 2068 0151 6B000000 		.4byte	0x6b
 2069 0155 0B       		.byte	0xb
 2070 0156 00       		.byte	0
 2071 0157 08       		.uleb128 0x8
 2072 0158 92030000 		.4byte	.LASF27
 2073 015c 04       		.byte	0x4
 2074 015d 75       		.byte	0x75
 2075 015e FA000000 		.4byte	0xfa
 2076 0162 0A       		.uleb128 0xa
 2077 0163 12       		.byte	0x12
 2078 0164 05       		.byte	0x5
 2079 0165 7C       		.byte	0x7c
 2080 0166 07020000 		.4byte	0x207
 2081 016a 0B       		.uleb128 0xb
 2082 016b 40040000 		.4byte	.LASF28
 2083 016f 05       		.byte	0x5
 2084 0170 82       		.byte	0x82
 2085 0171 77000000 		.4byte	0x77
 2086 0175 00       		.byte	0
 2087 0176 0B       		.uleb128 0xb
 2088 0177 E9080000 		.4byte	.LASF29
 2089 017b 05       		.byte	0x5
 2090 017c 87       		.byte	0x87
 2091 017d D9000000 		.4byte	0xd9
 2092 0181 02       		.byte	0x2
 2093 0182 0B       		.uleb128 0xb
 2094 0183 B7030000 		.4byte	.LASF30
 2095 0187 05       		.byte	0x5
 2096 0188 8C       		.byte	0x8c
 2097 0189 6B000000 		.4byte	0x6b
 2098 018d 04       		.byte	0x4
 2099 018e 0B       		.uleb128 0xb
 2100 018f 35050000 		.4byte	.LASF31
 2101 0193 05       		.byte	0x5
 2102 0194 91       		.byte	0x91
 2103 0195 6B000000 		.4byte	0x6b
 2104 0199 05       		.byte	0x5
 2105 019a 0B       		.uleb128 0xb
 2106 019b 16030000 		.4byte	.LASF32
 2107 019f 05       		.byte	0x5
 2108 01a0 96       		.byte	0x96
 2109 01a1 6B000000 		.4byte	0x6b
 2110 01a5 06       		.byte	0x6
ARM GAS  C:\Users\Jerry\AppData\Local\Temp\cc2mbs0O.s 			page 91


 2111 01a6 0B       		.uleb128 0xb
 2112 01a7 C9040000 		.4byte	.LASF33
 2113 01ab 05       		.byte	0x5
 2114 01ac 9B       		.byte	0x9b
 2115 01ad 6B000000 		.4byte	0x6b
 2116 01b1 07       		.byte	0x7
 2117 01b2 0B       		.uleb128 0xb
 2118 01b3 43030000 		.4byte	.LASF34
 2119 01b7 05       		.byte	0x5
 2120 01b8 A1       		.byte	0xa1
 2121 01b9 E4000000 		.4byte	0xe4
 2122 01bd 08       		.byte	0x8
 2123 01be 0B       		.uleb128 0xb
 2124 01bf F8020000 		.4byte	.LASF35
 2125 01c3 05       		.byte	0x5
 2126 01c4 A6       		.byte	0xa6
 2127 01c5 6B000000 		.4byte	0x6b
 2128 01c9 09       		.byte	0x9
 2129 01ca 0B       		.uleb128 0xb
 2130 01cb BC080000 		.4byte	.LASF36
 2131 01cf 05       		.byte	0x5
 2132 01d0 AD       		.byte	0xad
 2133 01d1 07020000 		.4byte	0x207
 2134 01d5 0A       		.byte	0xa
 2135 01d6 0B       		.uleb128 0xb
 2136 01d7 020A0000 		.4byte	.LASF37
 2137 01db 05       		.byte	0x5
 2138 01dc B4       		.byte	0xb4
 2139 01dd 6B000000 		.4byte	0x6b
 2140 01e1 0B       		.byte	0xb
 2141 01e2 0B       		.uleb128 0xb
 2142 01e3 07070000 		.4byte	.LASF38
 2143 01e7 05       		.byte	0x5
 2144 01e8 B9       		.byte	0xb9
 2145 01e9 6B000000 		.4byte	0x6b
 2146 01ed 0C       		.byte	0xc
 2147 01ee 0B       		.uleb128 0xb
 2148 01ef 59080000 		.4byte	.LASF39
 2149 01f3 05       		.byte	0x5
 2150 01f4 BF       		.byte	0xbf
 2151 01f5 77000000 		.4byte	0x77
 2152 01f9 0E       		.byte	0xe
 2153 01fa 0B       		.uleb128 0xb
 2154 01fb 0F030000 		.4byte	.LASF40
 2155 01ff 05       		.byte	0x5
 2156 0200 C4       		.byte	0xc4
 2157 0201 77000000 		.4byte	0x77
 2158 0205 10       		.byte	0x10
 2159 0206 00       		.byte	0
 2160 0207 0C       		.uleb128 0xc
 2161 0208 6B000000 		.4byte	0x6b
 2162 020c 17020000 		.4byte	0x217
 2163 0210 0D       		.uleb128 0xd
 2164 0211 17020000 		.4byte	0x217
 2165 0215 00       		.byte	0
 2166 0216 00       		.byte	0
 2167 0217 02       		.uleb128 0x2
ARM GAS  C:\Users\Jerry\AppData\Local\Temp\cc2mbs0O.s 			page 92


 2168 0218 04       		.byte	0x4
 2169 0219 07       		.byte	0x7
 2170 021a 99080000 		.4byte	.LASF41
 2171 021e 08       		.uleb128 0x8
 2172 021f 73050000 		.4byte	.LASF42
 2173 0223 05       		.byte	0x5
 2174 0224 C5       		.byte	0xc5
 2175 0225 62010000 		.4byte	0x162
 2176 0229 0A       		.uleb128 0xa
 2177 022a 14       		.byte	0x14
 2178 022b 05       		.byte	0x5
 2179 022c CA       		.byte	0xca
 2180 022d DF020000 		.4byte	0x2df
 2181 0231 0B       		.uleb128 0xb
 2182 0232 40040000 		.4byte	.LASF28
 2183 0236 05       		.byte	0x5
 2184 0237 D0       		.byte	0xd0
 2185 0238 77000000 		.4byte	0x77
 2186 023c 00       		.byte	0
 2187 023d 0B       		.uleb128 0xb
 2188 023e E9080000 		.4byte	.LASF29
 2189 0242 05       		.byte	0x5
 2190 0243 D5       		.byte	0xd5
 2191 0244 D9000000 		.4byte	0xd9
 2192 0248 02       		.byte	0x2
 2193 0249 0B       		.uleb128 0xb
 2194 024a B7030000 		.4byte	.LASF30
 2195 024e 05       		.byte	0x5
 2196 024f DA       		.byte	0xda
 2197 0250 6B000000 		.4byte	0x6b
 2198 0254 04       		.byte	0x4
 2199 0255 0B       		.uleb128 0xb
 2200 0256 35050000 		.4byte	.LASF31
 2201 025a 05       		.byte	0x5
 2202 025b DF       		.byte	0xdf
 2203 025c 6B000000 		.4byte	0x6b
 2204 0260 05       		.byte	0x5
 2205 0261 0B       		.uleb128 0xb
 2206 0262 16030000 		.4byte	.LASF32
 2207 0266 05       		.byte	0x5
 2208 0267 E4       		.byte	0xe4
 2209 0268 6B000000 		.4byte	0x6b
 2210 026c 06       		.byte	0x6
 2211 026d 0B       		.uleb128 0xb
 2212 026e C9040000 		.4byte	.LASF33
 2213 0272 05       		.byte	0x5
 2214 0273 E9       		.byte	0xe9
 2215 0274 6B000000 		.4byte	0x6b
 2216 0278 07       		.byte	0x7
 2217 0279 0B       		.uleb128 0xb
 2218 027a 43030000 		.4byte	.LASF34
 2219 027e 05       		.byte	0x5
 2220 027f EF       		.byte	0xef
 2221 0280 E4000000 		.4byte	0xe4
 2222 0284 08       		.byte	0x8
 2223 0285 0B       		.uleb128 0xb
 2224 0286 F8020000 		.4byte	.LASF35
ARM GAS  C:\Users\Jerry\AppData\Local\Temp\cc2mbs0O.s 			page 93


 2225 028a 05       		.byte	0x5
 2226 028b F4       		.byte	0xf4
 2227 028c 6B000000 		.4byte	0x6b
 2228 0290 09       		.byte	0x9
 2229 0291 0B       		.uleb128 0xb
 2230 0292 BC080000 		.4byte	.LASF36
 2231 0296 05       		.byte	0x5
 2232 0297 FB       		.byte	0xfb
 2233 0298 07020000 		.4byte	0x207
 2234 029c 0A       		.byte	0xa
 2235 029d 0E       		.uleb128 0xe
 2236 029e 020A0000 		.4byte	.LASF37
 2237 02a2 05       		.byte	0x5
 2238 02a3 0201     		.2byte	0x102
 2239 02a5 6B000000 		.4byte	0x6b
 2240 02a9 0B       		.byte	0xb
 2241 02aa 0E       		.uleb128 0xe
 2242 02ab 07070000 		.4byte	.LASF38
 2243 02af 05       		.byte	0x5
 2244 02b0 0701     		.2byte	0x107
 2245 02b2 6B000000 		.4byte	0x6b
 2246 02b6 0C       		.byte	0xc
 2247 02b7 0E       		.uleb128 0xe
 2248 02b8 59080000 		.4byte	.LASF39
 2249 02bc 05       		.byte	0x5
 2250 02bd 0D01     		.2byte	0x10d
 2251 02bf 77000000 		.4byte	0x77
 2252 02c3 0E       		.byte	0xe
 2253 02c4 0E       		.uleb128 0xe
 2254 02c5 0F030000 		.4byte	.LASF40
 2255 02c9 05       		.byte	0x5
 2256 02ca 1201     		.2byte	0x112
 2257 02cc 77000000 		.4byte	0x77
 2258 02d0 10       		.byte	0x10
 2259 02d1 0E       		.uleb128 0xe
 2260 02d2 5B000000 		.4byte	.LASF43
 2261 02d6 05       		.byte	0x5
 2262 02d7 1701     		.2byte	0x117
 2263 02d9 D9000000 		.4byte	0xd9
 2264 02dd 12       		.byte	0x12
 2265 02de 00       		.byte	0
 2266 02df 04       		.uleb128 0x4
 2267 02e0 4F090000 		.4byte	.LASF44
 2268 02e4 05       		.byte	0x5
 2269 02e5 1801     		.2byte	0x118
 2270 02e7 29020000 		.4byte	0x229
 2271 02eb 0F       		.uleb128 0xf
 2272 02ec 14       		.byte	0x14
 2273 02ed 05       		.byte	0x5
 2274 02ee 1E01     		.2byte	0x11e
 2275 02f0 02030000 		.4byte	0x302
 2276 02f4 0E       		.uleb128 0xe
 2277 02f5 090A0000 		.4byte	.LASF45
 2278 02f9 05       		.byte	0x5
 2279 02fa 2301     		.2byte	0x123
 2280 02fc DF020000 		.4byte	0x2df
 2281 0300 00       		.byte	0
ARM GAS  C:\Users\Jerry\AppData\Local\Temp\cc2mbs0O.s 			page 94


 2282 0301 00       		.byte	0
 2283 0302 04       		.uleb128 0x4
 2284 0303 3E010000 		.4byte	.LASF46
 2285 0307 05       		.byte	0x5
 2286 0308 2401     		.2byte	0x124
 2287 030a EB020000 		.4byte	0x2eb
 2288 030e 0F       		.uleb128 0xf
 2289 030f 0A       		.byte	0xa
 2290 0310 05       		.byte	0x5
 2291 0311 2A01     		.2byte	0x12a
 2292 0313 66030000 		.4byte	0x366
 2293 0317 10       		.uleb128 0x10
 2294 0318 72617700 		.ascii	"raw\000"
 2295 031c 05       		.byte	0x5
 2296 031d 2F01     		.2byte	0x12f
 2297 031f 66030000 		.4byte	0x366
 2298 0323 00       		.byte	0
 2299 0324 0E       		.uleb128 0xe
 2300 0325 6D0A0000 		.4byte	.LASF47
 2301 0329 05       		.byte	0x5
 2302 032a 3401     		.2byte	0x134
 2303 032c 66030000 		.4byte	0x366
 2304 0330 02       		.byte	0x2
 2305 0331 0E       		.uleb128 0xe
 2306 0332 12090000 		.4byte	.LASF48
 2307 0336 05       		.byte	0x5
 2308 0337 3A01     		.2byte	0x13a
 2309 0339 07020000 		.4byte	0x207
 2310 033d 04       		.byte	0x4
 2311 033e 0E       		.uleb128 0xe
 2312 033f C8070000 		.4byte	.LASF49
 2313 0343 05       		.byte	0x5
 2314 0344 3F01     		.2byte	0x13f
 2315 0346 D9000000 		.4byte	0xd9
 2316 034a 06       		.byte	0x6
 2317 034b 0E       		.uleb128 0xe
 2318 034c AB0A0000 		.4byte	.LASF50
 2319 0350 05       		.byte	0x5
 2320 0351 4401     		.2byte	0x144
 2321 0353 76030000 		.4byte	0x376
 2322 0357 08       		.byte	0x8
 2323 0358 0E       		.uleb128 0xe
 2324 0359 8B040000 		.4byte	.LASF51
 2325 035d 05       		.byte	0x5
 2326 035e 4A01     		.2byte	0x14a
 2327 0360 07020000 		.4byte	0x207
 2328 0364 09       		.byte	0x9
 2329 0365 00       		.byte	0
 2330 0366 0C       		.uleb128 0xc
 2331 0367 77000000 		.4byte	0x77
 2332 036b 76030000 		.4byte	0x376
 2333 036f 0D       		.uleb128 0xd
 2334 0370 17020000 		.4byte	0x217
 2335 0374 00       		.byte	0
 2336 0375 00       		.byte	0
 2337 0376 0C       		.uleb128 0xc
 2338 0377 E4000000 		.4byte	0xe4
ARM GAS  C:\Users\Jerry\AppData\Local\Temp\cc2mbs0O.s 			page 95


 2339 037b 86030000 		.4byte	0x386
 2340 037f 0D       		.uleb128 0xd
 2341 0380 17020000 		.4byte	0x217
 2342 0384 00       		.byte	0
 2343 0385 00       		.byte	0
 2344 0386 04       		.uleb128 0x4
 2345 0387 E0020000 		.4byte	.LASF52
 2346 038b 05       		.byte	0x5
 2347 038c 4B01     		.2byte	0x14b
 2348 038e 0E030000 		.4byte	0x30e
 2349 0392 0F       		.uleb128 0xf
 2350 0393 0A       		.byte	0xa
 2351 0394 05       		.byte	0x5
 2352 0395 5101     		.2byte	0x151
 2353 0397 A9030000 		.4byte	0x3a9
 2354 039b 0E       		.uleb128 0xe
 2355 039c 090A0000 		.4byte	.LASF45
 2356 03a0 05       		.byte	0x5
 2357 03a1 5601     		.2byte	0x156
 2358 03a3 A9030000 		.4byte	0x3a9
 2359 03a7 00       		.byte	0
 2360 03a8 00       		.byte	0
 2361 03a9 0C       		.uleb128 0xc
 2362 03aa 86030000 		.4byte	0x386
 2363 03ae B9030000 		.4byte	0x3b9
 2364 03b2 0D       		.uleb128 0xd
 2365 03b3 17020000 		.4byte	0x217
 2366 03b7 00       		.byte	0
 2367 03b8 00       		.byte	0
 2368 03b9 04       		.uleb128 0x4
 2369 03ba 010B0000 		.4byte	.LASF53
 2370 03be 05       		.byte	0x5
 2371 03bf 5701     		.2byte	0x157
 2372 03c1 92030000 		.4byte	0x392
 2373 03c5 0F       		.uleb128 0xf
 2374 03c6 40       		.byte	0x40
 2375 03c7 05       		.byte	0x5
 2376 03c8 5E01     		.2byte	0x15e
 2377 03ca 9F040000 		.4byte	0x49f
 2378 03ce 0E       		.uleb128 0xe
 2379 03cf DD060000 		.4byte	.LASF54
 2380 03d3 05       		.byte	0x5
 2381 03d4 6401     		.2byte	0x164
 2382 03d6 77000000 		.4byte	0x77
 2383 03da 00       		.byte	0
 2384 03db 0E       		.uleb128 0xe
 2385 03dc F80A0000 		.4byte	.LASF55
 2386 03e0 05       		.byte	0x5
 2387 03e1 6901     		.2byte	0x169
 2388 03e3 77000000 		.4byte	0x77
 2389 03e7 02       		.byte	0x2
 2390 03e8 0E       		.uleb128 0xe
 2391 03e9 E7070000 		.4byte	.LASF56
 2392 03ed 05       		.byte	0x5
 2393 03ee 6F01     		.2byte	0x16f
 2394 03f0 77000000 		.4byte	0x77
 2395 03f4 04       		.byte	0x4
ARM GAS  C:\Users\Jerry\AppData\Local\Temp\cc2mbs0O.s 			page 96


 2396 03f5 0E       		.uleb128 0xe
 2397 03f6 99000000 		.4byte	.LASF57
 2398 03fa 05       		.byte	0x5
 2399 03fb 7401     		.2byte	0x174
 2400 03fd 77000000 		.4byte	0x77
 2401 0401 06       		.byte	0x6
 2402 0402 0E       		.uleb128 0xe
 2403 0403 4B040000 		.4byte	.LASF58
 2404 0407 05       		.byte	0x5
 2405 0408 7901     		.2byte	0x179
 2406 040a 83000000 		.4byte	0x83
 2407 040e 08       		.byte	0x8
 2408 040f 0E       		.uleb128 0xe
 2409 0410 BD070000 		.4byte	.LASF59
 2410 0414 05       		.byte	0x5
 2411 0415 7E01     		.2byte	0x17e
 2412 0417 9F040000 		.4byte	0x49f
 2413 041b 0C       		.byte	0xc
 2414 041c 0E       		.uleb128 0xe
 2415 041d 77080000 		.4byte	.LASF60
 2416 0421 05       		.byte	0x5
 2417 0422 8301     		.2byte	0x183
 2418 0424 9F040000 		.4byte	0x49f
 2419 0428 10       		.byte	0x10
 2420 0429 0E       		.uleb128 0xe
 2421 042a FD060000 		.4byte	.LASF61
 2422 042e 05       		.byte	0x5
 2423 042f 9101     		.2byte	0x191
 2424 0431 07020000 		.4byte	0x207
 2425 0435 14       		.byte	0x14
 2426 0436 0E       		.uleb128 0xe
 2427 0437 3E050000 		.4byte	.LASF62
 2428 043b 05       		.byte	0x5
 2429 043c 9601     		.2byte	0x196
 2430 043e 77000000 		.4byte	0x77
 2431 0442 16       		.byte	0x16
 2432 0443 0E       		.uleb128 0xe
 2433 0444 D6020000 		.4byte	.LASF63
 2434 0448 05       		.byte	0x5
 2435 0449 9B01     		.2byte	0x19b
 2436 044b 6B000000 		.4byte	0x6b
 2437 044f 18       		.byte	0x18
 2438 0450 0E       		.uleb128 0xe
 2439 0451 E4040000 		.4byte	.LASF64
 2440 0455 05       		.byte	0x5
 2441 0456 A001     		.2byte	0x1a0
 2442 0458 02030000 		.4byte	0x302
 2443 045c 1A       		.byte	0x1a
 2444 045d 0E       		.uleb128 0xe
 2445 045e 05020000 		.4byte	.LASF65
 2446 0462 05       		.byte	0x5
 2447 0463 A501     		.2byte	0x1a5
 2448 0465 B9030000 		.4byte	0x3b9
 2449 0469 2E       		.byte	0x2e
 2450 046a 0E       		.uleb128 0xe
 2451 046b 7C000000 		.4byte	.LASF66
 2452 046f 05       		.byte	0x5
ARM GAS  C:\Users\Jerry\AppData\Local\Temp\cc2mbs0O.s 			page 97


 2453 0470 AA01     		.2byte	0x1aa
 2454 0472 6B000000 		.4byte	0x6b
 2455 0476 38       		.byte	0x38
 2456 0477 0E       		.uleb128 0xe
 2457 0478 52020000 		.4byte	.LASF67
 2458 047c 05       		.byte	0x5
 2459 047d AF01     		.2byte	0x1af
 2460 047f 6B000000 		.4byte	0x6b
 2461 0483 39       		.byte	0x39
 2462 0484 0E       		.uleb128 0xe
 2463 0485 CA060000 		.4byte	.LASF68
 2464 0489 05       		.byte	0x5
 2465 048a B401     		.2byte	0x1b4
 2466 048c 77000000 		.4byte	0x77
 2467 0490 3A       		.byte	0x3a
 2468 0491 0E       		.uleb128 0xe
 2469 0492 12050000 		.4byte	.LASF69
 2470 0496 05       		.byte	0x5
 2471 0497 B901     		.2byte	0x1b9
 2472 0499 66030000 		.4byte	0x366
 2473 049d 3C       		.byte	0x3c
 2474 049e 00       		.byte	0
 2475 049f 0C       		.uleb128 0xc
 2476 04a0 83000000 		.4byte	0x83
 2477 04a4 AF040000 		.4byte	0x4af
 2478 04a8 0D       		.uleb128 0xd
 2479 04a9 17020000 		.4byte	0x217
 2480 04ad 00       		.byte	0
 2481 04ae 00       		.byte	0
 2482 04af 04       		.uleb128 0x4
 2483 04b0 61070000 		.4byte	.LASF70
 2484 04b4 05       		.byte	0x5
 2485 04b5 BA01     		.2byte	0x1ba
 2486 04b7 C5030000 		.4byte	0x3c5
 2487 04bb 0F       		.uleb128 0xf
 2488 04bc 1C       		.byte	0x1c
 2489 04bd 05       		.byte	0x5
 2490 04be C001     		.2byte	0x1c0
 2491 04c0 3A050000 		.4byte	0x53a
 2492 04c4 0E       		.uleb128 0xe
 2493 04c5 8F050000 		.4byte	.LASF71
 2494 04c9 05       		.byte	0x5
 2495 04ca C501     		.2byte	0x1c5
 2496 04cc 3A050000 		.4byte	0x53a
 2497 04d0 00       		.byte	0
 2498 04d1 0E       		.uleb128 0xe
 2499 04d2 94040000 		.4byte	.LASF72
 2500 04d6 05       		.byte	0x5
 2501 04d7 CA01     		.2byte	0x1ca
 2502 04d9 3A050000 		.4byte	0x53a
 2503 04dd 04       		.byte	0x4
 2504 04de 0E       		.uleb128 0xe
 2505 04df 09030000 		.4byte	.LASF73
 2506 04e3 05       		.byte	0x5
 2507 04e4 CF01     		.2byte	0x1cf
 2508 04e6 3A050000 		.4byte	0x53a
 2509 04ea 08       		.byte	0x8
ARM GAS  C:\Users\Jerry\AppData\Local\Temp\cc2mbs0O.s 			page 98


 2510 04eb 0E       		.uleb128 0xe
 2511 04ec F8070000 		.4byte	.LASF74
 2512 04f0 05       		.byte	0x5
 2513 04f1 D401     		.2byte	0x1d4
 2514 04f3 3A050000 		.4byte	0x53a
 2515 04f7 0C       		.byte	0xc
 2516 04f8 0E       		.uleb128 0xe
 2517 04f9 DD090000 		.4byte	.LASF75
 2518 04fd 05       		.byte	0x5
 2519 04fe D901     		.2byte	0x1d9
 2520 0500 83000000 		.4byte	0x83
 2521 0504 10       		.byte	0x10
 2522 0505 0E       		.uleb128 0xe
 2523 0506 4F060000 		.4byte	.LASF76
 2524 050a 05       		.byte	0x5
 2525 050b DE01     		.2byte	0x1de
 2526 050d 83000000 		.4byte	0x83
 2527 0511 14       		.byte	0x14
 2528 0512 0E       		.uleb128 0xe
 2529 0513 1F040000 		.4byte	.LASF77
 2530 0517 05       		.byte	0x5
 2531 0518 E301     		.2byte	0x1e3
 2532 051a 6B000000 		.4byte	0x6b
 2533 051e 18       		.byte	0x18
 2534 051f 0E       		.uleb128 0xe
 2535 0520 A2080000 		.4byte	.LASF78
 2536 0524 05       		.byte	0x5
 2537 0525 E801     		.2byte	0x1e8
 2538 0527 6B000000 		.4byte	0x6b
 2539 052b 19       		.byte	0x19
 2540 052c 0E       		.uleb128 0xe
 2541 052d B2010000 		.4byte	.LASF79
 2542 0531 05       		.byte	0x5
 2543 0532 ED01     		.2byte	0x1ed
 2544 0534 6B000000 		.4byte	0x6b
 2545 0538 1A       		.byte	0x1a
 2546 0539 00       		.byte	0
 2547 053a 06       		.uleb128 0x6
 2548 053b 04       		.byte	0x4
 2549 053c B5000000 		.4byte	0xb5
 2550 0540 04       		.uleb128 0x4
 2551 0541 39020000 		.4byte	.LASF80
 2552 0545 05       		.byte	0x5
 2553 0546 EE01     		.2byte	0x1ee
 2554 0548 BB040000 		.4byte	0x4bb
 2555 054c 0F       		.uleb128 0xf
 2556 054d 20       		.byte	0x20
 2557 054e 05       		.byte	0x5
 2558 054f 1902     		.2byte	0x219
 2559 0551 D8050000 		.4byte	0x5d8
 2560 0555 0E       		.uleb128 0xe
 2561 0556 850A0000 		.4byte	.LASF81
 2562 055a 05       		.byte	0x5
 2563 055b 2202     		.2byte	0x222
 2564 055d D8050000 		.4byte	0x5d8
 2565 0561 00       		.byte	0
 2566 0562 0E       		.uleb128 0xe
ARM GAS  C:\Users\Jerry\AppData\Local\Temp\cc2mbs0O.s 			page 99


 2567 0563 A8090000 		.4byte	.LASF82
 2568 0567 05       		.byte	0x5
 2569 0568 2802     		.2byte	0x228
 2570 056a DF050000 		.4byte	0x5df
 2571 056e 04       		.byte	0x4
 2572 056f 0E       		.uleb128 0xe
 2573 0570 E6060000 		.4byte	.LASF83
 2574 0574 05       		.byte	0x5
 2575 0575 2E02     		.2byte	0x22e
 2576 0577 E1050000 		.4byte	0x5e1
 2577 057b 08       		.byte	0x8
 2578 057c 0E       		.uleb128 0xe
 2579 057d 2A060000 		.4byte	.LASF84
 2580 0581 05       		.byte	0x5
 2581 0582 3302     		.2byte	0x233
 2582 0584 DF050000 		.4byte	0x5df
 2583 0588 0C       		.byte	0xc
 2584 0589 0E       		.uleb128 0xe
 2585 058a D9080000 		.4byte	.LASF85
 2586 058e 05       		.byte	0x5
 2587 058f 3A02     		.2byte	0x23a
 2588 0591 F4000000 		.4byte	0xf4
 2589 0595 10       		.byte	0x10
 2590 0596 0E       		.uleb128 0xe
 2591 0597 9B090000 		.4byte	.LASF86
 2592 059b 05       		.byte	0x5
 2593 059c 3F02     		.2byte	0x23f
 2594 059e 77000000 		.4byte	0x77
 2595 05a2 14       		.byte	0x14
 2596 05a3 0E       		.uleb128 0xe
 2597 05a4 67030000 		.4byte	.LASF87
 2598 05a8 05       		.byte	0x5
 2599 05a9 4602     		.2byte	0x246
 2600 05ab 77000000 		.4byte	0x77
 2601 05af 16       		.byte	0x16
 2602 05b0 0E       		.uleb128 0xe
 2603 05b1 79020000 		.4byte	.LASF88
 2604 05b5 05       		.byte	0x5
 2605 05b6 5102     		.2byte	0x251
 2606 05b8 6B000000 		.4byte	0x6b
 2607 05bc 18       		.byte	0x18
 2608 05bd 0E       		.uleb128 0xe
 2609 05be A8040000 		.4byte	.LASF89
 2610 05c2 05       		.byte	0x5
 2611 05c3 5902     		.2byte	0x259
 2612 05c5 6B000000 		.4byte	0x6b
 2613 05c9 19       		.byte	0x19
 2614 05ca 0E       		.uleb128 0xe
 2615 05cb 62020000 		.4byte	.LASF90
 2616 05cf 05       		.byte	0x5
 2617 05d0 6102     		.2byte	0x261
 2618 05d2 E7050000 		.4byte	0x5e7
 2619 05d6 1C       		.byte	0x1c
 2620 05d7 00       		.byte	0
 2621 05d8 06       		.uleb128 0x6
 2622 05d9 04       		.byte	0x4
 2623 05da DE050000 		.4byte	0x5de
ARM GAS  C:\Users\Jerry\AppData\Local\Temp\cc2mbs0O.s 			page 100


 2624 05de 11       		.uleb128 0x11
 2625 05df 12       		.uleb128 0x12
 2626 05e0 04       		.byte	0x4
 2627 05e1 06       		.uleb128 0x6
 2628 05e2 04       		.byte	0x4
 2629 05e3 86030000 		.4byte	0x386
 2630 05e7 06       		.uleb128 0x6
 2631 05e8 04       		.byte	0x4
 2632 05e9 57010000 		.4byte	0x157
 2633 05ed 04       		.uleb128 0x4
 2634 05ee 2A030000 		.4byte	.LASF91
 2635 05f2 05       		.byte	0x5
 2636 05f3 6202     		.2byte	0x262
 2637 05f5 4C050000 		.4byte	0x54c
 2638 05f9 0F       		.uleb128 0xf
 2639 05fa 20       		.byte	0x20
 2640 05fb 05       		.byte	0x5
 2641 05fc 6802     		.2byte	0x268
 2642 05fe 10060000 		.4byte	0x610
 2643 0602 0E       		.uleb128 0xe
 2644 0603 1E0B0000 		.4byte	.LASF92
 2645 0607 05       		.byte	0x5
 2646 0608 6D02     		.2byte	0x26d
 2647 060a 10060000 		.4byte	0x610
 2648 060e 00       		.byte	0
 2649 060f 00       		.byte	0
 2650 0610 0C       		.uleb128 0xc
 2651 0611 ED050000 		.4byte	0x5ed
 2652 0615 20060000 		.4byte	0x620
 2653 0619 0D       		.uleb128 0xd
 2654 061a 17020000 		.4byte	0x217
 2655 061e 00       		.byte	0
 2656 061f 00       		.byte	0
 2657 0620 04       		.uleb128 0x4
 2658 0621 ED040000 		.4byte	.LASF93
 2659 0625 05       		.byte	0x5
 2660 0626 6E02     		.2byte	0x26e
 2661 0628 F9050000 		.4byte	0x5f9
 2662 062c 13       		.uleb128 0x13
 2663 062d 56050000 		.4byte	.LASF134
 2664 0631 01       		.byte	0x1
 2665 0632 6C07     		.2byte	0x76c
 2666 0634 A4000000 		.4byte	0xa4
 2667 0638 01       		.byte	0x1
 2668 0639 92060000 		.4byte	0x692
 2669 063d 14       		.uleb128 0x14
 2670 063e 6B010000 		.4byte	.LASF94
 2671 0642 01       		.byte	0x1
 2672 0643 6C07     		.2byte	0x76c
 2673 0645 92060000 		.4byte	0x692
 2674 0649 14       		.uleb128 0x14
 2675 064a 21030000 		.4byte	.LASF95
 2676 064e 01       		.byte	0x1
 2677 064f 6C07     		.2byte	0x76c
 2678 0651 83000000 		.4byte	0x83
 2679 0655 14       		.uleb128 0x14
 2680 0656 14070000 		.4byte	.LASF96
ARM GAS  C:\Users\Jerry\AppData\Local\Temp\cc2mbs0O.s 			page 101


 2681 065a 01       		.byte	0x1
 2682 065b 6C07     		.2byte	0x76c
 2683 065d 83000000 		.4byte	0x83
 2684 0661 15       		.uleb128 0x15
 2685 0662 D4040000 		.4byte	.LASF97
 2686 0666 01       		.byte	0x1
 2687 0667 6E07     		.2byte	0x76e
 2688 0669 A4000000 		.4byte	0xa4
 2689 066d 15       		.uleb128 0x15
 2690 066e F3090000 		.4byte	.LASF98
 2691 0672 01       		.byte	0x1
 2692 0673 6F07     		.2byte	0x76f
 2693 0675 83000000 		.4byte	0x83
 2694 0679 15       		.uleb128 0x15
 2695 067a F1060000 		.4byte	.LASF99
 2696 067e 01       		.byte	0x1
 2697 067f 7007     		.2byte	0x770
 2698 0681 83000000 		.4byte	0x83
 2699 0685 15       		.uleb128 0x15
 2700 0686 54060000 		.4byte	.LASF100
 2701 068a 01       		.byte	0x1
 2702 068b 7107     		.2byte	0x771
 2703 068d 83000000 		.4byte	0x83
 2704 0691 00       		.byte	0
 2705 0692 06       		.uleb128 0x6
 2706 0693 04       		.byte	0x4
 2707 0694 98060000 		.4byte	0x698
 2708 0698 09       		.uleb128 0x9
 2709 0699 1E020000 		.4byte	0x21e
 2710 069d 16       		.uleb128 0x16
 2711 069e 8F070000 		.4byte	.LASF156
 2712 06a2 01       		.byte	0x1
 2713 06a3 A201     		.2byte	0x1a2
 2714 06a5 01       		.byte	0x1
 2715 06a6 C3060000 		.4byte	0x6c3
 2716 06aa 14       		.uleb128 0x14
 2717 06ab 07070000 		.4byte	.LASF38
 2718 06af 01       		.byte	0x1
 2719 06b0 A201     		.2byte	0x1a2
 2720 06b2 83000000 		.4byte	0x83
 2721 06b6 14       		.uleb128 0x14
 2722 06b7 EA0A0000 		.4byte	.LASF101
 2723 06bb 01       		.byte	0x1
 2724 06bc A201     		.2byte	0x1a2
 2725 06be 83000000 		.4byte	0x83
 2726 06c2 00       		.byte	0
 2727 06c3 17       		.uleb128 0x17
 2728 06c4 1C070000 		.4byte	.LASF154
 2729 06c8 01       		.byte	0x1
 2730 06c9 EE02     		.2byte	0x2ee
 2731 06cb 01       		.byte	0x1
 2732 06cc 18       		.uleb128 0x18
 2733 06cd 9D060000 		.4byte	0x69d
 2734 06d1 00000000 		.4byte	.LFB1
 2735 06d5 10000000 		.4byte	.LFE1-.LFB1
 2736 06d9 01       		.uleb128 0x1
 2737 06da 9C       		.byte	0x9c
ARM GAS  C:\Users\Jerry\AppData\Local\Temp\cc2mbs0O.s 			page 102


 2738 06db F2060000 		.4byte	0x6f2
 2739 06df 19       		.uleb128 0x19
 2740 06e0 AA060000 		.4byte	0x6aa
 2741 06e4 00000000 		.4byte	.LLST0
 2742 06e8 19       		.uleb128 0x19
 2743 06e9 B6060000 		.4byte	0x6b6
 2744 06ed 21000000 		.4byte	.LLST1
 2745 06f1 00       		.byte	0
 2746 06f2 1A       		.uleb128 0x1a
 2747 06f3 B4000000 		.4byte	.LASF167
 2748 06f7 01       		.byte	0x1
 2749 06f8 EA01     		.2byte	0x1ea
 2750 06fa 01       		.byte	0x1
 2751 06fb 1B       		.uleb128 0x1b
 2752 06fc 70090000 		.4byte	.LASF113
 2753 0700 01       		.byte	0x1
 2754 0701 C101     		.2byte	0x1c1
 2755 0703 01       		.byte	0x1
 2756 0704 15070000 		.4byte	0x715
 2757 0708 15       		.uleb128 0x15
 2758 0709 60060000 		.4byte	.LASF102
 2759 070d 01       		.byte	0x1
 2760 070e C401     		.2byte	0x1c4
 2761 0710 83000000 		.4byte	0x83
 2762 0714 00       		.byte	0
 2763 0715 1C       		.uleb128 0x1c
 2764 0716 B0040000 		.4byte	.LASF103
 2765 071a 01       		.byte	0x1
 2766 071b 2202     		.2byte	0x222
 2767 071d 00000000 		.4byte	.LFB4
 2768 0721 54010000 		.4byte	.LFE4-.LFB4
 2769 0725 01       		.uleb128 0x1
 2770 0726 9C       		.byte	0x9c
 2771 0727 92070000 		.4byte	0x792
 2772 072b 1D       		.uleb128 0x1d
 2773 072c 920A0000 		.4byte	.LASF105
 2774 0730 01       		.byte	0x1
 2775 0731 2402     		.2byte	0x224
 2776 0733 83000000 		.4byte	0x83
 2777 0737 41000000 		.4byte	.LLST2
 2778 073b 1E       		.uleb128 0x1e
 2779 073c F2060000 		.4byte	0x6f2
 2780 0740 70000000 		.4byte	.LBB8
 2781 0744 0E000000 		.4byte	.LBE8-.LBB8
 2782 0748 01       		.byte	0x1
 2783 0749 9902     		.2byte	0x299
 2784 074b 1F       		.uleb128 0x1f
 2785 074c FB060000 		.4byte	0x6fb
 2786 0750 84000000 		.4byte	.LBB10
 2787 0754 22000000 		.4byte	.LBE10-.LBB10
 2788 0758 01       		.byte	0x1
 2789 0759 A402     		.2byte	0x2a4
 2790 075b 6F070000 		.4byte	0x76f
 2791 075f 20       		.uleb128 0x20
 2792 0760 84000000 		.4byte	.LBB11
 2793 0764 22000000 		.4byte	.LBE11-.LBB11
 2794 0768 21       		.uleb128 0x21
ARM GAS  C:\Users\Jerry\AppData\Local\Temp\cc2mbs0O.s 			page 103


 2795 0769 08070000 		.4byte	0x708
 2796 076d 00       		.byte	0
 2797 076e 00       		.byte	0
 2798 076f 22       		.uleb128 0x22
 2799 0770 06000000 		.4byte	.LVL3
 2800 0774 D40F0000 		.4byte	0xfd4
 2801 0778 22       		.uleb128 0x22
 2802 0779 84000000 		.4byte	.LVL16
 2803 077d DB0F0000 		.4byte	0xfdb
 2804 0781 23       		.uleb128 0x23
 2805 0782 B6000000 		.4byte	.LVL19
 2806 0786 EC0F0000 		.4byte	0xfec
 2807 078a 24       		.uleb128 0x24
 2808 078b 01       		.uleb128 0x1
 2809 078c 50       		.byte	0x50
 2810 078d 02       		.uleb128 0x2
 2811 078e 08       		.byte	0x8
 2812 078f 48       		.byte	0x48
 2813 0790 00       		.byte	0
 2814 0791 00       		.byte	0
 2815 0792 25       		.uleb128 0x25
 2816 0793 4E030000 		.4byte	.LASF104
 2817 0797 01       		.byte	0x1
 2818 0798 2B03     		.2byte	0x32b
 2819 079a 00000000 		.4byte	.LFB6
 2820 079e 44000000 		.4byte	.LFE6-.LFB6
 2821 07a2 01       		.uleb128 0x1
 2822 07a3 9C       		.byte	0x9c
 2823 07a4 FB070000 		.4byte	0x7fb
 2824 07a8 26       		.uleb128 0x26
 2825 07a9 6B010000 		.4byte	.LASF94
 2826 07ad 01       		.byte	0x1
 2827 07ae 2B03     		.2byte	0x32b
 2828 07b0 92060000 		.4byte	0x692
 2829 07b4 89000000 		.4byte	.LLST3
 2830 07b8 1D       		.uleb128 0x1d
 2831 07b9 A5000000 		.4byte	.LASF106
 2832 07bd 01       		.byte	0x1
 2833 07be 2E03     		.2byte	0x32e
 2834 07c0 6B000000 		.4byte	0x6b
 2835 07c4 B5000000 		.4byte	.LLST4
 2836 07c8 1D       		.uleb128 0x1d
 2837 07c9 07080000 		.4byte	.LASF107
 2838 07cd 01       		.byte	0x1
 2839 07ce 3103     		.2byte	0x331
 2840 07d0 83000000 		.4byte	0x83
 2841 07d4 C8000000 		.4byte	.LLST5
 2842 07d8 1D       		.uleb128 0x1d
 2843 07d9 00000000 		.4byte	.LASF108
 2844 07dd 01       		.byte	0x1
 2845 07de 3403     		.2byte	0x334
 2846 07e0 83000000 		.4byte	0x83
 2847 07e4 E7000000 		.4byte	.LLST6
 2848 07e8 22       		.uleb128 0x22
 2849 07e9 08000000 		.4byte	.LVL21
 2850 07ed FD0F0000 		.4byte	0xffd
 2851 07f1 22       		.uleb128 0x22
ARM GAS  C:\Users\Jerry\AppData\Local\Temp\cc2mbs0O.s 			page 104


 2852 07f2 32000000 		.4byte	.LVL30
 2853 07f6 08100000 		.4byte	0x1008
 2854 07fa 00       		.byte	0
 2855 07fb 27       		.uleb128 0x27
 2856 07fc FA030000 		.4byte	.LASF141
 2857 0800 01       		.byte	0x1
 2858 0801 9F03     		.2byte	0x39f
 2859 0803 83000000 		.4byte	0x83
 2860 0807 00000000 		.4byte	.LFB7
 2861 080b 64000000 		.4byte	.LFE7-.LFB7
 2862 080f 01       		.uleb128 0x1
 2863 0810 9C       		.byte	0x9c
 2864 0811 62080000 		.4byte	0x862
 2865 0815 26       		.uleb128 0x26
 2866 0816 EA0A0000 		.4byte	.LASF101
 2867 081a 01       		.byte	0x1
 2868 081b 9F03     		.2byte	0x39f
 2869 081d 83000000 		.4byte	0x83
 2870 0821 FA000000 		.4byte	.LLST7
 2871 0825 26       		.uleb128 0x26
 2872 0826 40040000 		.4byte	.LASF28
 2873 082a 01       		.byte	0x1
 2874 082b 9F03     		.2byte	0x39f
 2875 082d 83000000 		.4byte	0x83
 2876 0831 3F010000 		.4byte	.LLST8
 2877 0835 26       		.uleb128 0x26
 2878 0836 D3010000 		.4byte	.LASF109
 2879 083a 01       		.byte	0x1
 2880 083b 9F03     		.2byte	0x39f
 2881 083d 83000000 		.4byte	0x83
 2882 0841 60010000 		.4byte	.LLST9
 2883 0845 1D       		.uleb128 0x1d
 2884 0846 31040000 		.4byte	.LASF110
 2885 084a 01       		.byte	0x1
 2886 084b A103     		.2byte	0x3a1
 2887 084d 83000000 		.4byte	0x83
 2888 0851 99010000 		.4byte	.LLST10
 2889 0855 15       		.uleb128 0x15
 2890 0856 60060000 		.4byte	.LASF102
 2891 085a 01       		.byte	0x1
 2892 085b A303     		.2byte	0x3a3
 2893 085d 83000000 		.4byte	0x83
 2894 0861 00       		.byte	0
 2895 0862 25       		.uleb128 0x25
 2896 0863 AA060000 		.4byte	.LASF111
 2897 0867 01       		.byte	0x1
 2898 0868 F503     		.2byte	0x3f5
 2899 086a 00000000 		.4byte	.LFB8
 2900 086e 48000000 		.4byte	.LFE8-.LFB8
 2901 0872 01       		.uleb128 0x1
 2902 0873 9C       		.byte	0x9c
 2903 0874 D9080000 		.4byte	0x8d9
 2904 0878 1D       		.uleb128 0x1d
 2905 0879 EA0A0000 		.4byte	.LASF101
 2906 087d 01       		.byte	0x1
 2907 087e F703     		.2byte	0x3f7
 2908 0880 83000000 		.4byte	0x83
ARM GAS  C:\Users\Jerry\AppData\Local\Temp\cc2mbs0O.s 			page 105


 2909 0884 CD010000 		.4byte	.LLST11
 2910 0888 1D       		.uleb128 0x1d
 2911 0889 920A0000 		.4byte	.LASF105
 2912 088d 01       		.byte	0x1
 2913 088e F803     		.2byte	0x3f8
 2914 0890 83000000 		.4byte	0x83
 2915 0894 F8010000 		.4byte	.LLST12
 2916 0898 1D       		.uleb128 0x1d
 2917 0899 6B010000 		.4byte	.LASF94
 2918 089d 01       		.byte	0x1
 2919 089e FC03     		.2byte	0x3fc
 2920 08a0 92060000 		.4byte	0x692
 2921 08a4 2E020000 		.4byte	.LLST13
 2922 08a8 1F       		.uleb128 0x1f
 2923 08a9 9D060000 		.4byte	0x69d
 2924 08ad 28000000 		.4byte	.LBB12
 2925 08b1 0A000000 		.4byte	.LBE12-.LBB12
 2926 08b5 01       		.byte	0x1
 2927 08b6 4604     		.2byte	0x446
 2928 08b8 CF080000 		.4byte	0x8cf
 2929 08bc 19       		.uleb128 0x19
 2930 08bd B6060000 		.4byte	0x6b6
 2931 08c1 41020000 		.4byte	.LLST14
 2932 08c5 19       		.uleb128 0x19
 2933 08c6 AA060000 		.4byte	0x6aa
 2934 08ca 61020000 		.4byte	.LLST15
 2935 08ce 00       		.byte	0
 2936 08cf 22       		.uleb128 0x22
 2937 08d0 36000000 		.4byte	.LVL54
 2938 08d4 19100000 		.4byte	0x1019
 2939 08d8 00       		.byte	0
 2940 08d9 25       		.uleb128 0x25
 2941 08da 37000000 		.4byte	.LASF112
 2942 08de 01       		.byte	0x1
 2943 08df 6604     		.2byte	0x466
 2944 08e1 00000000 		.4byte	.LFB9
 2945 08e5 1C000000 		.4byte	.LFE9-.LFB9
 2946 08e9 01       		.uleb128 0x1
 2947 08ea 9C       		.byte	0x9c
 2948 08eb 29090000 		.4byte	0x929
 2949 08ef 26       		.uleb128 0x26
 2950 08f0 6B010000 		.4byte	.LASF94
 2951 08f4 01       		.byte	0x1
 2952 08f5 6604     		.2byte	0x466
 2953 08f7 92060000 		.4byte	0x692
 2954 08fb 74020000 		.4byte	.LLST16
 2955 08ff 1D       		.uleb128 0x1d
 2956 0900 31040000 		.4byte	.LASF110
 2957 0904 01       		.byte	0x1
 2958 0905 6904     		.2byte	0x469
 2959 0907 83000000 		.4byte	0x83
 2960 090b A0020000 		.4byte	.LLST17
 2961 090f 1D       		.uleb128 0x1d
 2962 0910 EA0A0000 		.4byte	.LASF101
 2963 0914 01       		.byte	0x1
 2964 0915 6A04     		.2byte	0x46a
 2965 0917 83000000 		.4byte	0x83
ARM GAS  C:\Users\Jerry\AppData\Local\Temp\cc2mbs0O.s 			page 106


 2966 091b B3020000 		.4byte	.LLST18
 2967 091f 22       		.uleb128 0x22
 2968 0920 0E000000 		.4byte	.LVL57
 2969 0924 FB070000 		.4byte	0x7fb
 2970 0928 00       		.byte	0
 2971 0929 1B       		.uleb128 0x1b
 2972 092a A9020000 		.4byte	.LASF114
 2973 092e 01       		.byte	0x1
 2974 092f B009     		.2byte	0x9b0
 2975 0931 03       		.byte	0x3
 2976 0932 43090000 		.4byte	0x943
 2977 0936 15       		.uleb128 0x15
 2978 0937 DD010000 		.4byte	.LASF115
 2979 093b 01       		.byte	0x1
 2980 093c B609     		.2byte	0x9b6
 2981 093e 83000000 		.4byte	0x83
 2982 0942 00       		.byte	0
 2983 0943 1B       		.uleb128 0x1b
 2984 0944 98010000 		.4byte	.LASF116
 2985 0948 01       		.byte	0x1
 2986 0949 370A     		.2byte	0xa37
 2987 094b 03       		.byte	0x3
 2988 094c 5D090000 		.4byte	0x95d
 2989 0950 15       		.uleb128 0x15
 2990 0951 DD010000 		.4byte	.LASF115
 2991 0955 01       		.byte	0x1
 2992 0956 3D0A     		.2byte	0xa3d
 2993 0958 83000000 		.4byte	0x83
 2994 095c 00       		.byte	0
 2995 095d 25       		.uleb128 0x25
 2996 095e CD070000 		.4byte	.LASF117
 2997 0962 01       		.byte	0x1
 2998 0963 3F05     		.2byte	0x53f
 2999 0965 00000000 		.4byte	.LFB12
 3000 0969 18010000 		.4byte	.LFE12-.LFB12
 3001 096d 01       		.uleb128 0x1
 3002 096e 9C       		.byte	0x9c
 3003 096f 000A0000 		.4byte	0xa00
 3004 0973 28       		.uleb128 0x28
 3005 0974 29090000 		.4byte	0x929
 3006 0978 16000000 		.4byte	.LBB18
 3007 097c 00000000 		.4byte	.Ldebug_ranges0+0
 3008 0980 01       		.byte	0x1
 3009 0981 5705     		.2byte	0x557
 3010 0983 97090000 		.4byte	0x997
 3011 0987 29       		.uleb128 0x29
 3012 0988 00000000 		.4byte	.Ldebug_ranges0+0
 3013 098c 2A       		.uleb128 0x2a
 3014 098d 36090000 		.4byte	0x936
 3015 0991 DF020000 		.4byte	.LLST19
 3016 0995 00       		.byte	0
 3017 0996 00       		.byte	0
 3018 0997 28       		.uleb128 0x28
 3019 0998 43090000 		.4byte	0x943
 3020 099c 86000000 		.4byte	.LBB21
 3021 09a0 18000000 		.4byte	.Ldebug_ranges0+0x18
 3022 09a4 01       		.byte	0x1
ARM GAS  C:\Users\Jerry\AppData\Local\Temp\cc2mbs0O.s 			page 107


 3023 09a5 5A05     		.2byte	0x55a
 3024 09a7 DD090000 		.4byte	0x9dd
 3025 09ab 29       		.uleb128 0x29
 3026 09ac 18000000 		.4byte	.Ldebug_ranges0+0x18
 3027 09b0 2A       		.uleb128 0x2a
 3028 09b1 50090000 		.4byte	0x950
 3029 09b5 00030000 		.4byte	.LLST20
 3030 09b9 2B       		.uleb128 0x2b
 3031 09ba 94000000 		.4byte	.LVL65
 3032 09be 2A100000 		.4byte	0x102a
 3033 09c2 CC090000 		.4byte	0x9cc
 3034 09c6 24       		.uleb128 0x24
 3035 09c7 01       		.uleb128 0x1
 3036 09c8 50       		.byte	0x50
 3037 09c9 01       		.uleb128 0x1
 3038 09ca 3E       		.byte	0x3e
 3039 09cb 00       		.byte	0
 3040 09cc 23       		.uleb128 0x23
 3041 09cd 9A000000 		.4byte	.LVL66
 3042 09d1 3B100000 		.4byte	0x103b
 3043 09d5 24       		.uleb128 0x24
 3044 09d6 01       		.uleb128 0x1
 3045 09d7 50       		.byte	0x50
 3046 09d8 01       		.uleb128 0x1
 3047 09d9 3E       		.byte	0x3e
 3048 09da 00       		.byte	0
 3049 09db 00       		.byte	0
 3050 09dc 00       		.byte	0
 3051 09dd 2B       		.uleb128 0x2b
 3052 09de 0E000000 		.4byte	.LVL59
 3053 09e2 4C100000 		.4byte	0x104c
 3054 09e6 F0090000 		.4byte	0x9f0
 3055 09ea 24       		.uleb128 0x24
 3056 09eb 01       		.uleb128 0x1
 3057 09ec 50       		.byte	0x50
 3058 09ed 01       		.uleb128 0x1
 3059 09ee 3E       		.byte	0x3e
 3060 09ef 00       		.byte	0
 3061 09f0 23       		.uleb128 0x23
 3062 09f1 16000000 		.4byte	.LVL60
 3063 09f5 EC0F0000 		.4byte	0xfec
 3064 09f9 24       		.uleb128 0x24
 3065 09fa 01       		.uleb128 0x1
 3066 09fb 50       		.byte	0x50
 3067 09fc 01       		.uleb128 0x1
 3068 09fd 48       		.byte	0x48
 3069 09fe 00       		.byte	0
 3070 09ff 00       		.byte	0
 3071 0a00 25       		.uleb128 0x25
 3072 0a01 63080000 		.4byte	.LASF118
 3073 0a05 01       		.byte	0x1
 3074 0a06 A805     		.2byte	0x5a8
 3075 0a08 00000000 		.4byte	.LFB13
 3076 0a0c 1C000000 		.4byte	.LFE13-.LFB13
 3077 0a10 01       		.uleb128 0x1
 3078 0a11 9C       		.byte	0x9c
 3079 0a12 200A0000 		.4byte	0xa20
ARM GAS  C:\Users\Jerry\AppData\Local\Temp\cc2mbs0O.s 			page 108


 3080 0a16 22       		.uleb128 0x22
 3081 0a17 10000000 		.4byte	.LVL71
 3082 0a1b 5D090000 		.4byte	0x95d
 3083 0a1f 00       		.byte	0
 3084 0a20 25       		.uleb128 0x25
 3085 0a21 82080000 		.4byte	.LASF119
 3086 0a25 01       		.byte	0x1
 3087 0a26 A106     		.2byte	0x6a1
 3088 0a28 00000000 		.4byte	.LFB17
 3089 0a2c 30000000 		.4byte	.LFE17-.LFB17
 3090 0a30 01       		.uleb128 0x1
 3091 0a31 9C       		.byte	0x9c
 3092 0a32 990A0000 		.4byte	0xa99
 3093 0a36 26       		.uleb128 0x26
 3094 0a37 2C000000 		.4byte	.LASF120
 3095 0a3b 01       		.byte	0x1
 3096 0a3c A106     		.2byte	0x6a1
 3097 0a3e 990A0000 		.4byte	0xa99
 3098 0a42 2E030000 		.4byte	.LLST21
 3099 0a46 1D       		.uleb128 0x1d
 3100 0a47 C5020000 		.4byte	.LASF121
 3101 0a4b 01       		.byte	0x1
 3102 0a4c A306     		.2byte	0x6a3
 3103 0a4e 83000000 		.4byte	0x83
 3104 0a52 5A030000 		.4byte	.LLST22
 3105 0a56 1D       		.uleb128 0x1d
 3106 0a57 A5000000 		.4byte	.LASF106
 3107 0a5b 01       		.byte	0x1
 3108 0a5c A406     		.2byte	0x6a4
 3109 0a5e 6B000000 		.4byte	0x6b
 3110 0a62 6D030000 		.4byte	.LLST23
 3111 0a66 1D       		.uleb128 0x1d
 3112 0a67 28010000 		.4byte	.LASF122
 3113 0a6b 01       		.byte	0x1
 3114 0a6c A506     		.2byte	0x6a5
 3115 0a6e 83000000 		.4byte	0x83
 3116 0a72 80030000 		.4byte	.LLST24
 3117 0a76 1D       		.uleb128 0x1d
 3118 0a77 CE000000 		.4byte	.LASF123
 3119 0a7b 01       		.byte	0x1
 3120 0a7c A606     		.2byte	0x6a6
 3121 0a7e 83000000 		.4byte	0x83
 3122 0a82 98030000 		.4byte	.LLST25
 3123 0a86 22       		.uleb128 0x22
 3124 0a87 0C000000 		.4byte	.LVL74
 3125 0a8b FD0F0000 		.4byte	0xffd
 3126 0a8f 22       		.uleb128 0x22
 3127 0a90 2E000000 		.4byte	.LVL79
 3128 0a94 08100000 		.4byte	0x1008
 3129 0a98 00       		.byte	0
 3130 0a99 06       		.uleb128 0x6
 3131 0a9a 04       		.byte	0x4
 3132 0a9b 9F0A0000 		.4byte	0xa9f
 3133 0a9f 09       		.uleb128 0x9
 3134 0aa0 40050000 		.4byte	0x540
 3135 0aa4 25       		.uleb128 0x25
 3136 0aa5 CC090000 		.4byte	.LASF124
ARM GAS  C:\Users\Jerry\AppData\Local\Temp\cc2mbs0O.s 			page 109


 3137 0aa9 01       		.byte	0x1
 3138 0aaa CF05     		.2byte	0x5cf
 3139 0aac 00000000 		.4byte	.LFB14
 3140 0ab0 68000000 		.4byte	.LFE14-.LFB14
 3141 0ab4 01       		.uleb128 0x1
 3142 0ab5 9C       		.byte	0x9c
 3143 0ab6 EF0A0000 		.4byte	0xaef
 3144 0aba 1D       		.uleb128 0x1d
 3145 0abb 6B010000 		.4byte	.LASF94
 3146 0abf 01       		.byte	0x1
 3147 0ac0 D105     		.2byte	0x5d1
 3148 0ac2 92060000 		.4byte	0x692
 3149 0ac6 B0030000 		.4byte	.LLST26
 3150 0aca 22       		.uleb128 0x22
 3151 0acb 2C000000 		.4byte	.LVL83
 3152 0acf 92070000 		.4byte	0x792
 3153 0ad3 22       		.uleb128 0x22
 3154 0ad4 42000000 		.4byte	.LVL84
 3155 0ad8 200A0000 		.4byte	0xa20
 3156 0adc 22       		.uleb128 0x22
 3157 0add 48000000 		.4byte	.LVL85
 3158 0ae1 5D100000 		.4byte	0x105d
 3159 0ae5 22       		.uleb128 0x22
 3160 0ae6 4C000000 		.4byte	.LVL86
 3161 0aea 000A0000 		.4byte	0xa00
 3162 0aee 00       		.byte	0
 3163 0aef 25       		.uleb128 0x25
 3164 0af0 73010000 		.4byte	.LASF125
 3165 0af4 01       		.byte	0x1
 3166 0af5 1406     		.2byte	0x614
 3167 0af7 00000000 		.4byte	.LFB15
 3168 0afb 20000000 		.4byte	.LFE15-.LFB15
 3169 0aff 01       		.uleb128 0x1
 3170 0b00 9C       		.byte	0x9c
 3171 0b01 2F0B0000 		.4byte	0xb2f
 3172 0b05 26       		.uleb128 0x26
 3173 0b06 70060000 		.4byte	.LASF126
 3174 0b0a 01       		.byte	0x1
 3175 0b0b 1406     		.2byte	0x614
 3176 0b0d 83000000 		.4byte	0x83
 3177 0b11 C3030000 		.4byte	.LLST27
 3178 0b15 26       		.uleb128 0x26
 3179 0b16 9D020000 		.4byte	.LASF127
 3180 0b1a 01       		.byte	0x1
 3181 0b1b 1406     		.2byte	0x614
 3182 0b1d 83000000 		.4byte	0x83
 3183 0b21 E4030000 		.4byte	.LLST28
 3184 0b25 22       		.uleb128 0x22
 3185 0b26 16000000 		.4byte	.LVL90
 3186 0b2a 200A0000 		.4byte	0xa20
 3187 0b2e 00       		.byte	0
 3188 0b2f 25       		.uleb128 0x25
 3189 0b30 75070000 		.4byte	.LASF128
 3190 0b34 01       		.byte	0x1
 3191 0b35 D506     		.2byte	0x6d5
 3192 0b37 00000000 		.4byte	.LFB18
 3193 0b3b 3E000000 		.4byte	.LFE18-.LFB18
ARM GAS  C:\Users\Jerry\AppData\Local\Temp\cc2mbs0O.s 			page 110


 3194 0b3f 01       		.uleb128 0x1
 3195 0b40 9C       		.byte	0x9c
 3196 0b41 A80B0000 		.4byte	0xba8
 3197 0b45 26       		.uleb128 0x26
 3198 0b46 2C000000 		.4byte	.LASF120
 3199 0b4a 01       		.byte	0x1
 3200 0b4b D506     		.2byte	0x6d5
 3201 0b4d 990A0000 		.4byte	0xa99
 3202 0b51 05040000 		.4byte	.LLST29
 3203 0b55 1D       		.uleb128 0x1d
 3204 0b56 CE000000 		.4byte	.LASF123
 3205 0b5a 01       		.byte	0x1
 3206 0b5b D706     		.2byte	0x6d7
 3207 0b5d 83000000 		.4byte	0x83
 3208 0b61 31040000 		.4byte	.LLST30
 3209 0b65 1D       		.uleb128 0x1d
 3210 0b66 C5020000 		.4byte	.LASF121
 3211 0b6a 01       		.byte	0x1
 3212 0b6b D806     		.2byte	0x6d8
 3213 0b6d 83000000 		.4byte	0x83
 3214 0b71 5D040000 		.4byte	.LLST31
 3215 0b75 1D       		.uleb128 0x1d
 3216 0b76 28010000 		.4byte	.LASF122
 3217 0b7a 01       		.byte	0x1
 3218 0b7b D906     		.2byte	0x6d9
 3219 0b7d 83000000 		.4byte	0x83
 3220 0b81 70040000 		.4byte	.LLST32
 3221 0b85 1D       		.uleb128 0x1d
 3222 0b86 A5000000 		.4byte	.LASF106
 3223 0b8a 01       		.byte	0x1
 3224 0b8b DD06     		.2byte	0x6dd
 3225 0b8d 6B000000 		.4byte	0x6b
 3226 0b91 88040000 		.4byte	.LLST33
 3227 0b95 22       		.uleb128 0x22
 3228 0b96 18000000 		.4byte	.LVL95
 3229 0b9a FD0F0000 		.4byte	0xffd
 3230 0b9e 22       		.uleb128 0x22
 3231 0b9f 2E000000 		.4byte	.LVL99
 3232 0ba3 08100000 		.4byte	0x1008
 3233 0ba7 00       		.byte	0
 3234 0ba8 18       		.uleb128 0x18
 3235 0ba9 C3060000 		.4byte	0x6c3
 3236 0bad 00000000 		.4byte	.LFB5
 3237 0bb1 20000000 		.4byte	.LFE5-.LFB5
 3238 0bb5 01       		.uleb128 0x1
 3239 0bb6 9C       		.byte	0x9c
 3240 0bb7 C50B0000 		.4byte	0xbc5
 3241 0bbb 22       		.uleb128 0x22
 3242 0bbc 12000000 		.4byte	.LVL102
 3243 0bc0 2F0B0000 		.4byte	0xb2f
 3244 0bc4 00       		.byte	0
 3245 0bc5 25       		.uleb128 0x25
 3246 0bc6 ED010000 		.4byte	.LASF129
 3247 0bca 01       		.byte	0x1
 3248 0bcb AE04     		.2byte	0x4ae
 3249 0bcd 00000000 		.4byte	.LFB10
 3250 0bd1 4C000000 		.4byte	.LFE10-.LFB10
ARM GAS  C:\Users\Jerry\AppData\Local\Temp\cc2mbs0O.s 			page 111


 3251 0bd5 01       		.uleb128 0x1
 3252 0bd6 9C       		.byte	0x9c
 3253 0bd7 220C0000 		.4byte	0xc22
 3254 0bdb 26       		.uleb128 0x26
 3255 0bdc 70060000 		.4byte	.LASF126
 3256 0be0 01       		.byte	0x1
 3257 0be1 AE04     		.2byte	0x4ae
 3258 0be3 83000000 		.4byte	0x83
 3259 0be7 9B040000 		.4byte	.LLST34
 3260 0beb 1D       		.uleb128 0x1d
 3261 0bec 6B010000 		.4byte	.LASF94
 3262 0bf0 01       		.byte	0x1
 3263 0bf1 B104     		.2byte	0x4b1
 3264 0bf3 92060000 		.4byte	0x692
 3265 0bf7 C7040000 		.4byte	.LLST35
 3266 0bfb 22       		.uleb128 0x22
 3267 0bfc 10000000 		.4byte	.LVL105
 3268 0c00 C3060000 		.4byte	0x6c3
 3269 0c04 2B       		.uleb128 0x2b
 3270 0c05 36000000 		.4byte	.LVL107
 3271 0c09 D9080000 		.4byte	0x8d9
 3272 0c0d 180C0000 		.4byte	0xc18
 3273 0c11 24       		.uleb128 0x24
 3274 0c12 01       		.uleb128 0x1
 3275 0c13 50       		.byte	0x50
 3276 0c14 02       		.uleb128 0x2
 3277 0c15 75       		.byte	0x75
 3278 0c16 00       		.sleb128 0
 3279 0c17 00       		.byte	0
 3280 0c18 22       		.uleb128 0x22
 3281 0c19 3A000000 		.4byte	.LVL108
 3282 0c1d 62080000 		.4byte	0x862
 3283 0c21 00       		.byte	0
 3284 0c22 25       		.uleb128 0x25
 3285 0c23 82020000 		.4byte	.LASF130
 3286 0c27 01       		.byte	0x1
 3287 0c28 0105     		.2byte	0x501
 3288 0c2a 00000000 		.4byte	.LFB11
 3289 0c2e 60000000 		.4byte	.LFE11-.LFB11
 3290 0c32 01       		.uleb128 0x1
 3291 0c33 9C       		.byte	0x9c
 3292 0c34 A40C0000 		.4byte	0xca4
 3293 0c38 26       		.uleb128 0x26
 3294 0c39 70060000 		.4byte	.LASF126
 3295 0c3d 01       		.byte	0x1
 3296 0c3e 0105     		.2byte	0x501
 3297 0c40 83000000 		.4byte	0x83
 3298 0c44 EE040000 		.4byte	.LLST36
 3299 0c48 26       		.uleb128 0x26
 3300 0c49 35010000 		.4byte	.LASF131
 3301 0c4d 01       		.byte	0x1
 3302 0c4e 0105     		.2byte	0x501
 3303 0c50 83000000 		.4byte	0x83
 3304 0c54 0F050000 		.4byte	.LLST37
 3305 0c58 1D       		.uleb128 0x1d
 3306 0c59 6B010000 		.4byte	.LASF94
 3307 0c5d 01       		.byte	0x1
ARM GAS  C:\Users\Jerry\AppData\Local\Temp\cc2mbs0O.s 			page 112


 3308 0c5e 0305     		.2byte	0x503
 3309 0c60 92060000 		.4byte	0x692
 3310 0c64 30050000 		.4byte	.LLST38
 3311 0c68 2B       		.uleb128 0x2b
 3312 0c69 22000000 		.4byte	.LVL114
 3313 0c6d C50B0000 		.4byte	0xbc5
 3314 0c71 7D0C0000 		.4byte	0xc7d
 3315 0c75 24       		.uleb128 0x24
 3316 0c76 01       		.uleb128 0x1
 3317 0c77 50       		.byte	0x50
 3318 0c78 03       		.uleb128 0x3
 3319 0c79 F3       		.byte	0xf3
 3320 0c7a 01       		.uleb128 0x1
 3321 0c7b 50       		.byte	0x50
 3322 0c7c 00       		.byte	0
 3323 0c7d 2B       		.uleb128 0x2b
 3324 0c7e 28000000 		.4byte	.LVL115
 3325 0c82 92070000 		.4byte	0x792
 3326 0c86 910C0000 		.4byte	0xc91
 3327 0c8a 24       		.uleb128 0x24
 3328 0c8b 01       		.uleb128 0x1
 3329 0c8c 50       		.byte	0x50
 3330 0c8d 02       		.uleb128 0x2
 3331 0c8e 75       		.byte	0x75
 3332 0c8f 00       		.sleb128 0
 3333 0c90 00       		.byte	0
 3334 0c91 22       		.uleb128 0x22
 3335 0c92 3A000000 		.4byte	.LVL116
 3336 0c96 200A0000 		.4byte	0xa20
 3337 0c9a 22       		.uleb128 0x22
 3338 0c9b 46000000 		.4byte	.LVL117
 3339 0c9f 5D100000 		.4byte	0x105d
 3340 0ca3 00       		.byte	0
 3341 0ca4 25       		.uleb128 0x25
 3342 0ca5 73030000 		.4byte	.LASF132
 3343 0ca9 01       		.byte	0x1
 3344 0caa 5806     		.2byte	0x658
 3345 0cac 00000000 		.4byte	.LFB16
 3346 0cb0 20000000 		.4byte	.LFE16-.LFB16
 3347 0cb4 01       		.uleb128 0x1
 3348 0cb5 9C       		.byte	0x9c
 3349 0cb6 E40C0000 		.4byte	0xce4
 3350 0cba 26       		.uleb128 0x26
 3351 0cbb 70060000 		.4byte	.LASF126
 3352 0cbf 01       		.byte	0x1
 3353 0cc0 5806     		.2byte	0x658
 3354 0cc2 83000000 		.4byte	0x83
 3355 0cc6 43050000 		.4byte	.LLST39
 3356 0cca 26       		.uleb128 0x26
 3357 0ccb 9D020000 		.4byte	.LASF127
 3358 0ccf 01       		.byte	0x1
 3359 0cd0 5806     		.2byte	0x658
 3360 0cd2 83000000 		.4byte	0x83
 3361 0cd6 64050000 		.4byte	.LLST40
 3362 0cda 22       		.uleb128 0x22
 3363 0cdb 16000000 		.4byte	.LVL122
 3364 0cdf 2F0B0000 		.4byte	0xb2f
ARM GAS  C:\Users\Jerry\AppData\Local\Temp\cc2mbs0O.s 			page 113


 3365 0ce3 00       		.byte	0
 3366 0ce4 25       		.uleb128 0x25
 3367 0ce5 F2080000 		.4byte	.LASF133
 3368 0ce9 01       		.byte	0x1
 3369 0cea 1107     		.2byte	0x711
 3370 0cec 00000000 		.4byte	.LFB19
 3371 0cf0 2C000000 		.4byte	.LFE19-.LFB19
 3372 0cf4 01       		.uleb128 0x1
 3373 0cf5 9C       		.byte	0x9c
 3374 0cf6 0B0D0000 		.4byte	0xd0b
 3375 0cfa 1D       		.uleb128 0x1d
 3376 0cfb 920A0000 		.4byte	.LASF105
 3377 0cff 01       		.byte	0x1
 3378 0d00 1307     		.2byte	0x713
 3379 0d02 83000000 		.4byte	0x83
 3380 0d06 85050000 		.4byte	.LLST41
 3381 0d0a 00       		.byte	0
 3382 0d0b 13       		.uleb128 0x13
 3383 0d0c 38080000 		.4byte	.LASF135
 3384 0d10 01       		.byte	0x1
 3385 0d11 AF07     		.2byte	0x7af
 3386 0d13 A4000000 		.4byte	0xa4
 3387 0d17 01       		.byte	0x1
 3388 0d18 7D0D0000 		.4byte	0xd7d
 3389 0d1c 14       		.uleb128 0x14
 3390 0d1d 21030000 		.4byte	.LASF95
 3391 0d21 01       		.byte	0x1
 3392 0d22 AF07     		.2byte	0x7af
 3393 0d24 83000000 		.4byte	0x83
 3394 0d28 14       		.uleb128 0x14
 3395 0d29 F0070000 		.4byte	.LASF136
 3396 0d2d 01       		.byte	0x1
 3397 0d2e B007     		.2byte	0x7b0
 3398 0d30 F4000000 		.4byte	0xf4
 3399 0d34 14       		.uleb128 0x14
 3400 0d35 410A0000 		.4byte	.LASF137
 3401 0d39 01       		.byte	0x1
 3402 0d3a B107     		.2byte	0x7b1
 3403 0d3c F4000000 		.4byte	0xf4
 3404 0d40 15       		.uleb128 0x15
 3405 0d41 D4040000 		.4byte	.LASF97
 3406 0d45 01       		.byte	0x1
 3407 0d46 B307     		.2byte	0x7b3
 3408 0d48 A4000000 		.4byte	0xa4
 3409 0d4c 15       		.uleb128 0x15
 3410 0d4d FE070000 		.4byte	.LASF138
 3411 0d51 01       		.byte	0x1
 3412 0d52 B407     		.2byte	0x7b4
 3413 0d54 83000000 		.4byte	0x83
 3414 0d58 15       		.uleb128 0x15
 3415 0d59 71020000 		.4byte	.LASF139
 3416 0d5d 01       		.byte	0x1
 3417 0d5e B507     		.2byte	0x7b5
 3418 0d60 6B000000 		.4byte	0x6b
 3419 0d64 15       		.uleb128 0x15
 3420 0d65 DD010000 		.4byte	.LASF115
 3421 0d69 01       		.byte	0x1
ARM GAS  C:\Users\Jerry\AppData\Local\Temp\cc2mbs0O.s 			page 114


 3422 0d6a B607     		.2byte	0x7b6
 3423 0d6c 83000000 		.4byte	0x83
 3424 0d70 15       		.uleb128 0x15
 3425 0d71 6B010000 		.4byte	.LASF94
 3426 0d75 01       		.byte	0x1
 3427 0d76 BD07     		.2byte	0x7bd
 3428 0d78 7D0D0000 		.4byte	0xd7d
 3429 0d7c 00       		.byte	0
 3430 0d7d 06       		.uleb128 0x6
 3431 0d7e 04       		.byte	0x4
 3432 0d7f 1E020000 		.4byte	0x21e
 3433 0d83 1B       		.uleb128 0x1b
 3434 0d84 0E000000 		.4byte	.LASF140
 3435 0d88 01       		.byte	0x1
 3436 0d89 3E07     		.2byte	0x73e
 3437 0d8b 01       		.byte	0x1
 3438 0d8c 9D0D0000 		.4byte	0xd9d
 3439 0d90 15       		.uleb128 0x15
 3440 0d91 920A0000 		.4byte	.LASF105
 3441 0d95 01       		.byte	0x1
 3442 0d96 4207     		.2byte	0x742
 3443 0d98 83000000 		.4byte	0x83
 3444 0d9c 00       		.byte	0
 3445 0d9d 27       		.uleb128 0x27
 3446 0d9e 15080000 		.4byte	.LASF142
 3447 0da2 01       		.byte	0x1
 3448 0da3 7708     		.2byte	0x877
 3449 0da5 A4000000 		.4byte	0xa4
 3450 0da9 00000000 		.4byte	.LFB23
 3451 0dad E4010000 		.4byte	.LFE23-.LFB23
 3452 0db1 01       		.uleb128 0x1
 3453 0db2 9C       		.byte	0x9c
 3454 0db3 4D0F0000 		.4byte	0xf4d
 3455 0db7 26       		.uleb128 0x26
 3456 0db8 70060000 		.4byte	.LASF126
 3457 0dbc 01       		.byte	0x1
 3458 0dbd 7708     		.2byte	0x877
 3459 0dbf 83000000 		.4byte	0x83
 3460 0dc3 BE050000 		.4byte	.LLST42
 3461 0dc7 26       		.uleb128 0x26
 3462 0dc8 02030000 		.4byte	.LASF143
 3463 0dcc 01       		.byte	0x1
 3464 0dcd 7708     		.2byte	0x877
 3465 0dcf 83000000 		.4byte	0x83
 3466 0dd3 DD050000 		.4byte	.LLST43
 3467 0dd7 1D       		.uleb128 0x1d
 3468 0dd8 21030000 		.4byte	.LASF95
 3469 0ddc 01       		.byte	0x1
 3470 0ddd 7908     		.2byte	0x879
 3471 0ddf 83000000 		.4byte	0x83
 3472 0de3 FC050000 		.4byte	.LLST44
 3473 0de7 1D       		.uleb128 0x1d
 3474 0de8 D4040000 		.4byte	.LASF97
 3475 0dec 01       		.byte	0x1
 3476 0ded 7A08     		.2byte	0x87a
 3477 0def A4000000 		.4byte	0xa4
 3478 0df3 60060000 		.4byte	.LLST45
ARM GAS  C:\Users\Jerry\AppData\Local\Temp\cc2mbs0O.s 			page 115


 3479 0df7 1D       		.uleb128 0x1d
 3480 0df8 6B010000 		.4byte	.LASF94
 3481 0dfc 01       		.byte	0x1
 3482 0dfd 7D08     		.2byte	0x87d
 3483 0dff 7D0D0000 		.4byte	0xd7d
 3484 0e03 97060000 		.4byte	.LLST46
 3485 0e07 1D       		.uleb128 0x1d
 3486 0e08 410A0000 		.4byte	.LASF137
 3487 0e0c 01       		.byte	0x1
 3488 0e0d 8108     		.2byte	0x881
 3489 0e0f 07020000 		.4byte	0x207
 3490 0e13 BE060000 		.4byte	.LLST47
 3491 0e17 1D       		.uleb128 0x1d
 3492 0e18 F0070000 		.4byte	.LASF136
 3493 0e1c 01       		.byte	0x1
 3494 0e1d 8608     		.2byte	0x886
 3495 0e1f F4000000 		.4byte	0xf4
 3496 0e23 F0060000 		.4byte	.LLST48
 3497 0e27 1F       		.uleb128 0x1f
 3498 0e28 0B0D0000 		.4byte	0xd0b
 3499 0e2c 52000000 		.4byte	.LBB36
 3500 0e30 E6000000 		.4byte	.LBE36-.LBB36
 3501 0e34 01       		.byte	0x1
 3502 0e35 9D08     		.2byte	0x89d
 3503 0e37 430F0000 		.4byte	0xf43
 3504 0e3b 19       		.uleb128 0x19
 3505 0e3c 340D0000 		.4byte	0xd34
 3506 0e40 1D070000 		.4byte	.LLST49
 3507 0e44 19       		.uleb128 0x19
 3508 0e45 280D0000 		.4byte	0xd28
 3509 0e49 35070000 		.4byte	.LLST50
 3510 0e4d 19       		.uleb128 0x19
 3511 0e4e 1C0D0000 		.4byte	0xd1c
 3512 0e52 4A070000 		.4byte	.LLST51
 3513 0e56 20       		.uleb128 0x20
 3514 0e57 52000000 		.4byte	.LBB37
 3515 0e5b E6000000 		.4byte	.LBE37-.LBB37
 3516 0e5f 2C       		.uleb128 0x2c
 3517 0e60 400D0000 		.4byte	0xd40
 3518 0e64 01       		.uleb128 0x1
 3519 0e65 53       		.byte	0x53
 3520 0e66 2A       		.uleb128 0x2a
 3521 0e67 4C0D0000 		.4byte	0xd4c
 3522 0e6b 5E070000 		.4byte	.LLST52
 3523 0e6f 2A       		.uleb128 0x2a
 3524 0e70 580D0000 		.4byte	0xd58
 3525 0e74 71070000 		.4byte	.LLST53
 3526 0e78 2A       		.uleb128 0x2a
 3527 0e79 640D0000 		.4byte	0xd64
 3528 0e7d 91070000 		.4byte	.LLST54
 3529 0e81 2A       		.uleb128 0x2a
 3530 0e82 700D0000 		.4byte	0xd70
 3531 0e86 BF070000 		.4byte	.LLST55
 3532 0e8a 28       		.uleb128 0x28
 3533 0e8b 830D0000 		.4byte	0xd83
 3534 0e8f CE000000 		.4byte	.LBB38
 3535 0e93 30000000 		.4byte	.Ldebug_ranges0+0x30
ARM GAS  C:\Users\Jerry\AppData\Local\Temp\cc2mbs0O.s 			page 116


 3536 0e97 01       		.byte	0x1
 3537 0e98 1B08     		.2byte	0x81b
 3538 0e9a AE0E0000 		.4byte	0xeae
 3539 0e9e 29       		.uleb128 0x29
 3540 0e9f 30000000 		.4byte	.Ldebug_ranges0+0x30
 3541 0ea3 2A       		.uleb128 0x2a
 3542 0ea4 900D0000 		.4byte	0xd90
 3543 0ea8 DE070000 		.4byte	.LLST56
 3544 0eac 00       		.byte	0
 3545 0ead 00       		.byte	0
 3546 0eae 28       		.uleb128 0x28
 3547 0eaf 2C060000 		.4byte	0x62c
 3548 0eb3 D6000000 		.4byte	.LBB44
 3549 0eb7 58000000 		.4byte	.Ldebug_ranges0+0x58
 3550 0ebb 01       		.byte	0x1
 3551 0ebc 1F08     		.2byte	0x81f
 3552 0ebe 080F0000 		.4byte	0xf08
 3553 0ec2 19       		.uleb128 0x19
 3554 0ec3 3D060000 		.4byte	0x63d
 3555 0ec7 00080000 		.4byte	.LLST57
 3556 0ecb 19       		.uleb128 0x19
 3557 0ecc 55060000 		.4byte	0x655
 3558 0ed0 14080000 		.4byte	.LLST58
 3559 0ed4 19       		.uleb128 0x19
 3560 0ed5 49060000 		.4byte	0x649
 3561 0ed9 27080000 		.4byte	.LLST59
 3562 0edd 29       		.uleb128 0x29
 3563 0ede 58000000 		.4byte	.Ldebug_ranges0+0x58
 3564 0ee2 2A       		.uleb128 0x2a
 3565 0ee3 61060000 		.4byte	0x661
 3566 0ee7 3B080000 		.4byte	.LLST60
 3567 0eeb 2A       		.uleb128 0x2a
 3568 0eec 6D060000 		.4byte	0x66d
 3569 0ef0 4E080000 		.4byte	.LLST61
 3570 0ef4 2A       		.uleb128 0x2a
 3571 0ef5 79060000 		.4byte	0x679
 3572 0ef9 61080000 		.4byte	.LLST62
 3573 0efd 2A       		.uleb128 0x2a
 3574 0efe 85060000 		.4byte	0x685
 3575 0f02 91080000 		.4byte	.LLST63
 3576 0f06 00       		.byte	0
 3577 0f07 00       		.byte	0
 3578 0f08 22       		.uleb128 0x22
 3579 0f09 70000000 		.4byte	.LVL142
 3580 0f0d 220C0000 		.4byte	0xc22
 3581 0f11 22       		.uleb128 0x22
 3582 0f12 74000000 		.4byte	.LVL143
 3583 0f16 E40C0000 		.4byte	0xce4
 3584 0f1a 22       		.uleb128 0x22
 3585 0f1b 78000000 		.4byte	.LVL144
 3586 0f1f 000A0000 		.4byte	0xa00
 3587 0f23 2B       		.uleb128 0x2b
 3588 0f24 AC000000 		.4byte	.LVL150
 3589 0f28 92070000 		.4byte	0x792
 3590 0f2c 380F0000 		.4byte	0xf38
 3591 0f30 24       		.uleb128 0x24
 3592 0f31 01       		.uleb128 0x1
ARM GAS  C:\Users\Jerry\AppData\Local\Temp\cc2mbs0O.s 			page 117


 3593 0f32 50       		.byte	0x50
 3594 0f33 03       		.uleb128 0x3
 3595 0f34 91       		.byte	0x91
 3596 0f35 60       		.sleb128 -32
 3597 0f36 06       		.byte	0x6
 3598 0f37 00       		.byte	0
 3599 0f38 22       		.uleb128 0x22
 3600 0f39 CC000000 		.4byte	.LVL151
 3601 0f3d 2F0B0000 		.4byte	0xb2f
 3602 0f41 00       		.byte	0
 3603 0f42 00       		.byte	0
 3604 0f43 22       		.uleb128 0x22
 3605 0f44 34000000 		.4byte	.LVL138
 3606 0f48 5D100000 		.4byte	0x105d
 3607 0f4c 00       		.byte	0
 3608 0f4d 2D       		.uleb128 0x2d
 3609 0f4e DC000000 		.4byte	.LASF144
 3610 0f52 01       		.byte	0x1
 3611 0f53 CD       		.byte	0xcd
 3612 0f54 6B000000 		.4byte	0x6b
 3613 0f58 05       		.uleb128 0x5
 3614 0f59 03       		.byte	0x3
 3615 0f5a 00000000 		.4byte	CapSense_eleCsdDisconnectFlag
 3616 0f5e 2E       		.uleb128 0x2e
 3617 0f5f 03050000 		.4byte	.LASF145
 3618 0f63 05       		.byte	0x5
 3619 0f64 C303     		.2byte	0x3c3
 3620 0f66 AF040000 		.4byte	0x4af
 3621 0f6a 2E       		.uleb128 0x2e
 3622 0f6b 5A010000 		.4byte	.LASF146
 3623 0f6f 05       		.byte	0x5
 3624 0f70 C403     		.2byte	0x3c4
 3625 0f72 760F0000 		.4byte	0xf76
 3626 0f76 09       		.uleb128 0x9
 3627 0f77 20060000 		.4byte	0x620
 3628 0f7b 2F       		.uleb128 0x2f
 3629 0f7c 22050000 		.4byte	.LASF147
 3630 0f80 01       		.byte	0x1
 3631 0f81 C7       		.byte	0xc7
 3632 0f82 83000000 		.4byte	0x83
 3633 0f86 05       		.uleb128 0x5
 3634 0f87 03       		.byte	0x3
 3635 0f88 00000000 		.4byte	CapSense_configCsd
 3636 0f8c 2E       		.uleb128 0x2e
 3637 0f8d 560A0000 		.4byte	.LASF148
 3638 0f91 06       		.byte	0x6
 3639 0f92 4905     		.2byte	0x549
 3640 0f94 EF000000 		.4byte	0xef
 3641 0f98 2E       		.uleb128 0x2e
 3642 0f99 67000000 		.4byte	.LASF149
 3643 0f9d 06       		.byte	0x6
 3644 0f9e 5105     		.2byte	0x551
 3645 0fa0 B0000000 		.4byte	0xb0
 3646 0fa4 2E       		.uleb128 0x2e
 3647 0fa5 24020000 		.4byte	.LASF150
 3648 0fa9 06       		.byte	0x6
 3649 0faa 5205     		.2byte	0x552
ARM GAS  C:\Users\Jerry\AppData\Local\Temp\cc2mbs0O.s 			page 118


 3650 0fac B0000000 		.4byte	0xb0
 3651 0fb0 2E       		.uleb128 0x2e
 3652 0fb1 2B0A0000 		.4byte	.LASF151
 3653 0fb5 06       		.byte	0x6
 3654 0fb6 5905     		.2byte	0x559
 3655 0fb8 E1050000 		.4byte	0x5e1
 3656 0fbc 2E       		.uleb128 0x2e
 3657 0fbd 39070000 		.4byte	.LASF152
 3658 0fc1 06       		.byte	0x6
 3659 0fc2 6F05     		.2byte	0x56f
 3660 0fc4 6B000000 		.4byte	0x6b
 3661 0fc8 2E       		.uleb128 0x2e
 3662 0fc9 3A060000 		.4byte	.LASF153
 3663 0fcd 06       		.byte	0x6
 3664 0fce 7605     		.2byte	0x576
 3665 0fd0 990A0000 		.4byte	0xa99
 3666 0fd4 30       		.uleb128 0x30
 3667 0fd5 B8010000 		.4byte	.LASF155
 3668 0fd9 06       		.byte	0x6
 3669 0fda 9F       		.byte	0x9f
 3670 0fdb 31       		.uleb128 0x31
 3671 0fdc 07010000 		.4byte	.LASF157
 3672 0fe0 06       		.byte	0x6
 3673 0fe1 7A       		.byte	0x7a
 3674 0fe2 EC0F0000 		.4byte	0xfec
 3675 0fe6 32       		.uleb128 0x32
 3676 0fe7 83000000 		.4byte	0x83
 3677 0feb 00       		.byte	0
 3678 0fec 31       		.uleb128 0x31
 3679 0fed EC030000 		.4byte	.LASF158
 3680 0ff1 07       		.byte	0x7
 3681 0ff2 DC       		.byte	0xdc
 3682 0ff3 FD0F0000 		.4byte	0xffd
 3683 0ff7 32       		.uleb128 0x32
 3684 0ff8 83000000 		.4byte	0x83
 3685 0ffc 00       		.byte	0
 3686 0ffd 33       		.uleb128 0x33
 3687 0ffe 140A0000 		.4byte	.LASF168
 3688 1002 07       		.byte	0x7
 3689 1003 E5       		.byte	0xe5
 3690 1004 6B000000 		.4byte	0x6b
 3691 1008 31       		.uleb128 0x31
 3692 1009 D6030000 		.4byte	.LASF159
 3693 100d 07       		.byte	0x7
 3694 100e E6       		.byte	0xe6
 3695 100f 19100000 		.4byte	0x1019
 3696 1013 32       		.uleb128 0x32
 3697 1014 6B000000 		.4byte	0x6b
 3698 1018 00       		.byte	0
 3699 1019 31       		.uleb128 0x31
 3700 101a 6D040000 		.4byte	.LASF160
 3701 101e 06       		.byte	0x6
 3702 101f 7B       		.byte	0x7b
 3703 1020 2A100000 		.4byte	0x102a
 3704 1024 32       		.uleb128 0x32
 3705 1025 83000000 		.4byte	0x83
 3706 1029 00       		.byte	0
ARM GAS  C:\Users\Jerry\AppData\Local\Temp\cc2mbs0O.s 			page 119


 3707 102a 31       		.uleb128 0x31
 3708 102b BF030000 		.4byte	.LASF161
 3709 102f 07       		.byte	0x7
 3710 1030 C8       		.byte	0xc8
 3711 1031 3B100000 		.4byte	0x103b
 3712 1035 32       		.uleb128 0x32
 3713 1036 6B000000 		.4byte	0x6b
 3714 103a 00       		.byte	0
 3715 103b 31       		.uleb128 0x31
 3716 103c E7090000 		.4byte	.LASF162
 3717 1040 07       		.byte	0x7
 3718 1041 C3       		.byte	0xc3
 3719 1042 4C100000 		.4byte	0x104c
 3720 1046 32       		.uleb128 0x32
 3721 1047 6B000000 		.4byte	0x6b
 3722 104b 00       		.byte	0
 3723 104c 31       		.uleb128 0x31
 3724 104d FA000000 		.4byte	.LASF163
 3725 1051 07       		.byte	0x7
 3726 1052 C5       		.byte	0xc5
 3727 1053 5D100000 		.4byte	0x105d
 3728 1057 32       		.uleb128 0x32
 3729 1058 6B000000 		.4byte	0x6b
 3730 105c 00       		.byte	0
 3731 105d 34       		.uleb128 0x34
 3732 105e C4080000 		.4byte	.LASF169
 3733 1062 08       		.byte	0x8
 3734 1063 18       		.byte	0x18
 3735 1064 32       		.uleb128 0x32
 3736 1065 C6000000 		.4byte	0xc6
 3737 1069 00       		.byte	0
 3738 106a 00       		.byte	0
 3739              		.section	.debug_abbrev,"",%progbits
 3740              	.Ldebug_abbrev0:
 3741 0000 01       		.uleb128 0x1
 3742 0001 11       		.uleb128 0x11
 3743 0002 01       		.byte	0x1
 3744 0003 25       		.uleb128 0x25
 3745 0004 0E       		.uleb128 0xe
 3746 0005 13       		.uleb128 0x13
 3747 0006 0B       		.uleb128 0xb
 3748 0007 03       		.uleb128 0x3
 3749 0008 0E       		.uleb128 0xe
 3750 0009 1B       		.uleb128 0x1b
 3751 000a 0E       		.uleb128 0xe
 3752 000b 55       		.uleb128 0x55
 3753 000c 17       		.uleb128 0x17
 3754 000d 11       		.uleb128 0x11
 3755 000e 01       		.uleb128 0x1
 3756 000f 10       		.uleb128 0x10
 3757 0010 17       		.uleb128 0x17
 3758 0011 00       		.byte	0
 3759 0012 00       		.byte	0
 3760 0013 02       		.uleb128 0x2
 3761 0014 24       		.uleb128 0x24
 3762 0015 00       		.byte	0
 3763 0016 0B       		.uleb128 0xb
ARM GAS  C:\Users\Jerry\AppData\Local\Temp\cc2mbs0O.s 			page 120


 3764 0017 0B       		.uleb128 0xb
 3765 0018 3E       		.uleb128 0x3e
 3766 0019 0B       		.uleb128 0xb
 3767 001a 03       		.uleb128 0x3
 3768 001b 0E       		.uleb128 0xe
 3769 001c 00       		.byte	0
 3770 001d 00       		.byte	0
 3771 001e 03       		.uleb128 0x3
 3772 001f 24       		.uleb128 0x24
 3773 0020 00       		.byte	0
 3774 0021 0B       		.uleb128 0xb
 3775 0022 0B       		.uleb128 0xb
 3776 0023 3E       		.uleb128 0x3e
 3777 0024 0B       		.uleb128 0xb
 3778 0025 03       		.uleb128 0x3
 3779 0026 08       		.uleb128 0x8
 3780 0027 00       		.byte	0
 3781 0028 00       		.byte	0
 3782 0029 04       		.uleb128 0x4
 3783 002a 16       		.uleb128 0x16
 3784 002b 00       		.byte	0
 3785 002c 03       		.uleb128 0x3
 3786 002d 0E       		.uleb128 0xe
 3787 002e 3A       		.uleb128 0x3a
 3788 002f 0B       		.uleb128 0xb
 3789 0030 3B       		.uleb128 0x3b
 3790 0031 05       		.uleb128 0x5
 3791 0032 49       		.uleb128 0x49
 3792 0033 13       		.uleb128 0x13
 3793 0034 00       		.byte	0
 3794 0035 00       		.byte	0
 3795 0036 05       		.uleb128 0x5
 3796 0037 35       		.uleb128 0x35
 3797 0038 00       		.byte	0
 3798 0039 49       		.uleb128 0x49
 3799 003a 13       		.uleb128 0x13
 3800 003b 00       		.byte	0
 3801 003c 00       		.byte	0
 3802 003d 06       		.uleb128 0x6
 3803 003e 0F       		.uleb128 0xf
 3804 003f 00       		.byte	0
 3805 0040 0B       		.uleb128 0xb
 3806 0041 0B       		.uleb128 0xb
 3807 0042 49       		.uleb128 0x49
 3808 0043 13       		.uleb128 0x13
 3809 0044 00       		.byte	0
 3810 0045 00       		.byte	0
 3811 0046 07       		.uleb128 0x7
 3812 0047 15       		.uleb128 0x15
 3813 0048 00       		.byte	0
 3814 0049 27       		.uleb128 0x27
 3815 004a 19       		.uleb128 0x19
 3816 004b 00       		.byte	0
 3817 004c 00       		.byte	0
 3818 004d 08       		.uleb128 0x8
 3819 004e 16       		.uleb128 0x16
 3820 004f 00       		.byte	0
ARM GAS  C:\Users\Jerry\AppData\Local\Temp\cc2mbs0O.s 			page 121


 3821 0050 03       		.uleb128 0x3
 3822 0051 0E       		.uleb128 0xe
 3823 0052 3A       		.uleb128 0x3a
 3824 0053 0B       		.uleb128 0xb
 3825 0054 3B       		.uleb128 0x3b
 3826 0055 0B       		.uleb128 0xb
 3827 0056 49       		.uleb128 0x49
 3828 0057 13       		.uleb128 0x13
 3829 0058 00       		.byte	0
 3830 0059 00       		.byte	0
 3831 005a 09       		.uleb128 0x9
 3832 005b 26       		.uleb128 0x26
 3833 005c 00       		.byte	0
 3834 005d 49       		.uleb128 0x49
 3835 005e 13       		.uleb128 0x13
 3836 005f 00       		.byte	0
 3837 0060 00       		.byte	0
 3838 0061 0A       		.uleb128 0xa
 3839 0062 13       		.uleb128 0x13
 3840 0063 01       		.byte	0x1
 3841 0064 0B       		.uleb128 0xb
 3842 0065 0B       		.uleb128 0xb
 3843 0066 3A       		.uleb128 0x3a
 3844 0067 0B       		.uleb128 0xb
 3845 0068 3B       		.uleb128 0x3b
 3846 0069 0B       		.uleb128 0xb
 3847 006a 01       		.uleb128 0x1
 3848 006b 13       		.uleb128 0x13
 3849 006c 00       		.byte	0
 3850 006d 00       		.byte	0
 3851 006e 0B       		.uleb128 0xb
 3852 006f 0D       		.uleb128 0xd
 3853 0070 00       		.byte	0
 3854 0071 03       		.uleb128 0x3
 3855 0072 0E       		.uleb128 0xe
 3856 0073 3A       		.uleb128 0x3a
 3857 0074 0B       		.uleb128 0xb
 3858 0075 3B       		.uleb128 0x3b
 3859 0076 0B       		.uleb128 0xb
 3860 0077 49       		.uleb128 0x49
 3861 0078 13       		.uleb128 0x13
 3862 0079 38       		.uleb128 0x38
 3863 007a 0B       		.uleb128 0xb
 3864 007b 00       		.byte	0
 3865 007c 00       		.byte	0
 3866 007d 0C       		.uleb128 0xc
 3867 007e 01       		.uleb128 0x1
 3868 007f 01       		.byte	0x1
 3869 0080 49       		.uleb128 0x49
 3870 0081 13       		.uleb128 0x13
 3871 0082 01       		.uleb128 0x1
 3872 0083 13       		.uleb128 0x13
 3873 0084 00       		.byte	0
 3874 0085 00       		.byte	0
 3875 0086 0D       		.uleb128 0xd
 3876 0087 21       		.uleb128 0x21
 3877 0088 00       		.byte	0
ARM GAS  C:\Users\Jerry\AppData\Local\Temp\cc2mbs0O.s 			page 122


 3878 0089 49       		.uleb128 0x49
 3879 008a 13       		.uleb128 0x13
 3880 008b 2F       		.uleb128 0x2f
 3881 008c 0B       		.uleb128 0xb
 3882 008d 00       		.byte	0
 3883 008e 00       		.byte	0
 3884 008f 0E       		.uleb128 0xe
 3885 0090 0D       		.uleb128 0xd
 3886 0091 00       		.byte	0
 3887 0092 03       		.uleb128 0x3
 3888 0093 0E       		.uleb128 0xe
 3889 0094 3A       		.uleb128 0x3a
 3890 0095 0B       		.uleb128 0xb
 3891 0096 3B       		.uleb128 0x3b
 3892 0097 05       		.uleb128 0x5
 3893 0098 49       		.uleb128 0x49
 3894 0099 13       		.uleb128 0x13
 3895 009a 38       		.uleb128 0x38
 3896 009b 0B       		.uleb128 0xb
 3897 009c 00       		.byte	0
 3898 009d 00       		.byte	0
 3899 009e 0F       		.uleb128 0xf
 3900 009f 13       		.uleb128 0x13
 3901 00a0 01       		.byte	0x1
 3902 00a1 0B       		.uleb128 0xb
 3903 00a2 0B       		.uleb128 0xb
 3904 00a3 3A       		.uleb128 0x3a
 3905 00a4 0B       		.uleb128 0xb
 3906 00a5 3B       		.uleb128 0x3b
 3907 00a6 05       		.uleb128 0x5
 3908 00a7 01       		.uleb128 0x1
 3909 00a8 13       		.uleb128 0x13
 3910 00a9 00       		.byte	0
 3911 00aa 00       		.byte	0
 3912 00ab 10       		.uleb128 0x10
 3913 00ac 0D       		.uleb128 0xd
 3914 00ad 00       		.byte	0
 3915 00ae 03       		.uleb128 0x3
 3916 00af 08       		.uleb128 0x8
 3917 00b0 3A       		.uleb128 0x3a
 3918 00b1 0B       		.uleb128 0xb
 3919 00b2 3B       		.uleb128 0x3b
 3920 00b3 05       		.uleb128 0x5
 3921 00b4 49       		.uleb128 0x49
 3922 00b5 13       		.uleb128 0x13
 3923 00b6 38       		.uleb128 0x38
 3924 00b7 0B       		.uleb128 0xb
 3925 00b8 00       		.byte	0
 3926 00b9 00       		.byte	0
 3927 00ba 11       		.uleb128 0x11
 3928 00bb 26       		.uleb128 0x26
 3929 00bc 00       		.byte	0
 3930 00bd 00       		.byte	0
 3931 00be 00       		.byte	0
 3932 00bf 12       		.uleb128 0x12
 3933 00c0 0F       		.uleb128 0xf
 3934 00c1 00       		.byte	0
ARM GAS  C:\Users\Jerry\AppData\Local\Temp\cc2mbs0O.s 			page 123


 3935 00c2 0B       		.uleb128 0xb
 3936 00c3 0B       		.uleb128 0xb
 3937 00c4 00       		.byte	0
 3938 00c5 00       		.byte	0
 3939 00c6 13       		.uleb128 0x13
 3940 00c7 2E       		.uleb128 0x2e
 3941 00c8 01       		.byte	0x1
 3942 00c9 03       		.uleb128 0x3
 3943 00ca 0E       		.uleb128 0xe
 3944 00cb 3A       		.uleb128 0x3a
 3945 00cc 0B       		.uleb128 0xb
 3946 00cd 3B       		.uleb128 0x3b
 3947 00ce 05       		.uleb128 0x5
 3948 00cf 27       		.uleb128 0x27
 3949 00d0 19       		.uleb128 0x19
 3950 00d1 49       		.uleb128 0x49
 3951 00d2 13       		.uleb128 0x13
 3952 00d3 20       		.uleb128 0x20
 3953 00d4 0B       		.uleb128 0xb
 3954 00d5 01       		.uleb128 0x1
 3955 00d6 13       		.uleb128 0x13
 3956 00d7 00       		.byte	0
 3957 00d8 00       		.byte	0
 3958 00d9 14       		.uleb128 0x14
 3959 00da 05       		.uleb128 0x5
 3960 00db 00       		.byte	0
 3961 00dc 03       		.uleb128 0x3
 3962 00dd 0E       		.uleb128 0xe
 3963 00de 3A       		.uleb128 0x3a
 3964 00df 0B       		.uleb128 0xb
 3965 00e0 3B       		.uleb128 0x3b
 3966 00e1 05       		.uleb128 0x5
 3967 00e2 49       		.uleb128 0x49
 3968 00e3 13       		.uleb128 0x13
 3969 00e4 00       		.byte	0
 3970 00e5 00       		.byte	0
 3971 00e6 15       		.uleb128 0x15
 3972 00e7 34       		.uleb128 0x34
 3973 00e8 00       		.byte	0
 3974 00e9 03       		.uleb128 0x3
 3975 00ea 0E       		.uleb128 0xe
 3976 00eb 3A       		.uleb128 0x3a
 3977 00ec 0B       		.uleb128 0xb
 3978 00ed 3B       		.uleb128 0x3b
 3979 00ee 05       		.uleb128 0x5
 3980 00ef 49       		.uleb128 0x49
 3981 00f0 13       		.uleb128 0x13
 3982 00f1 00       		.byte	0
 3983 00f2 00       		.byte	0
 3984 00f3 16       		.uleb128 0x16
 3985 00f4 2E       		.uleb128 0x2e
 3986 00f5 01       		.byte	0x1
 3987 00f6 3F       		.uleb128 0x3f
 3988 00f7 19       		.uleb128 0x19
 3989 00f8 03       		.uleb128 0x3
 3990 00f9 0E       		.uleb128 0xe
 3991 00fa 3A       		.uleb128 0x3a
ARM GAS  C:\Users\Jerry\AppData\Local\Temp\cc2mbs0O.s 			page 124


 3992 00fb 0B       		.uleb128 0xb
 3993 00fc 3B       		.uleb128 0x3b
 3994 00fd 05       		.uleb128 0x5
 3995 00fe 27       		.uleb128 0x27
 3996 00ff 19       		.uleb128 0x19
 3997 0100 20       		.uleb128 0x20
 3998 0101 0B       		.uleb128 0xb
 3999 0102 01       		.uleb128 0x1
 4000 0103 13       		.uleb128 0x13
 4001 0104 00       		.byte	0
 4002 0105 00       		.byte	0
 4003 0106 17       		.uleb128 0x17
 4004 0107 2E       		.uleb128 0x2e
 4005 0108 00       		.byte	0
 4006 0109 3F       		.uleb128 0x3f
 4007 010a 19       		.uleb128 0x19
 4008 010b 03       		.uleb128 0x3
 4009 010c 0E       		.uleb128 0xe
 4010 010d 3A       		.uleb128 0x3a
 4011 010e 0B       		.uleb128 0xb
 4012 010f 3B       		.uleb128 0x3b
 4013 0110 05       		.uleb128 0x5
 4014 0111 27       		.uleb128 0x27
 4015 0112 19       		.uleb128 0x19
 4016 0113 20       		.uleb128 0x20
 4017 0114 0B       		.uleb128 0xb
 4018 0115 00       		.byte	0
 4019 0116 00       		.byte	0
 4020 0117 18       		.uleb128 0x18
 4021 0118 2E       		.uleb128 0x2e
 4022 0119 01       		.byte	0x1
 4023 011a 31       		.uleb128 0x31
 4024 011b 13       		.uleb128 0x13
 4025 011c 11       		.uleb128 0x11
 4026 011d 01       		.uleb128 0x1
 4027 011e 12       		.uleb128 0x12
 4028 011f 06       		.uleb128 0x6
 4029 0120 40       		.uleb128 0x40
 4030 0121 18       		.uleb128 0x18
 4031 0122 9742     		.uleb128 0x2117
 4032 0124 19       		.uleb128 0x19
 4033 0125 01       		.uleb128 0x1
 4034 0126 13       		.uleb128 0x13
 4035 0127 00       		.byte	0
 4036 0128 00       		.byte	0
 4037 0129 19       		.uleb128 0x19
 4038 012a 05       		.uleb128 0x5
 4039 012b 00       		.byte	0
 4040 012c 31       		.uleb128 0x31
 4041 012d 13       		.uleb128 0x13
 4042 012e 02       		.uleb128 0x2
 4043 012f 17       		.uleb128 0x17
 4044 0130 00       		.byte	0
 4045 0131 00       		.byte	0
 4046 0132 1A       		.uleb128 0x1a
 4047 0133 2E       		.uleb128 0x2e
 4048 0134 00       		.byte	0
ARM GAS  C:\Users\Jerry\AppData\Local\Temp\cc2mbs0O.s 			page 125


 4049 0135 03       		.uleb128 0x3
 4050 0136 0E       		.uleb128 0xe
 4051 0137 3A       		.uleb128 0x3a
 4052 0138 0B       		.uleb128 0xb
 4053 0139 3B       		.uleb128 0x3b
 4054 013a 05       		.uleb128 0x5
 4055 013b 27       		.uleb128 0x27
 4056 013c 19       		.uleb128 0x19
 4057 013d 20       		.uleb128 0x20
 4058 013e 0B       		.uleb128 0xb
 4059 013f 00       		.byte	0
 4060 0140 00       		.byte	0
 4061 0141 1B       		.uleb128 0x1b
 4062 0142 2E       		.uleb128 0x2e
 4063 0143 01       		.byte	0x1
 4064 0144 03       		.uleb128 0x3
 4065 0145 0E       		.uleb128 0xe
 4066 0146 3A       		.uleb128 0x3a
 4067 0147 0B       		.uleb128 0xb
 4068 0148 3B       		.uleb128 0x3b
 4069 0149 05       		.uleb128 0x5
 4070 014a 27       		.uleb128 0x27
 4071 014b 19       		.uleb128 0x19
 4072 014c 20       		.uleb128 0x20
 4073 014d 0B       		.uleb128 0xb
 4074 014e 01       		.uleb128 0x1
 4075 014f 13       		.uleb128 0x13
 4076 0150 00       		.byte	0
 4077 0151 00       		.byte	0
 4078 0152 1C       		.uleb128 0x1c
 4079 0153 2E       		.uleb128 0x2e
 4080 0154 01       		.byte	0x1
 4081 0155 3F       		.uleb128 0x3f
 4082 0156 19       		.uleb128 0x19
 4083 0157 03       		.uleb128 0x3
 4084 0158 0E       		.uleb128 0xe
 4085 0159 3A       		.uleb128 0x3a
 4086 015a 0B       		.uleb128 0xb
 4087 015b 3B       		.uleb128 0x3b
 4088 015c 05       		.uleb128 0x5
 4089 015d 27       		.uleb128 0x27
 4090 015e 19       		.uleb128 0x19
 4091 015f 11       		.uleb128 0x11
 4092 0160 01       		.uleb128 0x1
 4093 0161 12       		.uleb128 0x12
 4094 0162 06       		.uleb128 0x6
 4095 0163 40       		.uleb128 0x40
 4096 0164 18       		.uleb128 0x18
 4097 0165 9642     		.uleb128 0x2116
 4098 0167 19       		.uleb128 0x19
 4099 0168 01       		.uleb128 0x1
 4100 0169 13       		.uleb128 0x13
 4101 016a 00       		.byte	0
 4102 016b 00       		.byte	0
 4103 016c 1D       		.uleb128 0x1d
 4104 016d 34       		.uleb128 0x34
 4105 016e 00       		.byte	0
ARM GAS  C:\Users\Jerry\AppData\Local\Temp\cc2mbs0O.s 			page 126


 4106 016f 03       		.uleb128 0x3
 4107 0170 0E       		.uleb128 0xe
 4108 0171 3A       		.uleb128 0x3a
 4109 0172 0B       		.uleb128 0xb
 4110 0173 3B       		.uleb128 0x3b
 4111 0174 05       		.uleb128 0x5
 4112 0175 49       		.uleb128 0x49
 4113 0176 13       		.uleb128 0x13
 4114 0177 02       		.uleb128 0x2
 4115 0178 17       		.uleb128 0x17
 4116 0179 00       		.byte	0
 4117 017a 00       		.byte	0
 4118 017b 1E       		.uleb128 0x1e
 4119 017c 1D       		.uleb128 0x1d
 4120 017d 00       		.byte	0
 4121 017e 31       		.uleb128 0x31
 4122 017f 13       		.uleb128 0x13
 4123 0180 11       		.uleb128 0x11
 4124 0181 01       		.uleb128 0x1
 4125 0182 12       		.uleb128 0x12
 4126 0183 06       		.uleb128 0x6
 4127 0184 58       		.uleb128 0x58
 4128 0185 0B       		.uleb128 0xb
 4129 0186 59       		.uleb128 0x59
 4130 0187 05       		.uleb128 0x5
 4131 0188 00       		.byte	0
 4132 0189 00       		.byte	0
 4133 018a 1F       		.uleb128 0x1f
 4134 018b 1D       		.uleb128 0x1d
 4135 018c 01       		.byte	0x1
 4136 018d 31       		.uleb128 0x31
 4137 018e 13       		.uleb128 0x13
 4138 018f 11       		.uleb128 0x11
 4139 0190 01       		.uleb128 0x1
 4140 0191 12       		.uleb128 0x12
 4141 0192 06       		.uleb128 0x6
 4142 0193 58       		.uleb128 0x58
 4143 0194 0B       		.uleb128 0xb
 4144 0195 59       		.uleb128 0x59
 4145 0196 05       		.uleb128 0x5
 4146 0197 01       		.uleb128 0x1
 4147 0198 13       		.uleb128 0x13
 4148 0199 00       		.byte	0
 4149 019a 00       		.byte	0
 4150 019b 20       		.uleb128 0x20
 4151 019c 0B       		.uleb128 0xb
 4152 019d 01       		.byte	0x1
 4153 019e 11       		.uleb128 0x11
 4154 019f 01       		.uleb128 0x1
 4155 01a0 12       		.uleb128 0x12
 4156 01a1 06       		.uleb128 0x6
 4157 01a2 00       		.byte	0
 4158 01a3 00       		.byte	0
 4159 01a4 21       		.uleb128 0x21
 4160 01a5 34       		.uleb128 0x34
 4161 01a6 00       		.byte	0
 4162 01a7 31       		.uleb128 0x31
ARM GAS  C:\Users\Jerry\AppData\Local\Temp\cc2mbs0O.s 			page 127


 4163 01a8 13       		.uleb128 0x13
 4164 01a9 00       		.byte	0
 4165 01aa 00       		.byte	0
 4166 01ab 22       		.uleb128 0x22
 4167 01ac 898201   		.uleb128 0x4109
 4168 01af 00       		.byte	0
 4169 01b0 11       		.uleb128 0x11
 4170 01b1 01       		.uleb128 0x1
 4171 01b2 31       		.uleb128 0x31
 4172 01b3 13       		.uleb128 0x13
 4173 01b4 00       		.byte	0
 4174 01b5 00       		.byte	0
 4175 01b6 23       		.uleb128 0x23
 4176 01b7 898201   		.uleb128 0x4109
 4177 01ba 01       		.byte	0x1
 4178 01bb 11       		.uleb128 0x11
 4179 01bc 01       		.uleb128 0x1
 4180 01bd 31       		.uleb128 0x31
 4181 01be 13       		.uleb128 0x13
 4182 01bf 00       		.byte	0
 4183 01c0 00       		.byte	0
 4184 01c1 24       		.uleb128 0x24
 4185 01c2 8A8201   		.uleb128 0x410a
 4186 01c5 00       		.byte	0
 4187 01c6 02       		.uleb128 0x2
 4188 01c7 18       		.uleb128 0x18
 4189 01c8 9142     		.uleb128 0x2111
 4190 01ca 18       		.uleb128 0x18
 4191 01cb 00       		.byte	0
 4192 01cc 00       		.byte	0
 4193 01cd 25       		.uleb128 0x25
 4194 01ce 2E       		.uleb128 0x2e
 4195 01cf 01       		.byte	0x1
 4196 01d0 3F       		.uleb128 0x3f
 4197 01d1 19       		.uleb128 0x19
 4198 01d2 03       		.uleb128 0x3
 4199 01d3 0E       		.uleb128 0xe
 4200 01d4 3A       		.uleb128 0x3a
 4201 01d5 0B       		.uleb128 0xb
 4202 01d6 3B       		.uleb128 0x3b
 4203 01d7 05       		.uleb128 0x5
 4204 01d8 27       		.uleb128 0x27
 4205 01d9 19       		.uleb128 0x19
 4206 01da 11       		.uleb128 0x11
 4207 01db 01       		.uleb128 0x1
 4208 01dc 12       		.uleb128 0x12
 4209 01dd 06       		.uleb128 0x6
 4210 01de 40       		.uleb128 0x40
 4211 01df 18       		.uleb128 0x18
 4212 01e0 9742     		.uleb128 0x2117
 4213 01e2 19       		.uleb128 0x19
 4214 01e3 01       		.uleb128 0x1
 4215 01e4 13       		.uleb128 0x13
 4216 01e5 00       		.byte	0
 4217 01e6 00       		.byte	0
 4218 01e7 26       		.uleb128 0x26
 4219 01e8 05       		.uleb128 0x5
ARM GAS  C:\Users\Jerry\AppData\Local\Temp\cc2mbs0O.s 			page 128


 4220 01e9 00       		.byte	0
 4221 01ea 03       		.uleb128 0x3
 4222 01eb 0E       		.uleb128 0xe
 4223 01ec 3A       		.uleb128 0x3a
 4224 01ed 0B       		.uleb128 0xb
 4225 01ee 3B       		.uleb128 0x3b
 4226 01ef 05       		.uleb128 0x5
 4227 01f0 49       		.uleb128 0x49
 4228 01f1 13       		.uleb128 0x13
 4229 01f2 02       		.uleb128 0x2
 4230 01f3 17       		.uleb128 0x17
 4231 01f4 00       		.byte	0
 4232 01f5 00       		.byte	0
 4233 01f6 27       		.uleb128 0x27
 4234 01f7 2E       		.uleb128 0x2e
 4235 01f8 01       		.byte	0x1
 4236 01f9 3F       		.uleb128 0x3f
 4237 01fa 19       		.uleb128 0x19
 4238 01fb 03       		.uleb128 0x3
 4239 01fc 0E       		.uleb128 0xe
 4240 01fd 3A       		.uleb128 0x3a
 4241 01fe 0B       		.uleb128 0xb
 4242 01ff 3B       		.uleb128 0x3b
 4243 0200 05       		.uleb128 0x5
 4244 0201 27       		.uleb128 0x27
 4245 0202 19       		.uleb128 0x19
 4246 0203 49       		.uleb128 0x49
 4247 0204 13       		.uleb128 0x13
 4248 0205 11       		.uleb128 0x11
 4249 0206 01       		.uleb128 0x1
 4250 0207 12       		.uleb128 0x12
 4251 0208 06       		.uleb128 0x6
 4252 0209 40       		.uleb128 0x40
 4253 020a 18       		.uleb128 0x18
 4254 020b 9642     		.uleb128 0x2116
 4255 020d 19       		.uleb128 0x19
 4256 020e 01       		.uleb128 0x1
 4257 020f 13       		.uleb128 0x13
 4258 0210 00       		.byte	0
 4259 0211 00       		.byte	0
 4260 0212 28       		.uleb128 0x28
 4261 0213 1D       		.uleb128 0x1d
 4262 0214 01       		.byte	0x1
 4263 0215 31       		.uleb128 0x31
 4264 0216 13       		.uleb128 0x13
 4265 0217 52       		.uleb128 0x52
 4266 0218 01       		.uleb128 0x1
 4267 0219 55       		.uleb128 0x55
 4268 021a 17       		.uleb128 0x17
 4269 021b 58       		.uleb128 0x58
 4270 021c 0B       		.uleb128 0xb
 4271 021d 59       		.uleb128 0x59
 4272 021e 05       		.uleb128 0x5
 4273 021f 01       		.uleb128 0x1
 4274 0220 13       		.uleb128 0x13
 4275 0221 00       		.byte	0
 4276 0222 00       		.byte	0
ARM GAS  C:\Users\Jerry\AppData\Local\Temp\cc2mbs0O.s 			page 129


 4277 0223 29       		.uleb128 0x29
 4278 0224 0B       		.uleb128 0xb
 4279 0225 01       		.byte	0x1
 4280 0226 55       		.uleb128 0x55
 4281 0227 17       		.uleb128 0x17
 4282 0228 00       		.byte	0
 4283 0229 00       		.byte	0
 4284 022a 2A       		.uleb128 0x2a
 4285 022b 34       		.uleb128 0x34
 4286 022c 00       		.byte	0
 4287 022d 31       		.uleb128 0x31
 4288 022e 13       		.uleb128 0x13
 4289 022f 02       		.uleb128 0x2
 4290 0230 17       		.uleb128 0x17
 4291 0231 00       		.byte	0
 4292 0232 00       		.byte	0
 4293 0233 2B       		.uleb128 0x2b
 4294 0234 898201   		.uleb128 0x4109
 4295 0237 01       		.byte	0x1
 4296 0238 11       		.uleb128 0x11
 4297 0239 01       		.uleb128 0x1
 4298 023a 31       		.uleb128 0x31
 4299 023b 13       		.uleb128 0x13
 4300 023c 01       		.uleb128 0x1
 4301 023d 13       		.uleb128 0x13
 4302 023e 00       		.byte	0
 4303 023f 00       		.byte	0
 4304 0240 2C       		.uleb128 0x2c
 4305 0241 34       		.uleb128 0x34
 4306 0242 00       		.byte	0
 4307 0243 31       		.uleb128 0x31
 4308 0244 13       		.uleb128 0x13
 4309 0245 02       		.uleb128 0x2
 4310 0246 18       		.uleb128 0x18
 4311 0247 00       		.byte	0
 4312 0248 00       		.byte	0
 4313 0249 2D       		.uleb128 0x2d
 4314 024a 34       		.uleb128 0x34
 4315 024b 00       		.byte	0
 4316 024c 03       		.uleb128 0x3
 4317 024d 0E       		.uleb128 0xe
 4318 024e 3A       		.uleb128 0x3a
 4319 024f 0B       		.uleb128 0xb
 4320 0250 3B       		.uleb128 0x3b
 4321 0251 0B       		.uleb128 0xb
 4322 0252 49       		.uleb128 0x49
 4323 0253 13       		.uleb128 0x13
 4324 0254 02       		.uleb128 0x2
 4325 0255 18       		.uleb128 0x18
 4326 0256 00       		.byte	0
 4327 0257 00       		.byte	0
 4328 0258 2E       		.uleb128 0x2e
 4329 0259 34       		.uleb128 0x34
 4330 025a 00       		.byte	0
 4331 025b 03       		.uleb128 0x3
 4332 025c 0E       		.uleb128 0xe
 4333 025d 3A       		.uleb128 0x3a
ARM GAS  C:\Users\Jerry\AppData\Local\Temp\cc2mbs0O.s 			page 130


 4334 025e 0B       		.uleb128 0xb
 4335 025f 3B       		.uleb128 0x3b
 4336 0260 05       		.uleb128 0x5
 4337 0261 49       		.uleb128 0x49
 4338 0262 13       		.uleb128 0x13
 4339 0263 3F       		.uleb128 0x3f
 4340 0264 19       		.uleb128 0x19
 4341 0265 3C       		.uleb128 0x3c
 4342 0266 19       		.uleb128 0x19
 4343 0267 00       		.byte	0
 4344 0268 00       		.byte	0
 4345 0269 2F       		.uleb128 0x2f
 4346 026a 34       		.uleb128 0x34
 4347 026b 00       		.byte	0
 4348 026c 03       		.uleb128 0x3
 4349 026d 0E       		.uleb128 0xe
 4350 026e 3A       		.uleb128 0x3a
 4351 026f 0B       		.uleb128 0xb
 4352 0270 3B       		.uleb128 0x3b
 4353 0271 0B       		.uleb128 0xb
 4354 0272 49       		.uleb128 0x49
 4355 0273 13       		.uleb128 0x13
 4356 0274 3F       		.uleb128 0x3f
 4357 0275 19       		.uleb128 0x19
 4358 0276 02       		.uleb128 0x2
 4359 0277 18       		.uleb128 0x18
 4360 0278 00       		.byte	0
 4361 0279 00       		.byte	0
 4362 027a 30       		.uleb128 0x30
 4363 027b 2E       		.uleb128 0x2e
 4364 027c 00       		.byte	0
 4365 027d 3F       		.uleb128 0x3f
 4366 027e 19       		.uleb128 0x19
 4367 027f 03       		.uleb128 0x3
 4368 0280 0E       		.uleb128 0xe
 4369 0281 3A       		.uleb128 0x3a
 4370 0282 0B       		.uleb128 0xb
 4371 0283 3B       		.uleb128 0x3b
 4372 0284 0B       		.uleb128 0xb
 4373 0285 27       		.uleb128 0x27
 4374 0286 19       		.uleb128 0x19
 4375 0287 3C       		.uleb128 0x3c
 4376 0288 19       		.uleb128 0x19
 4377 0289 00       		.byte	0
 4378 028a 00       		.byte	0
 4379 028b 31       		.uleb128 0x31
 4380 028c 2E       		.uleb128 0x2e
 4381 028d 01       		.byte	0x1
 4382 028e 3F       		.uleb128 0x3f
 4383 028f 19       		.uleb128 0x19
 4384 0290 03       		.uleb128 0x3
 4385 0291 0E       		.uleb128 0xe
 4386 0292 3A       		.uleb128 0x3a
 4387 0293 0B       		.uleb128 0xb
 4388 0294 3B       		.uleb128 0x3b
 4389 0295 0B       		.uleb128 0xb
 4390 0296 27       		.uleb128 0x27
ARM GAS  C:\Users\Jerry\AppData\Local\Temp\cc2mbs0O.s 			page 131


 4391 0297 19       		.uleb128 0x19
 4392 0298 3C       		.uleb128 0x3c
 4393 0299 19       		.uleb128 0x19
 4394 029a 01       		.uleb128 0x1
 4395 029b 13       		.uleb128 0x13
 4396 029c 00       		.byte	0
 4397 029d 00       		.byte	0
 4398 029e 32       		.uleb128 0x32
 4399 029f 05       		.uleb128 0x5
 4400 02a0 00       		.byte	0
 4401 02a1 49       		.uleb128 0x49
 4402 02a2 13       		.uleb128 0x13
 4403 02a3 00       		.byte	0
 4404 02a4 00       		.byte	0
 4405 02a5 33       		.uleb128 0x33
 4406 02a6 2E       		.uleb128 0x2e
 4407 02a7 00       		.byte	0
 4408 02a8 3F       		.uleb128 0x3f
 4409 02a9 19       		.uleb128 0x19
 4410 02aa 03       		.uleb128 0x3
 4411 02ab 0E       		.uleb128 0xe
 4412 02ac 3A       		.uleb128 0x3a
 4413 02ad 0B       		.uleb128 0xb
 4414 02ae 3B       		.uleb128 0x3b
 4415 02af 0B       		.uleb128 0xb
 4416 02b0 27       		.uleb128 0x27
 4417 02b1 19       		.uleb128 0x19
 4418 02b2 49       		.uleb128 0x49
 4419 02b3 13       		.uleb128 0x13
 4420 02b4 3C       		.uleb128 0x3c
 4421 02b5 19       		.uleb128 0x19
 4422 02b6 00       		.byte	0
 4423 02b7 00       		.byte	0
 4424 02b8 34       		.uleb128 0x34
 4425 02b9 2E       		.uleb128 0x2e
 4426 02ba 01       		.byte	0x1
 4427 02bb 3F       		.uleb128 0x3f
 4428 02bc 19       		.uleb128 0x19
 4429 02bd 03       		.uleb128 0x3
 4430 02be 0E       		.uleb128 0xe
 4431 02bf 3A       		.uleb128 0x3a
 4432 02c0 0B       		.uleb128 0xb
 4433 02c1 3B       		.uleb128 0x3b
 4434 02c2 0B       		.uleb128 0xb
 4435 02c3 27       		.uleb128 0x27
 4436 02c4 19       		.uleb128 0x19
 4437 02c5 3C       		.uleb128 0x3c
 4438 02c6 19       		.uleb128 0x19
 4439 02c7 00       		.byte	0
 4440 02c8 00       		.byte	0
 4441 02c9 00       		.byte	0
 4442              		.section	.debug_loc,"",%progbits
 4443              	.Ldebug_loc0:
 4444              	.LLST0:
 4445 0000 00000000 		.4byte	.LVL0
 4446 0004 06000000 		.4byte	.LVL2
 4447 0008 0100     		.2byte	0x1
ARM GAS  C:\Users\Jerry\AppData\Local\Temp\cc2mbs0O.s 			page 132


 4448 000a 50       		.byte	0x50
 4449 000b 06000000 		.4byte	.LVL2
 4450 000f 10000000 		.4byte	.LFE1
 4451 0013 0400     		.2byte	0x4
 4452 0015 F3       		.byte	0xf3
 4453 0016 01       		.uleb128 0x1
 4454 0017 50       		.byte	0x50
 4455 0018 9F       		.byte	0x9f
 4456 0019 00000000 		.4byte	0
 4457 001d 00000000 		.4byte	0
 4458              	.LLST1:
 4459 0021 00000000 		.4byte	.LVL0
 4460 0025 02000000 		.4byte	.LVL1
 4461 0029 0100     		.2byte	0x1
 4462 002b 51       		.byte	0x51
 4463 002c 02000000 		.4byte	.LVL1
 4464 0030 10000000 		.4byte	.LFE1
 4465 0034 0300     		.2byte	0x3
 4466 0036 71       		.byte	0x71
 4467 0037 01       		.sleb128 1
 4468 0038 9F       		.byte	0x9f
 4469 0039 00000000 		.4byte	0
 4470 003d 00000000 		.4byte	0
 4471              	.LLST2:
 4472 0041 34000000 		.4byte	.LVL4
 4473 0045 4C000000 		.4byte	.LVL9
 4474 0049 0100     		.2byte	0x1
 4475 004b 53       		.byte	0x53
 4476 004c 4C000000 		.4byte	.LVL9
 4477 0050 50000000 		.4byte	.LVL10
 4478 0054 0500     		.2byte	0x5
 4479 0056 0C       		.byte	0xc
 4480 0057 94020C40 		.4byte	0x400c0294
 4481 005b 56000000 		.4byte	.LVL11
 4482 005f 5C000000 		.4byte	.LVL13
 4483 0063 0100     		.2byte	0x1
 4484 0065 53       		.byte	0x53
 4485 0066 5C000000 		.4byte	.LVL13
 4486 006a 5E000000 		.4byte	.LVL14
 4487 006e 0200     		.2byte	0x2
 4488 0070 71       		.byte	0x71
 4489 0071 00       		.sleb128 0
 4490 0072 5E000000 		.4byte	.LVL14
 4491 0076 62000000 		.4byte	.LVL15
 4492 007a 0500     		.2byte	0x5
 4493 007c 0C       		.byte	0xc
 4494 007d A8020C40 		.4byte	0x400c02a8
 4495 0081 00000000 		.4byte	0
 4496 0085 00000000 		.4byte	0
 4497              	.LLST3:
 4498 0089 00000000 		.4byte	.LVL20
 4499 008d 07000000 		.4byte	.LVL21-1
 4500 0091 0100     		.2byte	0x1
 4501 0093 50       		.byte	0x50
 4502 0094 07000000 		.4byte	.LVL21-1
 4503 0098 14000000 		.4byte	.LVL23
 4504 009c 0100     		.2byte	0x1
ARM GAS  C:\Users\Jerry\AppData\Local\Temp\cc2mbs0O.s 			page 133


 4505 009e 54       		.byte	0x54
 4506 009f 14000000 		.4byte	.LVL23
 4507 00a3 44000000 		.4byte	.LFE6
 4508 00a7 0400     		.2byte	0x4
 4509 00a9 F3       		.byte	0xf3
 4510 00aa 01       		.uleb128 0x1
 4511 00ab 50       		.byte	0x50
 4512 00ac 9F       		.byte	0x9f
 4513 00ad 00000000 		.4byte	0
 4514 00b1 00000000 		.4byte	0
 4515              	.LLST4:
 4516 00b5 08000000 		.4byte	.LVL21
 4517 00b9 31000000 		.4byte	.LVL30-1
 4518 00bd 0100     		.2byte	0x1
 4519 00bf 50       		.byte	0x50
 4520 00c0 00000000 		.4byte	0
 4521 00c4 00000000 		.4byte	0
 4522              	.LLST5:
 4523 00c8 12000000 		.4byte	.LVL22
 4524 00cc 20000000 		.4byte	.LVL26
 4525 00d0 0100     		.2byte	0x1
 4526 00d2 53       		.byte	0x53
 4527 00d3 20000000 		.4byte	.LVL26
 4528 00d7 2E000000 		.4byte	.LVL29
 4529 00db 0200     		.2byte	0x2
 4530 00dd 75       		.byte	0x75
 4531 00de 00       		.sleb128 0
 4532 00df 00000000 		.4byte	0
 4533 00e3 00000000 		.4byte	0
 4534              	.LLST6:
 4535 00e7 20000000 		.4byte	.LVL26
 4536 00eb 31000000 		.4byte	.LVL30-1
 4537 00ef 0100     		.2byte	0x1
 4538 00f1 53       		.byte	0x53
 4539 00f2 00000000 		.4byte	0
 4540 00f6 00000000 		.4byte	0
 4541              	.LLST7:
 4542 00fa 00000000 		.4byte	.LVL31
 4543 00fe 06000000 		.4byte	.LVL32
 4544 0102 0100     		.2byte	0x1
 4545 0104 50       		.byte	0x50
 4546 0105 06000000 		.4byte	.LVL32
 4547 0109 44000000 		.4byte	.LVL40
 4548 010d 0100     		.2byte	0x1
 4549 010f 55       		.byte	0x55
 4550 0110 44000000 		.4byte	.LVL40
 4551 0114 4A000000 		.4byte	.LVL41
 4552 0118 0900     		.2byte	0x9
 4553 011a 73       		.byte	0x73
 4554 011b 00       		.sleb128 0
 4555 011c 08       		.byte	0x8
 4556 011d FF       		.byte	0xff
 4557 011e 1A       		.byte	0x1a
 4558 011f 75       		.byte	0x75
 4559 0120 00       		.sleb128 0
 4560 0121 1E       		.byte	0x1e
 4561 0122 9F       		.byte	0x9f
ARM GAS  C:\Users\Jerry\AppData\Local\Temp\cc2mbs0O.s 			page 134


 4562 0123 4A000000 		.4byte	.LVL41
 4563 0127 50000000 		.4byte	.LVL42
 4564 012b 0A00     		.2byte	0xa
 4565 012d 73       		.byte	0x73
 4566 012e 00       		.sleb128 0
 4567 012f 08       		.byte	0x8
 4568 0130 FF       		.byte	0xff
 4569 0131 1A       		.byte	0x1a
 4570 0132 F3       		.byte	0xf3
 4571 0133 01       		.uleb128 0x1
 4572 0134 50       		.byte	0x50
 4573 0135 1E       		.byte	0x1e
 4574 0136 9F       		.byte	0x9f
 4575 0137 00000000 		.4byte	0
 4576 013b 00000000 		.4byte	0
 4577              	.LLST8:
 4578 013f 00000000 		.4byte	.LVL31
 4579 0143 1A000000 		.4byte	.LVL35
 4580 0147 0100     		.2byte	0x1
 4581 0149 51       		.byte	0x51
 4582 014a 1A000000 		.4byte	.LVL35
 4583 014e 64000000 		.4byte	.LFE7
 4584 0152 0400     		.2byte	0x4
 4585 0154 F3       		.byte	0xf3
 4586 0155 01       		.uleb128 0x1
 4587 0156 51       		.byte	0x51
 4588 0157 9F       		.byte	0x9f
 4589 0158 00000000 		.4byte	0
 4590 015c 00000000 		.4byte	0
 4591              	.LLST9:
 4592 0160 00000000 		.4byte	.LVL31
 4593 0164 1F000000 		.4byte	.LVL36-1
 4594 0168 0100     		.2byte	0x1
 4595 016a 52       		.byte	0x52
 4596 016b 1F000000 		.4byte	.LVL36-1
 4597 016f 42000000 		.4byte	.LVL39
 4598 0173 0100     		.2byte	0x1
 4599 0175 56       		.byte	0x56
 4600 0176 42000000 		.4byte	.LVL39
 4601 017a 50000000 		.4byte	.LVL42
 4602 017e 0300     		.2byte	0x3
 4603 0180 76       		.byte	0x76
 4604 0181 05       		.sleb128 5
 4605 0182 9F       		.byte	0x9f
 4606 0183 50000000 		.4byte	.LVL42
 4607 0187 64000000 		.4byte	.LFE7
 4608 018b 0400     		.2byte	0x4
 4609 018d F3       		.byte	0xf3
 4610 018e 01       		.uleb128 0x1
 4611 018f 52       		.byte	0x52
 4612 0190 9F       		.byte	0x9f
 4613 0191 00000000 		.4byte	0
 4614 0195 00000000 		.4byte	0
 4615              	.LLST10:
 4616 0199 0C000000 		.4byte	.LVL33
 4617 019d 18000000 		.4byte	.LVL34
 4618 01a1 0100     		.2byte	0x1
ARM GAS  C:\Users\Jerry\AppData\Local\Temp\cc2mbs0O.s 			page 135


 4619 01a3 50       		.byte	0x50
 4620 01a4 18000000 		.4byte	.LVL34
 4621 01a8 2C000000 		.4byte	.LVL37
 4622 01ac 0100     		.2byte	0x1
 4623 01ae 54       		.byte	0x54
 4624 01af 2C000000 		.4byte	.LVL37
 4625 01b3 35000000 		.4byte	.LVL38-1
 4626 01b7 0100     		.2byte	0x1
 4627 01b9 50       		.byte	0x50
 4628 01ba 36000000 		.4byte	.LVL38
 4629 01be 64000000 		.4byte	.LFE7
 4630 01c2 0100     		.2byte	0x1
 4631 01c4 50       		.byte	0x50
 4632 01c5 00000000 		.4byte	0
 4633 01c9 00000000 		.4byte	0
 4634              	.LLST11:
 4635 01cd 10000000 		.4byte	.LVL44
 4636 01d1 2A000000 		.4byte	.LVL50
 4637 01d5 0100     		.2byte	0x1
 4638 01d7 50       		.byte	0x50
 4639 01d8 2A000000 		.4byte	.LVL50
 4640 01dc 2C000000 		.4byte	.LVL51
 4641 01e0 0300     		.2byte	0x3
 4642 01e2 70       		.byte	0x70
 4643 01e3 01       		.sleb128 1
 4644 01e4 9F       		.byte	0x9f
 4645 01e5 32000000 		.4byte	.LVL53
 4646 01e9 35000000 		.4byte	.LVL54-1
 4647 01ed 0100     		.2byte	0x1
 4648 01ef 50       		.byte	0x50
 4649 01f0 00000000 		.4byte	0
 4650 01f4 00000000 		.4byte	0
 4651              	.LLST12:
 4652 01f8 12000000 		.4byte	.LVL45
 4653 01fc 16000000 		.4byte	.LVL46
 4654 0200 0100     		.2byte	0x1
 4655 0202 53       		.byte	0x53
 4656 0203 16000000 		.4byte	.LVL46
 4657 0207 1C000000 		.4byte	.LVL47
 4658 020b 0300     		.2byte	0x3
 4659 020d 72       		.byte	0x72
 4660 020e 05       		.sleb128 5
 4661 020f 9F       		.byte	0x9f
 4662 0210 20000000 		.4byte	.LVL48
 4663 0214 2E000000 		.4byte	.LVL52
 4664 0218 0100     		.2byte	0x1
 4665 021a 53       		.byte	0x53
 4666 021b 32000000 		.4byte	.LVL53
 4667 021f 35000000 		.4byte	.LVL54-1
 4668 0223 0100     		.2byte	0x1
 4669 0225 53       		.byte	0x53
 4670 0226 00000000 		.4byte	0
 4671 022a 00000000 		.4byte	0
 4672              	.LLST13:
 4673 022e 0E000000 		.4byte	.LVL43
 4674 0232 12000000 		.4byte	.LVL45
 4675 0236 0100     		.2byte	0x1
ARM GAS  C:\Users\Jerry\AppData\Local\Temp\cc2mbs0O.s 			page 136


 4676 0238 53       		.byte	0x53
 4677 0239 00000000 		.4byte	0
 4678 023d 00000000 		.4byte	0
 4679              	.LLST14:
 4680 0241 28000000 		.4byte	.LVL49
 4681 0245 2A000000 		.4byte	.LVL50
 4682 0249 0100     		.2byte	0x1
 4683 024b 50       		.byte	0x50
 4684 024c 2A000000 		.4byte	.LVL50
 4685 0250 2C000000 		.4byte	.LVL51
 4686 0254 0300     		.2byte	0x3
 4687 0256 70       		.byte	0x70
 4688 0257 01       		.sleb128 1
 4689 0258 9F       		.byte	0x9f
 4690 0259 00000000 		.4byte	0
 4691 025d 00000000 		.4byte	0
 4692              	.LLST15:
 4693 0261 28000000 		.4byte	.LVL49
 4694 0265 2E000000 		.4byte	.LVL52
 4695 0269 0100     		.2byte	0x1
 4696 026b 53       		.byte	0x53
 4697 026c 00000000 		.4byte	0
 4698 0270 00000000 		.4byte	0
 4699              	.LLST16:
 4700 0274 00000000 		.4byte	.LVL55
 4701 0278 06000000 		.4byte	.LVL56
 4702 027c 0100     		.2byte	0x1
 4703 027e 50       		.byte	0x50
 4704 027f 06000000 		.4byte	.LVL56
 4705 0283 0D000000 		.4byte	.LVL57-1
 4706 0287 0100     		.2byte	0x1
 4707 0289 53       		.byte	0x53
 4708 028a 0D000000 		.4byte	.LVL57-1
 4709 028e 1C000000 		.4byte	.LFE9
 4710 0292 0400     		.2byte	0x4
 4711 0294 F3       		.byte	0xf3
 4712 0295 01       		.uleb128 0x1
 4713 0296 50       		.byte	0x50
 4714 0297 9F       		.byte	0x9f
 4715 0298 00000000 		.4byte	0
 4716 029c 00000000 		.4byte	0
 4717              	.LLST17:
 4718 02a0 0E000000 		.4byte	.LVL57
 4719 02a4 12000000 		.4byte	.LVL58
 4720 02a8 0100     		.2byte	0x1
 4721 02aa 50       		.byte	0x50
 4722 02ab 00000000 		.4byte	0
 4723 02af 00000000 		.4byte	0
 4724              	.LLST18:
 4725 02b3 00000000 		.4byte	.LVL55
 4726 02b7 06000000 		.4byte	.LVL56
 4727 02bb 0800     		.2byte	0x8
 4728 02bd 70       		.byte	0x70
 4729 02be 0B       		.sleb128 11
 4730 02bf 94       		.byte	0x94
 4731 02c0 01       		.byte	0x1
 4732 02c1 08       		.byte	0x8
ARM GAS  C:\Users\Jerry\AppData\Local\Temp\cc2mbs0O.s 			page 137


 4733 02c2 FF       		.byte	0xff
 4734 02c3 1A       		.byte	0x1a
 4735 02c4 9F       		.byte	0x9f
 4736 02c5 06000000 		.4byte	.LVL56
 4737 02c9 0D000000 		.4byte	.LVL57-1
 4738 02cd 0800     		.2byte	0x8
 4739 02cf 73       		.byte	0x73
 4740 02d0 0B       		.sleb128 11
 4741 02d1 94       		.byte	0x94
 4742 02d2 01       		.byte	0x1
 4743 02d3 08       		.byte	0x8
 4744 02d4 FF       		.byte	0xff
 4745 02d5 1A       		.byte	0x1a
 4746 02d6 9F       		.byte	0x9f
 4747 02d7 00000000 		.4byte	0
 4748 02db 00000000 		.4byte	0
 4749              	.LLST19:
 4750 02df 52000000 		.4byte	.LVL61
 4751 02e3 68000000 		.4byte	.LVL62
 4752 02e7 0400     		.2byte	0x4
 4753 02e9 0A       		.byte	0xa
 4754 02ea E001     		.2byte	0x1e0
 4755 02ec 9F       		.byte	0x9f
 4756 02ed 68000000 		.4byte	.LVL62
 4757 02f1 80000000 		.4byte	.LVL64
 4758 02f5 0100     		.2byte	0x1
 4759 02f7 55       		.byte	0x55
 4760 02f8 00000000 		.4byte	0
 4761 02fc 00000000 		.4byte	0
 4762              	.LLST20:
 4763 0300 C4000000 		.4byte	.LVL67
 4764 0304 C8000000 		.4byte	.LVL68
 4765 0308 0400     		.2byte	0x4
 4766 030a 0A       		.byte	0xa
 4767 030b E001     		.2byte	0x1e0
 4768 030d 9F       		.byte	0x9f
 4769 030e C8000000 		.4byte	.LVL68
 4770 0312 D2000000 		.4byte	.LVL69
 4771 0316 0300     		.2byte	0x3
 4772 0318 73       		.byte	0x73
 4773 0319 7F       		.sleb128 -1
 4774 031a 9F       		.byte	0x9f
 4775 031b D2000000 		.4byte	.LVL69
 4776 031f D6000000 		.4byte	.LVL70
 4777 0323 0100     		.2byte	0x1
 4778 0325 53       		.byte	0x53
 4779 0326 00000000 		.4byte	0
 4780 032a 00000000 		.4byte	0
 4781              	.LLST21:
 4782 032e 00000000 		.4byte	.LVL72
 4783 0332 0B000000 		.4byte	.LVL74-1
 4784 0336 0100     		.2byte	0x1
 4785 0338 50       		.byte	0x50
 4786 0339 0B000000 		.4byte	.LVL74-1
 4787 033d 20000000 		.4byte	.LVL77
 4788 0341 0100     		.2byte	0x1
 4789 0343 54       		.byte	0x54
ARM GAS  C:\Users\Jerry\AppData\Local\Temp\cc2mbs0O.s 			page 138


 4790 0344 20000000 		.4byte	.LVL77
 4791 0348 30000000 		.4byte	.LFE17
 4792 034c 0400     		.2byte	0x4
 4793 034e F3       		.byte	0xf3
 4794 034f 01       		.uleb128 0x1
 4795 0350 50       		.byte	0x50
 4796 0351 9F       		.byte	0x9f
 4797 0352 00000000 		.4byte	0
 4798 0356 00000000 		.4byte	0
 4799              	.LLST22:
 4800 035a 16000000 		.4byte	.LVL75
 4801 035e 2D000000 		.4byte	.LVL79-1
 4802 0362 0100     		.2byte	0x1
 4803 0364 53       		.byte	0x53
 4804 0365 00000000 		.4byte	0
 4805 0369 00000000 		.4byte	0
 4806              	.LLST23:
 4807 036d 0C000000 		.4byte	.LVL74
 4808 0371 2D000000 		.4byte	.LVL79-1
 4809 0375 0100     		.2byte	0x1
 4810 0377 50       		.byte	0x50
 4811 0378 00000000 		.4byte	0
 4812 037c 00000000 		.4byte	0
 4813              	.LLST24:
 4814 0380 08000000 		.4byte	.LVL73
 4815 0384 2E000000 		.4byte	.LVL80
 4816 0388 0600     		.2byte	0x6
 4817 038a 75       		.byte	0x75
 4818 038b 00       		.sleb128 0
 4819 038c 08       		.byte	0x8
 4820 038d FF       		.byte	0xff
 4821 038e 1A       		.byte	0x1a
 4822 038f 9F       		.byte	0x9f
 4823 0390 00000000 		.4byte	0
 4824 0394 00000000 		.4byte	0
 4825              	.LLST25:
 4826 0398 08000000 		.4byte	.LVL73
 4827 039c 2E000000 		.4byte	.LVL81
 4828 03a0 0600     		.2byte	0x6
 4829 03a2 77       		.byte	0x77
 4830 03a3 00       		.sleb128 0
 4831 03a4 08       		.byte	0x8
 4832 03a5 FF       		.byte	0xff
 4833 03a6 1A       		.byte	0x1a
 4834 03a7 9F       		.byte	0x9f
 4835 03a8 00000000 		.4byte	0
 4836 03ac 00000000 		.4byte	0
 4837              	.LLST26:
 4838 03b0 10000000 		.4byte	.LVL82
 4839 03b4 2B000000 		.4byte	.LVL83-1
 4840 03b8 0100     		.2byte	0x1
 4841 03ba 50       		.byte	0x50
 4842 03bb 00000000 		.4byte	0
 4843 03bf 00000000 		.4byte	0
 4844              	.LLST27:
 4845 03c3 00000000 		.4byte	.LVL87
 4846 03c7 0C000000 		.4byte	.LVL89
ARM GAS  C:\Users\Jerry\AppData\Local\Temp\cc2mbs0O.s 			page 139


 4847 03cb 0100     		.2byte	0x1
 4848 03cd 50       		.byte	0x50
 4849 03ce 0C000000 		.4byte	.LVL89
 4850 03d2 20000000 		.4byte	.LFE15
 4851 03d6 0400     		.2byte	0x4
 4852 03d8 F3       		.byte	0xf3
 4853 03d9 01       		.uleb128 0x1
 4854 03da 50       		.byte	0x50
 4855 03db 9F       		.byte	0x9f
 4856 03dc 00000000 		.4byte	0
 4857 03e0 00000000 		.4byte	0
 4858              	.LLST28:
 4859 03e4 00000000 		.4byte	.LVL87
 4860 03e8 06000000 		.4byte	.LVL88
 4861 03ec 0100     		.2byte	0x1
 4862 03ee 51       		.byte	0x51
 4863 03ef 06000000 		.4byte	.LVL88
 4864 03f3 20000000 		.4byte	.LFE15
 4865 03f7 0400     		.2byte	0x4
 4866 03f9 F3       		.byte	0xf3
 4867 03fa 01       		.uleb128 0x1
 4868 03fb 51       		.byte	0x51
 4869 03fc 9F       		.byte	0x9f
 4870 03fd 00000000 		.4byte	0
 4871 0401 00000000 		.4byte	0
 4872              	.LLST29:
 4873 0405 00000000 		.4byte	.LVL91
 4874 0409 0C000000 		.4byte	.LVL93
 4875 040d 0100     		.2byte	0x1
 4876 040f 50       		.byte	0x50
 4877 0410 0C000000 		.4byte	.LVL93
 4878 0414 3C000000 		.4byte	.LVL100
 4879 0418 0100     		.2byte	0x1
 4880 041a 54       		.byte	0x54
 4881 041b 3C000000 		.4byte	.LVL100
 4882 041f 3E000000 		.4byte	.LFE18
 4883 0423 0400     		.2byte	0x4
 4884 0425 F3       		.byte	0xf3
 4885 0426 01       		.uleb128 0x1
 4886 0427 50       		.byte	0x50
 4887 0428 9F       		.byte	0x9f
 4888 0429 00000000 		.4byte	0
 4889 042d 00000000 		.4byte	0
 4890              	.LLST30:
 4891 0431 00000000 		.4byte	.LVL91
 4892 0435 0C000000 		.4byte	.LVL93
 4893 0439 0800     		.2byte	0x8
 4894 043b 70       		.byte	0x70
 4895 043c 18       		.sleb128 24
 4896 043d 94       		.byte	0x94
 4897 043e 01       		.byte	0x1
 4898 043f 08       		.byte	0x8
 4899 0440 FF       		.byte	0xff
 4900 0441 1A       		.byte	0x1a
 4901 0442 9F       		.byte	0x9f
 4902 0443 0C000000 		.4byte	.LVL93
 4903 0447 14000000 		.4byte	.LVL94
ARM GAS  C:\Users\Jerry\AppData\Local\Temp\cc2mbs0O.s 			page 140


 4904 044b 0800     		.2byte	0x8
 4905 044d 74       		.byte	0x74
 4906 044e 18       		.sleb128 24
 4907 044f 94       		.byte	0x94
 4908 0450 01       		.byte	0x1
 4909 0451 08       		.byte	0x8
 4910 0452 FF       		.byte	0xff
 4911 0453 1A       		.byte	0x1a
 4912 0454 9F       		.byte	0x9f
 4913 0455 00000000 		.4byte	0
 4914 0459 00000000 		.4byte	0
 4915              	.LLST31:
 4916 045d 20000000 		.4byte	.LVL96
 4917 0461 2D000000 		.4byte	.LVL99-1
 4918 0465 0100     		.2byte	0x1
 4919 0467 53       		.byte	0x53
 4920 0468 00000000 		.4byte	0
 4921 046c 00000000 		.4byte	0
 4922              	.LLST32:
 4923 0470 08000000 		.4byte	.LVL92
 4924 0474 3C000000 		.4byte	.LVL101
 4925 0478 0600     		.2byte	0x6
 4926 047a 75       		.byte	0x75
 4927 047b 00       		.sleb128 0
 4928 047c 08       		.byte	0x8
 4929 047d FF       		.byte	0xff
 4930 047e 1A       		.byte	0x1a
 4931 047f 9F       		.byte	0x9f
 4932 0480 00000000 		.4byte	0
 4933 0484 00000000 		.4byte	0
 4934              	.LLST33:
 4935 0488 18000000 		.4byte	.LVL95
 4936 048c 2D000000 		.4byte	.LVL99-1
 4937 0490 0100     		.2byte	0x1
 4938 0492 50       		.byte	0x50
 4939 0493 00000000 		.4byte	0
 4940 0497 00000000 		.4byte	0
 4941              	.LLST34:
 4942 049b 00000000 		.4byte	.LVL103
 4943 049f 0F000000 		.4byte	.LVL105-1
 4944 04a3 0100     		.2byte	0x1
 4945 04a5 50       		.byte	0x50
 4946 04a6 0F000000 		.4byte	.LVL105-1
 4947 04aa 14000000 		.4byte	.LVL106
 4948 04ae 0100     		.2byte	0x1
 4949 04b0 54       		.byte	0x54
 4950 04b1 14000000 		.4byte	.LVL106
 4951 04b5 4C000000 		.4byte	.LFE10
 4952 04b9 0400     		.2byte	0x4
 4953 04bb F3       		.byte	0xf3
 4954 04bc 01       		.uleb128 0x1
 4955 04bd 50       		.byte	0x50
 4956 04be 9F       		.byte	0x9f
 4957 04bf 00000000 		.4byte	0
 4958 04c3 00000000 		.4byte	0
 4959              	.LLST35:
 4960 04c7 0C000000 		.4byte	.LVL104
ARM GAS  C:\Users\Jerry\AppData\Local\Temp\cc2mbs0O.s 			page 141


 4961 04cb 3A000000 		.4byte	.LVL109
 4962 04cf 0100     		.2byte	0x1
 4963 04d1 55       		.byte	0x55
 4964 04d2 3A000000 		.4byte	.LVL109
 4965 04d6 3A000000 		.4byte	.LVL110
 4966 04da 0A00     		.2byte	0xa
 4967 04dc F3       		.byte	0xf3
 4968 04dd 01       		.uleb128 0x1
 4969 04de 50       		.byte	0x50
 4970 04df 35       		.byte	0x35
 4971 04e0 24       		.byte	0x24
 4972 04e1 76       		.byte	0x76
 4973 04e2 00       		.sleb128 0
 4974 04e3 22       		.byte	0x22
 4975 04e4 23       		.byte	0x23
 4976 04e5 04       		.uleb128 0x4
 4977 04e6 00000000 		.4byte	0
 4978 04ea 00000000 		.4byte	0
 4979              	.LLST36:
 4980 04ee 00000000 		.4byte	.LVL111
 4981 04f2 21000000 		.4byte	.LVL114-1
 4982 04f6 0100     		.2byte	0x1
 4983 04f8 50       		.byte	0x50
 4984 04f9 21000000 		.4byte	.LVL114-1
 4985 04fd 60000000 		.4byte	.LFE11
 4986 0501 0400     		.2byte	0x4
 4987 0503 F3       		.byte	0xf3
 4988 0504 01       		.uleb128 0x1
 4989 0505 50       		.byte	0x50
 4990 0506 9F       		.byte	0x9f
 4991 0507 00000000 		.4byte	0
 4992 050b 00000000 		.4byte	0
 4993              	.LLST37:
 4994 050f 00000000 		.4byte	.LVL111
 4995 0513 0E000000 		.4byte	.LVL112
 4996 0517 0100     		.2byte	0x1
 4997 0519 51       		.byte	0x51
 4998 051a 0E000000 		.4byte	.LVL112
 4999 051e 60000000 		.4byte	.LFE11
 5000 0522 0400     		.2byte	0x4
 5001 0524 F3       		.byte	0xf3
 5002 0525 01       		.uleb128 0x1
 5003 0526 51       		.byte	0x51
 5004 0527 9F       		.byte	0x9f
 5005 0528 00000000 		.4byte	0
 5006 052c 00000000 		.4byte	0
 5007              	.LLST38:
 5008 0530 14000000 		.4byte	.LVL113
 5009 0534 46000000 		.4byte	.LVL118
 5010 0538 0100     		.2byte	0x1
 5011 053a 55       		.byte	0x55
 5012 053b 00000000 		.4byte	0
 5013 053f 00000000 		.4byte	0
 5014              	.LLST39:
 5015 0543 00000000 		.4byte	.LVL119
 5016 0547 0C000000 		.4byte	.LVL121
 5017 054b 0100     		.2byte	0x1
ARM GAS  C:\Users\Jerry\AppData\Local\Temp\cc2mbs0O.s 			page 142


 5018 054d 50       		.byte	0x50
 5019 054e 0C000000 		.4byte	.LVL121
 5020 0552 20000000 		.4byte	.LFE16
 5021 0556 0400     		.2byte	0x4
 5022 0558 F3       		.byte	0xf3
 5023 0559 01       		.uleb128 0x1
 5024 055a 50       		.byte	0x50
 5025 055b 9F       		.byte	0x9f
 5026 055c 00000000 		.4byte	0
 5027 0560 00000000 		.4byte	0
 5028              	.LLST40:
 5029 0564 00000000 		.4byte	.LVL119
 5030 0568 06000000 		.4byte	.LVL120
 5031 056c 0100     		.2byte	0x1
 5032 056e 51       		.byte	0x51
 5033 056f 06000000 		.4byte	.LVL120
 5034 0573 20000000 		.4byte	.LFE16
 5035 0577 0400     		.2byte	0x4
 5036 0579 F3       		.byte	0xf3
 5037 057a 01       		.uleb128 0x1
 5038 057b 51       		.byte	0x51
 5039 057c 9F       		.byte	0x9f
 5040 057d 00000000 		.4byte	0
 5041 0581 00000000 		.4byte	0
 5042              	.LLST41:
 5043 0585 0A000000 		.4byte	.LVL123
 5044 0589 10000000 		.4byte	.LVL125
 5045 058d 0100     		.2byte	0x1
 5046 058f 52       		.byte	0x52
 5047 0590 10000000 		.4byte	.LVL125
 5048 0594 12000000 		.4byte	.LVL126
 5049 0598 0200     		.2byte	0x2
 5050 059a 71       		.byte	0x71
 5051 059b 00       		.sleb128 0
 5052 059c 12000000 		.4byte	.LVL126
 5053 05a0 14000000 		.4byte	.LVL127
 5054 05a4 0500     		.2byte	0x5
 5055 05a6 0C       		.byte	0xc
 5056 05a7 C0010C40 		.4byte	0x400c01c0
 5057 05ab 14000000 		.4byte	.LVL127
 5058 05af 2C000000 		.4byte	.LFE19
 5059 05b3 0100     		.2byte	0x1
 5060 05b5 53       		.byte	0x53
 5061 05b6 00000000 		.4byte	0
 5062 05ba 00000000 		.4byte	0
 5063              	.LLST42:
 5064 05be 00000000 		.4byte	.LVL129
 5065 05c2 14000000 		.4byte	.LVL131
 5066 05c6 0100     		.2byte	0x1
 5067 05c8 50       		.byte	0x50
 5068 05c9 14000000 		.4byte	.LVL131
 5069 05cd E4010000 		.4byte	.LFE23
 5070 05d1 0200     		.2byte	0x2
 5071 05d3 91       		.byte	0x91
 5072 05d4 58       		.sleb128 -40
 5073 05d5 00000000 		.4byte	0
 5074 05d9 00000000 		.4byte	0
ARM GAS  C:\Users\Jerry\AppData\Local\Temp\cc2mbs0O.s 			page 143


 5075              	.LLST43:
 5076 05dd 00000000 		.4byte	.LVL129
 5077 05e1 20000000 		.4byte	.LVL134
 5078 05e5 0100     		.2byte	0x1
 5079 05e7 51       		.byte	0x51
 5080 05e8 20000000 		.4byte	.LVL134
 5081 05ec E4010000 		.4byte	.LFE23
 5082 05f0 0200     		.2byte	0x2
 5083 05f2 91       		.byte	0x91
 5084 05f3 64       		.sleb128 -28
 5085 05f4 00000000 		.4byte	0
 5086 05f8 00000000 		.4byte	0
 5087              	.LLST44:
 5088 05fc 0C000000 		.4byte	.LVL130
 5089 0600 1C000000 		.4byte	.LVL132
 5090 0604 0D00     		.2byte	0xd
 5091 0606 31       		.byte	0x31
 5092 0607 74       		.byte	0x74
 5093 0608 00       		.sleb128 0
 5094 0609 94       		.byte	0x94
 5095 060a 02       		.byte	0x2
 5096 060b 0A       		.byte	0xa
 5097 060c FFFF     		.2byte	0xffff
 5098 060e 1A       		.byte	0x1a
 5099 060f 24       		.byte	0x24
 5100 0610 31       		.byte	0x31
 5101 0611 1C       		.byte	0x1c
 5102 0612 9F       		.byte	0x9f
 5103 0613 1C000000 		.4byte	.LVL132
 5104 0617 1E000000 		.4byte	.LVL133
 5105 061b 0100     		.2byte	0x1
 5106 061d 50       		.byte	0x50
 5107 061e 1E000000 		.4byte	.LVL133
 5108 0622 23000000 		.4byte	.LVL135-1
 5109 0626 0D00     		.2byte	0xd
 5110 0628 31       		.byte	0x31
 5111 0629 74       		.byte	0x74
 5112 062a 00       		.sleb128 0
 5113 062b 94       		.byte	0x94
 5114 062c 02       		.byte	0x2
 5115 062d 0A       		.byte	0xa
 5116 062e FFFF     		.2byte	0xffff
 5117 0630 1A       		.byte	0x1a
 5118 0631 24       		.byte	0x24
 5119 0632 31       		.byte	0x31
 5120 0633 1C       		.byte	0x1c
 5121 0634 9F       		.byte	0x9f
 5122 0635 2C000000 		.4byte	.LVL136
 5123 0639 2E000000 		.4byte	.LVL137
 5124 063d 0100     		.2byte	0x1
 5125 063f 50       		.byte	0x50
 5126 0640 2E000000 		.4byte	.LVL137
 5127 0644 AA010000 		.4byte	.LVL173
 5128 0648 0200     		.2byte	0x2
 5129 064a 7D       		.byte	0x7d
 5130 064b 00       		.sleb128 0
 5131 064c AA010000 		.4byte	.LVL173
ARM GAS  C:\Users\Jerry\AppData\Local\Temp\cc2mbs0O.s 			page 144


 5132 0650 E4010000 		.4byte	.LFE23
 5133 0654 0200     		.2byte	0x2
 5134 0656 91       		.byte	0x91
 5135 0657 50       		.sleb128 -48
 5136 0658 00000000 		.4byte	0
 5137 065c 00000000 		.4byte	0
 5138              	.LLST45:
 5139 0660 00000000 		.4byte	.LVL129
 5140 0664 3E000000 		.4byte	.LVL139
 5141 0668 0200     		.2byte	0x2
 5142 066a 30       		.byte	0x30
 5143 066b 9F       		.byte	0x9f
 5144 066c 3E000000 		.4byte	.LVL139
 5145 0670 3E010000 		.4byte	.LVL168
 5146 0674 0200     		.2byte	0x2
 5147 0676 91       		.byte	0x91
 5148 0677 5C       		.sleb128 -36
 5149 0678 3E010000 		.4byte	.LVL168
 5150 067c 40010000 		.4byte	.LVL169
 5151 0680 0100     		.2byte	0x1
 5152 0682 52       		.byte	0x52
 5153 0683 40010000 		.4byte	.LVL169
 5154 0687 E4010000 		.4byte	.LFE23
 5155 068b 0200     		.2byte	0x2
 5156 068d 91       		.byte	0x91
 5157 068e 5C       		.sleb128 -36
 5158 068f 00000000 		.4byte	0
 5159 0693 00000000 		.4byte	0
 5160              	.LLST46:
 5161 0697 0C000000 		.4byte	.LVL130
 5162 069b AA010000 		.4byte	.LVL174
 5163 069f 0100     		.2byte	0x1
 5164 06a1 54       		.byte	0x54
 5165 06a2 AA010000 		.4byte	.LVL174
 5166 06a6 AA010000 		.4byte	.LVL175
 5167 06aa 0A00     		.2byte	0xa
 5168 06ac 91       		.byte	0x91
 5169 06ad 58       		.sleb128 -40
 5170 06ae 06       		.byte	0x6
 5171 06af 35       		.byte	0x35
 5172 06b0 24       		.byte	0x24
 5173 06b1 76       		.byte	0x76
 5174 06b2 00       		.sleb128 0
 5175 06b3 22       		.byte	0x22
 5176 06b4 23       		.byte	0x23
 5177 06b5 04       		.uleb128 0x4
 5178 06b6 00000000 		.4byte	0
 5179 06ba 00000000 		.4byte	0
 5180              	.LLST47:
 5181 06be 0C000000 		.4byte	.LVL130
 5182 06c2 3E000000 		.4byte	.LVL139
 5183 06c6 0400     		.2byte	0x4
 5184 06c8 31       		.byte	0x31
 5185 06c9 9F       		.byte	0x9f
 5186 06ca 93       		.byte	0x93
 5187 06cb 01       		.uleb128 0x1
 5188 06cc 3E000000 		.4byte	.LVL139
ARM GAS  C:\Users\Jerry\AppData\Local\Temp\cc2mbs0O.s 			page 145


 5189 06d0 32010000 		.4byte	.LVL167
 5190 06d4 0400     		.2byte	0x4
 5191 06d6 91       		.byte	0x91
 5192 06d7 54       		.sleb128 -44
 5193 06d8 93       		.byte	0x93
 5194 06d9 01       		.uleb128 0x1
 5195 06da 4A010000 		.4byte	.LVL171
 5196 06de E4010000 		.4byte	.LFE23
 5197 06e2 0400     		.2byte	0x4
 5198 06e4 91       		.byte	0x91
 5199 06e5 54       		.sleb128 -44
 5200 06e6 93       		.byte	0x93
 5201 06e7 01       		.uleb128 0x1
 5202 06e8 00000000 		.4byte	0
 5203 06ec 00000000 		.4byte	0
 5204              	.LLST48:
 5205 06f0 34000000 		.4byte	.LVL138
 5206 06f4 AA010000 		.4byte	.LVL174
 5207 06f8 0300     		.2byte	0x3
 5208 06fa 74       		.byte	0x74
 5209 06fb 0A       		.sleb128 10
 5210 06fc 9F       		.byte	0x9f
 5211 06fd AA010000 		.4byte	.LVL174
 5212 0701 AA010000 		.4byte	.LVL175
 5213 0705 0E00     		.2byte	0xe
 5214 0707 91       		.byte	0x91
 5215 0708 58       		.sleb128 -40
 5216 0709 06       		.byte	0x6
 5217 070a 35       		.byte	0x35
 5218 070b 24       		.byte	0x24
 5219 070c 76       		.byte	0x76
 5220 070d 00       		.sleb128 0
 5221 070e 22       		.byte	0x22
 5222 070f 23       		.byte	0x23
 5223 0710 04       		.uleb128 0x4
 5224 0711 06       		.byte	0x6
 5225 0712 23       		.byte	0x23
 5226 0713 0A       		.uleb128 0xa
 5227 0714 9F       		.byte	0x9f
 5228 0715 00000000 		.4byte	0
 5229 0719 00000000 		.4byte	0
 5230              	.LLST49:
 5231 071d 52000000 		.4byte	.LVL140
 5232 0721 4A010000 		.4byte	.LVL171
 5233 0725 0600     		.2byte	0x6
 5234 0727 F2       		.byte	0xf2
 5235 0728 070E0000 		.4byte	.Ldebug_info0+3591
 5236 072c 00       		.sleb128 0
 5237 072d 00000000 		.4byte	0
 5238 0731 00000000 		.4byte	0
 5239              	.LLST50:
 5240 0735 52000000 		.4byte	.LVL140
 5241 0739 4A010000 		.4byte	.LVL171
 5242 073d 0300     		.2byte	0x3
 5243 073f 74       		.byte	0x74
 5244 0740 0A       		.sleb128 10
 5245 0741 9F       		.byte	0x9f
ARM GAS  C:\Users\Jerry\AppData\Local\Temp\cc2mbs0O.s 			page 146


 5246 0742 00000000 		.4byte	0
 5247 0746 00000000 		.4byte	0
 5248              	.LLST51:
 5249 074a 52000000 		.4byte	.LVL140
 5250 074e 4A010000 		.4byte	.LVL171
 5251 0752 0200     		.2byte	0x2
 5252 0754 7D       		.byte	0x7d
 5253 0755 00       		.sleb128 0
 5254 0756 00000000 		.4byte	0
 5255 075a 00000000 		.4byte	0
 5256              	.LLST52:
 5257 075e 90000000 		.4byte	.LVL148
 5258 0762 1E010000 		.4byte	.LVL165
 5259 0766 0100     		.2byte	0x1
 5260 0768 57       		.byte	0x57
 5261 0769 00000000 		.4byte	0
 5262 076d 00000000 		.4byte	0
 5263              	.LLST53:
 5264 0771 52000000 		.4byte	.LVL140
 5265 0775 74000000 		.4byte	.LVL143
 5266 0779 0300     		.2byte	0x3
 5267 077b 08       		.byte	0x8
 5268 077c 40       		.byte	0x40
 5269 077d 9F       		.byte	0x9f
 5270 077e 74000000 		.4byte	.LVL143
 5271 0782 F0000000 		.4byte	.LVL157
 5272 0786 0100     		.2byte	0x1
 5273 0788 55       		.byte	0x55
 5274 0789 00000000 		.4byte	0
 5275 078d 00000000 		.4byte	0
 5276              	.LLST54:
 5277 0791 78000000 		.4byte	.LVL144
 5278 0795 7A000000 		.4byte	.LVL145
 5279 0799 0400     		.2byte	0x4
 5280 079b 0A       		.byte	0xa
 5281 079c 3333     		.2byte	0x3333
 5282 079e 9F       		.byte	0x9f
 5283 079f 7A000000 		.4byte	.LVL145
 5284 07a3 86000000 		.4byte	.LVL146
 5285 07a7 0300     		.2byte	0x3
 5286 07a9 73       		.byte	0x73
 5287 07aa 7F       		.sleb128 -1
 5288 07ab 9F       		.byte	0x9f
 5289 07ac 86000000 		.4byte	.LVL146
 5290 07b0 8A000000 		.4byte	.LVL147
 5291 07b4 0100     		.2byte	0x1
 5292 07b6 53       		.byte	0x53
 5293 07b7 00000000 		.4byte	0
 5294 07bb 00000000 		.4byte	0
 5295              	.LLST55:
 5296 07bf 6C000000 		.4byte	.LVL141
 5297 07c3 6F000000 		.4byte	.LVL142-1
 5298 07c7 0100     		.2byte	0x1
 5299 07c9 53       		.byte	0x53
 5300 07ca 6F000000 		.4byte	.LVL142-1
 5301 07ce 4A010000 		.4byte	.LVL171
 5302 07d2 0200     		.2byte	0x2
ARM GAS  C:\Users\Jerry\AppData\Local\Temp\cc2mbs0O.s 			page 147


 5303 07d4 91       		.byte	0x91
 5304 07d5 60       		.sleb128 -32
 5305 07d6 00000000 		.4byte	0
 5306 07da 00000000 		.4byte	0
 5307              	.LLST56:
 5308 07de D4000000 		.4byte	.LVL152
 5309 07e2 E0000000 		.4byte	.LVL154
 5310 07e6 0100     		.2byte	0x1
 5311 07e8 53       		.byte	0x53
 5312 07e9 E0000000 		.4byte	.LVL154
 5313 07ed E4000000 		.4byte	.LVL155
 5314 07f1 0500     		.2byte	0x5
 5315 07f3 0C       		.byte	0xc
 5316 07f4 A8020C40 		.4byte	0x400c02a8
 5317 07f8 00000000 		.4byte	0
 5318 07fc 00000000 		.4byte	0
 5319              	.LLST57:
 5320 0800 EC000000 		.4byte	.LVL156
 5321 0804 4A010000 		.4byte	.LVL171
 5322 0808 0200     		.2byte	0x2
 5323 080a 91       		.byte	0x91
 5324 080b 60       		.sleb128 -32
 5325 080c 00000000 		.4byte	0
 5326 0810 00000000 		.4byte	0
 5327              	.LLST58:
 5328 0814 EC000000 		.4byte	.LVL156
 5329 0818 1E010000 		.4byte	.LVL165
 5330 081c 0100     		.2byte	0x1
 5331 081e 57       		.byte	0x57
 5332 081f 00000000 		.4byte	0
 5333 0823 00000000 		.4byte	0
 5334              	.LLST59:
 5335 0827 EC000000 		.4byte	.LVL156
 5336 082b 4A010000 		.4byte	.LVL171
 5337 082f 0200     		.2byte	0x2
 5338 0831 7D       		.byte	0x7d
 5339 0832 00       		.sleb128 0
 5340 0833 00000000 		.4byte	0
 5341 0837 00000000 		.4byte	0
 5342              	.LLST60:
 5343 083b 20010000 		.4byte	.LVL166
 5344 083f 42010000 		.4byte	.LVL170
 5345 0843 0100     		.2byte	0x1
 5346 0845 53       		.byte	0x53
 5347 0846 00000000 		.4byte	0
 5348 084a 00000000 		.4byte	0
 5349              	.LLST61:
 5350 084e 02010000 		.4byte	.LVL160
 5351 0852 12010000 		.4byte	.LVL164
 5352 0856 0100     		.2byte	0x1
 5353 0858 50       		.byte	0x50
 5354 0859 00000000 		.4byte	0
 5355 085d 00000000 		.4byte	0
 5356              	.LLST62:
 5357 0861 EC000000 		.4byte	.LVL156
 5358 0865 06010000 		.4byte	.LVL161
 5359 0869 0200     		.2byte	0x2
ARM GAS  C:\Users\Jerry\AppData\Local\Temp\cc2mbs0O.s 			page 148


 5360 086b 30       		.byte	0x30
 5361 086c 9F       		.byte	0x9f
 5362 086d 06010000 		.4byte	.LVL161
 5363 0871 08010000 		.4byte	.LVL162
 5364 0875 0700     		.2byte	0x7
 5365 0877 7D       		.byte	0x7d
 5366 0878 00       		.sleb128 0
 5367 0879 06       		.byte	0x6
 5368 087a 70       		.byte	0x70
 5369 087b 00       		.sleb128 0
 5370 087c 1C       		.byte	0x1c
 5371 087d 9F       		.byte	0x9f
 5372 087e 08010000 		.4byte	.LVL162
 5373 0882 0E010000 		.4byte	.LVL163
 5374 0886 0100     		.2byte	0x1
 5375 0888 52       		.byte	0x52
 5376 0889 00000000 		.4byte	0
 5377 088d 00000000 		.4byte	0
 5378              	.LLST63:
 5379 0891 F8000000 		.4byte	.LVL158
 5380 0895 02010000 		.4byte	.LVL160
 5381 0899 0100     		.2byte	0x1
 5382 089b 55       		.byte	0x55
 5383 089c 02010000 		.4byte	.LVL160
 5384 08a0 12010000 		.4byte	.LVL164
 5385 08a4 1A00     		.2byte	0x1a
 5386 08a6 70       		.byte	0x70
 5387 08a7 00       		.sleb128 0
 5388 08a8 7D       		.byte	0x7d
 5389 08a9 00       		.sleb128 0
 5390 08aa 06       		.byte	0x6
 5391 08ab 22       		.byte	0x22
 5392 08ac 12       		.byte	0x12
 5393 08ad 40       		.byte	0x40
 5394 08ae 4B       		.byte	0x4b
 5395 08af 24       		.byte	0x24
 5396 08b0 22       		.byte	0x22
 5397 08b1 75       		.byte	0x75
 5398 08b2 00       		.sleb128 0
 5399 08b3 16       		.byte	0x16
 5400 08b4 14       		.byte	0x14
 5401 08b5 40       		.byte	0x40
 5402 08b6 4B       		.byte	0x4b
 5403 08b7 24       		.byte	0x24
 5404 08b8 22       		.byte	0x22
 5405 08b9 2D       		.byte	0x2d
 5406 08ba 28       		.byte	0x28
 5407 08bb 0100     		.2byte	0x1
 5408 08bd 16       		.byte	0x16
 5409 08be 13       		.byte	0x13
 5410 08bf 9F       		.byte	0x9f
 5411 08c0 00000000 		.4byte	0
 5412 08c4 00000000 		.4byte	0
 5413              		.section	.debug_aranges,"",%progbits
 5414 0000 A4000000 		.4byte	0xa4
 5415 0004 0200     		.2byte	0x2
 5416 0006 00000000 		.4byte	.Ldebug_info0
ARM GAS  C:\Users\Jerry\AppData\Local\Temp\cc2mbs0O.s 			page 149


 5417 000a 04       		.byte	0x4
 5418 000b 00       		.byte	0
 5419 000c 0000     		.2byte	0
 5420 000e 0000     		.2byte	0
 5421 0010 00000000 		.4byte	.LFB1
 5422 0014 10000000 		.4byte	.LFE1-.LFB1
 5423 0018 00000000 		.4byte	.LFB4
 5424 001c 54010000 		.4byte	.LFE4-.LFB4
 5425 0020 00000000 		.4byte	.LFB6
 5426 0024 44000000 		.4byte	.LFE6-.LFB6
 5427 0028 00000000 		.4byte	.LFB7
 5428 002c 64000000 		.4byte	.LFE7-.LFB7
 5429 0030 00000000 		.4byte	.LFB8
 5430 0034 48000000 		.4byte	.LFE8-.LFB8
 5431 0038 00000000 		.4byte	.LFB9
 5432 003c 1C000000 		.4byte	.LFE9-.LFB9
 5433 0040 00000000 		.4byte	.LFB12
 5434 0044 18010000 		.4byte	.LFE12-.LFB12
 5435 0048 00000000 		.4byte	.LFB13
 5436 004c 1C000000 		.4byte	.LFE13-.LFB13
 5437 0050 00000000 		.4byte	.LFB17
 5438 0054 30000000 		.4byte	.LFE17-.LFB17
 5439 0058 00000000 		.4byte	.LFB14
 5440 005c 68000000 		.4byte	.LFE14-.LFB14
 5441 0060 00000000 		.4byte	.LFB15
 5442 0064 20000000 		.4byte	.LFE15-.LFB15
 5443 0068 00000000 		.4byte	.LFB18
 5444 006c 3E000000 		.4byte	.LFE18-.LFB18
 5445 0070 00000000 		.4byte	.LFB5
 5446 0074 20000000 		.4byte	.LFE5-.LFB5
 5447 0078 00000000 		.4byte	.LFB10
 5448 007c 4C000000 		.4byte	.LFE10-.LFB10
 5449 0080 00000000 		.4byte	.LFB11
 5450 0084 60000000 		.4byte	.LFE11-.LFB11
 5451 0088 00000000 		.4byte	.LFB16
 5452 008c 20000000 		.4byte	.LFE16-.LFB16
 5453 0090 00000000 		.4byte	.LFB19
 5454 0094 2C000000 		.4byte	.LFE19-.LFB19
 5455 0098 00000000 		.4byte	.LFB23
 5456 009c E4010000 		.4byte	.LFE23-.LFB23
 5457 00a0 00000000 		.4byte	0
 5458 00a4 00000000 		.4byte	0
 5459              		.section	.debug_ranges,"",%progbits
 5460              	.Ldebug_ranges0:
 5461 0000 16000000 		.4byte	.LBB18
 5462 0004 86000000 		.4byte	.LBE18
 5463 0008 88000000 		.4byte	.LBB24
 5464 000c 8A000000 		.4byte	.LBE24
 5465 0010 00000000 		.4byte	0
 5466 0014 00000000 		.4byte	0
 5467 0018 86000000 		.4byte	.LBB21
 5468 001c 88000000 		.4byte	.LBE21
 5469 0020 8A000000 		.4byte	.LBB25
 5470 0024 DA000000 		.4byte	.LBE25
 5471 0028 00000000 		.4byte	0
 5472 002c 00000000 		.4byte	0
 5473 0030 CE000000 		.4byte	.LBB38
ARM GAS  C:\Users\Jerry\AppData\Local\Temp\cc2mbs0O.s 			page 150


 5474 0034 D0000000 		.4byte	.LBE38
 5475 0038 D2000000 		.4byte	.LBB43
 5476 003c D6000000 		.4byte	.LBE43
 5477 0040 D8000000 		.4byte	.LBB48
 5478 0044 E0000000 		.4byte	.LBE48
 5479 0048 E2000000 		.4byte	.LBB50
 5480 004c EC000000 		.4byte	.LBE50
 5481 0050 00000000 		.4byte	0
 5482 0054 00000000 		.4byte	0
 5483 0058 D6000000 		.4byte	.LBB44
 5484 005c D8000000 		.4byte	.LBE44
 5485 0060 E0000000 		.4byte	.LBB49
 5486 0064 E2000000 		.4byte	.LBE49
 5487 0068 EC000000 		.4byte	.LBB51
 5488 006c 22010000 		.4byte	.LBE51
 5489 0070 00000000 		.4byte	0
 5490 0074 00000000 		.4byte	0
 5491 0078 00000000 		.4byte	.LFB1
 5492 007c 10000000 		.4byte	.LFE1
 5493 0080 00000000 		.4byte	.LFB4
 5494 0084 54010000 		.4byte	.LFE4
 5495 0088 00000000 		.4byte	.LFB6
 5496 008c 44000000 		.4byte	.LFE6
 5497 0090 00000000 		.4byte	.LFB7
 5498 0094 64000000 		.4byte	.LFE7
 5499 0098 00000000 		.4byte	.LFB8
 5500 009c 48000000 		.4byte	.LFE8
 5501 00a0 00000000 		.4byte	.LFB9
 5502 00a4 1C000000 		.4byte	.LFE9
 5503 00a8 00000000 		.4byte	.LFB12
 5504 00ac 18010000 		.4byte	.LFE12
 5505 00b0 00000000 		.4byte	.LFB13
 5506 00b4 1C000000 		.4byte	.LFE13
 5507 00b8 00000000 		.4byte	.LFB17
 5508 00bc 30000000 		.4byte	.LFE17
 5509 00c0 00000000 		.4byte	.LFB14
 5510 00c4 68000000 		.4byte	.LFE14
 5511 00c8 00000000 		.4byte	.LFB15
 5512 00cc 20000000 		.4byte	.LFE15
 5513 00d0 00000000 		.4byte	.LFB18
 5514 00d4 3E000000 		.4byte	.LFE18
 5515 00d8 00000000 		.4byte	.LFB5
 5516 00dc 20000000 		.4byte	.LFE5
 5517 00e0 00000000 		.4byte	.LFB10
 5518 00e4 4C000000 		.4byte	.LFE10
 5519 00e8 00000000 		.4byte	.LFB11
 5520 00ec 60000000 		.4byte	.LFE11
 5521 00f0 00000000 		.4byte	.LFB16
 5522 00f4 20000000 		.4byte	.LFE16
 5523 00f8 00000000 		.4byte	.LFB19
 5524 00fc 2C000000 		.4byte	.LFE19
 5525 0100 00000000 		.4byte	.LFB23
 5526 0104 E4010000 		.4byte	.LFE23
 5527 0108 00000000 		.4byte	0
 5528 010c 00000000 		.4byte	0
 5529              		.section	.debug_line,"",%progbits
 5530              	.Ldebug_line0:
ARM GAS  C:\Users\Jerry\AppData\Local\Temp\cc2mbs0O.s 			page 151


 5531 0000 AD040000 		.section	.debug_str,"MS",%progbits,1
 5531      0200D600 
 5531      00000201 
 5531      FB0E0D00 
 5531      01010101 
 5532              	.LASF108:
 5533 0000 69646163 		.ascii	"idacBRegValue\000"
 5533      42526567 
 5533      56616C75 
 5533      6500
 5534              	.LASF140:
 5535 000e 43617053 		.ascii	"CapSense_SsCSDRestoreIdacMode\000"
 5535      656E7365 
 5535      5F537343 
 5535      53445265 
 5535      73746F72 
 5536              	.LASF120:
 5537 002c 736E7341 		.ascii	"snsAddrPtr\000"
 5537      64647250 
 5537      747200
 5538              	.LASF112:
 5539 0037 43617053 		.ascii	"CapSense_SsCSDCalculateScanDuration\000"
 5539      656E7365 
 5539      5F537343 
 5539      53444361 
 5539      6C63756C 
 5540              	.LASF43:
 5541 005b 70726F78 		.ascii	"proxTouchTh\000"
 5541      546F7563 
 5541      68546800 
 5542              	.LASF149:
 5543 0067 43617053 		.ascii	"CapSense_widgetIndex\000"
 5543      656E7365 
 5543      5F776964 
 5543      67657449 
 5543      6E646578 
 5544              	.LASF66:
 5545 007c 736E7254 		.ascii	"snrTestWidgetId\000"
 5545      65737457 
 5545      69646765 
 5545      74496400 
 5546              	.LASF8:
 5547 008c 756E7369 		.ascii	"unsigned int\000"
 5547      676E6564 
 5547      20696E74 
 5547      00
 5548              	.LASF57:
 5549 0099 7363616E 		.ascii	"scanCounter\000"
 5549      436F756E 
 5549      74657200 
 5550              	.LASF106:
 5551 00a5 696E7465 		.ascii	"interruptState\000"
 5551      72727570 
 5551      74537461 
 5551      746500
 5552              	.LASF167:
 5553 00b4 43617053 		.ascii	"CapSense_SsCSDConfigIDACs\000"
ARM GAS  C:\Users\Jerry\AppData\Local\Temp\cc2mbs0O.s 			page 152


 5553      656E7365 
 5553      5F537343 
 5553      5344436F 
 5553      6E666967 
 5554              	.LASF123:
 5555 00ce 70696E48 		.ascii	"pinHSIOMShift\000"
 5555      53494F4D 
 5555      53686966 
 5555      7400
 5556              	.LASF144:
 5557 00dc 43617053 		.ascii	"CapSense_eleCsdDisconnectFlag\000"
 5557      656E7365 
 5557      5F656C65 
 5557      43736444 
 5557      6973636F 
 5558              	.LASF163:
 5559 00fa 4379496E 		.ascii	"CyIntDisable\000"
 5559      74446973 
 5559      61626C65 
 5559      00
 5560              	.LASF157:
 5561 0107 43617053 		.ascii	"CapSense_SsSetModClkClockDivider\000"
 5561      656E7365 
 5561      5F537353 
 5561      65744D6F 
 5561      64436C6B 
 5562              	.LASF122:
 5563 0128 70696E4D 		.ascii	"pinModeShift\000"
 5563      6F646553 
 5563      68696674 
 5563      00
 5564              	.LASF131:
 5565 0135 736E7349 		.ascii	"snsIndex\000"
 5565      6E646578 
 5565      00
 5566              	.LASF46:
 5567 013e 43617053 		.ascii	"CapSense_RAM_WD_LIST_STRUCT\000"
 5567      656E7365 
 5567      5F52414D 
 5567      5F57445F 
 5567      4C495354 
 5568              	.LASF146:
 5569 015a 43617053 		.ascii	"CapSense_dsFlash\000"
 5569      656E7365 
 5569      5F647346 
 5569      6C617368 
 5569      00
 5570              	.LASF94:
 5571 016b 70747257 		.ascii	"ptrWdgt\000"
 5571      64677400 
 5572              	.LASF125:
 5573 0173 43617053 		.ascii	"CapSense_SsCSDConnectSensorExt\000"
 5573      656E7365 
 5573      5F537343 
 5573      5344436F 
 5573      6E6E6563 
 5574              	.LASF12:
ARM GAS  C:\Users\Jerry\AppData\Local\Temp\cc2mbs0O.s 			page 153


 5575 0192 666C6F61 		.ascii	"float\000"
 5575      7400
 5576              	.LASF116:
 5577 0198 43617053 		.ascii	"CapSense_SsCSDTriggerScan\000"
 5577      656E7365 
 5577      5F537343 
 5577      53445472 
 5577      69676765 
 5578              	.LASF79:
 5579 01b2 73686966 		.ascii	"shift\000"
 5579      7400
 5580              	.LASF155:
 5581 01b8 43617053 		.ascii	"CapSense_SsClearCSDSensors\000"
 5581      656E7365 
 5581      5F537343 
 5581      6C656172 
 5581      43534453 
 5582              	.LASF109:
 5583 01d3 736E7343 		.ascii	"snsClkSrc\000"
 5583      6C6B5372 
 5583      6300
 5584              	.LASF115:
 5585 01dd 77617463 		.ascii	"watchdogCounter\000"
 5585      68646F67 
 5585      436F756E 
 5585      74657200 
 5586              	.LASF129:
 5587 01ed 43617053 		.ascii	"CapSense_CSDSetupWidget\000"
 5587      656E7365 
 5587      5F435344 
 5587      53657475 
 5587      70576964 
 5588              	.LASF65:
 5589 0205 736E734C 		.ascii	"snsList\000"
 5589      69737400 
 5590              	.LASF7:
 5591 020d 6C6F6E67 		.ascii	"long long unsigned int\000"
 5591      206C6F6E 
 5591      6720756E 
 5591      7369676E 
 5591      65642069 
 5592              	.LASF150:
 5593 0224 43617053 		.ascii	"CapSense_sensorIndex\000"
 5593      656E7365 
 5593      5F73656E 
 5593      736F7249 
 5593      6E646578 
 5594              	.LASF80:
 5595 0239 43617053 		.ascii	"CapSense_FLASH_IO_STRUCT\000"
 5595      656E7365 
 5595      5F464C41 
 5595      53485F49 
 5595      4F5F5354 
 5596              	.LASF67:
 5597 0252 736E7254 		.ascii	"snrTestSensorId\000"
 5597      65737453 
 5597      656E736F 
ARM GAS  C:\Users\Jerry\AppData\Local\Temp\cc2mbs0O.s 			page 154


 5597      72496400 
 5598              	.LASF90:
 5599 0262 70747232 		.ascii	"ptr2NoiseEnvlp\000"
 5599      4E6F6973 
 5599      65456E76 
 5599      6C7000
 5600              	.LASF139:
 5601 0271 63616C4D 		.ascii	"calMask\000"
 5601      61736B00 
 5602              	.LASF88:
 5603 0279 77646774 		.ascii	"wdgtType\000"
 5603      54797065 
 5603      00
 5604              	.LASF130:
 5605 0282 43617053 		.ascii	"CapSense_CSDSetupWidgetExt\000"
 5605      656E7365 
 5605      5F435344 
 5605      53657475 
 5605      70576964 
 5606              	.LASF127:
 5607 029d 73656E73 		.ascii	"sensorIndex\000"
 5607      6F72496E 
 5607      64657800 
 5608              	.LASF114:
 5609 02a9 43617053 		.ascii	"CapSense_SsCSDCmodPrecharge\000"
 5609      656E7365 
 5609      5F537343 
 5609      5344436D 
 5609      6F645072 
 5610              	.LASF121:
 5611 02c5 6E657752 		.ascii	"newRegisterValue\000"
 5611      65676973 
 5611      74657256 
 5611      616C7565 
 5611      00
 5612              	.LASF63:
 5613 02d6 6D6F6443 		.ascii	"modCsdClk\000"
 5613      7364436C 
 5613      6B00
 5614              	.LASF52:
 5615 02e0 43617053 		.ascii	"CapSense_RAM_SNS_STRUCT\000"
 5615      656E7365 
 5615      5F52414D 
 5615      5F534E53 
 5615      5F535452 
 5616              	.LASF35:
 5617 02f8 62736C6E 		.ascii	"bslnCoeff\000"
 5617      436F6566 
 5617      6600
 5618              	.LASF143:
 5619 0302 74617267 		.ascii	"target\000"
 5619      657400
 5620              	.LASF73:
 5621 0309 64725074 		.ascii	"drPtr\000"
 5621      7200
 5622              	.LASF40:
 5623 030f 73696750 		.ascii	"sigPFC\000"
ARM GAS  C:\Users\Jerry\AppData\Local\Temp\cc2mbs0O.s 			page 155


 5623      464300
 5624              	.LASF32:
 5625 0316 68797374 		.ascii	"hysteresis\000"
 5625      65726573 
 5625      697300
 5626              	.LASF95:
 5627 0321 7261774C 		.ascii	"rawLevel\000"
 5627      6576656C 
 5627      00
 5628              	.LASF91:
 5629 032a 43617053 		.ascii	"CapSense_FLASH_WD_STRUCT\000"
 5629      656E7365 
 5629      5F464C41 
 5629      53485F57 
 5629      445F5354 
 5630              	.LASF34:
 5631 0343 6C6F7742 		.ascii	"lowBslnRst\000"
 5631      736C6E52 
 5631      737400
 5632              	.LASF104:
 5633 034e 43617053 		.ascii	"CapSense_SsCSDSetUpIdacs\000"
 5633      656E7365 
 5633      5F537343 
 5633      53445365 
 5633      74557049 
 5634              	.LASF87:
 5635 0367 746F7461 		.ascii	"totalNumSns\000"
 5635      6C4E756D 
 5635      536E7300 
 5636              	.LASF132:
 5637 0373 43617053 		.ascii	"CapSense_SsCSDDisconnectSnsExt\000"
 5637      656E7365 
 5637      5F537343 
 5637      53444469 
 5637      73636F6E 
 5638              	.LASF27:
 5639 0392 534D4152 		.ascii	"SMARTSENSE_CSD_NOISE_ENVELOPE_STRUCT\000"
 5639      5453454E 
 5639      53455F43 
 5639      53445F4E 
 5639      4F495345 
 5640              	.LASF30:
 5641 03b7 6E6F6973 		.ascii	"noiseTh\000"
 5641      65546800 
 5642              	.LASF161:
 5643 03bf 4379496E 		.ascii	"CyIntClearPending\000"
 5643      74436C65 
 5643      61725065 
 5643      6E64696E 
 5643      6700
 5644              	.LASF14:
 5645 03d1 63686172 		.ascii	"char\000"
 5645      00
 5646              	.LASF159:
 5647 03d6 43794578 		.ascii	"CyExitCriticalSection\000"
 5647      69744372 
 5647      69746963 
ARM GAS  C:\Users\Jerry\AppData\Local\Temp\cc2mbs0O.s 			page 156


 5647      616C5365 
 5647      6374696F 
 5648              	.LASF158:
 5649 03ec 43794465 		.ascii	"CyDelayCycles\000"
 5649      6C617943 
 5649      79636C65 
 5649      7300
 5650              	.LASF141:
 5651 03fa 43617053 		.ascii	"CapSense_SsCSDGetNumberOfConversions\000"
 5651      656E7365 
 5651      5F537343 
 5651      53444765 
 5651      744E756D 
 5652              	.LASF77:
 5653 041f 6873696F 		.ascii	"hsiomShift\000"
 5653      6D536869 
 5653      667400
 5654              	.LASF10:
 5655 042a 75696E74 		.ascii	"uint16\000"
 5655      313600
 5656              	.LASF110:
 5657 0431 636F6E76 		.ascii	"conversionsNum\000"
 5657      65727369 
 5657      6F6E734E 
 5657      756D00
 5658              	.LASF28:
 5659 0440 7265736F 		.ascii	"resolution\000"
 5659      6C757469 
 5659      6F6E00
 5660              	.LASF58:
 5661 044b 73746174 		.ascii	"status\000"
 5661      757300
 5662              	.LASF19:
 5663 0452 43617053 		.ascii	"CapSense_LOW_BSLN_RST_TYPE\000"
 5663      656E7365 
 5663      5F4C4F57 
 5663      5F42534C 
 5663      4E5F5253 
 5664              	.LASF160:
 5665 046d 43617053 		.ascii	"CapSense_SsSetSnsClockDivider\000"
 5665      656E7365 
 5665      5F537353 
 5665      6574536E 
 5665      73436C6F 
 5666              	.LASF51:
 5667 048b 69646163 		.ascii	"idacComp\000"
 5667      436F6D70 
 5667      00
 5668              	.LASF72:
 5669 0494 70635074 		.ascii	"pcPtr\000"
 5669      7200
 5670              	.LASF6:
 5671 049a 6C6F6E67 		.ascii	"long long int\000"
 5671      206C6F6E 
 5671      6720696E 
 5671      7400
 5672              	.LASF89:
ARM GAS  C:\Users\Jerry\AppData\Local\Temp\cc2mbs0O.s 			page 157


 5673 04a8 6E756D43 		.ascii	"numCols\000"
 5673      6F6C7300 
 5674              	.LASF103:
 5675 04b0 43617053 		.ascii	"CapSense_SsCSDInitialize\000"
 5675      656E7365 
 5675      5F537343 
 5675      5344496E 
 5675      69746961 
 5676              	.LASF33:
 5677 04c9 6F6E4465 		.ascii	"onDebounce\000"
 5677      626F756E 
 5677      636500
 5678              	.LASF97:
 5679 04d4 63616C69 		.ascii	"calibrateStatus\000"
 5679      62726174 
 5679      65537461 
 5679      74757300 
 5680              	.LASF64:
 5681 04e4 77646774 		.ascii	"wdgtList\000"
 5681      4C697374 
 5681      00
 5682              	.LASF93:
 5683 04ed 43617053 		.ascii	"CapSense_FLASH_STRUCT\000"
 5683      656E7365 
 5683      5F464C41 
 5683      53485F53 
 5683      54525543 
 5684              	.LASF145:
 5685 0503 43617053 		.ascii	"CapSense_dsRam\000"
 5685      656E7365 
 5685      5F647352 
 5685      616D00
 5686              	.LASF69:
 5687 0512 736E7254 		.ascii	"snrTestRawCount\000"
 5687      65737452 
 5687      6177436F 
 5687      756E7400 
 5688              	.LASF147:
 5689 0522 43617053 		.ascii	"CapSense_configCsd\000"
 5689      656E7365 
 5689      5F636F6E 
 5689      66696743 
 5689      736400
 5690              	.LASF31:
 5691 0535 6E4E6F69 		.ascii	"nNoiseTh\000"
 5691      73655468 
 5691      00
 5692              	.LASF62:
 5693 053e 63736430 		.ascii	"csd0Config\000"
 5693      436F6E66 
 5693      696700
 5694              	.LASF17:
 5695 0549 63796973 		.ascii	"cyisraddress\000"
 5695      72616464 
 5695      72657373 
 5695      00
 5696              	.LASF134:
ARM GAS  C:\Users\Jerry\AppData\Local\Temp\cc2mbs0O.s 			page 158


 5697 0556 43617053 		.ascii	"CapSense_SsCSDCalibrateCheck\000"
 5697      656E7365 
 5697      5F537343 
 5697      53444361 
 5697      6C696272 
 5698              	.LASF42:
 5699 0573 43617053 		.ascii	"CapSense_RAM_WD_BASE_STRUCT\000"
 5699      656E7365 
 5699      5F52414D 
 5699      5F57445F 
 5699      42415345 
 5700              	.LASF71:
 5701 058f 6873696F 		.ascii	"hsiomPtr\000"
 5701      6D507472 
 5701      00
 5702              	.LASF164:
 5703 0598 474E5520 		.ascii	"GNU C 4.9.3 20150303 (release) [ARM/embedded-4_9-br"
 5703      4320342E 
 5703      392E3320 
 5703      32303135 
 5703      30333033 
 5704 05cb 616E6368 		.ascii	"anch revision 221220] -mcpu=cortex-m0plus -mthumb -"
 5704      20726576 
 5704      6973696F 
 5704      6E203232 
 5704      31323230 
 5705 05fe 67202D4F 		.ascii	"g -Os -ffunction-sections -ffat-lto-objects\000"
 5705      73202D66 
 5705      66756E63 
 5705      74696F6E 
 5705      2D736563 
 5706              	.LASF84:
 5707 062a 70747232 		.ascii	"ptr2FltrHistory\000"
 5707      466C7472 
 5707      48697374 
 5707      6F727900 
 5708              	.LASF153:
 5709 063a 43617053 		.ascii	"CapSense_curSnsIOPtr\000"
 5709      656E7365 
 5709      5F637572 
 5709      536E7349 
 5709      4F507472 
 5710              	.LASF76:
 5711 064f 6D61736B 		.ascii	"mask\000"
 5711      00
 5712              	.LASF100:
 5713 0654 6D617852 		.ascii	"maxRawLevel\000"
 5713      61774C65 
 5713      76656C00 
 5714              	.LASF102:
 5715 0660 73616D70 		.ascii	"sampleClkFreqHz\000"
 5715      6C65436C 
 5715      6B467265 
 5715      71487A00 
 5716              	.LASF126:
 5717 0670 77646774 		.ascii	"wdgtIndex\000"
 5717      496E6465 
ARM GAS  C:\Users\Jerry\AppData\Local\Temp\cc2mbs0O.s 			page 159


 5717      7800
 5718              	.LASF165:
 5719 067a 47656E65 		.ascii	"Generated_Source\\PSoC4\\CapSense_SensingCSD_LL.c\000"
 5719      72617465 
 5719      645F536F 
 5719      75726365 
 5719      5C50536F 
 5720              	.LASF111:
 5721 06aa 43617053 		.ascii	"CapSense_SsCSDConfigClock\000"
 5721      656E7365 
 5721      5F537343 
 5721      5344436F 
 5721      6E666967 
 5722              	.LASF16:
 5723 06c4 72656733 		.ascii	"reg32\000"
 5723      3200
 5724              	.LASF68:
 5725 06ca 736E7254 		.ascii	"snrTestScanCounter\000"
 5725      65737453 
 5725      63616E43 
 5725      6F756E74 
 5725      657200
 5726              	.LASF54:
 5727 06dd 636F6E66 		.ascii	"configId\000"
 5727      69674964 
 5727      00
 5728              	.LASF83:
 5729 06e6 70747232 		.ascii	"ptr2SnsRam\000"
 5729      536E7352 
 5729      616D00
 5730              	.LASF99:
 5731 06f1 6D696E52 		.ascii	"minRawLevel\000"
 5731      61774C65 
 5731      76656C00 
 5732              	.LASF61:
 5733 06fd 736E7353 		.ascii	"snsStatus\000"
 5733      74617475 
 5733      7300
 5734              	.LASF38:
 5735 0707 736E7343 		.ascii	"snsClkSource\000"
 5735      6C6B536F 
 5735      75726365 
 5735      00
 5736              	.LASF96:
 5737 0714 72617744 		.ascii	"rawData\000"
 5737      61746100 
 5738              	.LASF154:
 5739 071c 43617053 		.ascii	"CapSense_SsCSDElectrodeCheck\000"
 5739      656E7365 
 5739      5F537343 
 5739      5344456C 
 5739      65637472 
 5740              	.LASF152:
 5741 0739 43617053 		.ascii	"CapSense_prescalersTuningDone\000"
 5741      656E7365 
 5741      5F707265 
 5741      7363616C 
ARM GAS  C:\Users\Jerry\AppData\Local\Temp\cc2mbs0O.s 			page 160


 5741      65727354 
 5742              	.LASF2:
 5743 0757 73686F72 		.ascii	"short int\000"
 5743      7420696E 
 5743      7400
 5744              	.LASF70:
 5745 0761 43617053 		.ascii	"CapSense_RAM_STRUCT\000"
 5745      656E7365 
 5745      5F52414D 
 5745      5F535452 
 5745      55435400 
 5746              	.LASF128:
 5747 0775 43617053 		.ascii	"CapSense_CSDDisconnectSns\000"
 5747      656E7365 
 5747      5F435344 
 5747      44697363 
 5747      6F6E6E65 
 5748              	.LASF156:
 5749 078f 43617053 		.ascii	"CapSense_SsCSDSetModeSnsClockDivider\000"
 5749      656E7365 
 5749      5F537343 
 5749      53445365 
 5749      744D6F64 
 5750              	.LASF4:
 5751 07b4 6C6F6E67 		.ascii	"long int\000"
 5751      20696E74 
 5751      00
 5752              	.LASF59:
 5753 07bd 77646774 		.ascii	"wdgtEnable\000"
 5753      456E6162 
 5753      6C6500
 5754              	.LASF49:
 5755 07c8 64696666 		.ascii	"diff\000"
 5755      00
 5756              	.LASF117:
 5757 07cd 43617053 		.ascii	"CapSense_SsCSDStartSample\000"
 5757      656E7365 
 5757      5F537343 
 5757      53445374 
 5757      61727453 
 5758              	.LASF56:
 5759 07e7 74756E65 		.ascii	"tunerCmd\000"
 5759      72436D64 
 5759      00
 5760              	.LASF136:
 5761 07f0 70747249 		.ascii	"ptrIdac\000"
 5761      64616300 
 5762              	.LASF74:
 5763 07f8 70735074 		.ascii	"psPtr\000"
 5763      7200
 5764              	.LASF138:
 5765 07fe 72617744 		.ascii	"rawData0\000"
 5765      61746130 
 5765      00
 5766              	.LASF107:
 5767 0807 69646163 		.ascii	"idacARegValue\000"
 5767      41526567 
ARM GAS  C:\Users\Jerry\AppData\Local\Temp\cc2mbs0O.s 			page 161


 5767      56616C75 
 5767      6500
 5768              	.LASF142:
 5769 0815 43617053 		.ascii	"CapSense_CSDCalibrateWidget\000"
 5769      656E7365 
 5769      5F435344 
 5769      43616C69 
 5769      62726174 
 5770              	.LASF11:
 5771 0831 75696E74 		.ascii	"uint32\000"
 5771      333200
 5772              	.LASF135:
 5773 0838 43617053 		.ascii	"CapSense_SsCSDCalibrateOneSensor\000"
 5773      656E7365 
 5773      5F537343 
 5773      53444361 
 5773      6C696272 
 5774              	.LASF39:
 5775 0859 66696E67 		.ascii	"fingerCap\000"
 5775      65724361 
 5775      7000
 5776              	.LASF118:
 5777 0863 43617053 		.ascii	"CapSense_CSDScanExt\000"
 5777      656E7365 
 5777      5F435344 
 5777      5363616E 
 5777      45787400 
 5778              	.LASF60:
 5779 0877 77646774 		.ascii	"wdgtStatus\000"
 5779      53746174 
 5779      757300
 5780              	.LASF119:
 5781 0882 43617053 		.ascii	"CapSense_CSDConnectSns\000"
 5781      656E7365 
 5781      5F435344 
 5781      436F6E6E 
 5781      65637453 
 5782              	.LASF41:
 5783 0899 73697A65 		.ascii	"sizetype\000"
 5783      74797065 
 5783      00
 5784              	.LASF78:
 5785 08a2 64725368 		.ascii	"drShift\000"
 5785      69667400 
 5786              	.LASF5:
 5787 08aa 6C6F6E67 		.ascii	"long unsigned int\000"
 5787      20756E73 
 5787      69676E65 
 5787      6420696E 
 5787      7400
 5788              	.LASF36:
 5789 08bc 69646163 		.ascii	"idacMod\000"
 5789      4D6F6400 
 5790              	.LASF169:
 5791 08c4 43617053 		.ascii	"CapSense_ISR_StartEx\000"
 5791      656E7365 
 5791      5F495352 
ARM GAS  C:\Users\Jerry\AppData\Local\Temp\cc2mbs0O.s 			page 162


 5791      5F537461 
 5791      72744578 
 5792              	.LASF85:
 5793 08d9 70747232 		.ascii	"ptr2DebounceArr\000"
 5793      4465626F 
 5793      756E6365 
 5793      41727200 
 5794              	.LASF29:
 5795 08e9 66696E67 		.ascii	"fingerTh\000"
 5795      65725468 
 5795      00
 5796              	.LASF133:
 5797 08f2 43617053 		.ascii	"CapSense_SsCSDSetSingleIdacMode\000"
 5797      656E7365 
 5797      5F537343 
 5797      53445365 
 5797      7453696E 
 5798              	.LASF48:
 5799 0912 62736C6E 		.ascii	"bslnExt\000"
 5799      45787400 
 5800              	.LASF166:
 5801 091a 433A5C63 		.ascii	"C:\\cypress\\TalkingClock\\Talking_Clock.cydsn\000"
 5801      79707265 
 5801      73735C54 
 5801      616C6B69 
 5801      6E67436C 
 5802              	.LASF15:
 5803 0946 63797374 		.ascii	"cystatus\000"
 5803      61747573 
 5803      00
 5804              	.LASF44:
 5805 094f 43617053 		.ascii	"CapSense_RAM_WD_PROXIMITY_STRUCT\000"
 5805      656E7365 
 5805      5F52414D 
 5805      5F57445F 
 5805      50524F58 
 5806              	.LASF113:
 5807 0970 43617053 		.ascii	"CapSense_SsCSDSetFilterDelay\000"
 5807      656E7365 
 5807      5F537343 
 5807      53445365 
 5807      7446696C 
 5808              	.LASF1:
 5809 098d 756E7369 		.ascii	"unsigned char\000"
 5809      676E6564 
 5809      20636861 
 5809      7200
 5810              	.LASF86:
 5811 099b 73746174 		.ascii	"staticConfig\000"
 5811      6963436F 
 5811      6E666967 
 5811      00
 5812              	.LASF82:
 5813 09a8 70747232 		.ascii	"ptr2WdgtRam\000"
 5813      57646774 
 5813      52616D00 
 5814              	.LASF18:
ARM GAS  C:\Users\Jerry\AppData\Local\Temp\cc2mbs0O.s 			page 163


 5815 09b4 43617053 		.ascii	"CapSense_THRESHOLD_TYPE\000"
 5815      656E7365 
 5815      5F544852 
 5815      4553484F 
 5815      4C445F54 
 5816              	.LASF124:
 5817 09cc 43617053 		.ascii	"CapSense_CSDScan\000"
 5817      656E7365 
 5817      5F435344 
 5817      5363616E 
 5817      00
 5818              	.LASF75:
 5819 09dd 6873696F 		.ascii	"hsiomMask\000"
 5819      6D4D6173 
 5819      6B00
 5820              	.LASF162:
 5821 09e7 4379496E 		.ascii	"CyIntEnable\000"
 5821      74456E61 
 5821      626C6500 
 5822              	.LASF98:
 5823 09f3 72617743 		.ascii	"rawCountsError\000"
 5823      6F756E74 
 5823      73457272 
 5823      6F7200
 5824              	.LASF37:
 5825 0a02 736E7343 		.ascii	"snsClk\000"
 5825      6C6B00
 5826              	.LASF45:
 5827 0a09 70726F78 		.ascii	"proximity0\000"
 5827      696D6974 
 5827      793000
 5828              	.LASF168:
 5829 0a14 4379456E 		.ascii	"CyEnterCriticalSection\000"
 5829      74657243 
 5829      72697469 
 5829      63616C53 
 5829      65637469 
 5830              	.LASF151:
 5831 0a2b 43617053 		.ascii	"CapSense_curRamSnsPtr\000"
 5831      656E7365 
 5831      5F637572 
 5831      52616D53 
 5831      6E735074 
 5832              	.LASF137:
 5833 0a41 69444143 		.ascii	"iDAC8Max\000"
 5833      384D6178 
 5833      00
 5834              	.LASF0:
 5835 0a4a 7369676E 		.ascii	"signed char\000"
 5835      65642063 
 5835      68617200 
 5836              	.LASF148:
 5837 0a56 43617053 		.ascii	"CapSense_scanFreqIndex\000"
 5837      656E7365 
 5837      5F736361 
 5837      6E467265 
 5837      71496E64 
ARM GAS  C:\Users\Jerry\AppData\Local\Temp\cc2mbs0O.s 			page 164


 5838              	.LASF47:
 5839 0a6d 62736C6E 		.ascii	"bsln\000"
 5839      00
 5840              	.LASF3:
 5841 0a72 73686F72 		.ascii	"short unsigned int\000"
 5841      7420756E 
 5841      7369676E 
 5841      65642069 
 5841      6E7400
 5842              	.LASF81:
 5843 0a85 70747232 		.ascii	"ptr2SnsFlash\000"
 5843      536E7346 
 5843      6C617368 
 5843      00
 5844              	.LASF105:
 5845 0a92 6E657752 		.ascii	"newRegValue\000"
 5845      65675661 
 5845      6C756500 
 5846              	.LASF9:
 5847 0a9e 75696E74 		.ascii	"uint8\000"
 5847      3800
 5848              	.LASF13:
 5849 0aa4 646F7562 		.ascii	"double\000"
 5849      6C6500
 5850              	.LASF50:
 5851 0aab 6E656742 		.ascii	"negBslnRstCnt\000"
 5851      736C6E52 
 5851      7374436E 
 5851      7400
 5852              	.LASF20:
 5853 0ab9 70617261 		.ascii	"param0\000"
 5853      6D3000
 5854              	.LASF21:
 5855 0ac0 70617261 		.ascii	"param1\000"
 5855      6D3100
 5856              	.LASF22:
 5857 0ac7 70617261 		.ascii	"param2\000"
 5857      6D3200
 5858              	.LASF23:
 5859 0ace 70617261 		.ascii	"param3\000"
 5859      6D3300
 5860              	.LASF24:
 5861 0ad5 70617261 		.ascii	"param4\000"
 5861      6D3400
 5862              	.LASF25:
 5863 0adc 70617261 		.ascii	"param5\000"
 5863      6D3500
 5864              	.LASF26:
 5865 0ae3 70617261 		.ascii	"param6\000"
 5865      6D3600
 5866              	.LASF101:
 5867 0aea 736E7343 		.ascii	"snsClkDivider\000"
 5867      6C6B4469 
 5867      76696465 
 5867      7200
 5868              	.LASF55:
 5869 0af8 64657669 		.ascii	"deviceId\000"
ARM GAS  C:\Users\Jerry\AppData\Local\Temp\cc2mbs0O.s 			page 165


 5869      63654964 
 5869      00
 5870              	.LASF53:
 5871 0b01 43617053 		.ascii	"CapSense_RAM_SNS_LIST_STRUCT\000"
 5871      656E7365 
 5871      5F52414D 
 5871      5F534E53 
 5871      5F4C4953 
 5872              	.LASF92:
 5873 0b1e 77646774 		.ascii	"wdgtArray\000"
 5873      41727261 
 5873      7900
 5874              		.ident	"GCC: (GNU Tools for ARM Embedded Processors) 4.9.3 20150303 (release) [ARM/embedded-4_9-br
