ARM GAS  C:\Users\Jerry\AppData\Local\Temp\cc4H4eWK.s 			page 1


   1              		.cpu cortex-m0plus
   2              		.fpu softvfp
   3              		.eabi_attribute 20, 1
   4              		.eabi_attribute 21, 1
   5              		.eabi_attribute 23, 3
   6              		.eabi_attribute 24, 1
   7              		.eabi_attribute 25, 1
   8              		.eabi_attribute 26, 1
   9              		.eabi_attribute 30, 4
  10              		.eabi_attribute 34, 0
  11              		.eabi_attribute 18, 4
  12              		.code	16
  13              		.file	"CyDMA.c"
  14              		.text
  15              	.Ltext0:
  16              		.cfi_sections	.debug_frame
  17              		.section	.text.CyDmaInterrupt,"ax",%progbits
  18              		.align	1
  19              		.global	CyDmaInterrupt
  20              		.code	16
  21              		.thumb_func
  22              		.type	CyDmaInterrupt, %function
  23              	CyDmaInterrupt:
  24              	.LFB15:
  25              		.file 1 "Generated_Source\\PSoC4\\CyDMA.c"
   1:Generated_Source\PSoC4/CyDMA.c **** /*******************************************************************************
   2:Generated_Source\PSoC4/CyDMA.c **** * File Name: CyDMA.c
   3:Generated_Source\PSoC4/CyDMA.c **** * Version 1.10
   4:Generated_Source\PSoC4/CyDMA.c **** *
   5:Generated_Source\PSoC4/CyDMA.c **** * Description:
   6:Generated_Source\PSoC4/CyDMA.c **** *  This file contains all of the global DMA API functions.
   7:Generated_Source\PSoC4/CyDMA.c **** *
   8:Generated_Source\PSoC4/CyDMA.c **** ********************************************************************************
   9:Generated_Source\PSoC4/CyDMA.c **** * Copyright 2015, Cypress Semiconductor Corporation. All rights reserved.
  10:Generated_Source\PSoC4/CyDMA.c **** * You may use this file only in accordance with the license, terms, conditions,
  11:Generated_Source\PSoC4/CyDMA.c **** * disclaimers, and limitations in the end user license agreement accompanying
  12:Generated_Source\PSoC4/CyDMA.c **** * the software package with which this file was provided.
  13:Generated_Source\PSoC4/CyDMA.c **** *******************************************************************************/
  14:Generated_Source\PSoC4/CyDMA.c **** 
  15:Generated_Source\PSoC4/CyDMA.c **** #include "CyDMA.h"
  16:Generated_Source\PSoC4/CyDMA.c **** #include "CyLib.h"
  17:Generated_Source\PSoC4/CyDMA.c **** 
  18:Generated_Source\PSoC4/CyDMA.c **** /* Default callback function. It is invoked if the user callback function is
  19:Generated_Source\PSoC4/CyDMA.c **** * undefined.
  20:Generated_Source\PSoC4/CyDMA.c **** */
  21:Generated_Source\PSoC4/CyDMA.c **** static void CyDmaDefaultInterruptCallback(void);
  22:Generated_Source\PSoC4/CyDMA.c **** 
  23:Generated_Source\PSoC4/CyDMA.c **** /* Array of pointers to user defined callback functions to be called
  24:Generated_Source\PSoC4/CyDMA.c **** * from DMA interrupt.
  25:Generated_Source\PSoC4/CyDMA.c **** */
  26:Generated_Source\PSoC4/CyDMA.c **** static cydma_callback_t CyDmaInterruptCallback[CYDMA_CH_NR] = {
  27:Generated_Source\PSoC4/CyDMA.c ****     &CyDmaDefaultInterruptCallback, &CyDmaDefaultInterruptCallback,
  28:Generated_Source\PSoC4/CyDMA.c ****     &CyDmaDefaultInterruptCallback, &CyDmaDefaultInterruptCallback,
  29:Generated_Source\PSoC4/CyDMA.c ****     &CyDmaDefaultInterruptCallback, &CyDmaDefaultInterruptCallback,
  30:Generated_Source\PSoC4/CyDMA.c ****     &CyDmaDefaultInterruptCallback, &CyDmaDefaultInterruptCallback
  31:Generated_Source\PSoC4/CyDMA.c **** };
  32:Generated_Source\PSoC4/CyDMA.c **** 
ARM GAS  C:\Users\Jerry\AppData\Local\Temp\cc4H4eWK.s 			page 2


  33:Generated_Source\PSoC4/CyDMA.c **** /* The live status of all DMA channels usage. Bit i is associated to channel i,
  34:Generated_Source\PSoC4/CyDMA.c **** * with i = 0..CYDMA_CH_NR-1. '0' - channel is free. '1' - channel is in use.
  35:Generated_Source\PSoC4/CyDMA.c **** * All the channels allocated for DMA instances placed on a schematic are in use
  36:Generated_Source\PSoC4/CyDMA.c **** * by default and cannot be freed. 
  37:Generated_Source\PSoC4/CyDMA.c **** * DMA_CHANNELS_USED__MASK is generated during the build time and is a bit field
  38:Generated_Source\PSoC4/CyDMA.c **** * corresponding to the DMA channels placed on a design schematic.
  39:Generated_Source\PSoC4/CyDMA.c **** */
  40:Generated_Source\PSoC4/CyDMA.c **** static uint32 CyDmaChannelUsedMask = DMA_CHANNELS_USED__MASK;
  41:Generated_Source\PSoC4/CyDMA.c **** 
  42:Generated_Source\PSoC4/CyDMA.c **** 
  43:Generated_Source\PSoC4/CyDMA.c **** /*******************************************************************************
  44:Generated_Source\PSoC4/CyDMA.c **** * Function Name: CyDmaEnable
  45:Generated_Source\PSoC4/CyDMA.c **** ********************************************************************************
  46:Generated_Source\PSoC4/CyDMA.c **** *
  47:Generated_Source\PSoC4/CyDMA.c **** * Summary:
  48:Generated_Source\PSoC4/CyDMA.c **** *  Sets the default ISR to be called by the DMA interrupt and enables the DMA
  49:Generated_Source\PSoC4/CyDMA.c **** *  transfer engine.
  50:Generated_Source\PSoC4/CyDMA.c **** *
  51:Generated_Source\PSoC4/CyDMA.c **** * Parameters:
  52:Generated_Source\PSoC4/CyDMA.c **** *  None.
  53:Generated_Source\PSoC4/CyDMA.c **** *                   
  54:Generated_Source\PSoC4/CyDMA.c **** * Return:
  55:Generated_Source\PSoC4/CyDMA.c **** *  None.
  56:Generated_Source\PSoC4/CyDMA.c **** *
  57:Generated_Source\PSoC4/CyDMA.c **** * Side effect:
  58:Generated_Source\PSoC4/CyDMA.c **** *  Does not affect the channel enable status. Overrides the interrupt vector
  59:Generated_Source\PSoC4/CyDMA.c **** *  set prior the first time CyDmaEnable() is called.
  60:Generated_Source\PSoC4/CyDMA.c **** *
  61:Generated_Source\PSoC4/CyDMA.c **** *******************************************************************************/
  62:Generated_Source\PSoC4/CyDMA.c **** void CyDmaEnable(void)
  63:Generated_Source\PSoC4/CyDMA.c **** {
  64:Generated_Source\PSoC4/CyDMA.c ****     static uint8 initIntrVector = 0u;
  65:Generated_Source\PSoC4/CyDMA.c **** 
  66:Generated_Source\PSoC4/CyDMA.c ****     if(0u == initIntrVector)
  67:Generated_Source\PSoC4/CyDMA.c ****     {
  68:Generated_Source\PSoC4/CyDMA.c ****         CyDmaSetInterruptVector(&CyDmaInterrupt);
  69:Generated_Source\PSoC4/CyDMA.c ****         CyIntSetPriority(CYDMA_INTR_NUMBER, CYDMA_INTR_PRIO);
  70:Generated_Source\PSoC4/CyDMA.c ****         initIntrVector = 1u;
  71:Generated_Source\PSoC4/CyDMA.c ****     }
  72:Generated_Source\PSoC4/CyDMA.c ****     CYDMA_CTL_REG = CYDMA_ENABLED;
  73:Generated_Source\PSoC4/CyDMA.c **** }
  74:Generated_Source\PSoC4/CyDMA.c **** 
  75:Generated_Source\PSoC4/CyDMA.c **** 
  76:Generated_Source\PSoC4/CyDMA.c **** /*******************************************************************************
  77:Generated_Source\PSoC4/CyDMA.c **** * Function Name: CyDmaDisable
  78:Generated_Source\PSoC4/CyDMA.c **** ********************************************************************************
  79:Generated_Source\PSoC4/CyDMA.c **** *
  80:Generated_Source\PSoC4/CyDMA.c **** * Summary:
  81:Generated_Source\PSoC4/CyDMA.c **** *  Disables the DMA transfer engine.
  82:Generated_Source\PSoC4/CyDMA.c **** *
  83:Generated_Source\PSoC4/CyDMA.c **** * Parameters:
  84:Generated_Source\PSoC4/CyDMA.c **** *  None.
  85:Generated_Source\PSoC4/CyDMA.c **** *                   
  86:Generated_Source\PSoC4/CyDMA.c **** * Return:
  87:Generated_Source\PSoC4/CyDMA.c **** *  None.
  88:Generated_Source\PSoC4/CyDMA.c **** *
  89:Generated_Source\PSoC4/CyDMA.c **** * Side effect:
ARM GAS  C:\Users\Jerry\AppData\Local\Temp\cc4H4eWK.s 			page 3


  90:Generated_Source\PSoC4/CyDMA.c **** *  Does not affect the channel enable status.
  91:Generated_Source\PSoC4/CyDMA.c **** *
  92:Generated_Source\PSoC4/CyDMA.c **** *******************************************************************************/
  93:Generated_Source\PSoC4/CyDMA.c **** void CyDmaDisable(void)
  94:Generated_Source\PSoC4/CyDMA.c **** {
  95:Generated_Source\PSoC4/CyDMA.c ****     CYDMA_CTL_REG = (uint32)~CYDMA_ENABLED;
  96:Generated_Source\PSoC4/CyDMA.c **** }
  97:Generated_Source\PSoC4/CyDMA.c **** 
  98:Generated_Source\PSoC4/CyDMA.c **** 
  99:Generated_Source\PSoC4/CyDMA.c **** /*******************************************************************************
 100:Generated_Source\PSoC4/CyDMA.c **** * Function Name: CyDmaGetStatus
 101:Generated_Source\PSoC4/CyDMA.c **** ********************************************************************************
 102:Generated_Source\PSoC4/CyDMA.c **** *
 103:Generated_Source\PSoC4/CyDMA.c **** * Summary:
 104:Generated_Source\PSoC4/CyDMA.c **** *  Returns the status of the DMA transfer engine.
 105:Generated_Source\PSoC4/CyDMA.c **** *
 106:Generated_Source\PSoC4/CyDMA.c **** * Parameters:
 107:Generated_Source\PSoC4/CyDMA.c **** *  None.
 108:Generated_Source\PSoC4/CyDMA.c **** *                   
 109:Generated_Source\PSoC4/CyDMA.c **** * Return:
 110:Generated_Source\PSoC4/CyDMA.c **** *  The contents of the DMA status register. Refer to the status register bit
 111:Generated_Source\PSoC4/CyDMA.c **** *  definitions in CyDMA_P4.h or the API description in the DMA channel
 112:Generated_Source\PSoC4/CyDMA.c **** *  datasheet.
 113:Generated_Source\PSoC4/CyDMA.c **** *
 114:Generated_Source\PSoC4/CyDMA.c **** * Side effect:
 115:Generated_Source\PSoC4/CyDMA.c **** *  The series of function calls CyDmaGetActiveSrcAddress(),
 116:Generated_Source\PSoC4/CyDMA.c **** *  CyDmaGetActiveDstAddress(), CyDmaGetStatus() are not atomic, the DMA
 117:Generated_Source\PSoC4/CyDMA.c **** *  engine may have advanced after one or more of these function calls. Meaning
 118:Generated_Source\PSoC4/CyDMA.c **** *  the returns from these three functions may not be related to each other.
 119:Generated_Source\PSoC4/CyDMA.c **** *
 120:Generated_Source\PSoC4/CyDMA.c **** *******************************************************************************/
 121:Generated_Source\PSoC4/CyDMA.c **** uint32 CyDmaGetStatus(void)
 122:Generated_Source\PSoC4/CyDMA.c **** {
 123:Generated_Source\PSoC4/CyDMA.c ****     return (CYDMA_STATUS_REG);
 124:Generated_Source\PSoC4/CyDMA.c **** }
 125:Generated_Source\PSoC4/CyDMA.c **** 
 126:Generated_Source\PSoC4/CyDMA.c **** 
 127:Generated_Source\PSoC4/CyDMA.c **** /*******************************************************************************
 128:Generated_Source\PSoC4/CyDMA.c **** * Function Name: CyDmaGetActiveChannels
 129:Generated_Source\PSoC4/CyDMA.c **** ********************************************************************************
 130:Generated_Source\PSoC4/CyDMA.c **** *
 131:Generated_Source\PSoC4/CyDMA.c **** * Summary:
 132:Generated_Source\PSoC4/CyDMA.c **** *  Returns a bit field of all the DMA channels that are either active or
 133:Generated_Source\PSoC4/CyDMA.c **** *  pending.
 134:Generated_Source\PSoC4/CyDMA.c **** *
 135:Generated_Source\PSoC4/CyDMA.c **** * Parameters:
 136:Generated_Source\PSoC4/CyDMA.c **** *  None.
 137:Generated_Source\PSoC4/CyDMA.c **** *                   
 138:Generated_Source\PSoC4/CyDMA.c **** * Return:
 139:Generated_Source\PSoC4/CyDMA.c **** *  Bit field of active and pending channels. 
 140:Generated_Source\PSoC4/CyDMA.c **** *
 141:Generated_Source\PSoC4/CyDMA.c **** *******************************************************************************/
 142:Generated_Source\PSoC4/CyDMA.c **** uint32 CyDmaGetActiveChannels(void)
 143:Generated_Source\PSoC4/CyDMA.c **** {
 144:Generated_Source\PSoC4/CyDMA.c ****     return (CYDMA_STATUS_CH_ACT_REG);
 145:Generated_Source\PSoC4/CyDMA.c **** }
 146:Generated_Source\PSoC4/CyDMA.c **** 
ARM GAS  C:\Users\Jerry\AppData\Local\Temp\cc4H4eWK.s 			page 4


 147:Generated_Source\PSoC4/CyDMA.c **** 
 148:Generated_Source\PSoC4/CyDMA.c **** /*******************************************************************************
 149:Generated_Source\PSoC4/CyDMA.c **** * Function Name: CyDmaGetActiveSrcAddress
 150:Generated_Source\PSoC4/CyDMA.c **** ********************************************************************************
 151:Generated_Source\PSoC4/CyDMA.c **** *
 152:Generated_Source\PSoC4/CyDMA.c **** * Summary:
 153:Generated_Source\PSoC4/CyDMA.c **** *  Returns the source address currently being used by the DMA transfer engine.
 154:Generated_Source\PSoC4/CyDMA.c **** *  This function can be used to debug the DMA, or observe where it is at in a
 155:Generated_Source\PSoC4/CyDMA.c **** *  transfer. It will not be used in normal DMA operation.
 156:Generated_Source\PSoC4/CyDMA.c **** *
 157:Generated_Source\PSoC4/CyDMA.c **** * Parameters:
 158:Generated_Source\PSoC4/CyDMA.c **** *  None.
 159:Generated_Source\PSoC4/CyDMA.c **** *                   
 160:Generated_Source\PSoC4/CyDMA.c **** * Return:
 161:Generated_Source\PSoC4/CyDMA.c **** *  Source address currently being used by the DMA transfer engine.
 162:Generated_Source\PSoC4/CyDMA.c **** *
 163:Generated_Source\PSoC4/CyDMA.c **** * Side effect:
 164:Generated_Source\PSoC4/CyDMA.c **** *  The series of function calls CyDmaGetActiveSrcAddress(),
 165:Generated_Source\PSoC4/CyDMA.c **** *  CyDmaGetActiveDstAddress(), CyDmaGetStatus() are not atomic, the DMA
 166:Generated_Source\PSoC4/CyDMA.c **** *  engine may have advanced after one or more of these function calls. Meaning
 167:Generated_Source\PSoC4/CyDMA.c **** *  the returns from these three functions may not be related to each other.
 168:Generated_Source\PSoC4/CyDMA.c **** *
 169:Generated_Source\PSoC4/CyDMA.c **** *******************************************************************************/
 170:Generated_Source\PSoC4/CyDMA.c **** void * CyDmaGetActiveSrcAddress(void)
 171:Generated_Source\PSoC4/CyDMA.c **** {
 172:Generated_Source\PSoC4/CyDMA.c ****     return ((void *)CYDMA_STATUS_SRC_ADDR_REG);
 173:Generated_Source\PSoC4/CyDMA.c **** }
 174:Generated_Source\PSoC4/CyDMA.c **** 
 175:Generated_Source\PSoC4/CyDMA.c **** 
 176:Generated_Source\PSoC4/CyDMA.c **** /*******************************************************************************
 177:Generated_Source\PSoC4/CyDMA.c **** * Function Name: CyDmaGetActiveDstAddress
 178:Generated_Source\PSoC4/CyDMA.c **** ********************************************************************************
 179:Generated_Source\PSoC4/CyDMA.c **** *
 180:Generated_Source\PSoC4/CyDMA.c **** * Summary:
 181:Generated_Source\PSoC4/CyDMA.c **** *  Returns the destination address currently being used by the DMA transfer
 182:Generated_Source\PSoC4/CyDMA.c **** *  engine. This function can be used to debug the DMA, or observe where it is at
 183:Generated_Source\PSoC4/CyDMA.c **** *  in a transfer. It will not be used in normal DMA operation.
 184:Generated_Source\PSoC4/CyDMA.c **** *
 185:Generated_Source\PSoC4/CyDMA.c **** * Parameters:
 186:Generated_Source\PSoC4/CyDMA.c **** *  None.
 187:Generated_Source\PSoC4/CyDMA.c **** *                   
 188:Generated_Source\PSoC4/CyDMA.c **** * Return:
 189:Generated_Source\PSoC4/CyDMA.c **** *  Destination address currently being used by the DMA transfer engine.
 190:Generated_Source\PSoC4/CyDMA.c **** *
 191:Generated_Source\PSoC4/CyDMA.c **** * Side effect:
 192:Generated_Source\PSoC4/CyDMA.c **** *  The series of function calls CyDmaGetActiveSrcAddress(),
 193:Generated_Source\PSoC4/CyDMA.c **** *  CyDmaGetActiveDstAddress(), CyDmaGetStatus() are not atomic, the DMA
 194:Generated_Source\PSoC4/CyDMA.c **** *  engine may have advanced after one or more of these function calls. Meaning
 195:Generated_Source\PSoC4/CyDMA.c **** *  the returns from these three functions may not be related to each other.
 196:Generated_Source\PSoC4/CyDMA.c **** *
 197:Generated_Source\PSoC4/CyDMA.c **** *******************************************************************************/
 198:Generated_Source\PSoC4/CyDMA.c **** void * CyDmaGetActiveDstAddress(void)
 199:Generated_Source\PSoC4/CyDMA.c **** {
 200:Generated_Source\PSoC4/CyDMA.c ****     return ((void *)CYDMA_STATUS_DST_ADDR_REG);
 201:Generated_Source\PSoC4/CyDMA.c **** }
 202:Generated_Source\PSoC4/CyDMA.c **** 
 203:Generated_Source\PSoC4/CyDMA.c **** 
ARM GAS  C:\Users\Jerry\AppData\Local\Temp\cc4H4eWK.s 			page 5


 204:Generated_Source\PSoC4/CyDMA.c **** /*******************************************************************************
 205:Generated_Source\PSoC4/CyDMA.c **** * Function Name: CyDmaSetInterruptVector
 206:Generated_Source\PSoC4/CyDMA.c **** ********************************************************************************
 207:Generated_Source\PSoC4/CyDMA.c **** *
 208:Generated_Source\PSoC4/CyDMA.c **** * Summary:
 209:Generated_Source\PSoC4/CyDMA.c **** *  Sets the function that will be called by the DMA interrupt. Note, calling
 210:Generated_Source\PSoC4/CyDMA.c **** *  CyDmaEnable() for the first time overrides any effect this API could have.
 211:Generated_Source\PSoC4/CyDMA.c **** *  Call CyDmaSetInterruptVector() after calling CyDmaEnable() to change
 212:Generated_Source\PSoC4/CyDMA.c **** *  the default ISR.
 213:Generated_Source\PSoC4/CyDMA.c **** *
 214:Generated_Source\PSoC4/CyDMA.c **** * Parameters:
 215:Generated_Source\PSoC4/CyDMA.c **** *  interruptVector: Address of the function that will be called by the DMA
 216:Generated_Source\PSoC4/CyDMA.c **** *                   interrupt.
 217:Generated_Source\PSoC4/CyDMA.c **** * Return:
 218:Generated_Source\PSoC4/CyDMA.c **** *  None.
 219:Generated_Source\PSoC4/CyDMA.c **** *
 220:Generated_Source\PSoC4/CyDMA.c **** * Side effect:
 221:Generated_Source\PSoC4/CyDMA.c **** *  Other components that use DMA may register their callback functions to be
 222:Generated_Source\PSoC4/CyDMA.c **** *  called from the default DMA ISR. Therefore, changing the DMA ISR to a user
 223:Generated_Source\PSoC4/CyDMA.c **** *  defined ISR using this API may prevent these other components from
 224:Generated_Source\PSoC4/CyDMA.c **** *  functioning correctly.
 225:Generated_Source\PSoC4/CyDMA.c **** *
 226:Generated_Source\PSoC4/CyDMA.c **** *******************************************************************************/
 227:Generated_Source\PSoC4/CyDMA.c **** void CyDmaSetInterruptVector(cyisraddress interruptVector)
 228:Generated_Source\PSoC4/CyDMA.c **** {
 229:Generated_Source\PSoC4/CyDMA.c ****     (void)CyIntSetVector(CYDMA_INTR_NUMBER, interruptVector);
 230:Generated_Source\PSoC4/CyDMA.c **** }
 231:Generated_Source\PSoC4/CyDMA.c **** 
 232:Generated_Source\PSoC4/CyDMA.c **** 
 233:Generated_Source\PSoC4/CyDMA.c **** /*******************************************************************************
 234:Generated_Source\PSoC4/CyDMA.c **** * Function Name: CyDmaGetInterruptSource
 235:Generated_Source\PSoC4/CyDMA.c **** ********************************************************************************
 236:Generated_Source\PSoC4/CyDMA.c **** *
 237:Generated_Source\PSoC4/CyDMA.c **** * Summary:
 238:Generated_Source\PSoC4/CyDMA.c **** *  Returns the bit field of which channels generated an interrupt request.
 239:Generated_Source\PSoC4/CyDMA.c **** *
 240:Generated_Source\PSoC4/CyDMA.c **** * Parameters:
 241:Generated_Source\PSoC4/CyDMA.c **** *  None.
 242:Generated_Source\PSoC4/CyDMA.c **** *                   
 243:Generated_Source\PSoC4/CyDMA.c **** * Return:
 244:Generated_Source\PSoC4/CyDMA.c **** *  Bit filed of which channels generated an interrupt request.
 245:Generated_Source\PSoC4/CyDMA.c **** *
 246:Generated_Source\PSoC4/CyDMA.c **** *******************************************************************************/
 247:Generated_Source\PSoC4/CyDMA.c **** uint32 CyDmaGetInterruptSource(void)
 248:Generated_Source\PSoC4/CyDMA.c **** {
 249:Generated_Source\PSoC4/CyDMA.c ****     return (CYDMA_INTR_REG);
 250:Generated_Source\PSoC4/CyDMA.c **** }
 251:Generated_Source\PSoC4/CyDMA.c **** 
 252:Generated_Source\PSoC4/CyDMA.c **** 
 253:Generated_Source\PSoC4/CyDMA.c **** /*******************************************************************************
 254:Generated_Source\PSoC4/CyDMA.c **** * Function Name: CyDmaClearInterruptSource
 255:Generated_Source\PSoC4/CyDMA.c **** ********************************************************************************
 256:Generated_Source\PSoC4/CyDMA.c **** *
 257:Generated_Source\PSoC4/CyDMA.c **** * Summary:
 258:Generated_Source\PSoC4/CyDMA.c **** *  Clears the pending interrupts.
 259:Generated_Source\PSoC4/CyDMA.c **** *
 260:Generated_Source\PSoC4/CyDMA.c **** * Parameters:
ARM GAS  C:\Users\Jerry\AppData\Local\Temp\cc4H4eWK.s 			page 6


 261:Generated_Source\PSoC4/CyDMA.c **** *  interruptMask: Bit field of interrupts to clear.
 262:Generated_Source\PSoC4/CyDMA.c **** *                   
 263:Generated_Source\PSoC4/CyDMA.c **** * Return:
 264:Generated_Source\PSoC4/CyDMA.c **** *  None.
 265:Generated_Source\PSoC4/CyDMA.c **** *
 266:Generated_Source\PSoC4/CyDMA.c **** *******************************************************************************/
 267:Generated_Source\PSoC4/CyDMA.c **** void CyDmaClearInterruptSource(uint32 interruptMask)
 268:Generated_Source\PSoC4/CyDMA.c **** {
 269:Generated_Source\PSoC4/CyDMA.c ****     CYDMA_INTR_REG = interruptMask;
 270:Generated_Source\PSoC4/CyDMA.c **** }
 271:Generated_Source\PSoC4/CyDMA.c **** 
 272:Generated_Source\PSoC4/CyDMA.c **** 
 273:Generated_Source\PSoC4/CyDMA.c **** /*******************************************************************************
 274:Generated_Source\PSoC4/CyDMA.c **** * Function Name: CyDmaSetInterruptSourceMask
 275:Generated_Source\PSoC4/CyDMA.c **** ********************************************************************************
 276:Generated_Source\PSoC4/CyDMA.c **** *
 277:Generated_Source\PSoC4/CyDMA.c **** * Summary:
 278:Generated_Source\PSoC4/CyDMA.c **** *  Sets mask for interrupt source.
 279:Generated_Source\PSoC4/CyDMA.c **** *
 280:Generated_Source\PSoC4/CyDMA.c **** * Parameters:
 281:Generated_Source\PSoC4/CyDMA.c **** *  interruptmask: Mask corresponding to interrupt bit field.
 282:Generated_Source\PSoC4/CyDMA.c **** *                   
 283:Generated_Source\PSoC4/CyDMA.c **** * Return:
 284:Generated_Source\PSoC4/CyDMA.c **** *  None.
 285:Generated_Source\PSoC4/CyDMA.c **** *
 286:Generated_Source\PSoC4/CyDMA.c **** *******************************************************************************/
 287:Generated_Source\PSoC4/CyDMA.c **** void CyDmaSetInterruptSourceMask(uint32 interruptMask)
 288:Generated_Source\PSoC4/CyDMA.c **** {
 289:Generated_Source\PSoC4/CyDMA.c ****     CYDMA_INTR_MASK_REG = interruptMask;
 290:Generated_Source\PSoC4/CyDMA.c **** }
 291:Generated_Source\PSoC4/CyDMA.c **** 
 292:Generated_Source\PSoC4/CyDMA.c **** 
 293:Generated_Source\PSoC4/CyDMA.c **** /*******************************************************************************
 294:Generated_Source\PSoC4/CyDMA.c **** * Function Name: CyDmaGetInterruptSourceMask
 295:Generated_Source\PSoC4/CyDMA.c **** ********************************************************************************
 296:Generated_Source\PSoC4/CyDMA.c **** *
 297:Generated_Source\PSoC4/CyDMA.c **** * Summary:
 298:Generated_Source\PSoC4/CyDMA.c **** *  Returns mask for interrupt source.
 299:Generated_Source\PSoC4/CyDMA.c **** *
 300:Generated_Source\PSoC4/CyDMA.c **** * Parameters:
 301:Generated_Source\PSoC4/CyDMA.c **** *  None.
 302:Generated_Source\PSoC4/CyDMA.c **** *                   
 303:Generated_Source\PSoC4/CyDMA.c **** * Return:
 304:Generated_Source\PSoC4/CyDMA.c **** *  Mask corresponding to interrupt bit field.
 305:Generated_Source\PSoC4/CyDMA.c **** *
 306:Generated_Source\PSoC4/CyDMA.c **** *******************************************************************************/
 307:Generated_Source\PSoC4/CyDMA.c **** uint32 CyDmaGetInterruptSourceMask(void)
 308:Generated_Source\PSoC4/CyDMA.c **** {
 309:Generated_Source\PSoC4/CyDMA.c ****     return (CYDMA_INTR_MASK_REG);
 310:Generated_Source\PSoC4/CyDMA.c **** }
 311:Generated_Source\PSoC4/CyDMA.c **** 
 312:Generated_Source\PSoC4/CyDMA.c **** 
 313:Generated_Source\PSoC4/CyDMA.c **** /*******************************************************************************
 314:Generated_Source\PSoC4/CyDMA.c **** * Function Name: CyDmaGetInterruptSourceMasked
 315:Generated_Source\PSoC4/CyDMA.c **** ********************************************************************************
 316:Generated_Source\PSoC4/CyDMA.c **** *
 317:Generated_Source\PSoC4/CyDMA.c **** * Summary:
ARM GAS  C:\Users\Jerry\AppData\Local\Temp\cc4H4eWK.s 			page 7


 318:Generated_Source\PSoC4/CyDMA.c **** *  Returns the bitwise AND of the interrupt source and the interrupt mask.
 319:Generated_Source\PSoC4/CyDMA.c **** *
 320:Generated_Source\PSoC4/CyDMA.c **** * Parameters:
 321:Generated_Source\PSoC4/CyDMA.c **** *  None.
 322:Generated_Source\PSoC4/CyDMA.c **** *                   
 323:Generated_Source\PSoC4/CyDMA.c **** * Return:
 324:Generated_Source\PSoC4/CyDMA.c **** *  Bitwise AND of the interrupt source and the interrupt mask.
 325:Generated_Source\PSoC4/CyDMA.c **** *
 326:Generated_Source\PSoC4/CyDMA.c **** *******************************************************************************/
 327:Generated_Source\PSoC4/CyDMA.c **** uint32 CyDmaGetInterruptSourceMasked(void)
 328:Generated_Source\PSoC4/CyDMA.c **** {
 329:Generated_Source\PSoC4/CyDMA.c ****     return (CYDMA_INTR_MASKED_REG);
 330:Generated_Source\PSoC4/CyDMA.c **** }
 331:Generated_Source\PSoC4/CyDMA.c **** 
 332:Generated_Source\PSoC4/CyDMA.c **** 
 333:Generated_Source\PSoC4/CyDMA.c **** /*******************************************************************************
 334:Generated_Source\PSoC4/CyDMA.c **** * Function Name: CyDmaSetInterruptCallback
 335:Generated_Source\PSoC4/CyDMA.c **** ********************************************************************************
 336:Generated_Source\PSoC4/CyDMA.c **** *
 337:Generated_Source\PSoC4/CyDMA.c **** * Summary:
 338:Generated_Source\PSoC4/CyDMA.c **** *  Sets a user defined callback function to be called by the DMA interrupt. The
 339:Generated_Source\PSoC4/CyDMA.c **** *  function should contain code to process the interrupt request for the 
 340:Generated_Source\PSoC4/CyDMA.c **** *  associated DMA channel.
 341:Generated_Source\PSoC4/CyDMA.c **** *
 342:Generated_Source\PSoC4/CyDMA.c **** * Parameters:
 343:Generated_Source\PSoC4/CyDMA.c **** *  channel:  Channel used by this function.
 344:Generated_Source\PSoC4/CyDMA.c **** *  callback: Pointer to the user defined callback function.
 345:Generated_Source\PSoC4/CyDMA.c **** *
 346:Generated_Source\PSoC4/CyDMA.c **** * Return:
 347:Generated_Source\PSoC4/CyDMA.c **** *  Pointer to the function previously set for the specified channel. 
 348:Generated_Source\PSoC4/CyDMA.c **** *
 349:Generated_Source\PSoC4/CyDMA.c **** *******************************************************************************/
 350:Generated_Source\PSoC4/CyDMA.c **** cydma_callback_t CyDmaSetInterruptCallback(int32 channel, cydma_callback_t callback)
 351:Generated_Source\PSoC4/CyDMA.c **** {
 352:Generated_Source\PSoC4/CyDMA.c ****     cydma_callback_t prevCallback;
 353:Generated_Source\PSoC4/CyDMA.c **** 
 354:Generated_Source\PSoC4/CyDMA.c ****     CYASSERT((channel >= 0) && (channel < CYDMA_CH_NR));
 355:Generated_Source\PSoC4/CyDMA.c **** 
 356:Generated_Source\PSoC4/CyDMA.c ****     prevCallback = CyDmaInterruptCallback[channel];
 357:Generated_Source\PSoC4/CyDMA.c ****     CyDmaInterruptCallback[channel] = callback;
 358:Generated_Source\PSoC4/CyDMA.c ****     return (prevCallback);
 359:Generated_Source\PSoC4/CyDMA.c **** }
 360:Generated_Source\PSoC4/CyDMA.c **** 
 361:Generated_Source\PSoC4/CyDMA.c **** 
 362:Generated_Source\PSoC4/CyDMA.c **** /*******************************************************************************
 363:Generated_Source\PSoC4/CyDMA.c **** * Function Name: CyDmaGetInterruptCallback
 364:Generated_Source\PSoC4/CyDMA.c **** ********************************************************************************
 365:Generated_Source\PSoC4/CyDMA.c **** *
 366:Generated_Source\PSoC4/CyDMA.c **** * Summary:
 367:Generated_Source\PSoC4/CyDMA.c **** *  Returns the pointer to the interrupt callback function for the specified DMA
 368:Generated_Source\PSoC4/CyDMA.c **** *  channel.
 369:Generated_Source\PSoC4/CyDMA.c **** *
 370:Generated_Source\PSoC4/CyDMA.c **** * Parameters:
 371:Generated_Source\PSoC4/CyDMA.c **** *  channel: Channel used by this function.
 372:Generated_Source\PSoC4/CyDMA.c **** *
 373:Generated_Source\PSoC4/CyDMA.c **** * Return:
 374:Generated_Source\PSoC4/CyDMA.c **** *  Callback function pointer for the specified channel.
ARM GAS  C:\Users\Jerry\AppData\Local\Temp\cc4H4eWK.s 			page 8


 375:Generated_Source\PSoC4/CyDMA.c **** *
 376:Generated_Source\PSoC4/CyDMA.c **** *******************************************************************************/
 377:Generated_Source\PSoC4/CyDMA.c **** cydma_callback_t CyDmaGetInterruptCallback(int32 channel)
 378:Generated_Source\PSoC4/CyDMA.c **** {
 379:Generated_Source\PSoC4/CyDMA.c ****     CYASSERT((channel >= 0) && (channel < CYDMA_CH_NR));
 380:Generated_Source\PSoC4/CyDMA.c ****     
 381:Generated_Source\PSoC4/CyDMA.c ****     return (CyDmaInterruptCallback[channel]);
 382:Generated_Source\PSoC4/CyDMA.c **** }
 383:Generated_Source\PSoC4/CyDMA.c **** 
 384:Generated_Source\PSoC4/CyDMA.c **** 
 385:Generated_Source\PSoC4/CyDMA.c **** /*******************************************************************************
 386:Generated_Source\PSoC4/CyDMA.c **** * Function Name: CyDmaInterrupt
 387:Generated_Source\PSoC4/CyDMA.c **** ********************************************************************************
 388:Generated_Source\PSoC4/CyDMA.c **** *
 389:Generated_Source\PSoC4/CyDMA.c **** * Summary:
 390:Generated_Source\PSoC4/CyDMA.c **** *  The default ISR for DMA interrupts. The handler checks which DMA channel has
 391:Generated_Source\PSoC4/CyDMA.c **** *  triggered the interrupt and calls the user defined callback function.
 392:Generated_Source\PSoC4/CyDMA.c **** *  The callback function is set using CyDmaSetInteruptCallback() API.
 393:Generated_Source\PSoC4/CyDMA.c **** *
 394:Generated_Source\PSoC4/CyDMA.c **** * Parameters:
 395:Generated_Source\PSoC4/CyDMA.c **** *  None.
 396:Generated_Source\PSoC4/CyDMA.c **** *
 397:Generated_Source\PSoC4/CyDMA.c **** * Return:
 398:Generated_Source\PSoC4/CyDMA.c **** *  None.
 399:Generated_Source\PSoC4/CyDMA.c **** *
 400:Generated_Source\PSoC4/CyDMA.c **** * Side Effects:
 401:Generated_Source\PSoC4/CyDMA.c **** *  This function clears the pending interrupts.
 402:Generated_Source\PSoC4/CyDMA.c **** *
 403:Generated_Source\PSoC4/CyDMA.c **** *******************************************************************************/
 404:Generated_Source\PSoC4/CyDMA.c **** CY_ISR(CyDmaInterrupt)
 405:Generated_Source\PSoC4/CyDMA.c **** {
  26              		.loc 1 405 0
  27              		.cfi_startproc
  28              	.LVL0:
  29 0000 38B5     		push	{r3, r4, r5, lr}
  30              		.cfi_def_cfa_offset 16
  31              		.cfi_offset 3, -16
  32              		.cfi_offset 4, -12
  33              		.cfi_offset 5, -8
  34              		.cfi_offset 14, -4
 406:Generated_Source\PSoC4/CyDMA.c ****     uint32 intr;
 407:Generated_Source\PSoC4/CyDMA.c ****     uint32 cbIdx = 0u;
 408:Generated_Source\PSoC4/CyDMA.c **** 
 409:Generated_Source\PSoC4/CyDMA.c ****     /* Get interrupt source. */
 410:Generated_Source\PSoC4/CyDMA.c ****     intr = CYDMA_INTR_MASKED_REG;
 411:Generated_Source\PSoC4/CyDMA.c **** 
 412:Generated_Source\PSoC4/CyDMA.c ****     /* Clear pending interrupts. */
 413:Generated_Source\PSoC4/CyDMA.c ****     CYDMA_INTR_REG = intr;
 414:Generated_Source\PSoC4/CyDMA.c **** 
 415:Generated_Source\PSoC4/CyDMA.c ****     /* Call user defined callback functions for triggered interrupt sources. */
 416:Generated_Source\PSoC4/CyDMA.c ****     while(0u != intr)
  35              		.loc 1 416 0
  36 0002 0025     		mov	r5, #0
 410:Generated_Source\PSoC4/CyDMA.c **** 
  37              		.loc 1 410 0
  38 0004 074B     		ldr	r3, .L10
  39 0006 1C68     		ldr	r4, [r3]
ARM GAS  C:\Users\Jerry\AppData\Local\Temp\cc4H4eWK.s 			page 9


  40              	.LVL1:
 413:Generated_Source\PSoC4/CyDMA.c **** 
  41              		.loc 1 413 0
  42 0008 074B     		ldr	r3, .L10+4
  43 000a 1C60     		str	r4, [r3]
  44              	.LVL2:
  45              	.L2:
  46              		.loc 1 416 0
  47 000c 002C     		cmp	r4, #0
  48 000e 07D0     		beq	.L9
 417:Generated_Source\PSoC4/CyDMA.c ****     {
 418:Generated_Source\PSoC4/CyDMA.c ****         if(0u != (intr & 0x1u))
  49              		.loc 1 418 0
  50 0010 E307     		lsl	r3, r4, #31
  51 0012 02D5     		bpl	.L3
 419:Generated_Source\PSoC4/CyDMA.c ****         {
 420:Generated_Source\PSoC4/CyDMA.c ****             CyDmaInterruptCallback[cbIdx]();
  52              		.loc 1 420 0
  53 0014 054B     		ldr	r3, .L10+8
  54 0016 EB58     		ldr	r3, [r5, r3]
  55 0018 9847     		blx	r3
  56              	.LVL3:
  57              	.L3:
 421:Generated_Source\PSoC4/CyDMA.c ****         }
 422:Generated_Source\PSoC4/CyDMA.c ****         intr >>= 1;
  58              		.loc 1 422 0
  59 001a 6408     		lsr	r4, r4, #1
  60              	.LVL4:
  61 001c 0435     		add	r5, r5, #4
  62 001e F5E7     		b	.L2
  63              	.L9:
 423:Generated_Source\PSoC4/CyDMA.c ****         ++cbIdx;
 424:Generated_Source\PSoC4/CyDMA.c ****     }
 425:Generated_Source\PSoC4/CyDMA.c **** }
  64              		.loc 1 425 0
  65              		@ sp needed
  66              	.LVL5:
  67 0020 38BD     		pop	{r3, r4, r5, pc}
  68              	.L11:
  69 0022 C046     		.align	2
  70              	.L10:
  71 0024 FC171040 		.word	1074796540
  72 0028 F0171040 		.word	1074796528
  73 002c 00000000 		.word	.LANCHOR0
  74              		.cfi_endproc
  75              	.LFE15:
  76              		.size	CyDmaInterrupt, .-CyDmaInterrupt
  77              		.section	.text.CyDmaDefaultInterruptCallback,"ax",%progbits
  78              		.align	1
  79              		.code	16
  80              		.thumb_func
  81              		.type	CyDmaDefaultInterruptCallback, %function
  82              	CyDmaDefaultInterruptCallback:
  83              	.LFB16:
 426:Generated_Source\PSoC4/CyDMA.c **** 
 427:Generated_Source\PSoC4/CyDMA.c **** 
 428:Generated_Source\PSoC4/CyDMA.c **** /*******************************************************************************
ARM GAS  C:\Users\Jerry\AppData\Local\Temp\cc4H4eWK.s 			page 10


 429:Generated_Source\PSoC4/CyDMA.c **** * Function Name: CyDmaDefaultInterruptCallback
 430:Generated_Source\PSoC4/CyDMA.c **** ********************************************************************************
 431:Generated_Source\PSoC4/CyDMA.c **** *
 432:Generated_Source\PSoC4/CyDMA.c **** * Summary:
 433:Generated_Source\PSoC4/CyDMA.c **** *  This function is invoked when the user defined callback function is undefined
 434:Generated_Source\PSoC4/CyDMA.c **** *  for the interrupt source.
 435:Generated_Source\PSoC4/CyDMA.c **** *
 436:Generated_Source\PSoC4/CyDMA.c **** * Parameters:
 437:Generated_Source\PSoC4/CyDMA.c **** *  None.
 438:Generated_Source\PSoC4/CyDMA.c **** *
 439:Generated_Source\PSoC4/CyDMA.c **** * Return:
 440:Generated_Source\PSoC4/CyDMA.c **** *  None.
 441:Generated_Source\PSoC4/CyDMA.c **** *
 442:Generated_Source\PSoC4/CyDMA.c **** *******************************************************************************/
 443:Generated_Source\PSoC4/CyDMA.c **** static void CyDmaDefaultInterruptCallback(void)
 444:Generated_Source\PSoC4/CyDMA.c **** {
  84              		.loc 1 444 0
  85              		.cfi_startproc
 445:Generated_Source\PSoC4/CyDMA.c ****     /* Halt CPU in debug mode. We get here because there is no user defined
 446:Generated_Source\PSoC4/CyDMA.c ****     * callback function for the interrupt source. You should either set a
 447:Generated_Source\PSoC4/CyDMA.c ****     * callback function or disable generating an interrupt from this
 448:Generated_Source\PSoC4/CyDMA.c ****     * interrupt source.
 449:Generated_Source\PSoC4/CyDMA.c ****     * To set a callback, use the CyDmaSetInterruptCallback() API function.
 450:Generated_Source\PSoC4/CyDMA.c ****     * To disable interrupt generation, write '0' to the corresponding bit
 451:Generated_Source\PSoC4/CyDMA.c ****     * in the interrupt mask by calling CyDmaSetInterruptSourceMask().
 452:Generated_Source\PSoC4/CyDMA.c ****     */
 453:Generated_Source\PSoC4/CyDMA.c ****     CYASSERT(0 != 0);
 454:Generated_Source\PSoC4/CyDMA.c **** }
  86              		.loc 1 454 0
  87              		@ sp needed
  88 0000 7047     		bx	lr
  89              		.cfi_endproc
  90              	.LFE16:
  91              		.size	CyDmaDefaultInterruptCallback, .-CyDmaDefaultInterruptCallback
  92              		.section	.text.CyDmaDisable,"ax",%progbits
  93              		.align	1
  94              		.global	CyDmaDisable
  95              		.code	16
  96              		.thumb_func
  97              		.type	CyDmaDisable, %function
  98              	CyDmaDisable:
  99              	.LFB2:
  94:Generated_Source\PSoC4/CyDMA.c ****     CYDMA_CTL_REG = (uint32)~CYDMA_ENABLED;
 100              		.loc 1 94 0
 101              		.cfi_startproc
  95:Generated_Source\PSoC4/CyDMA.c **** }
 102              		.loc 1 95 0
 103 0000 014A     		ldr	r2, .L14
 104 0002 024B     		ldr	r3, .L14+4
  96:Generated_Source\PSoC4/CyDMA.c **** 
 105              		.loc 1 96 0
 106              		@ sp needed
  95:Generated_Source\PSoC4/CyDMA.c **** }
 107              		.loc 1 95 0
 108 0004 1A60     		str	r2, [r3]
  96:Generated_Source\PSoC4/CyDMA.c **** 
 109              		.loc 1 96 0
ARM GAS  C:\Users\Jerry\AppData\Local\Temp\cc4H4eWK.s 			page 11


 110 0006 7047     		bx	lr
 111              	.L15:
 112              		.align	2
 113              	.L14:
 114 0008 FFFFFF7F 		.word	2147483647
 115 000c 00101040 		.word	1074794496
 116              		.cfi_endproc
 117              	.LFE2:
 118              		.size	CyDmaDisable, .-CyDmaDisable
 119              		.section	.text.CyDmaGetStatus,"ax",%progbits
 120              		.align	1
 121              		.global	CyDmaGetStatus
 122              		.code	16
 123              		.thumb_func
 124              		.type	CyDmaGetStatus, %function
 125              	CyDmaGetStatus:
 126              	.LFB3:
 122:Generated_Source\PSoC4/CyDMA.c ****     return (CYDMA_STATUS_REG);
 127              		.loc 1 122 0
 128              		.cfi_startproc
 123:Generated_Source\PSoC4/CyDMA.c **** }
 129              		.loc 1 123 0
 130 0000 014B     		ldr	r3, .L17
 124:Generated_Source\PSoC4/CyDMA.c **** 
 131              		.loc 1 124 0
 132              		@ sp needed
 123:Generated_Source\PSoC4/CyDMA.c **** }
 133              		.loc 1 123 0
 134 0002 1868     		ldr	r0, [r3]
 124:Generated_Source\PSoC4/CyDMA.c **** 
 135              		.loc 1 124 0
 136 0004 7047     		bx	lr
 137              	.L18:
 138 0006 C046     		.align	2
 139              	.L17:
 140 0008 10101040 		.word	1074794512
 141              		.cfi_endproc
 142              	.LFE3:
 143              		.size	CyDmaGetStatus, .-CyDmaGetStatus
 144              		.section	.text.CyDmaGetActiveChannels,"ax",%progbits
 145              		.align	1
 146              		.global	CyDmaGetActiveChannels
 147              		.code	16
 148              		.thumb_func
 149              		.type	CyDmaGetActiveChannels, %function
 150              	CyDmaGetActiveChannels:
 151              	.LFB4:
 143:Generated_Source\PSoC4/CyDMA.c ****     return (CYDMA_STATUS_CH_ACT_REG);
 152              		.loc 1 143 0
 153              		.cfi_startproc
 144:Generated_Source\PSoC4/CyDMA.c **** }
 154              		.loc 1 144 0
 155 0000 014B     		ldr	r3, .L20
 145:Generated_Source\PSoC4/CyDMA.c **** 
 156              		.loc 1 145 0
 157              		@ sp needed
 144:Generated_Source\PSoC4/CyDMA.c **** }
ARM GAS  C:\Users\Jerry\AppData\Local\Temp\cc4H4eWK.s 			page 12


 158              		.loc 1 144 0
 159 0002 1868     		ldr	r0, [r3]
 145:Generated_Source\PSoC4/CyDMA.c **** 
 160              		.loc 1 145 0
 161 0004 7047     		bx	lr
 162              	.L21:
 163 0006 C046     		.align	2
 164              	.L20:
 165 0008 1C101040 		.word	1074794524
 166              		.cfi_endproc
 167              	.LFE4:
 168              		.size	CyDmaGetActiveChannels, .-CyDmaGetActiveChannels
 169              		.section	.text.CyDmaGetActiveSrcAddress,"ax",%progbits
 170              		.align	1
 171              		.global	CyDmaGetActiveSrcAddress
 172              		.code	16
 173              		.thumb_func
 174              		.type	CyDmaGetActiveSrcAddress, %function
 175              	CyDmaGetActiveSrcAddress:
 176              	.LFB5:
 171:Generated_Source\PSoC4/CyDMA.c ****     return ((void *)CYDMA_STATUS_SRC_ADDR_REG);
 177              		.loc 1 171 0
 178              		.cfi_startproc
 172:Generated_Source\PSoC4/CyDMA.c **** }
 179              		.loc 1 172 0
 180 0000 014B     		ldr	r3, .L23
 173:Generated_Source\PSoC4/CyDMA.c **** 
 181              		.loc 1 173 0
 182              		@ sp needed
 172:Generated_Source\PSoC4/CyDMA.c **** }
 183              		.loc 1 172 0
 184 0002 1868     		ldr	r0, [r3]
 173:Generated_Source\PSoC4/CyDMA.c **** 
 185              		.loc 1 173 0
 186 0004 7047     		bx	lr
 187              	.L24:
 188 0006 C046     		.align	2
 189              	.L23:
 190 0008 14101040 		.word	1074794516
 191              		.cfi_endproc
 192              	.LFE5:
 193              		.size	CyDmaGetActiveSrcAddress, .-CyDmaGetActiveSrcAddress
 194              		.section	.text.CyDmaGetActiveDstAddress,"ax",%progbits
 195              		.align	1
 196              		.global	CyDmaGetActiveDstAddress
 197              		.code	16
 198              		.thumb_func
 199              		.type	CyDmaGetActiveDstAddress, %function
 200              	CyDmaGetActiveDstAddress:
 201              	.LFB6:
 199:Generated_Source\PSoC4/CyDMA.c ****     return ((void *)CYDMA_STATUS_DST_ADDR_REG);
 202              		.loc 1 199 0
 203              		.cfi_startproc
 200:Generated_Source\PSoC4/CyDMA.c **** }
 204              		.loc 1 200 0
 205 0000 014B     		ldr	r3, .L26
 201:Generated_Source\PSoC4/CyDMA.c **** 
ARM GAS  C:\Users\Jerry\AppData\Local\Temp\cc4H4eWK.s 			page 13


 206              		.loc 1 201 0
 207              		@ sp needed
 200:Generated_Source\PSoC4/CyDMA.c **** }
 208              		.loc 1 200 0
 209 0002 1868     		ldr	r0, [r3]
 201:Generated_Source\PSoC4/CyDMA.c **** 
 210              		.loc 1 201 0
 211 0004 7047     		bx	lr
 212              	.L27:
 213 0006 C046     		.align	2
 214              	.L26:
 215 0008 18101040 		.word	1074794520
 216              		.cfi_endproc
 217              	.LFE6:
 218              		.size	CyDmaGetActiveDstAddress, .-CyDmaGetActiveDstAddress
 219              		.section	.text.CyDmaSetInterruptVector,"ax",%progbits
 220              		.align	1
 221              		.global	CyDmaSetInterruptVector
 222              		.code	16
 223              		.thumb_func
 224              		.type	CyDmaSetInterruptVector, %function
 225              	CyDmaSetInterruptVector:
 226              	.LFB7:
 228:Generated_Source\PSoC4/CyDMA.c ****     (void)CyIntSetVector(CYDMA_INTR_NUMBER, interruptVector);
 227              		.loc 1 228 0
 228              		.cfi_startproc
 229              	.LVL6:
 230 0000 08B5     		push	{r3, lr}
 231              		.cfi_def_cfa_offset 8
 232              		.cfi_offset 3, -8
 233              		.cfi_offset 14, -4
 228:Generated_Source\PSoC4/CyDMA.c ****     (void)CyIntSetVector(CYDMA_INTR_NUMBER, interruptVector);
 234              		.loc 1 228 0
 235 0002 011C     		mov	r1, r0
 229:Generated_Source\PSoC4/CyDMA.c **** }
 236              		.loc 1 229 0
 237 0004 0C20     		mov	r0, #12
 238              	.LVL7:
 239 0006 FFF7FEFF 		bl	CyIntSetVector
 240              	.LVL8:
 230:Generated_Source\PSoC4/CyDMA.c **** 
 241              		.loc 1 230 0
 242              		@ sp needed
 243 000a 08BD     		pop	{r3, pc}
 244              		.cfi_endproc
 245              	.LFE7:
 246              		.size	CyDmaSetInterruptVector, .-CyDmaSetInterruptVector
 247              		.section	.text.CyDmaEnable,"ax",%progbits
 248              		.align	1
 249              		.global	CyDmaEnable
 250              		.code	16
 251              		.thumb_func
 252              		.type	CyDmaEnable, %function
 253              	CyDmaEnable:
 254              	.LFB1:
  63:Generated_Source\PSoC4/CyDMA.c ****     static uint8 initIntrVector = 0u;
 255              		.loc 1 63 0
ARM GAS  C:\Users\Jerry\AppData\Local\Temp\cc4H4eWK.s 			page 14


 256              		.cfi_startproc
 257 0000 10B5     		push	{r4, lr}
 258              		.cfi_def_cfa_offset 8
 259              		.cfi_offset 4, -8
 260              		.cfi_offset 14, -4
  66:Generated_Source\PSoC4/CyDMA.c ****     {
 261              		.loc 1 66 0
 262 0002 094C     		ldr	r4, .L31
 263 0004 2378     		ldrb	r3, [r4]
 264 0006 002B     		cmp	r3, #0
 265 0008 08D1     		bne	.L30
  68:Generated_Source\PSoC4/CyDMA.c ****         CyIntSetPriority(CYDMA_INTR_NUMBER, CYDMA_INTR_PRIO);
 266              		.loc 1 68 0
 267 000a 0848     		ldr	r0, .L31+4
 268 000c FFF7FEFF 		bl	CyDmaSetInterruptVector
 269              	.LVL9:
  69:Generated_Source\PSoC4/CyDMA.c ****         initIntrVector = 1u;
 270              		.loc 1 69 0
 271 0010 0C20     		mov	r0, #12
 272 0012 0321     		mov	r1, #3
 273 0014 FFF7FEFF 		bl	CyIntSetPriority
 274              	.LVL10:
  70:Generated_Source\PSoC4/CyDMA.c ****     }
 275              		.loc 1 70 0
 276 0018 0123     		mov	r3, #1
 277 001a 2370     		strb	r3, [r4]
 278              	.L30:
  72:Generated_Source\PSoC4/CyDMA.c **** }
 279              		.loc 1 72 0
 280 001c 8022     		mov	r2, #128
 281 001e 044B     		ldr	r3, .L31+8
 282 0020 1206     		lsl	r2, r2, #24
 283 0022 1A60     		str	r2, [r3]
  73:Generated_Source\PSoC4/CyDMA.c **** 
 284              		.loc 1 73 0
 285              		@ sp needed
 286 0024 10BD     		pop	{r4, pc}
 287              	.L32:
 288 0026 C046     		.align	2
 289              	.L31:
 290 0028 00000000 		.word	.LANCHOR1
 291 002c 00000000 		.word	CyDmaInterrupt
 292 0030 00101040 		.word	1074794496
 293              		.cfi_endproc
 294              	.LFE1:
 295              		.size	CyDmaEnable, .-CyDmaEnable
 296              		.section	.text.CyDmaGetInterruptSource,"ax",%progbits
 297              		.align	1
 298              		.global	CyDmaGetInterruptSource
 299              		.code	16
 300              		.thumb_func
 301              		.type	CyDmaGetInterruptSource, %function
 302              	CyDmaGetInterruptSource:
 303              	.LFB8:
 248:Generated_Source\PSoC4/CyDMA.c ****     return (CYDMA_INTR_REG);
 304              		.loc 1 248 0
 305              		.cfi_startproc
ARM GAS  C:\Users\Jerry\AppData\Local\Temp\cc4H4eWK.s 			page 15


 249:Generated_Source\PSoC4/CyDMA.c **** }
 306              		.loc 1 249 0
 307 0000 014B     		ldr	r3, .L34
 250:Generated_Source\PSoC4/CyDMA.c **** 
 308              		.loc 1 250 0
 309              		@ sp needed
 249:Generated_Source\PSoC4/CyDMA.c **** }
 310              		.loc 1 249 0
 311 0002 1868     		ldr	r0, [r3]
 250:Generated_Source\PSoC4/CyDMA.c **** 
 312              		.loc 1 250 0
 313 0004 7047     		bx	lr
 314              	.L35:
 315 0006 C046     		.align	2
 316              	.L34:
 317 0008 F0171040 		.word	1074796528
 318              		.cfi_endproc
 319              	.LFE8:
 320              		.size	CyDmaGetInterruptSource, .-CyDmaGetInterruptSource
 321              		.section	.text.CyDmaClearInterruptSource,"ax",%progbits
 322              		.align	1
 323              		.global	CyDmaClearInterruptSource
 324              		.code	16
 325              		.thumb_func
 326              		.type	CyDmaClearInterruptSource, %function
 327              	CyDmaClearInterruptSource:
 328              	.LFB9:
 268:Generated_Source\PSoC4/CyDMA.c ****     CYDMA_INTR_REG = interruptMask;
 329              		.loc 1 268 0
 330              		.cfi_startproc
 331              	.LVL11:
 269:Generated_Source\PSoC4/CyDMA.c **** }
 332              		.loc 1 269 0
 333 0000 014B     		ldr	r3, .L37
 270:Generated_Source\PSoC4/CyDMA.c **** 
 334              		.loc 1 270 0
 335              		@ sp needed
 269:Generated_Source\PSoC4/CyDMA.c **** }
 336              		.loc 1 269 0
 337 0002 1860     		str	r0, [r3]
 270:Generated_Source\PSoC4/CyDMA.c **** 
 338              		.loc 1 270 0
 339 0004 7047     		bx	lr
 340              	.L38:
 341 0006 C046     		.align	2
 342              	.L37:
 343 0008 F0171040 		.word	1074796528
 344              		.cfi_endproc
 345              	.LFE9:
 346              		.size	CyDmaClearInterruptSource, .-CyDmaClearInterruptSource
 347              		.section	.text.CyDmaSetInterruptSourceMask,"ax",%progbits
 348              		.align	1
 349              		.global	CyDmaSetInterruptSourceMask
 350              		.code	16
 351              		.thumb_func
 352              		.type	CyDmaSetInterruptSourceMask, %function
 353              	CyDmaSetInterruptSourceMask:
ARM GAS  C:\Users\Jerry\AppData\Local\Temp\cc4H4eWK.s 			page 16


 354              	.LFB10:
 288:Generated_Source\PSoC4/CyDMA.c ****     CYDMA_INTR_MASK_REG = interruptMask;
 355              		.loc 1 288 0
 356              		.cfi_startproc
 357              	.LVL12:
 289:Generated_Source\PSoC4/CyDMA.c **** }
 358              		.loc 1 289 0
 359 0000 014B     		ldr	r3, .L40
 290:Generated_Source\PSoC4/CyDMA.c **** 
 360              		.loc 1 290 0
 361              		@ sp needed
 289:Generated_Source\PSoC4/CyDMA.c **** }
 362              		.loc 1 289 0
 363 0002 1860     		str	r0, [r3]
 290:Generated_Source\PSoC4/CyDMA.c **** 
 364              		.loc 1 290 0
 365 0004 7047     		bx	lr
 366              	.L41:
 367 0006 C046     		.align	2
 368              	.L40:
 369 0008 F8171040 		.word	1074796536
 370              		.cfi_endproc
 371              	.LFE10:
 372              		.size	CyDmaSetInterruptSourceMask, .-CyDmaSetInterruptSourceMask
 373              		.section	.text.CyDmaGetInterruptSourceMask,"ax",%progbits
 374              		.align	1
 375              		.global	CyDmaGetInterruptSourceMask
 376              		.code	16
 377              		.thumb_func
 378              		.type	CyDmaGetInterruptSourceMask, %function
 379              	CyDmaGetInterruptSourceMask:
 380              	.LFB11:
 308:Generated_Source\PSoC4/CyDMA.c ****     return (CYDMA_INTR_MASK_REG);
 381              		.loc 1 308 0
 382              		.cfi_startproc
 309:Generated_Source\PSoC4/CyDMA.c **** }
 383              		.loc 1 309 0
 384 0000 014B     		ldr	r3, .L43
 310:Generated_Source\PSoC4/CyDMA.c **** 
 385              		.loc 1 310 0
 386              		@ sp needed
 309:Generated_Source\PSoC4/CyDMA.c **** }
 387              		.loc 1 309 0
 388 0002 1868     		ldr	r0, [r3]
 310:Generated_Source\PSoC4/CyDMA.c **** 
 389              		.loc 1 310 0
 390 0004 7047     		bx	lr
 391              	.L44:
 392 0006 C046     		.align	2
 393              	.L43:
 394 0008 F8171040 		.word	1074796536
 395              		.cfi_endproc
 396              	.LFE11:
 397              		.size	CyDmaGetInterruptSourceMask, .-CyDmaGetInterruptSourceMask
 398              		.section	.text.CyDmaGetInterruptSourceMasked,"ax",%progbits
 399              		.align	1
 400              		.global	CyDmaGetInterruptSourceMasked
ARM GAS  C:\Users\Jerry\AppData\Local\Temp\cc4H4eWK.s 			page 17


 401              		.code	16
 402              		.thumb_func
 403              		.type	CyDmaGetInterruptSourceMasked, %function
 404              	CyDmaGetInterruptSourceMasked:
 405              	.LFB12:
 328:Generated_Source\PSoC4/CyDMA.c ****     return (CYDMA_INTR_MASKED_REG);
 406              		.loc 1 328 0
 407              		.cfi_startproc
 329:Generated_Source\PSoC4/CyDMA.c **** }
 408              		.loc 1 329 0
 409 0000 014B     		ldr	r3, .L46
 330:Generated_Source\PSoC4/CyDMA.c **** 
 410              		.loc 1 330 0
 411              		@ sp needed
 329:Generated_Source\PSoC4/CyDMA.c **** }
 412              		.loc 1 329 0
 413 0002 1868     		ldr	r0, [r3]
 330:Generated_Source\PSoC4/CyDMA.c **** 
 414              		.loc 1 330 0
 415 0004 7047     		bx	lr
 416              	.L47:
 417 0006 C046     		.align	2
 418              	.L46:
 419 0008 FC171040 		.word	1074796540
 420              		.cfi_endproc
 421              	.LFE12:
 422              		.size	CyDmaGetInterruptSourceMasked, .-CyDmaGetInterruptSourceMasked
 423              		.section	.text.CyDmaSetInterruptCallback,"ax",%progbits
 424              		.align	1
 425              		.global	CyDmaSetInterruptCallback
 426              		.code	16
 427              		.thumb_func
 428              		.type	CyDmaSetInterruptCallback, %function
 429              	CyDmaSetInterruptCallback:
 430              	.LFB13:
 351:Generated_Source\PSoC4/CyDMA.c ****     cydma_callback_t prevCallback;
 431              		.loc 1 351 0
 432              		.cfi_startproc
 433              	.LVL13:
 356:Generated_Source\PSoC4/CyDMA.c ****     CyDmaInterruptCallback[channel] = callback;
 434              		.loc 1 356 0
 435 0000 024A     		ldr	r2, .L49
 436 0002 8300     		lsl	r3, r0, #2
 437 0004 9858     		ldr	r0, [r3, r2]
 438              	.LVL14:
 359:Generated_Source\PSoC4/CyDMA.c **** 
 439              		.loc 1 359 0
 440              		@ sp needed
 357:Generated_Source\PSoC4/CyDMA.c ****     return (prevCallback);
 441              		.loc 1 357 0
 442 0006 9950     		str	r1, [r3, r2]
 359:Generated_Source\PSoC4/CyDMA.c **** 
 443              		.loc 1 359 0
 444 0008 7047     		bx	lr
 445              	.L50:
 446 000a C046     		.align	2
 447              	.L49:
ARM GAS  C:\Users\Jerry\AppData\Local\Temp\cc4H4eWK.s 			page 18


 448 000c 00000000 		.word	.LANCHOR0
 449              		.cfi_endproc
 450              	.LFE13:
 451              		.size	CyDmaSetInterruptCallback, .-CyDmaSetInterruptCallback
 452              		.section	.text.CyDmaGetInterruptCallback,"ax",%progbits
 453              		.align	1
 454              		.global	CyDmaGetInterruptCallback
 455              		.code	16
 456              		.thumb_func
 457              		.type	CyDmaGetInterruptCallback, %function
 458              	CyDmaGetInterruptCallback:
 459              	.LFB14:
 378:Generated_Source\PSoC4/CyDMA.c ****     CYASSERT((channel >= 0) && (channel < CYDMA_CH_NR));
 460              		.loc 1 378 0
 461              		.cfi_startproc
 462              	.LVL15:
 381:Generated_Source\PSoC4/CyDMA.c **** }
 463              		.loc 1 381 0
 464 0000 014B     		ldr	r3, .L52
 465 0002 8000     		lsl	r0, r0, #2
 466              	.LVL16:
 467 0004 C058     		ldr	r0, [r0, r3]
 382:Generated_Source\PSoC4/CyDMA.c **** 
 468              		.loc 1 382 0
 469              		@ sp needed
 470 0006 7047     		bx	lr
 471              	.L53:
 472              		.align	2
 473              	.L52:
 474 0008 00000000 		.word	.LANCHOR0
 475              		.cfi_endproc
 476              	.LFE14:
 477              		.size	CyDmaGetInterruptCallback, .-CyDmaGetInterruptCallback
 478              		.section	.text.CyDmaChAlloc,"ax",%progbits
 479              		.align	1
 480              		.global	CyDmaChAlloc
 481              		.code	16
 482              		.thumb_func
 483              		.type	CyDmaChAlloc, %function
 484              	CyDmaChAlloc:
 485              	.LFB17:
 455:Generated_Source\PSoC4/CyDMA.c **** 
 456:Generated_Source\PSoC4/CyDMA.c **** 
 457:Generated_Source\PSoC4/CyDMA.c **** /*******************************************************************************
 458:Generated_Source\PSoC4/CyDMA.c **** * Function Name: CyDmaChAlloc
 459:Generated_Source\PSoC4/CyDMA.c **** ********************************************************************************
 460:Generated_Source\PSoC4/CyDMA.c **** *
 461:Generated_Source\PSoC4/CyDMA.c **** * Summary:
 462:Generated_Source\PSoC4/CyDMA.c **** *  Allocates a channel number to use with later DMA functions.
 463:Generated_Source\PSoC4/CyDMA.c **** *
 464:Generated_Source\PSoC4/CyDMA.c **** * Parameters:
 465:Generated_Source\PSoC4/CyDMA.c **** *  None.
 466:Generated_Source\PSoC4/CyDMA.c **** *                   
 467:Generated_Source\PSoC4/CyDMA.c **** * Return:
 468:Generated_Source\PSoC4/CyDMA.c **** *  The allocated channel number. Zero is a valid channel number.
 469:Generated_Source\PSoC4/CyDMA.c **** *  CYDMA_INVALID_CHANNEL is returned if there are no channels available.
 470:Generated_Source\PSoC4/CyDMA.c **** *
ARM GAS  C:\Users\Jerry\AppData\Local\Temp\cc4H4eWK.s 			page 19


 471:Generated_Source\PSoC4/CyDMA.c **** *******************************************************************************/
 472:Generated_Source\PSoC4/CyDMA.c **** int32 CyDmaChAlloc(void)
 473:Generated_Source\PSoC4/CyDMA.c **** {
 486              		.loc 1 473 0
 487              		.cfi_startproc
 488              	.LVL17:
 474:Generated_Source\PSoC4/CyDMA.c ****     int32  channel = CYDMA_CH_NR-1;
 475:Generated_Source\PSoC4/CyDMA.c ****     uint32 channelMask = (uint32)(1UL << (CYDMA_CH_NR-1));
 489              		.loc 1 475 0
 490 0000 8023     		mov	r3, #128
 474:Generated_Source\PSoC4/CyDMA.c ****     int32  channel = CYDMA_CH_NR-1;
 491              		.loc 1 474 0
 492 0002 0720     		mov	r0, #7
 476:Generated_Source\PSoC4/CyDMA.c ****     
 477:Generated_Source\PSoC4/CyDMA.c ****     while (channel >= 0)
 478:Generated_Source\PSoC4/CyDMA.c ****     {
 479:Generated_Source\PSoC4/CyDMA.c ****         if(0u == (CyDmaChannelUsedMask & channelMask))
 493              		.loc 1 479 0
 494 0004 0549     		ldr	r1, .L58
 495 0006 0A6A     		ldr	r2, [r1, #32]
 496              	.LVL18:
 497              	.L57:
 498 0008 1A42     		tst	r2, r3
 499 000a 02D1     		bne	.L55
 480:Generated_Source\PSoC4/CyDMA.c ****         {
 481:Generated_Source\PSoC4/CyDMA.c ****             /* Mark channel as used and exit loop. */ 
 482:Generated_Source\PSoC4/CyDMA.c ****             CyDmaChannelUsedMask |= channelMask;
 500              		.loc 1 482 0
 501 000c 1343     		orr	r3, r2
 502              	.LVL19:
 503 000e 0B62     		str	r3, [r1, #32]
 483:Generated_Source\PSoC4/CyDMA.c ****             break;
 504              		.loc 1 483 0
 505 0010 02E0     		b	.L56
 506              	.LVL20:
 507              	.L55:
 484:Generated_Source\PSoC4/CyDMA.c ****         }
 485:Generated_Source\PSoC4/CyDMA.c ****         channelMask >>= 1;
 508              		.loc 1 485 0
 509 0012 5B08     		lsr	r3, r3, #1
 510              	.LVL21:
 477:Generated_Source\PSoC4/CyDMA.c ****     {
 511              		.loc 1 477 0
 512 0014 0138     		sub	r0, r0, #1
 513 0016 F7D2     		bcs	.L57
 514              	.LVL22:
 515              	.L56:
 486:Generated_Source\PSoC4/CyDMA.c ****         --channel;
 487:Generated_Source\PSoC4/CyDMA.c ****     }
 488:Generated_Source\PSoC4/CyDMA.c ****     return (channel);
 489:Generated_Source\PSoC4/CyDMA.c **** }
 516              		.loc 1 489 0
 517              		@ sp needed
 518 0018 7047     		bx	lr
 519              	.L59:
 520 001a C046     		.align	2
 521              	.L58:
ARM GAS  C:\Users\Jerry\AppData\Local\Temp\cc4H4eWK.s 			page 20


 522 001c 00000000 		.word	.LANCHOR0
 523              		.cfi_endproc
 524              	.LFE17:
 525              		.size	CyDmaChAlloc, .-CyDmaChAlloc
 526              		.section	.text.CyDmaChFree,"ax",%progbits
 527              		.align	1
 528              		.global	CyDmaChFree
 529              		.code	16
 530              		.thumb_func
 531              		.type	CyDmaChFree, %function
 532              	CyDmaChFree:
 533              	.LFB18:
 490:Generated_Source\PSoC4/CyDMA.c **** 
 491:Generated_Source\PSoC4/CyDMA.c **** 
 492:Generated_Source\PSoC4/CyDMA.c **** /*******************************************************************************
 493:Generated_Source\PSoC4/CyDMA.c **** * Function Name: CyDmaChFree
 494:Generated_Source\PSoC4/CyDMA.c **** ********************************************************************************
 495:Generated_Source\PSoC4/CyDMA.c **** *
 496:Generated_Source\PSoC4/CyDMA.c **** * Summary:
 497:Generated_Source\PSoC4/CyDMA.c **** *  Frees a channel handle allocated by CyDmaChAlloc(). Channels allocated for
 498:Generated_Source\PSoC4/CyDMA.c **** *  DMA instances placed on a schematic cannot be freed.
 499:Generated_Source\PSoC4/CyDMA.c **** *
 500:Generated_Source\PSoC4/CyDMA.c **** * Parameters:
 501:Generated_Source\PSoC4/CyDMA.c **** *  channel: The handle previously returned by CyDmaChAlloc().
 502:Generated_Source\PSoC4/CyDMA.c **** *                   
 503:Generated_Source\PSoC4/CyDMA.c **** * Return:
 504:Generated_Source\PSoC4/CyDMA.c **** *  CYRET_SUCCESS if successful.
 505:Generated_Source\PSoC4/CyDMA.c **** *  CYRET_BAD_PARAM if channel is invalid.
 506:Generated_Source\PSoC4/CyDMA.c **** *
 507:Generated_Source\PSoC4/CyDMA.c **** *******************************************************************************/
 508:Generated_Source\PSoC4/CyDMA.c **** cystatus CyDmaChFree(int32 channel)
 509:Generated_Source\PSoC4/CyDMA.c **** {
 534              		.loc 1 509 0
 535              		.cfi_startproc
 536              	.LVL23:
 510:Generated_Source\PSoC4/CyDMA.c ****     uint32   channelMask;
 511:Generated_Source\PSoC4/CyDMA.c ****     cystatus result = CYRET_BAD_PARAM;
 512:Generated_Source\PSoC4/CyDMA.c **** 
 513:Generated_Source\PSoC4/CyDMA.c ****     CYASSERT((channel >= 0) && (channel < CYDMA_CH_NR));
 514:Generated_Source\PSoC4/CyDMA.c ****     
 515:Generated_Source\PSoC4/CyDMA.c ****     channelMask = (uint32)(1UL << channel);
 537              		.loc 1 515 0
 538 0000 0123     		mov	r3, #1
 539 0002 1A1C     		mov	r2, r3
 540 0004 8240     		lsl	r2, r2, r0
 541              	.LVL24:
 516:Generated_Source\PSoC4/CyDMA.c **** 
 517:Generated_Source\PSoC4/CyDMA.c ****     /* Check against attempt to free channel allocated for DMA instance
 518:Generated_Source\PSoC4/CyDMA.c ****     * placed on schematic.
 519:Generated_Source\PSoC4/CyDMA.c ****     */
 520:Generated_Source\PSoC4/CyDMA.c ****     if(0u == (channelMask & DMA_CHANNELS_USED__MASK))
 542              		.loc 1 520 0
 543 0006 111C     		mov	r1, r2
 511:Generated_Source\PSoC4/CyDMA.c **** 
 544              		.loc 1 511 0
 545 0008 181C     		mov	r0, r3
 546              	.LVL25:
ARM GAS  C:\Users\Jerry\AppData\Local\Temp\cc4H4eWK.s 			page 21


 547              		.loc 1 520 0
 548 000a 1940     		and	r1, r3
 549 000c 04D1     		bne	.L61
 521:Generated_Source\PSoC4/CyDMA.c ****     {
 522:Generated_Source\PSoC4/CyDMA.c ****         CyDmaChannelUsedMask &= (uint32)~channelMask;
 550              		.loc 1 522 0
 551 000e 0348     		ldr	r0, .L63
 552 0010 036A     		ldr	r3, [r0, #32]
 553 0012 9343     		bic	r3, r2
 554 0014 0362     		str	r3, [r0, #32]
 555              	.LVL26:
 523:Generated_Source\PSoC4/CyDMA.c ****         result = CYRET_SUCCESS;
 556              		.loc 1 523 0
 557 0016 081C     		mov	r0, r1
 558              	.LVL27:
 559              	.L61:
 524:Generated_Source\PSoC4/CyDMA.c ****     }
 525:Generated_Source\PSoC4/CyDMA.c ****     
 526:Generated_Source\PSoC4/CyDMA.c ****     return (result);
 527:Generated_Source\PSoC4/CyDMA.c **** }
 560              		.loc 1 527 0
 561              		@ sp needed
 562 0018 7047     		bx	lr
 563              	.L64:
 564 001a C046     		.align	2
 565              	.L63:
 566 001c 00000000 		.word	.LANCHOR0
 567              		.cfi_endproc
 568              	.LFE18:
 569              		.size	CyDmaChFree, .-CyDmaChFree
 570              		.section	.text.CyDmaChEnable,"ax",%progbits
 571              		.align	1
 572              		.global	CyDmaChEnable
 573              		.code	16
 574              		.thumb_func
 575              		.type	CyDmaChEnable, %function
 576              	CyDmaChEnable:
 577              	.LFB19:
 528:Generated_Source\PSoC4/CyDMA.c **** 
 529:Generated_Source\PSoC4/CyDMA.c **** 
 530:Generated_Source\PSoC4/CyDMA.c **** /*******************************************************************************
 531:Generated_Source\PSoC4/CyDMA.c **** * Function Name: CyDmaChEnable
 532:Generated_Source\PSoC4/CyDMA.c **** ********************************************************************************
 533:Generated_Source\PSoC4/CyDMA.c **** *
 534:Generated_Source\PSoC4/CyDMA.c **** * Summary:
 535:Generated_Source\PSoC4/CyDMA.c **** *  Enables the DMA channel.
 536:Generated_Source\PSoC4/CyDMA.c **** *
 537:Generated_Source\PSoC4/CyDMA.c **** * Parameters:
 538:Generated_Source\PSoC4/CyDMA.c **** *  channel: Channel used by this function.
 539:Generated_Source\PSoC4/CyDMA.c **** *                   
 540:Generated_Source\PSoC4/CyDMA.c **** * Return:
 541:Generated_Source\PSoC4/CyDMA.c **** *  None.
 542:Generated_Source\PSoC4/CyDMA.c **** *
 543:Generated_Source\PSoC4/CyDMA.c **** * Side effect:
 544:Generated_Source\PSoC4/CyDMA.c **** *  If this function is called before CyDmaSetConfiguration(), and
 545:Generated_Source\PSoC4/CyDMA.c **** *  CyDmaSetSrcAddress() and CyDmaSetDstAddress(), the operation of
 546:Generated_Source\PSoC4/CyDMA.c **** *  the DMA is undefined and could result in system data corruption. 
ARM GAS  C:\Users\Jerry\AppData\Local\Temp\cc4H4eWK.s 			page 22


 547:Generated_Source\PSoC4/CyDMA.c **** *
 548:Generated_Source\PSoC4/CyDMA.c **** *******************************************************************************/
 549:Generated_Source\PSoC4/CyDMA.c **** void CyDmaChEnable(int32 channel)
 550:Generated_Source\PSoC4/CyDMA.c **** {
 578              		.loc 1 550 0
 579              		.cfi_startproc
 580              	.LVL28:
 551:Generated_Source\PSoC4/CyDMA.c ****     CYASSERT((channel >= 0) && (channel < CYDMA_CH_NR));
 552:Generated_Source\PSoC4/CyDMA.c **** 
 553:Generated_Source\PSoC4/CyDMA.c ****     CYDMA_CH_CTL_BASE.ctl[channel] |= CYDMA_ENABLED;
 581              		.loc 1 553 0
 582 0000 8022     		mov	r2, #128
 583 0002 044B     		ldr	r3, .L66
 584 0004 8000     		lsl	r0, r0, #2
 585              	.LVL29:
 586 0006 C018     		add	r0, r0, r3
 587 0008 0368     		ldr	r3, [r0]
 588 000a 1206     		lsl	r2, r2, #24
 589 000c 1343     		orr	r3, r2
 590 000e 0360     		str	r3, [r0]
 554:Generated_Source\PSoC4/CyDMA.c **** }
 591              		.loc 1 554 0
 592              		@ sp needed
 593 0010 7047     		bx	lr
 594              	.L67:
 595 0012 C046     		.align	2
 596              	.L66:
 597 0014 80101040 		.word	1074794624
 598              		.cfi_endproc
 599              	.LFE19:
 600              		.size	CyDmaChEnable, .-CyDmaChEnable
 601              		.section	.text.CyDmaChDisable,"ax",%progbits
 602              		.align	1
 603              		.global	CyDmaChDisable
 604              		.code	16
 605              		.thumb_func
 606              		.type	CyDmaChDisable, %function
 607              	CyDmaChDisable:
 608              	.LFB20:
 555:Generated_Source\PSoC4/CyDMA.c **** 
 556:Generated_Source\PSoC4/CyDMA.c **** 
 557:Generated_Source\PSoC4/CyDMA.c **** /*******************************************************************************
 558:Generated_Source\PSoC4/CyDMA.c **** * Function Name: CyDmaChDisable
 559:Generated_Source\PSoC4/CyDMA.c **** ********************************************************************************
 560:Generated_Source\PSoC4/CyDMA.c **** *
 561:Generated_Source\PSoC4/CyDMA.c **** * Summary:
 562:Generated_Source\PSoC4/CyDMA.c **** *  Disables the DMA channel.
 563:Generated_Source\PSoC4/CyDMA.c **** *
 564:Generated_Source\PSoC4/CyDMA.c **** * Parameters:
 565:Generated_Source\PSoC4/CyDMA.c **** *  channel: Channel used by this function.
 566:Generated_Source\PSoC4/CyDMA.c **** *                   
 567:Generated_Source\PSoC4/CyDMA.c **** * Return:
 568:Generated_Source\PSoC4/CyDMA.c **** *  None.
 569:Generated_Source\PSoC4/CyDMA.c **** *
 570:Generated_Source\PSoC4/CyDMA.c **** * Side effect:
 571:Generated_Source\PSoC4/CyDMA.c **** *  If this function is called during a DMA transfer the transfer is aborted. 
 572:Generated_Source\PSoC4/CyDMA.c **** *
ARM GAS  C:\Users\Jerry\AppData\Local\Temp\cc4H4eWK.s 			page 23


 573:Generated_Source\PSoC4/CyDMA.c **** *******************************************************************************/
 574:Generated_Source\PSoC4/CyDMA.c **** void CyDmaChDisable(int32 channel)
 575:Generated_Source\PSoC4/CyDMA.c **** {
 609              		.loc 1 575 0
 610              		.cfi_startproc
 611              	.LVL30:
 612 0000 034B     		ldr	r3, .L69
 613 0002 8000     		lsl	r0, r0, #2
 614              	.LVL31:
 615 0004 C018     		add	r0, r0, r3
 576:Generated_Source\PSoC4/CyDMA.c ****     CYASSERT((channel >= 0) && (channel < CYDMA_CH_NR));
 577:Generated_Source\PSoC4/CyDMA.c **** 
 578:Generated_Source\PSoC4/CyDMA.c ****     CYDMA_CH_CTL_BASE.ctl[channel] &= (uint32)~CYDMA_ENABLED;
 616              		.loc 1 578 0
 617 0006 0368     		ldr	r3, [r0]
 579:Generated_Source\PSoC4/CyDMA.c **** }
 618              		.loc 1 579 0
 619              		@ sp needed
 578:Generated_Source\PSoC4/CyDMA.c **** }
 620              		.loc 1 578 0
 621 0008 5B00     		lsl	r3, r3, #1
 622 000a 5B08     		lsr	r3, r3, #1
 623 000c 0360     		str	r3, [r0]
 624              		.loc 1 579 0
 625 000e 7047     		bx	lr
 626              	.L70:
 627              		.align	2
 628              	.L69:
 629 0010 80101040 		.word	1074794624
 630              		.cfi_endproc
 631              	.LFE20:
 632              		.size	CyDmaChDisable, .-CyDmaChDisable
 633              		.section	.text.CyDmaTrigger,"ax",%progbits
 634              		.align	1
 635              		.global	CyDmaTrigger
 636              		.code	16
 637              		.thumb_func
 638              		.type	CyDmaTrigger, %function
 639              	CyDmaTrigger:
 640              	.LFB21:
 580:Generated_Source\PSoC4/CyDMA.c **** 
 581:Generated_Source\PSoC4/CyDMA.c **** 
 582:Generated_Source\PSoC4/CyDMA.c **** /*******************************************************************************
 583:Generated_Source\PSoC4/CyDMA.c **** * Function Name: CyDmaTrigger
 584:Generated_Source\PSoC4/CyDMA.c **** ********************************************************************************
 585:Generated_Source\PSoC4/CyDMA.c **** *
 586:Generated_Source\PSoC4/CyDMA.c **** * Summary:
 587:Generated_Source\PSoC4/CyDMA.c **** *  Triggers the DMA channel, this is useful only for software triggers. This is
 588:Generated_Source\PSoC4/CyDMA.c **** *  not needed when hardware triggers are used.
 589:Generated_Source\PSoC4/CyDMA.c **** *
 590:Generated_Source\PSoC4/CyDMA.c **** * Parameters:
 591:Generated_Source\PSoC4/CyDMA.c **** *  channel: Channel used by this function.
 592:Generated_Source\PSoC4/CyDMA.c **** *                   
 593:Generated_Source\PSoC4/CyDMA.c **** * Return:
 594:Generated_Source\PSoC4/CyDMA.c **** *  None. 
 595:Generated_Source\PSoC4/CyDMA.c **** *
 596:Generated_Source\PSoC4/CyDMA.c **** *******************************************************************************/
ARM GAS  C:\Users\Jerry\AppData\Local\Temp\cc4H4eWK.s 			page 24


 597:Generated_Source\PSoC4/CyDMA.c **** void CyDmaTrigger(int32 channel)
 598:Generated_Source\PSoC4/CyDMA.c **** {
 641              		.loc 1 598 0
 642              		.cfi_startproc
 643              	.LVL32:
 599:Generated_Source\PSoC4/CyDMA.c ****     /* The LUT is device-dependent, thus it is generated during the build process. */
 600:Generated_Source\PSoC4/CyDMA.c ****     static const uint32 trCtlLut[] = {0xC0020000U};
 601:Generated_Source\PSoC4/CyDMA.c **** 
 602:Generated_Source\PSoC4/CyDMA.c ****     CYASSERT((channel >= 0) && (channel < CYDMA_CH_NR));
 603:Generated_Source\PSoC4/CyDMA.c **** 
 604:Generated_Source\PSoC4/CyDMA.c ****     CYDMA_TR_CTL_REG = trCtlLut[(uint32)channel >> CYDMA_TR_GROUP_SHR] | ((uint32)channel & CYDMA_T
 644              		.loc 1 604 0
 645 0000 0723     		mov	r3, #7
 646 0002 1840     		and	r0, r3
 647              	.LVL33:
 648 0004 024B     		ldr	r3, .L72
 605:Generated_Source\PSoC4/CyDMA.c **** }
 649              		.loc 1 605 0
 650              		@ sp needed
 604:Generated_Source\PSoC4/CyDMA.c **** }
 651              		.loc 1 604 0
 652 0006 1843     		orr	r0, r3
 653 0008 024B     		ldr	r3, .L72+4
 654 000a 1860     		str	r0, [r3]
 655              		.loc 1 605 0
 656 000c 7047     		bx	lr
 657              	.L73:
 658 000e C046     		.align	2
 659              	.L72:
 660 0010 000002C0 		.word	-1073610752
 661 0014 00060040 		.word	1073743360
 662              		.cfi_endproc
 663              	.LFE21:
 664              		.size	CyDmaTrigger, .-CyDmaTrigger
 665              		.section	.text.CyDmaSetPriority,"ax",%progbits
 666              		.align	1
 667              		.global	CyDmaSetPriority
 668              		.code	16
 669              		.thumb_func
 670              		.type	CyDmaSetPriority, %function
 671              	CyDmaSetPriority:
 672              	.LFB22:
 606:Generated_Source\PSoC4/CyDMA.c **** 
 607:Generated_Source\PSoC4/CyDMA.c **** 
 608:Generated_Source\PSoC4/CyDMA.c **** /*******************************************************************************
 609:Generated_Source\PSoC4/CyDMA.c **** * Function Name: CyDmaSetPriority
 610:Generated_Source\PSoC4/CyDMA.c **** ********************************************************************************
 611:Generated_Source\PSoC4/CyDMA.c **** *
 612:Generated_Source\PSoC4/CyDMA.c **** * Summary:
 613:Generated_Source\PSoC4/CyDMA.c **** *  Sets the priority for the channel.
 614:Generated_Source\PSoC4/CyDMA.c **** *
 615:Generated_Source\PSoC4/CyDMA.c **** * Parameters:
 616:Generated_Source\PSoC4/CyDMA.c **** *  channel:  Channel used by this function
 617:Generated_Source\PSoC4/CyDMA.c **** *  priority: Priority for channel. Priority can be 0,1,2, or 3.
 618:Generated_Source\PSoC4/CyDMA.c **** *            0 is the highest priority.
 619:Generated_Source\PSoC4/CyDMA.c **** *                   
 620:Generated_Source\PSoC4/CyDMA.c **** * Return:
ARM GAS  C:\Users\Jerry\AppData\Local\Temp\cc4H4eWK.s 			page 25


 621:Generated_Source\PSoC4/CyDMA.c **** *  None.
 622:Generated_Source\PSoC4/CyDMA.c **** *
 623:Generated_Source\PSoC4/CyDMA.c **** * Side effect:
 624:Generated_Source\PSoC4/CyDMA.c **** *  This function should not be called while the channel is enabled.
 625:Generated_Source\PSoC4/CyDMA.c **** *
 626:Generated_Source\PSoC4/CyDMA.c **** *******************************************************************************/
 627:Generated_Source\PSoC4/CyDMA.c **** void CyDmaSetPriority(int32 channel, int32 priority)
 628:Generated_Source\PSoC4/CyDMA.c **** {
 673              		.loc 1 628 0
 674              		.cfi_startproc
 675              	.LVL34:
 676 0000 044B     		ldr	r3, .L75
 677 0002 8000     		lsl	r0, r0, #2
 678              	.LVL35:
 679 0004 C018     		add	r0, r0, r3
 629:Generated_Source\PSoC4/CyDMA.c ****     uint32 regValue;
 630:Generated_Source\PSoC4/CyDMA.c **** 
 631:Generated_Source\PSoC4/CyDMA.c ****     CYASSERT((channel  >= 0) && (channel  <  CYDMA_CH_NR));
 632:Generated_Source\PSoC4/CyDMA.c ****     CYASSERT((priority >= 0) && (priority <= CY_DMA_MAX_PRIO));
 633:Generated_Source\PSoC4/CyDMA.c **** 
 634:Generated_Source\PSoC4/CyDMA.c ****     regValue = CYDMA_CH_CTL_BASE.ctl[channel] & (uint32)~CYDMA_PRIO;
 680              		.loc 1 634 0
 681 0006 0268     		ldr	r2, [r0]
 682              	.LVL36:
 683 0008 034B     		ldr	r3, .L75+4
 635:Generated_Source\PSoC4/CyDMA.c ****     CYDMA_CH_CTL_BASE.ctl[channel] = regValue | (uint32)((uint32)priority << CYDMA_PRIO_POS);
 684              		.loc 1 635 0
 685 000a 0907     		lsl	r1, r1, #28
 686              	.LVL37:
 634:Generated_Source\PSoC4/CyDMA.c ****     CYDMA_CH_CTL_BASE.ctl[channel] = regValue | (uint32)((uint32)priority << CYDMA_PRIO_POS);
 687              		.loc 1 634 0
 688 000c 1340     		and	r3, r2
 689              	.LVL38:
 690              		.loc 1 635 0
 691 000e 1943     		orr	r1, r3
 692 0010 0160     		str	r1, [r0]
 636:Generated_Source\PSoC4/CyDMA.c **** }
 693              		.loc 1 636 0
 694              		@ sp needed
 695 0012 7047     		bx	lr
 696              	.L76:
 697              		.align	2
 698              	.L75:
 699 0014 80101040 		.word	1074794624
 700 0018 FFFFFFCF 		.word	-805306369
 701              		.cfi_endproc
 702              	.LFE22:
 703              		.size	CyDmaSetPriority, .-CyDmaSetPriority
 704              		.section	.text.CyDmaGetPriority,"ax",%progbits
 705              		.align	1
 706              		.global	CyDmaGetPriority
 707              		.code	16
 708              		.thumb_func
 709              		.type	CyDmaGetPriority, %function
 710              	CyDmaGetPriority:
 711              	.LFB23:
 637:Generated_Source\PSoC4/CyDMA.c **** 
ARM GAS  C:\Users\Jerry\AppData\Local\Temp\cc4H4eWK.s 			page 26


 638:Generated_Source\PSoC4/CyDMA.c **** 
 639:Generated_Source\PSoC4/CyDMA.c **** /*******************************************************************************
 640:Generated_Source\PSoC4/CyDMA.c **** * Function Name: CyDmaGetPriority
 641:Generated_Source\PSoC4/CyDMA.c **** ********************************************************************************
 642:Generated_Source\PSoC4/CyDMA.c **** *
 643:Generated_Source\PSoC4/CyDMA.c **** * Summary:
 644:Generated_Source\PSoC4/CyDMA.c **** *  Gets the priority for the channel.
 645:Generated_Source\PSoC4/CyDMA.c **** *
 646:Generated_Source\PSoC4/CyDMA.c **** * Parameters:
 647:Generated_Source\PSoC4/CyDMA.c **** *  channel: Channel used by this function.
 648:Generated_Source\PSoC4/CyDMA.c **** *                   
 649:Generated_Source\PSoC4/CyDMA.c **** * Return:
 650:Generated_Source\PSoC4/CyDMA.c **** *  Priority for channel. Priority can be 0,1,2, or 3. 0 is the highest priority.
 651:Generated_Source\PSoC4/CyDMA.c **** *
 652:Generated_Source\PSoC4/CyDMA.c **** *******************************************************************************/
 653:Generated_Source\PSoC4/CyDMA.c **** int32 CyDmaGetPriority(int32 channel)
 654:Generated_Source\PSoC4/CyDMA.c **** {
 712              		.loc 1 654 0
 713              		.cfi_startproc
 714              	.LVL39:
 655:Generated_Source\PSoC4/CyDMA.c ****     uint32 priority;
 656:Generated_Source\PSoC4/CyDMA.c **** 
 657:Generated_Source\PSoC4/CyDMA.c ****     CYASSERT((channel >= 0) && (channel < CYDMA_CH_NR));
 658:Generated_Source\PSoC4/CyDMA.c **** 
 659:Generated_Source\PSoC4/CyDMA.c ****     priority = (CYDMA_CH_CTL_BASE.ctl[channel] & CYDMA_PRIO) >> CYDMA_PRIO_POS;
 715              		.loc 1 659 0
 716 0000 024B     		ldr	r3, .L78
 717 0002 8000     		lsl	r0, r0, #2
 718              	.LVL40:
 719 0004 C058     		ldr	r0, [r0, r3]
 720              	.LVL41:
 660:Generated_Source\PSoC4/CyDMA.c ****     return ((int32)priority);
 661:Generated_Source\PSoC4/CyDMA.c **** }
 721              		.loc 1 661 0
 722              		@ sp needed
 659:Generated_Source\PSoC4/CyDMA.c ****     return ((int32)priority);
 723              		.loc 1 659 0
 724 0006 8000     		lsl	r0, r0, #2
 725              	.LVL42:
 726 0008 800F     		lsr	r0, r0, #30
 727              		.loc 1 661 0
 728 000a 7047     		bx	lr
 729              	.L79:
 730              		.align	2
 731              	.L78:
 732 000c 80101040 		.word	1074794624
 733              		.cfi_endproc
 734              	.LFE23:
 735              		.size	CyDmaGetPriority, .-CyDmaGetPriority
 736              		.section	.text.CyDmaSetNextDescriptor,"ax",%progbits
 737              		.align	1
 738              		.global	CyDmaSetNextDescriptor
 739              		.code	16
 740              		.thumb_func
 741              		.type	CyDmaSetNextDescriptor, %function
 742              	CyDmaSetNextDescriptor:
 743              	.LFB24:
ARM GAS  C:\Users\Jerry\AppData\Local\Temp\cc4H4eWK.s 			page 27


 662:Generated_Source\PSoC4/CyDMA.c **** 
 663:Generated_Source\PSoC4/CyDMA.c **** 
 664:Generated_Source\PSoC4/CyDMA.c **** /*******************************************************************************
 665:Generated_Source\PSoC4/CyDMA.c **** * Function Name: CyDmaSetNextDescriptor
 666:Generated_Source\PSoC4/CyDMA.c **** ********************************************************************************
 667:Generated_Source\PSoC4/CyDMA.c **** *
 668:Generated_Source\PSoC4/CyDMA.c **** * Summary:
 669:Generated_Source\PSoC4/CyDMA.c **** *  Sets the descriptor that should be run the next time the channel is
 670:Generated_Source\PSoC4/CyDMA.c **** *  triggered.
 671:Generated_Source\PSoC4/CyDMA.c **** *
 672:Generated_Source\PSoC4/CyDMA.c **** * Parameters:
 673:Generated_Source\PSoC4/CyDMA.c **** *  channel:    Channel used by this function.
 674:Generated_Source\PSoC4/CyDMA.c **** *  descriptor: Next Descriptor to run (0 or 1).
 675:Generated_Source\PSoC4/CyDMA.c **** *
 676:Generated_Source\PSoC4/CyDMA.c **** * Return:
 677:Generated_Source\PSoC4/CyDMA.c **** *  None.
 678:Generated_Source\PSoC4/CyDMA.c **** *                   
 679:Generated_Source\PSoC4/CyDMA.c **** * Side effect:
 680:Generated_Source\PSoC4/CyDMA.c **** *  This function should not be called while the channel is enabled.
 681:Generated_Source\PSoC4/CyDMA.c **** *
 682:Generated_Source\PSoC4/CyDMA.c **** *******************************************************************************/
 683:Generated_Source\PSoC4/CyDMA.c **** void CyDmaSetNextDescriptor(int32 channel, int32 descriptor)
 684:Generated_Source\PSoC4/CyDMA.c **** {
 744              		.loc 1 684 0
 745              		.cfi_startproc
 746              	.LVL43:
 747 0000 044B     		ldr	r3, .L81
 748 0002 8000     		lsl	r0, r0, #2
 749              	.LVL44:
 750 0004 C018     		add	r0, r0, r3
 685:Generated_Source\PSoC4/CyDMA.c ****     uint32 regValue;
 686:Generated_Source\PSoC4/CyDMA.c **** 
 687:Generated_Source\PSoC4/CyDMA.c ****     CYASSERT((channel    >= 0) && (channel    < CYDMA_CH_NR));
 688:Generated_Source\PSoC4/CyDMA.c ****     CYASSERT((descriptor >= 0) && (descriptor < CYDMA_DESCR_NR));
 689:Generated_Source\PSoC4/CyDMA.c **** 
 690:Generated_Source\PSoC4/CyDMA.c ****     regValue = CYDMA_CH_CTL_BASE.ctl[channel] & (uint32)~CYDMA_DESCRIPTOR;
 751              		.loc 1 690 0
 752 0006 0268     		ldr	r2, [r0]
 753              	.LVL45:
 754 0008 034B     		ldr	r3, .L81+4
 691:Generated_Source\PSoC4/CyDMA.c ****     CYDMA_CH_CTL_BASE.ctl[channel] = regValue | (uint32)((uint32)descriptor << CYDMA_DESCRIPTOR_POS
 755              		.loc 1 691 0
 756 000a 8907     		lsl	r1, r1, #30
 757              	.LVL46:
 690:Generated_Source\PSoC4/CyDMA.c ****     CYDMA_CH_CTL_BASE.ctl[channel] = regValue | (uint32)((uint32)descriptor << CYDMA_DESCRIPTOR_POS
 758              		.loc 1 690 0
 759 000c 1340     		and	r3, r2
 760              	.LVL47:
 761              		.loc 1 691 0
 762 000e 1943     		orr	r1, r3
 763 0010 0160     		str	r1, [r0]
 692:Generated_Source\PSoC4/CyDMA.c **** }
 764              		.loc 1 692 0
 765              		@ sp needed
 766 0012 7047     		bx	lr
 767              	.L82:
 768              		.align	2
ARM GAS  C:\Users\Jerry\AppData\Local\Temp\cc4H4eWK.s 			page 28


 769              	.L81:
 770 0014 80101040 		.word	1074794624
 771 0018 FFFFFFBF 		.word	-1073741825
 772              		.cfi_endproc
 773              	.LFE24:
 774              		.size	CyDmaSetNextDescriptor, .-CyDmaSetNextDescriptor
 775              		.section	.text.CyDmaGetNextDescriptor,"ax",%progbits
 776              		.align	1
 777              		.global	CyDmaGetNextDescriptor
 778              		.code	16
 779              		.thumb_func
 780              		.type	CyDmaGetNextDescriptor, %function
 781              	CyDmaGetNextDescriptor:
 782              	.LFB25:
 693:Generated_Source\PSoC4/CyDMA.c **** 
 694:Generated_Source\PSoC4/CyDMA.c **** 
 695:Generated_Source\PSoC4/CyDMA.c **** /*******************************************************************************
 696:Generated_Source\PSoC4/CyDMA.c **** * Function Name: CyDmaGetNextDescriptor
 697:Generated_Source\PSoC4/CyDMA.c **** ********************************************************************************
 698:Generated_Source\PSoC4/CyDMA.c **** *
 699:Generated_Source\PSoC4/CyDMA.c **** * Summary:
 700:Generated_Source\PSoC4/CyDMA.c **** *  Returns the next descriptor that should be run, as set by 
 701:Generated_Source\PSoC4/CyDMA.c **** *  CyDmaSetNextDescriptor().
 702:Generated_Source\PSoC4/CyDMA.c **** *
 703:Generated_Source\PSoC4/CyDMA.c **** * Parameters:
 704:Generated_Source\PSoC4/CyDMA.c **** *  channel: channel used by this function.
 705:Generated_Source\PSoC4/CyDMA.c **** *                   
 706:Generated_Source\PSoC4/CyDMA.c **** * Return:
 707:Generated_Source\PSoC4/CyDMA.c **** *  Next Descriptor to run (0 or 1).
 708:Generated_Source\PSoC4/CyDMA.c **** *
 709:Generated_Source\PSoC4/CyDMA.c **** *******************************************************************************/
 710:Generated_Source\PSoC4/CyDMA.c **** int32 CyDmaGetNextDescriptor(int32 channel)
 711:Generated_Source\PSoC4/CyDMA.c **** {
 783              		.loc 1 711 0
 784              		.cfi_startproc
 785              	.LVL48:
 712:Generated_Source\PSoC4/CyDMA.c ****     uint32 nextDescriptor;
 713:Generated_Source\PSoC4/CyDMA.c **** 
 714:Generated_Source\PSoC4/CyDMA.c ****     CYASSERT((channel >= 0) && (channel < CYDMA_CH_NR));
 715:Generated_Source\PSoC4/CyDMA.c **** 
 716:Generated_Source\PSoC4/CyDMA.c ****     nextDescriptor = (CYDMA_CH_CTL_BASE.ctl[channel] & CYDMA_DESCRIPTOR) >> CYDMA_DESCRIPTOR_POS;
 786              		.loc 1 716 0
 787 0000 024B     		ldr	r3, .L84
 788 0002 8000     		lsl	r0, r0, #2
 789              	.LVL49:
 790 0004 C058     		ldr	r0, [r0, r3]
 791              	.LVL50:
 717:Generated_Source\PSoC4/CyDMA.c ****     return ((int32)nextDescriptor);
 718:Generated_Source\PSoC4/CyDMA.c **** }
 792              		.loc 1 718 0
 793              		@ sp needed
 716:Generated_Source\PSoC4/CyDMA.c ****     return ((int32)nextDescriptor);
 794              		.loc 1 716 0
 795 0006 4000     		lsl	r0, r0, #1
 796              	.LVL51:
 797 0008 C00F     		lsr	r0, r0, #31
 798              		.loc 1 718 0
ARM GAS  C:\Users\Jerry\AppData\Local\Temp\cc4H4eWK.s 			page 29


 799 000a 7047     		bx	lr
 800              	.L85:
 801              		.align	2
 802              	.L84:
 803 000c 80101040 		.word	1074794624
 804              		.cfi_endproc
 805              	.LFE25:
 806              		.size	CyDmaGetNextDescriptor, .-CyDmaGetNextDescriptor
 807              		.section	.text.CyDmaSetConfiguration,"ax",%progbits
 808              		.align	1
 809              		.global	CyDmaSetConfiguration
 810              		.code	16
 811              		.thumb_func
 812              		.type	CyDmaSetConfiguration, %function
 813              	CyDmaSetConfiguration:
 814              	.LFB26:
 719:Generated_Source\PSoC4/CyDMA.c **** 
 720:Generated_Source\PSoC4/CyDMA.c **** 
 721:Generated_Source\PSoC4/CyDMA.c **** /*******************************************************************************
 722:Generated_Source\PSoC4/CyDMA.c **** * Function Name: CyDmaSetConfiguration
 723:Generated_Source\PSoC4/CyDMA.c **** ********************************************************************************
 724:Generated_Source\PSoC4/CyDMA.c **** *
 725:Generated_Source\PSoC4/CyDMA.c **** * Summary:
 726:Generated_Source\PSoC4/CyDMA.c **** *  Sets configuration information for the specified descriptor.
 727:Generated_Source\PSoC4/CyDMA.c **** *
 728:Generated_Source\PSoC4/CyDMA.c **** * Parameters:
 729:Generated_Source\PSoC4/CyDMA.c **** *  channel:    DMA channel modified by this function.
 730:Generated_Source\PSoC4/CyDMA.c **** *  descriptor: Descriptor (0 or 1) modified by this function.
 731:Generated_Source\PSoC4/CyDMA.c **** *  config:     Pointer to a configuration structure. Refer to cydma_init_struct
 732:Generated_Source\PSoC4/CyDMA.c **** *              structure definition in CyDMA_P4.h and/or DMA channel datasheet
 733:Generated_Source\PSoC4/CyDMA.c **** *              for more information.
 734:Generated_Source\PSoC4/CyDMA.c **** *                   
 735:Generated_Source\PSoC4/CyDMA.c **** * Return:
 736:Generated_Source\PSoC4/CyDMA.c **** *  None.
 737:Generated_Source\PSoC4/CyDMA.c **** *
 738:Generated_Source\PSoC4/CyDMA.c **** * Side effect:
 739:Generated_Source\PSoC4/CyDMA.c **** *  The status register associated with the specified descriptor is reset to
 740:Generated_Source\PSoC4/CyDMA.c **** *  zero after this function call. This function also validates the descriptor.
 741:Generated_Source\PSoC4/CyDMA.c **** *  This function should not be called while the descriptor is active.
 742:Generated_Source\PSoC4/CyDMA.c **** *  This can be checked by calling CyDmaGetStatus().
 743:Generated_Source\PSoC4/CyDMA.c **** *
 744:Generated_Source\PSoC4/CyDMA.c **** *******************************************************************************/
 745:Generated_Source\PSoC4/CyDMA.c **** void CyDmaSetConfiguration(int32 channel, int32 descriptor, const cydma_init_struct * config)
 746:Generated_Source\PSoC4/CyDMA.c **** {  
 815              		.loc 1 746 0
 816              		.cfi_startproc
 817              	.LVL52:
 818 0000 10B5     		push	{r4, lr}
 819              		.cfi_def_cfa_offset 8
 820              		.cfi_offset 4, -8
 821              		.cfi_offset 14, -4
 822 0002 9368     		ldr	r3, [r2, #8]
 823 0004 1468     		ldr	r4, [r2]
 747:Generated_Source\PSoC4/CyDMA.c ****     CYASSERT((channel        >= 0) && (channel         < CYDMA_CH_NR));
 748:Generated_Source\PSoC4/CyDMA.c ****     CYASSERT((descriptor     >= 0) && (descriptor      < CYDMA_DESCR_NR));
 749:Generated_Source\PSoC4/CyDMA.c **** 
 750:Generated_Source\PSoC4/CyDMA.c ****     CYASSERT(0u == (config->dataElementSize     & (uint32)~CYDMA_DATA_SIZE));   
ARM GAS  C:\Users\Jerry\AppData\Local\Temp\cc4H4eWK.s 			page 30


 751:Generated_Source\PSoC4/CyDMA.c ****     CYASSERT((config->numDataElements > 0)     && (config->numDataElements <= CYDMA_MAX_DATA_NR));
 752:Generated_Source\PSoC4/CyDMA.c ****     CYASSERT(0u == (config->srcDstTransferWidth & (uint32)~CYDMA_TRANSFER_WIDTH));
 753:Generated_Source\PSoC4/CyDMA.c ****     CYASSERT(0u == (config->addressIncrement    & (uint32)~CYDMA_ADDR_INCR));
 754:Generated_Source\PSoC4/CyDMA.c ****     CYASSERT(0u == (config->triggerType         & (uint32)~CYDMA_TRIGGER_TYPE));
 755:Generated_Source\PSoC4/CyDMA.c ****     CYASSERT(0u == (config->transferMode        & (uint32)~CYDMA_TRANSFER_MODE));
 756:Generated_Source\PSoC4/CyDMA.c ****     CYASSERT(0u == (config->preemptable         & (uint32)~CYDMA_PREEMPTABLE));
 757:Generated_Source\PSoC4/CyDMA.c ****     CYASSERT(0u == (config->actions             & (uint32)~CYDMA_POST_COMPLETE_ACTIONS));
 758:Generated_Source\PSoC4/CyDMA.c ****     
 759:Generated_Source\PSoC4/CyDMA.c ****     CYDMA_DESCR_BASE.descriptor[channel][descriptor].ctl = config->dataElementSize     |
 824              		.loc 1 759 0
 825 0006 4000     		lsl	r0, r0, #1
 826              	.LVL53:
 827 0008 2343     		orr	r3, r4
 828 000a D468     		ldr	r4, [r2, #12]
 829 000c 4118     		add	r1, r0, r1
 830              	.LVL54:
 831 000e 2343     		orr	r3, r4
 832 0010 1469     		ldr	r4, [r2, #16]
 833 0012 0901     		lsl	r1, r1, #4
 834 0014 2343     		orr	r3, r4
 835 0016 5469     		ldr	r4, [r2, #20]
 836 0018 0848     		ldr	r0, .L87
 837 001a 2343     		orr	r3, r4
 838 001c 9469     		ldr	r4, [r2, #24]
 760:Generated_Source\PSoC4/CyDMA.c ****                                                   ((uint32)config->numDataElements-1u) |
 761:Generated_Source\PSoC4/CyDMA.c ****                                                            config->srcDstTransferWidth |
 762:Generated_Source\PSoC4/CyDMA.c ****                                                            config->addressIncrement    |
 763:Generated_Source\PSoC4/CyDMA.c ****                                                            config->triggerType         |
 764:Generated_Source\PSoC4/CyDMA.c ****                                                            config->transferMode        |
 765:Generated_Source\PSoC4/CyDMA.c ****                                                            config->preemptable         |
 766:Generated_Source\PSoC4/CyDMA.c ****                                                            config->actions;
 767:Generated_Source\PSoC4/CyDMA.c **** 
 768:Generated_Source\PSoC4/CyDMA.c ****     CYDMA_DESCR_BASE.descriptor[channel][descriptor].status = CYDMA_VALID;
 769:Generated_Source\PSoC4/CyDMA.c **** }
 839              		.loc 1 769 0
 840              		@ sp needed
 841 001e 2343     		orr	r3, r4
 842 0020 D469     		ldr	r4, [r2, #28]
 760:Generated_Source\PSoC4/CyDMA.c ****                                                   ((uint32)config->numDataElements-1u) |
 843              		.loc 1 760 0
 844 0022 5268     		ldr	r2, [r2, #4]
 845              	.LVL55:
 846 0024 2343     		orr	r3, r4
 847 0026 013A     		sub	r2, r2, #1
 765:Generated_Source\PSoC4/CyDMA.c ****                                                            config->actions;
 848              		.loc 1 765 0
 849 0028 1343     		orr	r3, r2
 759:Generated_Source\PSoC4/CyDMA.c ****                                                   ((uint32)config->numDataElements-1u) |
 850              		.loc 1 759 0
 851 002a 054A     		ldr	r2, .L87+4
 852 002c 8A18     		add	r2, r1, r2
 853 002e 9360     		str	r3, [r2, #8]
 768:Generated_Source\PSoC4/CyDMA.c **** }
 854              		.loc 1 768 0
 855 0030 8023     		mov	r3, #128
 759:Generated_Source\PSoC4/CyDMA.c ****                                                   ((uint32)config->numDataElements-1u) |
 856              		.loc 1 759 0
ARM GAS  C:\Users\Jerry\AppData\Local\Temp\cc4H4eWK.s 			page 31


 857 0032 0918     		add	r1, r1, r0
 768:Generated_Source\PSoC4/CyDMA.c **** }
 858              		.loc 1 768 0
 859 0034 1B06     		lsl	r3, r3, #24
 860 0036 4B60     		str	r3, [r1, #4]
 861              		.loc 1 769 0
 862 0038 10BD     		pop	{r4, pc}
 863              	.L88:
 864 003a C046     		.align	2
 865              	.L87:
 866 003c 08181040 		.word	1074796552
 867 0040 00181040 		.word	1074796544
 868              		.cfi_endproc
 869              	.LFE26:
 870              		.size	CyDmaSetConfiguration, .-CyDmaSetConfiguration
 871              		.section	.text.CyDmaValidateDescriptor,"ax",%progbits
 872              		.align	1
 873              		.global	CyDmaValidateDescriptor
 874              		.code	16
 875              		.thumb_func
 876              		.type	CyDmaValidateDescriptor, %function
 877              	CyDmaValidateDescriptor:
 878              	.LFB27:
 770:Generated_Source\PSoC4/CyDMA.c **** 
 771:Generated_Source\PSoC4/CyDMA.c **** 
 772:Generated_Source\PSoC4/CyDMA.c **** /*******************************************************************************
 773:Generated_Source\PSoC4/CyDMA.c **** * Function Name: CyDmaValidateDescriptor
 774:Generated_Source\PSoC4/CyDMA.c **** ********************************************************************************
 775:Generated_Source\PSoC4/CyDMA.c **** *
 776:Generated_Source\PSoC4/CyDMA.c **** * Summary:
 777:Generated_Source\PSoC4/CyDMA.c **** *  Validates the specified descriptor after it has been invalidated.
 778:Generated_Source\PSoC4/CyDMA.c **** *
 779:Generated_Source\PSoC4/CyDMA.c **** * Parameters:
 780:Generated_Source\PSoC4/CyDMA.c **** *  channel:    Channel used by this function.
 781:Generated_Source\PSoC4/CyDMA.c **** *  descriptor: Descriptor (0 or 1) modified by this function.
 782:Generated_Source\PSoC4/CyDMA.c **** *                   
 783:Generated_Source\PSoC4/CyDMA.c **** * Return:
 784:Generated_Source\PSoC4/CyDMA.c **** *  None. 
 785:Generated_Source\PSoC4/CyDMA.c **** *
 786:Generated_Source\PSoC4/CyDMA.c **** * Side effect:
 787:Generated_Source\PSoC4/CyDMA.c **** *  The status register associated with the specified descriptor is reset to
 788:Generated_Source\PSoC4/CyDMA.c **** *  zero after this function call.
 789:Generated_Source\PSoC4/CyDMA.c **** *  This function should not be called when the specified descriptor is active
 790:Generated_Source\PSoC4/CyDMA.c **** *  in the DMA transfer engine. This can be checked by calling CyDmaGetStatus().
 791:Generated_Source\PSoC4/CyDMA.c **** *
 792:Generated_Source\PSoC4/CyDMA.c **** *******************************************************************************/
 793:Generated_Source\PSoC4/CyDMA.c **** void CyDmaValidateDescriptor(int32 channel, int32 descriptor)
 794:Generated_Source\PSoC4/CyDMA.c **** {
 879              		.loc 1 794 0
 880              		.cfi_startproc
 881              	.LVL56:
 795:Generated_Source\PSoC4/CyDMA.c ****     CYASSERT((channel    >= 0) && (channel    < CYDMA_CH_NR));
 796:Generated_Source\PSoC4/CyDMA.c ****     CYASSERT((descriptor >= 0) && (descriptor < CYDMA_DESCR_NR));
 797:Generated_Source\PSoC4/CyDMA.c **** 
 798:Generated_Source\PSoC4/CyDMA.c ****     CYDMA_DESCR_BASE.descriptor[channel][descriptor].status = CYDMA_VALID;
 882              		.loc 1 798 0
 883 0000 4000     		lsl	r0, r0, #1
ARM GAS  C:\Users\Jerry\AppData\Local\Temp\cc4H4eWK.s 			page 32


 884              	.LVL57:
 885 0002 4118     		add	r1, r0, r1
 886              	.LVL58:
 887 0004 034B     		ldr	r3, .L90
 888 0006 0901     		lsl	r1, r1, #4
 889 0008 C918     		add	r1, r1, r3
 890 000a 8023     		mov	r3, #128
 891 000c 1B06     		lsl	r3, r3, #24
 892 000e 4B60     		str	r3, [r1, #4]
 799:Generated_Source\PSoC4/CyDMA.c **** }
 893              		.loc 1 799 0
 894              		@ sp needed
 895 0010 7047     		bx	lr
 896              	.L91:
 897 0012 C046     		.align	2
 898              	.L90:
 899 0014 08181040 		.word	1074796552
 900              		.cfi_endproc
 901              	.LFE27:
 902              		.size	CyDmaValidateDescriptor, .-CyDmaValidateDescriptor
 903              		.section	.text.CyDmaGetDescriptorStatus,"ax",%progbits
 904              		.align	1
 905              		.global	CyDmaGetDescriptorStatus
 906              		.code	16
 907              		.thumb_func
 908              		.type	CyDmaGetDescriptorStatus, %function
 909              	CyDmaGetDescriptorStatus:
 910              	.LFB28:
 800:Generated_Source\PSoC4/CyDMA.c **** 
 801:Generated_Source\PSoC4/CyDMA.c **** 
 802:Generated_Source\PSoC4/CyDMA.c **** /*******************************************************************************
 803:Generated_Source\PSoC4/CyDMA.c **** * Function Name: CyDmaGetDescriptorStatus
 804:Generated_Source\PSoC4/CyDMA.c **** ********************************************************************************
 805:Generated_Source\PSoC4/CyDMA.c **** *
 806:Generated_Source\PSoC4/CyDMA.c **** * Summary:
 807:Generated_Source\PSoC4/CyDMA.c **** *  Returns the status of the specified descriptor.
 808:Generated_Source\PSoC4/CyDMA.c **** *
 809:Generated_Source\PSoC4/CyDMA.c **** * Parameters:
 810:Generated_Source\PSoC4/CyDMA.c **** *  channel:    Channel used by this function.
 811:Generated_Source\PSoC4/CyDMA.c **** *  descriptor: Descriptor (0 or 1) modified by this function.
 812:Generated_Source\PSoC4/CyDMA.c **** *                   
 813:Generated_Source\PSoC4/CyDMA.c **** * Return:
 814:Generated_Source\PSoC4/CyDMA.c **** *  Returns the contents of the specified descriptors status register. Refer to 
 815:Generated_Source\PSoC4/CyDMA.c **** *  descriptor status register bit definitions in CyDMA_P4.h or the API
 816:Generated_Source\PSoC4/CyDMA.c **** *  description in the DMA channel datasheet for more information.
 817:Generated_Source\PSoC4/CyDMA.c **** *
 818:Generated_Source\PSoC4/CyDMA.c **** *******************************************************************************/
 819:Generated_Source\PSoC4/CyDMA.c **** uint32 CyDmaGetDescriptorStatus(int32 channel, int32 descriptor)
 820:Generated_Source\PSoC4/CyDMA.c **** {
 911              		.loc 1 820 0
 912              		.cfi_startproc
 913              	.LVL59:
 821:Generated_Source\PSoC4/CyDMA.c ****     CYASSERT((channel    >= 0) && (channel    < CYDMA_CH_NR));
 822:Generated_Source\PSoC4/CyDMA.c ****     CYASSERT((descriptor >= 0) && (descriptor < CYDMA_DESCR_NR));
 823:Generated_Source\PSoC4/CyDMA.c **** 
 824:Generated_Source\PSoC4/CyDMA.c ****     return (CYDMA_DESCR_BASE.descriptor[channel][descriptor].status);
 914              		.loc 1 824 0
ARM GAS  C:\Users\Jerry\AppData\Local\Temp\cc4H4eWK.s 			page 33


 915 0000 4000     		lsl	r0, r0, #1
 916              	.LVL60:
 917 0002 4118     		add	r1, r0, r1
 918              	.LVL61:
 919 0004 024B     		ldr	r3, .L93
 920 0006 0901     		lsl	r1, r1, #4
 921 0008 C918     		add	r1, r1, r3
 922 000a 4868     		ldr	r0, [r1, #4]
 825:Generated_Source\PSoC4/CyDMA.c **** }
 923              		.loc 1 825 0
 924              		@ sp needed
 925 000c 7047     		bx	lr
 926              	.L94:
 927 000e C046     		.align	2
 928              	.L93:
 929 0010 08181040 		.word	1074796552
 930              		.cfi_endproc
 931              	.LFE28:
 932              		.size	CyDmaGetDescriptorStatus, .-CyDmaGetDescriptorStatus
 933              		.section	.text.CyDmaSetSrcAddress,"ax",%progbits
 934              		.align	1
 935              		.global	CyDmaSetSrcAddress
 936              		.code	16
 937              		.thumb_func
 938              		.type	CyDmaSetSrcAddress, %function
 939              	CyDmaSetSrcAddress:
 940              	.LFB29:
 826:Generated_Source\PSoC4/CyDMA.c **** 
 827:Generated_Source\PSoC4/CyDMA.c **** 
 828:Generated_Source\PSoC4/CyDMA.c **** /*******************************************************************************
 829:Generated_Source\PSoC4/CyDMA.c **** * Function Name: CyDmaSetSrcAddress
 830:Generated_Source\PSoC4/CyDMA.c **** ********************************************************************************
 831:Generated_Source\PSoC4/CyDMA.c **** *
 832:Generated_Source\PSoC4/CyDMA.c **** * Summary:
 833:Generated_Source\PSoC4/CyDMA.c **** *  Configures the source address for the specified descriptor.
 834:Generated_Source\PSoC4/CyDMA.c **** *
 835:Generated_Source\PSoC4/CyDMA.c **** * Parameters:
 836:Generated_Source\PSoC4/CyDMA.c **** *  channel:    Channel used by this function.
 837:Generated_Source\PSoC4/CyDMA.c **** *  descriptor: Descriptor (0 or 1) modified by this function.
 838:Generated_Source\PSoC4/CyDMA.c **** *  srcAddress: Address of DMA transfer source.
 839:Generated_Source\PSoC4/CyDMA.c **** *                   
 840:Generated_Source\PSoC4/CyDMA.c **** * Return:
 841:Generated_Source\PSoC4/CyDMA.c **** *  None.
 842:Generated_Source\PSoC4/CyDMA.c **** *
 843:Generated_Source\PSoC4/CyDMA.c **** * Side effect:
 844:Generated_Source\PSoC4/CyDMA.c **** *  This function should not be called when the specified descriptor is active
 845:Generated_Source\PSoC4/CyDMA.c **** *  in the DMA transfer engine. This can be checked by calling CyDmaGetStatus(). 
 846:Generated_Source\PSoC4/CyDMA.c **** *
 847:Generated_Source\PSoC4/CyDMA.c **** *******************************************************************************/
 848:Generated_Source\PSoC4/CyDMA.c **** void CyDmaSetSrcAddress(int32 channel, int32 descriptor, void * srcAddress)
 849:Generated_Source\PSoC4/CyDMA.c **** {
 941              		.loc 1 849 0
 942              		.cfi_startproc
 943              	.LVL62:
 850:Generated_Source\PSoC4/CyDMA.c ****     CYASSERT((channel    >= 0) && (channel    < CYDMA_CH_NR));
 851:Generated_Source\PSoC4/CyDMA.c ****     CYASSERT((descriptor >= 0) && (descriptor < CYDMA_DESCR_NR));
 852:Generated_Source\PSoC4/CyDMA.c **** 
ARM GAS  C:\Users\Jerry\AppData\Local\Temp\cc4H4eWK.s 			page 34


 853:Generated_Source\PSoC4/CyDMA.c ****     CYDMA_DESCR_BASE.descriptor[channel][descriptor].src = srcAddress;
 944              		.loc 1 853 0
 945 0000 4000     		lsl	r0, r0, #1
 946              	.LVL63:
 947 0002 4118     		add	r1, r0, r1
 948              	.LVL64:
 949 0004 014B     		ldr	r3, .L96
 950 0006 0901     		lsl	r1, r1, #4
 951 0008 CA50     		str	r2, [r1, r3]
 854:Generated_Source\PSoC4/CyDMA.c **** }
 952              		.loc 1 854 0
 953              		@ sp needed
 954 000a 7047     		bx	lr
 955              	.L97:
 956              		.align	2
 957              	.L96:
 958 000c 00181040 		.word	1074796544
 959              		.cfi_endproc
 960              	.LFE29:
 961              		.size	CyDmaSetSrcAddress, .-CyDmaSetSrcAddress
 962              		.section	.text.CyDmaGetSrcAddress,"ax",%progbits
 963              		.align	1
 964              		.global	CyDmaGetSrcAddress
 965              		.code	16
 966              		.thumb_func
 967              		.type	CyDmaGetSrcAddress, %function
 968              	CyDmaGetSrcAddress:
 969              	.LFB30:
 855:Generated_Source\PSoC4/CyDMA.c **** 
 856:Generated_Source\PSoC4/CyDMA.c **** 
 857:Generated_Source\PSoC4/CyDMA.c **** /*******************************************************************************
 858:Generated_Source\PSoC4/CyDMA.c **** * Function Name: CyDmaGetSrcAddress
 859:Generated_Source\PSoC4/CyDMA.c **** ********************************************************************************
 860:Generated_Source\PSoC4/CyDMA.c **** *
 861:Generated_Source\PSoC4/CyDMA.c **** * Summary:
 862:Generated_Source\PSoC4/CyDMA.c **** *  Returns the source address for the specified descriptor, set by 
 863:Generated_Source\PSoC4/CyDMA.c **** *  CyDmaSetSrcAddress().
 864:Generated_Source\PSoC4/CyDMA.c **** *
 865:Generated_Source\PSoC4/CyDMA.c **** * Parameters:
 866:Generated_Source\PSoC4/CyDMA.c **** *  channel:    Channel used by this function.
 867:Generated_Source\PSoC4/CyDMA.c **** *  descriptor: Specifies descriptor (0 or 1) used by this function.
 868:Generated_Source\PSoC4/CyDMA.c **** *                   
 869:Generated_Source\PSoC4/CyDMA.c **** * Return:
 870:Generated_Source\PSoC4/CyDMA.c **** *  Source address written to specified descriptor.
 871:Generated_Source\PSoC4/CyDMA.c **** *
 872:Generated_Source\PSoC4/CyDMA.c **** *******************************************************************************/
 873:Generated_Source\PSoC4/CyDMA.c **** void * CyDmaGetSrcAddress(int32 channel, int32 descriptor)
 874:Generated_Source\PSoC4/CyDMA.c **** {
 970              		.loc 1 874 0
 971              		.cfi_startproc
 972              	.LVL65:
 875:Generated_Source\PSoC4/CyDMA.c ****     CYASSERT((channel    >= 0) && (channel    < CYDMA_CH_NR));
 876:Generated_Source\PSoC4/CyDMA.c ****     CYASSERT((descriptor >= 0) && (descriptor < CYDMA_DESCR_NR));
 877:Generated_Source\PSoC4/CyDMA.c **** 
 878:Generated_Source\PSoC4/CyDMA.c ****     return (CYDMA_DESCR_BASE.descriptor[channel][descriptor].src);
 973              		.loc 1 878 0
 974 0000 4000     		lsl	r0, r0, #1
ARM GAS  C:\Users\Jerry\AppData\Local\Temp\cc4H4eWK.s 			page 35


 975              	.LVL66:
 976 0002 4118     		add	r1, r0, r1
 977              	.LVL67:
 978 0004 014B     		ldr	r3, .L99
 979 0006 0901     		lsl	r1, r1, #4
 980 0008 C858     		ldr	r0, [r1, r3]
 879:Generated_Source\PSoC4/CyDMA.c **** }
 981              		.loc 1 879 0
 982              		@ sp needed
 983 000a 7047     		bx	lr
 984              	.L100:
 985              		.align	2
 986              	.L99:
 987 000c 00181040 		.word	1074796544
 988              		.cfi_endproc
 989              	.LFE30:
 990              		.size	CyDmaGetSrcAddress, .-CyDmaGetSrcAddress
 991              		.section	.text.CyDmaSetDstAddress,"ax",%progbits
 992              		.align	1
 993              		.global	CyDmaSetDstAddress
 994              		.code	16
 995              		.thumb_func
 996              		.type	CyDmaSetDstAddress, %function
 997              	CyDmaSetDstAddress:
 998              	.LFB31:
 880:Generated_Source\PSoC4/CyDMA.c **** 
 881:Generated_Source\PSoC4/CyDMA.c **** 
 882:Generated_Source\PSoC4/CyDMA.c **** /*******************************************************************************
 883:Generated_Source\PSoC4/CyDMA.c **** * Function Name: CyDmaSetDstAddress
 884:Generated_Source\PSoC4/CyDMA.c **** ********************************************************************************
 885:Generated_Source\PSoC4/CyDMA.c **** *
 886:Generated_Source\PSoC4/CyDMA.c **** * Summary:
 887:Generated_Source\PSoC4/CyDMA.c **** *  Configures the destination address for the specified descriptor.
 888:Generated_Source\PSoC4/CyDMA.c **** *
 889:Generated_Source\PSoC4/CyDMA.c **** * Parameters:
 890:Generated_Source\PSoC4/CyDMA.c **** *  channel:    Channel used by this function.
 891:Generated_Source\PSoC4/CyDMA.c **** *  descriptor: Descriptor (0 or 1) modified by this function.
 892:Generated_Source\PSoC4/CyDMA.c **** *  dstAddress: Address of DMA transfer destination.
 893:Generated_Source\PSoC4/CyDMA.c **** *                   
 894:Generated_Source\PSoC4/CyDMA.c **** * Return:
 895:Generated_Source\PSoC4/CyDMA.c **** *  None.
 896:Generated_Source\PSoC4/CyDMA.c **** *
 897:Generated_Source\PSoC4/CyDMA.c **** * Side effect:
 898:Generated_Source\PSoC4/CyDMA.c **** *  This function should not be called when the specified descriptor is active
 899:Generated_Source\PSoC4/CyDMA.c **** *  in the DMA transfer engine. This can be checked by calling CyDmaGetStatus(). 
 900:Generated_Source\PSoC4/CyDMA.c **** *
 901:Generated_Source\PSoC4/CyDMA.c **** *******************************************************************************/
 902:Generated_Source\PSoC4/CyDMA.c **** void CyDmaSetDstAddress(int32 channel, int32 descriptor, void * dstAddress)
 903:Generated_Source\PSoC4/CyDMA.c **** {
 999              		.loc 1 903 0
 1000              		.cfi_startproc
 1001              	.LVL68:
 904:Generated_Source\PSoC4/CyDMA.c ****     CYASSERT((channel    >= 0) && (channel    < CYDMA_CH_NR));
 905:Generated_Source\PSoC4/CyDMA.c ****     CYASSERT((descriptor >= 0) && (descriptor < CYDMA_DESCR_NR));
 906:Generated_Source\PSoC4/CyDMA.c **** 
 907:Generated_Source\PSoC4/CyDMA.c ****     CYDMA_DESCR_BASE.descriptor[channel][descriptor].dst = dstAddress;
 1002              		.loc 1 907 0
ARM GAS  C:\Users\Jerry\AppData\Local\Temp\cc4H4eWK.s 			page 36


 1003 0000 4000     		lsl	r0, r0, #1
 1004              	.LVL69:
 1005 0002 4118     		add	r1, r0, r1
 1006              	.LVL70:
 1007 0004 024B     		ldr	r3, .L102
 1008 0006 0901     		lsl	r1, r1, #4
 1009 0008 C918     		add	r1, r1, r3
 1010 000a 4A60     		str	r2, [r1, #4]
 908:Generated_Source\PSoC4/CyDMA.c **** }
 1011              		.loc 1 908 0
 1012              		@ sp needed
 1013 000c 7047     		bx	lr
 1014              	.L103:
 1015 000e C046     		.align	2
 1016              	.L102:
 1017 0010 00181040 		.word	1074796544
 1018              		.cfi_endproc
 1019              	.LFE31:
 1020              		.size	CyDmaSetDstAddress, .-CyDmaSetDstAddress
 1021              		.section	.text.CyDmaGetDstAddress,"ax",%progbits
 1022              		.align	1
 1023              		.global	CyDmaGetDstAddress
 1024              		.code	16
 1025              		.thumb_func
 1026              		.type	CyDmaGetDstAddress, %function
 1027              	CyDmaGetDstAddress:
 1028              	.LFB32:
 909:Generated_Source\PSoC4/CyDMA.c **** 
 910:Generated_Source\PSoC4/CyDMA.c **** 
 911:Generated_Source\PSoC4/CyDMA.c **** /*******************************************************************************
 912:Generated_Source\PSoC4/CyDMA.c **** * Function Name: CyDmaGetDstAddress
 913:Generated_Source\PSoC4/CyDMA.c **** ********************************************************************************
 914:Generated_Source\PSoC4/CyDMA.c **** *
 915:Generated_Source\PSoC4/CyDMA.c **** * Summary:
 916:Generated_Source\PSoC4/CyDMA.c **** *  Returns the destination address for the specified descriptor, set by 
 917:Generated_Source\PSoC4/CyDMA.c **** *  CyDmaSetDstAddress().
 918:Generated_Source\PSoC4/CyDMA.c **** *
 919:Generated_Source\PSoC4/CyDMA.c **** * Parameters:
 920:Generated_Source\PSoC4/CyDMA.c **** *  channel:    Channel used by this function.
 921:Generated_Source\PSoC4/CyDMA.c **** *  descriptor: Specifies descriptor (0 or 1) used by this function.
 922:Generated_Source\PSoC4/CyDMA.c **** *                   
 923:Generated_Source\PSoC4/CyDMA.c **** * Return:
 924:Generated_Source\PSoC4/CyDMA.c **** *  Destination address written to specified descriptor.
 925:Generated_Source\PSoC4/CyDMA.c **** *
 926:Generated_Source\PSoC4/CyDMA.c **** *******************************************************************************/
 927:Generated_Source\PSoC4/CyDMA.c **** void * CyDmaGetDstAddress(int32 channel, int32 descriptor)
 928:Generated_Source\PSoC4/CyDMA.c **** {
 1029              		.loc 1 928 0
 1030              		.cfi_startproc
 1031              	.LVL71:
 929:Generated_Source\PSoC4/CyDMA.c ****     CYASSERT((channel    >= 0) && (channel    < CYDMA_CH_NR));
 930:Generated_Source\PSoC4/CyDMA.c ****     CYASSERT((descriptor >= 0) && (descriptor < CYDMA_DESCR_NR));
 931:Generated_Source\PSoC4/CyDMA.c **** 
 932:Generated_Source\PSoC4/CyDMA.c ****     return (CYDMA_DESCR_BASE.descriptor[channel][descriptor].dst);
 1032              		.loc 1 932 0
 1033 0000 4000     		lsl	r0, r0, #1
 1034              	.LVL72:
ARM GAS  C:\Users\Jerry\AppData\Local\Temp\cc4H4eWK.s 			page 37


 1035 0002 4118     		add	r1, r0, r1
 1036              	.LVL73:
 1037 0004 024B     		ldr	r3, .L105
 1038 0006 0901     		lsl	r1, r1, #4
 1039 0008 C918     		add	r1, r1, r3
 1040 000a 4868     		ldr	r0, [r1, #4]
 933:Generated_Source\PSoC4/CyDMA.c **** }
 1041              		.loc 1 933 0
 1042              		@ sp needed
 1043 000c 7047     		bx	lr
 1044              	.L106:
 1045 000e C046     		.align	2
 1046              	.L105:
 1047 0010 00181040 		.word	1074796544
 1048              		.cfi_endproc
 1049              	.LFE32:
 1050              		.size	CyDmaGetDstAddress, .-CyDmaGetDstAddress
 1051              		.section	.text.CyDmaSetDataElementSize,"ax",%progbits
 1052              		.align	1
 1053              		.global	CyDmaSetDataElementSize
 1054              		.code	16
 1055              		.thumb_func
 1056              		.type	CyDmaSetDataElementSize, %function
 1057              	CyDmaSetDataElementSize:
 1058              	.LFB33:
 934:Generated_Source\PSoC4/CyDMA.c **** 
 935:Generated_Source\PSoC4/CyDMA.c **** /*******************************************************************************
 936:Generated_Source\PSoC4/CyDMA.c **** * Function Name: CyDmaSetDataElementSize
 937:Generated_Source\PSoC4/CyDMA.c **** ********************************************************************************
 938:Generated_Source\PSoC4/CyDMA.c **** *
 939:Generated_Source\PSoC4/CyDMA.c **** * Summary:
 940:Generated_Source\PSoC4/CyDMA.c **** *  Sets the data element size for the specified descriptor.
 941:Generated_Source\PSoC4/CyDMA.c **** *
 942:Generated_Source\PSoC4/CyDMA.c **** * Parameters:
 943:Generated_Source\PSoC4/CyDMA.c **** *  channel:         Channel used by this function.
 944:Generated_Source\PSoC4/CyDMA.c **** *  descriptor:      Descriptor (0 or 1) modified by this function.
 945:Generated_Source\PSoC4/CyDMA.c **** *  dataElementSize: Specifies the size of the data element. The DMA transfer
 946:Generated_Source\PSoC4/CyDMA.c **** *                   engine transfers one data element at a time. How these
 947:Generated_Source\PSoC4/CyDMA.c **** *                   transfers occur is controlled by the transfer mode.
 948:Generated_Source\PSoC4/CyDMA.c **** *                   Refer to the API bit field definitions in CyDMA_P4.h
 949:Generated_Source\PSoC4/CyDMA.c **** *                   or API description in the DMA channel datasheet for the 
 950:Generated_Source\PSoC4/CyDMA.c **** *                   parameter options.
 951:Generated_Source\PSoC4/CyDMA.c **** *
 952:Generated_Source\PSoC4/CyDMA.c **** * Return:
 953:Generated_Source\PSoC4/CyDMA.c **** *  None.
 954:Generated_Source\PSoC4/CyDMA.c **** *
 955:Generated_Source\PSoC4/CyDMA.c **** * Side effect:
 956:Generated_Source\PSoC4/CyDMA.c **** *  This function should not be called when the specified descriptor is active
 957:Generated_Source\PSoC4/CyDMA.c **** *  in the DMA transfer engine. This can be checked by calling CyDmaGetStatus(). 
 958:Generated_Source\PSoC4/CyDMA.c **** *
 959:Generated_Source\PSoC4/CyDMA.c **** *******************************************************************************/
 960:Generated_Source\PSoC4/CyDMA.c **** void CyDmaSetDataElementSize(int32 channel, int32 descriptor, uint32 dataElementSize)
 961:Generated_Source\PSoC4/CyDMA.c **** {
 1059              		.loc 1 961 0
 1060              		.cfi_startproc
 1061              	.LVL74:
 962:Generated_Source\PSoC4/CyDMA.c ****     uint32 regValue;
ARM GAS  C:\Users\Jerry\AppData\Local\Temp\cc4H4eWK.s 			page 38


 963:Generated_Source\PSoC4/CyDMA.c ****     
 964:Generated_Source\PSoC4/CyDMA.c ****     CYASSERT((channel    >= 0) && (channel    < CYDMA_CH_NR));
 965:Generated_Source\PSoC4/CyDMA.c ****     CYASSERT((descriptor >= 0) && (descriptor < CYDMA_DESCR_NR));
 966:Generated_Source\PSoC4/CyDMA.c ****     CYASSERT(0u == (dataElementSize & (uint32)~CYDMA_DATA_SIZE));
 967:Generated_Source\PSoC4/CyDMA.c **** 
 968:Generated_Source\PSoC4/CyDMA.c ****     regValue = CYDMA_DESCR_BASE.descriptor[channel][descriptor].ctl & (uint32)~CYDMA_DATA_SIZE;
 1062              		.loc 1 968 0
 1063 0000 4000     		lsl	r0, r0, #1
 1064              	.LVL75:
 1065 0002 4118     		add	r1, r0, r1
 1066              	.LVL76:
 1067 0004 044B     		ldr	r3, .L108
 1068 0006 0901     		lsl	r1, r1, #4
 1069 0008 C918     		add	r1, r1, r3
 1070 000a 8868     		ldr	r0, [r1, #8]
 1071              	.LVL77:
 1072 000c 034B     		ldr	r3, .L108+4
 969:Generated_Source\PSoC4/CyDMA.c ****     CYDMA_DESCR_BASE.descriptor[channel][descriptor].ctl = regValue | dataElementSize;
 970:Generated_Source\PSoC4/CyDMA.c **** }
 1073              		.loc 1 970 0
 1074              		@ sp needed
 968:Generated_Source\PSoC4/CyDMA.c ****     CYDMA_DESCR_BASE.descriptor[channel][descriptor].ctl = regValue | dataElementSize;
 1075              		.loc 1 968 0
 1076 000e 0340     		and	r3, r0
 1077              	.LVL78:
 969:Generated_Source\PSoC4/CyDMA.c ****     CYDMA_DESCR_BASE.descriptor[channel][descriptor].ctl = regValue | dataElementSize;
 1078              		.loc 1 969 0
 1079 0010 1A43     		orr	r2, r3
 1080              	.LVL79:
 1081 0012 8A60     		str	r2, [r1, #8]
 1082              		.loc 1 970 0
 1083 0014 7047     		bx	lr
 1084              	.L109:
 1085 0016 C046     		.align	2
 1086              	.L108:
 1087 0018 00181040 		.word	1074796544
 1088 001c FFFFFCFF 		.word	-196609
 1089              		.cfi_endproc
 1090              	.LFE33:
 1091              		.size	CyDmaSetDataElementSize, .-CyDmaSetDataElementSize
 1092              		.section	.text.CyDmaGetDataElementSize,"ax",%progbits
 1093              		.align	1
 1094              		.global	CyDmaGetDataElementSize
 1095              		.code	16
 1096              		.thumb_func
 1097              		.type	CyDmaGetDataElementSize, %function
 1098              	CyDmaGetDataElementSize:
 1099              	.LFB34:
 971:Generated_Source\PSoC4/CyDMA.c **** 
 972:Generated_Source\PSoC4/CyDMA.c **** 
 973:Generated_Source\PSoC4/CyDMA.c **** /*******************************************************************************
 974:Generated_Source\PSoC4/CyDMA.c **** * Function Name: CyDmaGetDataElementSize
 975:Generated_Source\PSoC4/CyDMA.c **** ********************************************************************************
 976:Generated_Source\PSoC4/CyDMA.c **** *
 977:Generated_Source\PSoC4/CyDMA.c **** * Summary:
 978:Generated_Source\PSoC4/CyDMA.c **** *  Returns the data element size configured for the specified descriptor, set by
 979:Generated_Source\PSoC4/CyDMA.c **** *  CyDmaSetDataElementSize() or CyDmaSetConfiguration.
ARM GAS  C:\Users\Jerry\AppData\Local\Temp\cc4H4eWK.s 			page 39


 980:Generated_Source\PSoC4/CyDMA.c **** *
 981:Generated_Source\PSoC4/CyDMA.c **** * Parameters:
 982:Generated_Source\PSoC4/CyDMA.c **** *  channel:    Channel used by this function.
 983:Generated_Source\PSoC4/CyDMA.c **** *  descriptor: Descriptor (0 or 1) modified by this function.
 984:Generated_Source\PSoC4/CyDMA.c **** *                   
 985:Generated_Source\PSoC4/CyDMA.c **** * Return:
 986:Generated_Source\PSoC4/CyDMA.c **** *  The size of the data element. The DMA transfer engine transfers one data
 987:Generated_Source\PSoC4/CyDMA.c **** *  element at a time. How these transfers occur is controlled by the transfer
 988:Generated_Source\PSoC4/CyDMA.c **** *  mode. Refer to the API bit field definitions in CyDMA_P4.h or the API 
 989:Generated_Source\PSoC4/CyDMA.c **** *  description in the DMA channel datasheet for more information.
 990:Generated_Source\PSoC4/CyDMA.c **** *
 991:Generated_Source\PSoC4/CyDMA.c **** * Note:
 992:Generated_Source\PSoC4/CyDMA.c **** *  The size of the source and destination can be configured to use the
 993:Generated_Source\PSoC4/CyDMA.c **** *  data element size, or a Word, this is set in CyDmaSetSrcDstTransferWidth().
 994:Generated_Source\PSoC4/CyDMA.c **** *
 995:Generated_Source\PSoC4/CyDMA.c **** *******************************************************************************/
 996:Generated_Source\PSoC4/CyDMA.c **** uint32 CyDmaGetDataElementSize(int32 channel, int32 descriptor)
 997:Generated_Source\PSoC4/CyDMA.c **** {
 1100              		.loc 1 997 0
 1101              		.cfi_startproc
 1102              	.LVL80:
 998:Generated_Source\PSoC4/CyDMA.c ****     CYASSERT((channel    >= 0) && (channel    < CYDMA_CH_NR));
 999:Generated_Source\PSoC4/CyDMA.c ****     CYASSERT((descriptor >= 0) && (descriptor < CYDMA_DESCR_NR));
1000:Generated_Source\PSoC4/CyDMA.c **** 
1001:Generated_Source\PSoC4/CyDMA.c ****     return (CYDMA_DESCR_BASE.descriptor[channel][descriptor].ctl & CYDMA_DATA_SIZE);
 1103              		.loc 1 1001 0
 1104 0000 4000     		lsl	r0, r0, #1
 1105              	.LVL81:
 1106 0002 4118     		add	r1, r0, r1
 1107              	.LVL82:
 1108 0004 034B     		ldr	r3, .L111
 1109 0006 0901     		lsl	r1, r1, #4
 1110 0008 C918     		add	r1, r1, r3
 1111 000a C023     		mov	r3, #192
 1112 000c 8868     		ldr	r0, [r1, #8]
 1113 000e 9B02     		lsl	r3, r3, #10
 1114 0010 1840     		and	r0, r3
1002:Generated_Source\PSoC4/CyDMA.c **** }
 1115              		.loc 1 1002 0
 1116              		@ sp needed
 1117 0012 7047     		bx	lr
 1118              	.L112:
 1119              		.align	2
 1120              	.L111:
 1121 0014 00181040 		.word	1074796544
 1122              		.cfi_endproc
 1123              	.LFE34:
 1124              		.size	CyDmaGetDataElementSize, .-CyDmaGetDataElementSize
 1125              		.section	.text.CyDmaSetNumDataElements,"ax",%progbits
 1126              		.align	1
 1127              		.global	CyDmaSetNumDataElements
 1128              		.code	16
 1129              		.thumb_func
 1130              		.type	CyDmaSetNumDataElements, %function
 1131              	CyDmaSetNumDataElements:
 1132              	.LFB35:
1003:Generated_Source\PSoC4/CyDMA.c **** 
ARM GAS  C:\Users\Jerry\AppData\Local\Temp\cc4H4eWK.s 			page 40


1004:Generated_Source\PSoC4/CyDMA.c **** 
1005:Generated_Source\PSoC4/CyDMA.c **** /*******************************************************************************
1006:Generated_Source\PSoC4/CyDMA.c **** * Function Name: CyDmaSetNumDataElements
1007:Generated_Source\PSoC4/CyDMA.c **** ********************************************************************************
1008:Generated_Source\PSoC4/CyDMA.c **** *
1009:Generated_Source\PSoC4/CyDMA.c **** * Summary:
1010:Generated_Source\PSoC4/CyDMA.c **** *  Sets the number of data elements to transfer for specified descriptor.
1011:Generated_Source\PSoC4/CyDMA.c **** *
1012:Generated_Source\PSoC4/CyDMA.c **** * Parameters:
1013:Generated_Source\PSoC4/CyDMA.c **** *  channel:         Channel used by this function.
1014:Generated_Source\PSoC4/CyDMA.c **** *  descriptor:      Descriptor (0 or 1) modified by this function.
1015:Generated_Source\PSoC4/CyDMA.c **** *  numDataElements: Total number of data elements this descriptor transfers.
1016:Generated_Source\PSoC4/CyDMA.c **** *                   Valid ranges are 1 to 65536.
1017:Generated_Source\PSoC4/CyDMA.c **** *                   
1018:Generated_Source\PSoC4/CyDMA.c **** * Return:
1019:Generated_Source\PSoC4/CyDMA.c **** *  None.
1020:Generated_Source\PSoC4/CyDMA.c **** *
1021:Generated_Source\PSoC4/CyDMA.c **** * Side effect:
1022:Generated_Source\PSoC4/CyDMA.c **** *  This function should not be called when the specified descriptor is active
1023:Generated_Source\PSoC4/CyDMA.c **** *  in the DMA transfer engine. This can be checked by calling CyDmaGetStatus(). 
1024:Generated_Source\PSoC4/CyDMA.c **** *
1025:Generated_Source\PSoC4/CyDMA.c **** *******************************************************************************/
1026:Generated_Source\PSoC4/CyDMA.c **** void CyDmaSetNumDataElements(int32 channel, int32 descriptor, int32 numDataElements)
1027:Generated_Source\PSoC4/CyDMA.c **** {
 1133              		.loc 1 1027 0
 1134              		.cfi_startproc
 1135              	.LVL83:
1028:Generated_Source\PSoC4/CyDMA.c ****     uint32 regValue;
1029:Generated_Source\PSoC4/CyDMA.c ****     
1030:Generated_Source\PSoC4/CyDMA.c ****     CYASSERT((channel        >= 0) && (channel         <  CYDMA_CH_NR));
1031:Generated_Source\PSoC4/CyDMA.c ****     CYASSERT((descriptor     >= 0) && (descriptor      <  CYDMA_DESCR_NR));
1032:Generated_Source\PSoC4/CyDMA.c ****     CYASSERT((numDataElements > 0) && (numDataElements <= CYDMA_MAX_DATA_NR));
1033:Generated_Source\PSoC4/CyDMA.c ****     
1034:Generated_Source\PSoC4/CyDMA.c ****     --numDataElements;
1035:Generated_Source\PSoC4/CyDMA.c ****     regValue = CYDMA_DESCR_BASE.descriptor[channel][descriptor].ctl & (uint32)~CYDMA_DATA_NR;
 1136              		.loc 1 1035 0
 1137 0000 4000     		lsl	r0, r0, #1
 1138              	.LVL84:
 1139 0002 4118     		add	r1, r0, r1
 1140              	.LVL85:
 1141 0004 044B     		ldr	r3, .L114
 1142 0006 0901     		lsl	r1, r1, #4
 1143 0008 C918     		add	r1, r1, r3
 1144 000a 8B68     		ldr	r3, [r1, #8]
 1145              	.LVL86:
1034:Generated_Source\PSoC4/CyDMA.c ****     regValue = CYDMA_DESCR_BASE.descriptor[channel][descriptor].ctl & (uint32)~CYDMA_DATA_NR;
 1146              		.loc 1 1034 0
 1147 000c 013A     		sub	r2, r2, #1
 1148              	.LVL87:
 1149              		.loc 1 1035 0
 1150 000e 1B0C     		lsr	r3, r3, #16
 1151              	.LVL88:
 1152 0010 1B04     		lsl	r3, r3, #16
1036:Generated_Source\PSoC4/CyDMA.c ****     CYDMA_DESCR_BASE.descriptor[channel][descriptor].ctl = regValue | (uint32)numDataElements;
 1153              		.loc 1 1036 0
 1154 0012 1A43     		orr	r2, r3
 1155              	.LVL89:
ARM GAS  C:\Users\Jerry\AppData\Local\Temp\cc4H4eWK.s 			page 41


 1156 0014 8A60     		str	r2, [r1, #8]
1037:Generated_Source\PSoC4/CyDMA.c **** }
 1157              		.loc 1 1037 0
 1158              		@ sp needed
 1159 0016 7047     		bx	lr
 1160              	.L115:
 1161              		.align	2
 1162              	.L114:
 1163 0018 00181040 		.word	1074796544
 1164              		.cfi_endproc
 1165              	.LFE35:
 1166              		.size	CyDmaSetNumDataElements, .-CyDmaSetNumDataElements
 1167              		.section	.text.CyDmaGetNumDataElements,"ax",%progbits
 1168              		.align	1
 1169              		.global	CyDmaGetNumDataElements
 1170              		.code	16
 1171              		.thumb_func
 1172              		.type	CyDmaGetNumDataElements, %function
 1173              	CyDmaGetNumDataElements:
 1174              	.LFB36:
1038:Generated_Source\PSoC4/CyDMA.c **** 
1039:Generated_Source\PSoC4/CyDMA.c **** 
1040:Generated_Source\PSoC4/CyDMA.c **** /*******************************************************************************
1041:Generated_Source\PSoC4/CyDMA.c **** * Function Name: CyDmaGetNumDataElements
1042:Generated_Source\PSoC4/CyDMA.c **** ********************************************************************************
1043:Generated_Source\PSoC4/CyDMA.c **** *
1044:Generated_Source\PSoC4/CyDMA.c **** * Summary:
1045:Generated_Source\PSoC4/CyDMA.c **** *  Returns the number of data elements to be transferred. Only reflects the
1046:Generated_Source\PSoC4/CyDMA.c **** *  value written by CyDmaSetNumDataElements() or CyDmaSetConfiguration(). This
1047:Generated_Source\PSoC4/CyDMA.c **** *  does not reflect how many elements have been transferred. For that
1048:Generated_Source\PSoC4/CyDMA.c **** *  information use the CyDmaGetDescriptorStatus() function.
1049:Generated_Source\PSoC4/CyDMA.c **** *
1050:Generated_Source\PSoC4/CyDMA.c **** * Parameters:
1051:Generated_Source\PSoC4/CyDMA.c **** *  channel:    Channel used by this function.
1052:Generated_Source\PSoC4/CyDMA.c **** *  descriptor: Descriptor (0 or 1) modified by this function.
1053:Generated_Source\PSoC4/CyDMA.c **** *                   
1054:Generated_Source\PSoC4/CyDMA.c **** * Return:
1055:Generated_Source\PSoC4/CyDMA.c **** *  Number of data elements to transfer.
1056:Generated_Source\PSoC4/CyDMA.c **** *
1057:Generated_Source\PSoC4/CyDMA.c **** *******************************************************************************/
1058:Generated_Source\PSoC4/CyDMA.c **** int32 CyDmaGetNumDataElements(int32 channel, int32 descriptor)
1059:Generated_Source\PSoC4/CyDMA.c **** {
 1175              		.loc 1 1059 0
 1176              		.cfi_startproc
 1177              	.LVL90:
1060:Generated_Source\PSoC4/CyDMA.c ****     uint32 numElements;
1061:Generated_Source\PSoC4/CyDMA.c **** 
1062:Generated_Source\PSoC4/CyDMA.c ****     CYASSERT((channel    >= 0) && (channel    < CYDMA_CH_NR));
1063:Generated_Source\PSoC4/CyDMA.c ****     CYASSERT((descriptor >= 0) && (descriptor < CYDMA_DESCR_NR));
1064:Generated_Source\PSoC4/CyDMA.c ****     
1065:Generated_Source\PSoC4/CyDMA.c ****     numElements = (CYDMA_DESCR_BASE.descriptor[channel][descriptor].ctl & CYDMA_DATA_NR) + 1u;
 1178              		.loc 1 1065 0
 1179 0000 4000     		lsl	r0, r0, #1
 1180              	.LVL91:
 1181 0002 4118     		add	r1, r0, r1
 1182              	.LVL92:
 1183 0004 034B     		ldr	r3, .L117
ARM GAS  C:\Users\Jerry\AppData\Local\Temp\cc4H4eWK.s 			page 42


 1184 0006 0901     		lsl	r1, r1, #4
 1185 0008 C918     		add	r1, r1, r3
 1186 000a 8868     		ldr	r0, [r1, #8]
 1187              	.LVL93:
1066:Generated_Source\PSoC4/CyDMA.c ****     return ((int32)numElements);
1067:Generated_Source\PSoC4/CyDMA.c **** }
 1188              		.loc 1 1067 0
 1189              		@ sp needed
1065:Generated_Source\PSoC4/CyDMA.c ****     return ((int32)numElements);
 1190              		.loc 1 1065 0
 1191 000c 80B2     		uxth	r0, r0
 1192              	.LVL94:
 1193 000e 0130     		add	r0, r0, #1
 1194              		.loc 1 1067 0
 1195 0010 7047     		bx	lr
 1196              	.L118:
 1197 0012 C046     		.align	2
 1198              	.L117:
 1199 0014 00181040 		.word	1074796544
 1200              		.cfi_endproc
 1201              	.LFE36:
 1202              		.size	CyDmaGetNumDataElements, .-CyDmaGetNumDataElements
 1203              		.section	.text.CyDmaSetSrcDstTransferWidth,"ax",%progbits
 1204              		.align	1
 1205              		.global	CyDmaSetSrcDstTransferWidth
 1206              		.code	16
 1207              		.thumb_func
 1208              		.type	CyDmaSetSrcDstTransferWidth, %function
 1209              	CyDmaSetSrcDstTransferWidth:
 1210              	.LFB37:
1068:Generated_Source\PSoC4/CyDMA.c **** 
1069:Generated_Source\PSoC4/CyDMA.c **** 
1070:Generated_Source\PSoC4/CyDMA.c **** /*******************************************************************************
1071:Generated_Source\PSoC4/CyDMA.c **** * Function Name: CyDmaSetSrcDstTransferWidth
1072:Generated_Source\PSoC4/CyDMA.c **** ********************************************************************************
1073:Generated_Source\PSoC4/CyDMA.c **** *
1074:Generated_Source\PSoC4/CyDMA.c **** * Summary:
1075:Generated_Source\PSoC4/CyDMA.c **** *  Sets the width of the source and destination. The DMA can either read and
1076:Generated_Source\PSoC4/CyDMA.c **** *  write data from the source and destination at the size specified by
1077:Generated_Source\PSoC4/CyDMA.c **** *  CyDmaSetDataElementSize() or by a word (4bytes). This also determines how
1078:Generated_Source\PSoC4/CyDMA.c **** *  many bytes the addresses are incremented if increment source and destination
1079:Generated_Source\PSoC4/CyDMA.c **** *  address are turned on.
1080:Generated_Source\PSoC4/CyDMA.c **** *
1081:Generated_Source\PSoC4/CyDMA.c **** * Parameters:
1082:Generated_Source\PSoC4/CyDMA.c **** *  channel:       Channel used by this function.
1083:Generated_Source\PSoC4/CyDMA.c **** *  descriptor:    Descriptor (0 or 1) modified by this function.
1084:Generated_Source\PSoC4/CyDMA.c **** *  transferWidth: Specifies the source and destination widths. Refer to 
1085:Generated_Source\PSoC4/CyDMA.c **** *                 the API bit field definitions in CyDMA_P4.h or the API
1086:Generated_Source\PSoC4/CyDMA.c **** *                 description in the DMA channel datasheet for the parameter
1087:Generated_Source\PSoC4/CyDMA.c **** *                 options.
1088:Generated_Source\PSoC4/CyDMA.c **** *                   
1089:Generated_Source\PSoC4/CyDMA.c **** * Return:
1090:Generated_Source\PSoC4/CyDMA.c **** *  None.
1091:Generated_Source\PSoC4/CyDMA.c **** *
1092:Generated_Source\PSoC4/CyDMA.c **** * Side effect:
1093:Generated_Source\PSoC4/CyDMA.c **** *  This function should not be called when the specified descriptor is active
1094:Generated_Source\PSoC4/CyDMA.c **** *  in the DMA transfer engine. This can be checked by calling CyDmaGetStatus(). 
ARM GAS  C:\Users\Jerry\AppData\Local\Temp\cc4H4eWK.s 			page 43


1095:Generated_Source\PSoC4/CyDMA.c **** *
1096:Generated_Source\PSoC4/CyDMA.c **** *******************************************************************************/
1097:Generated_Source\PSoC4/CyDMA.c **** void CyDmaSetSrcDstTransferWidth(int32 channel, int32 descriptor, uint32 transferWidth)
1098:Generated_Source\PSoC4/CyDMA.c **** {
 1211              		.loc 1 1098 0
 1212              		.cfi_startproc
 1213              	.LVL95:
1099:Generated_Source\PSoC4/CyDMA.c ****     uint32 regValue;
1100:Generated_Source\PSoC4/CyDMA.c **** 
1101:Generated_Source\PSoC4/CyDMA.c ****     CYASSERT((channel    >= 0) && (channel    < CYDMA_CH_NR));
1102:Generated_Source\PSoC4/CyDMA.c ****     CYASSERT((descriptor >= 0) && (descriptor < CYDMA_DESCR_NR));
1103:Generated_Source\PSoC4/CyDMA.c ****     CYASSERT(0u == (transferWidth & (uint32)~CYDMA_TRANSFER_WIDTH));
1104:Generated_Source\PSoC4/CyDMA.c **** 
1105:Generated_Source\PSoC4/CyDMA.c ****     regValue = CYDMA_DESCR_BASE.descriptor[channel][descriptor].ctl & (uint32)~CYDMA_TRANSFER_WIDTH
 1214              		.loc 1 1105 0
 1215 0000 4000     		lsl	r0, r0, #1
 1216              	.LVL96:
 1217 0002 4118     		add	r1, r0, r1
 1218              	.LVL97:
 1219 0004 044B     		ldr	r3, .L120
 1220 0006 0901     		lsl	r1, r1, #4
 1221 0008 C918     		add	r1, r1, r3
 1222 000a 8868     		ldr	r0, [r1, #8]
 1223              	.LVL98:
 1224 000c 034B     		ldr	r3, .L120+4
1106:Generated_Source\PSoC4/CyDMA.c ****     CYDMA_DESCR_BASE.descriptor[channel][descriptor].ctl = regValue | transferWidth;
1107:Generated_Source\PSoC4/CyDMA.c **** }
 1225              		.loc 1 1107 0
 1226              		@ sp needed
1105:Generated_Source\PSoC4/CyDMA.c ****     CYDMA_DESCR_BASE.descriptor[channel][descriptor].ctl = regValue | transferWidth;
 1227              		.loc 1 1105 0
 1228 000e 0340     		and	r3, r0
 1229              	.LVL99:
1106:Generated_Source\PSoC4/CyDMA.c ****     CYDMA_DESCR_BASE.descriptor[channel][descriptor].ctl = regValue | transferWidth;
 1230              		.loc 1 1106 0
 1231 0010 1A43     		orr	r2, r3
 1232              	.LVL100:
 1233 0012 8A60     		str	r2, [r1, #8]
 1234              		.loc 1 1107 0
 1235 0014 7047     		bx	lr
 1236              	.L121:
 1237 0016 C046     		.align	2
 1238              	.L120:
 1239 0018 00181040 		.word	1074796544
 1240 001c FFFFAFFF 		.word	-5242881
 1241              		.cfi_endproc
 1242              	.LFE37:
 1243              		.size	CyDmaSetSrcDstTransferWidth, .-CyDmaSetSrcDstTransferWidth
 1244              		.section	.text.CyDmaGetSrcDstTransferWidth,"ax",%progbits
 1245              		.align	1
 1246              		.global	CyDmaGetSrcDstTransferWidth
 1247              		.code	16
 1248              		.thumb_func
 1249              		.type	CyDmaGetSrcDstTransferWidth, %function
 1250              	CyDmaGetSrcDstTransferWidth:
 1251              	.LFB38:
1108:Generated_Source\PSoC4/CyDMA.c **** 
ARM GAS  C:\Users\Jerry\AppData\Local\Temp\cc4H4eWK.s 			page 44


1109:Generated_Source\PSoC4/CyDMA.c **** 
1110:Generated_Source\PSoC4/CyDMA.c **** /*******************************************************************************
1111:Generated_Source\PSoC4/CyDMA.c **** * Function Name: CyDmaGetSrcDstTransferWidth
1112:Generated_Source\PSoC4/CyDMA.c **** ********************************************************************************
1113:Generated_Source\PSoC4/CyDMA.c **** *
1114:Generated_Source\PSoC4/CyDMA.c **** * Summary:
1115:Generated_Source\PSoC4/CyDMA.c **** *  Returns the width of the source and destination, as set by 
1116:Generated_Source\PSoC4/CyDMA.c **** *  CyDmaSetSrcDstTransferWidth() or CyDmaSetConfiguration().
1117:Generated_Source\PSoC4/CyDMA.c **** *
1118:Generated_Source\PSoC4/CyDMA.c **** * Parameters:
1119:Generated_Source\PSoC4/CyDMA.c **** *  channel:    Channel used by this function.
1120:Generated_Source\PSoC4/CyDMA.c **** *  descriptor: Descriptor (0 or 1) modified by this function.
1121:Generated_Source\PSoC4/CyDMA.c **** *                   
1122:Generated_Source\PSoC4/CyDMA.c **** * Return:
1123:Generated_Source\PSoC4/CyDMA.c **** *  Width of source and destination. Refer to the API bit field definitions in
1124:Generated_Source\PSoC4/CyDMA.c **** *  CyDMA_P4.h or the API description in the DMA channel datasheet for more
1125:Generated_Source\PSoC4/CyDMA.c **** *  information.
1126:Generated_Source\PSoC4/CyDMA.c **** *
1127:Generated_Source\PSoC4/CyDMA.c **** *******************************************************************************/
1128:Generated_Source\PSoC4/CyDMA.c **** uint32 CyDmaGetSrcDstTransferWidth(int32 channel, int32 descriptor)
1129:Generated_Source\PSoC4/CyDMA.c **** {
 1252              		.loc 1 1129 0
 1253              		.cfi_startproc
 1254              	.LVL101:
1130:Generated_Source\PSoC4/CyDMA.c ****     CYASSERT((channel    >= 0) && (channel    < CYDMA_CH_NR));
1131:Generated_Source\PSoC4/CyDMA.c ****     CYASSERT((descriptor >= 0) && (descriptor < CYDMA_DESCR_NR));
1132:Generated_Source\PSoC4/CyDMA.c ****     return (CYDMA_DESCR_BASE.descriptor[channel][descriptor].ctl & CYDMA_TRANSFER_WIDTH);
 1255              		.loc 1 1132 0
 1256 0000 4000     		lsl	r0, r0, #1
 1257              	.LVL102:
 1258 0002 4118     		add	r1, r0, r1
 1259              	.LVL103:
 1260 0004 034B     		ldr	r3, .L123
 1261 0006 0901     		lsl	r1, r1, #4
 1262 0008 C918     		add	r1, r1, r3
 1263 000a A023     		mov	r3, #160
 1264 000c 8868     		ldr	r0, [r1, #8]
 1265 000e DB03     		lsl	r3, r3, #15
 1266 0010 1840     		and	r0, r3
1133:Generated_Source\PSoC4/CyDMA.c **** }
 1267              		.loc 1 1133 0
 1268              		@ sp needed
 1269 0012 7047     		bx	lr
 1270              	.L124:
 1271              		.align	2
 1272              	.L123:
 1273 0014 00181040 		.word	1074796544
 1274              		.cfi_endproc
 1275              	.LFE38:
 1276              		.size	CyDmaGetSrcDstTransferWidth, .-CyDmaGetSrcDstTransferWidth
 1277              		.section	.text.CyDmaSetAddressIncrement,"ax",%progbits
 1278              		.align	1
 1279              		.global	CyDmaSetAddressIncrement
 1280              		.code	16
 1281              		.thumb_func
 1282              		.type	CyDmaSetAddressIncrement, %function
 1283              	CyDmaSetAddressIncrement:
ARM GAS  C:\Users\Jerry\AppData\Local\Temp\cc4H4eWK.s 			page 45


 1284              	.LFB39:
1134:Generated_Source\PSoC4/CyDMA.c **** 
1135:Generated_Source\PSoC4/CyDMA.c **** 
1136:Generated_Source\PSoC4/CyDMA.c **** /*******************************************************************************
1137:Generated_Source\PSoC4/CyDMA.c **** * Function Name: CyDmaSetAddressIncrement
1138:Generated_Source\PSoC4/CyDMA.c **** ********************************************************************************
1139:Generated_Source\PSoC4/CyDMA.c **** *
1140:Generated_Source\PSoC4/CyDMA.c **** * Summary:
1141:Generated_Source\PSoC4/CyDMA.c **** *  Sets whether the source or destination addresses are incremented after the
1142:Generated_Source\PSoC4/CyDMA.c **** *  transfer of each data element. The amount that the source and destination
1143:Generated_Source\PSoC4/CyDMA.c **** *  address are incremented is determined by the CyDmaSetSrcDstTransferWidth()
1144:Generated_Source\PSoC4/CyDMA.c **** *  function. The addresses will either be incremented by the data element size
1145:Generated_Source\PSoC4/CyDMA.c **** *  or by a word (4 bytes).
1146:Generated_Source\PSoC4/CyDMA.c **** *
1147:Generated_Source\PSoC4/CyDMA.c **** * Parameters:
1148:Generated_Source\PSoC4/CyDMA.c **** *  channel:          Channel used by this function.
1149:Generated_Source\PSoC4/CyDMA.c **** *  descriptor:       Descriptor (0 or 1) modified by this function.
1150:Generated_Source\PSoC4/CyDMA.c **** *  addressIncrement: Address increment settings. Refer to the API bit fields 
1151:Generated_Source\PSoC4/CyDMA.c **** *                    definition in CyDMA_P4.h or the API description in the DMA
1152:Generated_Source\PSoC4/CyDMA.c **** *                    channel datasheet for the parameter options.
1153:Generated_Source\PSoC4/CyDMA.c **** *    
1154:Generated_Source\PSoC4/CyDMA.c **** * Return:
1155:Generated_Source\PSoC4/CyDMA.c **** *  None.
1156:Generated_Source\PSoC4/CyDMA.c **** *
1157:Generated_Source\PSoC4/CyDMA.c **** * Side effect:
1158:Generated_Source\PSoC4/CyDMA.c **** *  This function should not be called when the specified descriptor is active
1159:Generated_Source\PSoC4/CyDMA.c **** *  in the DMA transfer engine. This can be checked by calling CyDmaGetStatus(). 
1160:Generated_Source\PSoC4/CyDMA.c **** *
1161:Generated_Source\PSoC4/CyDMA.c **** *******************************************************************************/
1162:Generated_Source\PSoC4/CyDMA.c **** void CyDmaSetAddressIncrement(int32 channel, int32 descriptor, uint32 addressIncrement)
1163:Generated_Source\PSoC4/CyDMA.c **** {
 1285              		.loc 1 1163 0
 1286              		.cfi_startproc
 1287              	.LVL104:
1164:Generated_Source\PSoC4/CyDMA.c ****     uint32 regValue;
1165:Generated_Source\PSoC4/CyDMA.c **** 
1166:Generated_Source\PSoC4/CyDMA.c ****     CYASSERT((channel    >= 0) && (channel    < CYDMA_CH_NR));
1167:Generated_Source\PSoC4/CyDMA.c ****     CYASSERT((descriptor >= 0) && (descriptor < CYDMA_DESCR_NR));
1168:Generated_Source\PSoC4/CyDMA.c ****     CYASSERT(0u == (addressIncrement & (uint32)~CYDMA_ADDR_INCR));
1169:Generated_Source\PSoC4/CyDMA.c **** 
1170:Generated_Source\PSoC4/CyDMA.c ****     regValue = CYDMA_DESCR_BASE.descriptor[channel][descriptor].ctl & (uint32)~CYDMA_ADDR_INCR;
 1288              		.loc 1 1170 0
 1289 0000 4000     		lsl	r0, r0, #1
 1290              	.LVL105:
 1291 0002 4118     		add	r1, r0, r1
 1292              	.LVL106:
 1293 0004 044B     		ldr	r3, .L126
 1294 0006 0901     		lsl	r1, r1, #4
 1295 0008 C918     		add	r1, r1, r3
 1296 000a 8868     		ldr	r0, [r1, #8]
 1297              	.LVL107:
 1298 000c 034B     		ldr	r3, .L126+4
1171:Generated_Source\PSoC4/CyDMA.c ****     CYDMA_DESCR_BASE.descriptor[channel][descriptor].ctl = regValue | addressIncrement;
1172:Generated_Source\PSoC4/CyDMA.c **** }
 1299              		.loc 1 1172 0
 1300              		@ sp needed
1170:Generated_Source\PSoC4/CyDMA.c ****     CYDMA_DESCR_BASE.descriptor[channel][descriptor].ctl = regValue | addressIncrement;
ARM GAS  C:\Users\Jerry\AppData\Local\Temp\cc4H4eWK.s 			page 46


 1301              		.loc 1 1170 0
 1302 000e 0340     		and	r3, r0
 1303              	.LVL108:
1171:Generated_Source\PSoC4/CyDMA.c ****     CYDMA_DESCR_BASE.descriptor[channel][descriptor].ctl = regValue | addressIncrement;
 1304              		.loc 1 1171 0
 1305 0010 1A43     		orr	r2, r3
 1306              	.LVL109:
 1307 0012 8A60     		str	r2, [r1, #8]
 1308              		.loc 1 1172 0
 1309 0014 7047     		bx	lr
 1310              	.L127:
 1311 0016 C046     		.align	2
 1312              	.L126:
 1313 0018 00181040 		.word	1074796544
 1314 001c FFFF5FFF 		.word	-10485761
 1315              		.cfi_endproc
 1316              	.LFE39:
 1317              		.size	CyDmaSetAddressIncrement, .-CyDmaSetAddressIncrement
 1318              		.section	.text.CyDmaGetAddressIncrement,"ax",%progbits
 1319              		.align	1
 1320              		.global	CyDmaGetAddressIncrement
 1321              		.code	16
 1322              		.thumb_func
 1323              		.type	CyDmaGetAddressIncrement, %function
 1324              	CyDmaGetAddressIncrement:
 1325              	.LFB40:
1173:Generated_Source\PSoC4/CyDMA.c **** 
1174:Generated_Source\PSoC4/CyDMA.c **** 
1175:Generated_Source\PSoC4/CyDMA.c **** /*******************************************************************************
1176:Generated_Source\PSoC4/CyDMA.c **** * Function Name: CyDmaGetAddressIncrement
1177:Generated_Source\PSoC4/CyDMA.c **** ********************************************************************************
1178:Generated_Source\PSoC4/CyDMA.c **** *
1179:Generated_Source\PSoC4/CyDMA.c **** * Summary:
1180:Generated_Source\PSoC4/CyDMA.c **** *  Returns address increment settings as set by CyDmaSetAddressIncrement() or
1181:Generated_Source\PSoC4/CyDMA.c **** *  CyDmaSetConfiguration().
1182:Generated_Source\PSoC4/CyDMA.c **** *
1183:Generated_Source\PSoC4/CyDMA.c **** * Parameters:
1184:Generated_Source\PSoC4/CyDMA.c **** *  channel:    Channel used by this function.
1185:Generated_Source\PSoC4/CyDMA.c **** *  descriptor: Descriptor (0 or 1) modified by this function.
1186:Generated_Source\PSoC4/CyDMA.c **** *                   
1187:Generated_Source\PSoC4/CyDMA.c **** * Return:
1188:Generated_Source\PSoC4/CyDMA.c **** *  Address increment settings. Refer to the API bit field definitions in
1189:Generated_Source\PSoC4/CyDMA.c **** *  CyDMA_P4.h or the API description in the DMA channel datasheet for more
1190:Generated_Source\PSoC4/CyDMA.c **** *  information.
1191:Generated_Source\PSoC4/CyDMA.c **** *
1192:Generated_Source\PSoC4/CyDMA.c **** *******************************************************************************/
1193:Generated_Source\PSoC4/CyDMA.c **** uint32 CyDmaGetAddressIncrement(int32 channel, int32 descriptor)
1194:Generated_Source\PSoC4/CyDMA.c **** {
 1326              		.loc 1 1194 0
 1327              		.cfi_startproc
 1328              	.LVL110:
1195:Generated_Source\PSoC4/CyDMA.c ****     CYASSERT((channel    >= 0) && (channel    < CYDMA_CH_NR));
1196:Generated_Source\PSoC4/CyDMA.c ****     CYASSERT((descriptor >= 0) && (descriptor < CYDMA_DESCR_NR));
1197:Generated_Source\PSoC4/CyDMA.c **** 
1198:Generated_Source\PSoC4/CyDMA.c ****     return (CYDMA_DESCR_BASE.descriptor[channel][descriptor].ctl & CYDMA_ADDR_INCR);
 1329              		.loc 1 1198 0
 1330 0000 4000     		lsl	r0, r0, #1
ARM GAS  C:\Users\Jerry\AppData\Local\Temp\cc4H4eWK.s 			page 47


 1331              	.LVL111:
 1332 0002 4118     		add	r1, r0, r1
 1333              	.LVL112:
 1334 0004 034B     		ldr	r3, .L129
 1335 0006 0901     		lsl	r1, r1, #4
 1336 0008 C918     		add	r1, r1, r3
 1337 000a A023     		mov	r3, #160
 1338 000c 8868     		ldr	r0, [r1, #8]
 1339 000e 1B04     		lsl	r3, r3, #16
 1340 0010 1840     		and	r0, r3
1199:Generated_Source\PSoC4/CyDMA.c **** }
 1341              		.loc 1 1199 0
 1342              		@ sp needed
 1343 0012 7047     		bx	lr
 1344              	.L130:
 1345              		.align	2
 1346              	.L129:
 1347 0014 00181040 		.word	1074796544
 1348              		.cfi_endproc
 1349              	.LFE40:
 1350              		.size	CyDmaGetAddressIncrement, .-CyDmaGetAddressIncrement
 1351              		.section	.text.CyDmaSetTriggerType,"ax",%progbits
 1352              		.align	1
 1353              		.global	CyDmaSetTriggerType
 1354              		.code	16
 1355              		.thumb_func
 1356              		.type	CyDmaSetTriggerType, %function
 1357              	CyDmaSetTriggerType:
 1358              	.LFB41:
1200:Generated_Source\PSoC4/CyDMA.c **** 
1201:Generated_Source\PSoC4/CyDMA.c **** 
1202:Generated_Source\PSoC4/CyDMA.c **** /*******************************************************************************
1203:Generated_Source\PSoC4/CyDMA.c **** * Function Name: CyDmaSetTriggerType
1204:Generated_Source\PSoC4/CyDMA.c **** ********************************************************************************
1205:Generated_Source\PSoC4/CyDMA.c **** *
1206:Generated_Source\PSoC4/CyDMA.c **** * Summary:
1207:Generated_Source\PSoC4/CyDMA.c **** *  Sets the type of input trigger for the DMA For level sensitive triggers sets
1208:Generated_Source\PSoC4/CyDMA.c **** *  how long the DMA waits for the trigger to go low (deactivate) before
1209:Generated_Source\PSoC4/CyDMA.c **** *  triggering the channel again.
1210:Generated_Source\PSoC4/CyDMA.c **** *
1211:Generated_Source\PSoC4/CyDMA.c **** * Parameters:
1212:Generated_Source\PSoC4/CyDMA.c **** *  channel:     Channel used by this function.
1213:Generated_Source\PSoC4/CyDMA.c **** *  descriptor:  Descriptor (0 or 1) modified by this function.
1214:Generated_Source\PSoC4/CyDMA.c **** *  triggerType: Type of DMA trigger. Refer to the API bit field definitions
1215:Generated_Source\PSoC4/CyDMA.c **** *               in CyDMA_P4.h or the API description in the DMA channel
1216:Generated_Source\PSoC4/CyDMA.c **** *               datasheet for the parameter options.
1217:Generated_Source\PSoC4/CyDMA.c **** *                   
1218:Generated_Source\PSoC4/CyDMA.c **** * Return:
1219:Generated_Source\PSoC4/CyDMA.c **** *  None.
1220:Generated_Source\PSoC4/CyDMA.c **** *
1221:Generated_Source\PSoC4/CyDMA.c **** * Side effect:
1222:Generated_Source\PSoC4/CyDMA.c **** *  This function should not be called when the specified descriptor is active
1223:Generated_Source\PSoC4/CyDMA.c **** *  in the DMA transfer engine. This can be checked by calling CyDmaGetStatus(). 
1224:Generated_Source\PSoC4/CyDMA.c **** *
1225:Generated_Source\PSoC4/CyDMA.c **** *******************************************************************************/
1226:Generated_Source\PSoC4/CyDMA.c **** void CyDmaSetTriggerType(int32 channel, int32 descriptor, uint32 triggerType)
1227:Generated_Source\PSoC4/CyDMA.c **** {
ARM GAS  C:\Users\Jerry\AppData\Local\Temp\cc4H4eWK.s 			page 48


 1359              		.loc 1 1227 0
 1360              		.cfi_startproc
 1361              	.LVL113:
1228:Generated_Source\PSoC4/CyDMA.c ****     uint32 regValue;
1229:Generated_Source\PSoC4/CyDMA.c **** 
1230:Generated_Source\PSoC4/CyDMA.c ****     CYASSERT((channel    >= 0) && (channel    < CYDMA_CH_NR));
1231:Generated_Source\PSoC4/CyDMA.c ****     CYASSERT((descriptor >= 0) && (descriptor < CYDMA_DESCR_NR));
1232:Generated_Source\PSoC4/CyDMA.c ****     CYASSERT(0u == (triggerType & (uint32)~CYDMA_TRIGGER_TYPE));
1233:Generated_Source\PSoC4/CyDMA.c **** 
1234:Generated_Source\PSoC4/CyDMA.c ****     regValue = CYDMA_DESCR_BASE.descriptor[channel][descriptor].ctl & (uint32)~CYDMA_TRIGGER_TYPE;
 1362              		.loc 1 1234 0
 1363 0000 4000     		lsl	r0, r0, #1
 1364              	.LVL114:
 1365 0002 4118     		add	r1, r0, r1
 1366              	.LVL115:
 1367 0004 044B     		ldr	r3, .L132
 1368 0006 0901     		lsl	r1, r1, #4
 1369 0008 C918     		add	r1, r1, r3
 1370 000a 8868     		ldr	r0, [r1, #8]
 1371              	.LVL116:
 1372 000c 034B     		ldr	r3, .L132+4
1235:Generated_Source\PSoC4/CyDMA.c ****     CYDMA_DESCR_BASE.descriptor[channel][descriptor].ctl = regValue | triggerType;
1236:Generated_Source\PSoC4/CyDMA.c **** }
 1373              		.loc 1 1236 0
 1374              		@ sp needed
1234:Generated_Source\PSoC4/CyDMA.c ****     CYDMA_DESCR_BASE.descriptor[channel][descriptor].ctl = regValue | triggerType;
 1375              		.loc 1 1234 0
 1376 000e 0340     		and	r3, r0
 1377              	.LVL117:
1235:Generated_Source\PSoC4/CyDMA.c ****     CYDMA_DESCR_BASE.descriptor[channel][descriptor].ctl = regValue | triggerType;
 1378              		.loc 1 1235 0
 1379 0010 1A43     		orr	r2, r3
 1380              	.LVL118:
 1381 0012 8A60     		str	r2, [r1, #8]
 1382              		.loc 1 1236 0
 1383 0014 7047     		bx	lr
 1384              	.L133:
 1385 0016 C046     		.align	2
 1386              	.L132:
 1387 0018 00181040 		.word	1074796544
 1388 001c FFFFFFFC 		.word	-50331649
 1389              		.cfi_endproc
 1390              	.LFE41:
 1391              		.size	CyDmaSetTriggerType, .-CyDmaSetTriggerType
 1392              		.section	.text.CyDmaGetTriggerType,"ax",%progbits
 1393              		.align	1
 1394              		.global	CyDmaGetTriggerType
 1395              		.code	16
 1396              		.thumb_func
 1397              		.type	CyDmaGetTriggerType, %function
 1398              	CyDmaGetTriggerType:
 1399              	.LFB42:
1237:Generated_Source\PSoC4/CyDMA.c **** 
1238:Generated_Source\PSoC4/CyDMA.c **** 
1239:Generated_Source\PSoC4/CyDMA.c **** /*******************************************************************************
1240:Generated_Source\PSoC4/CyDMA.c **** * Function Name: CyDmaGetTriggerType
1241:Generated_Source\PSoC4/CyDMA.c **** ********************************************************************************
ARM GAS  C:\Users\Jerry\AppData\Local\Temp\cc4H4eWK.s 			page 49


1242:Generated_Source\PSoC4/CyDMA.c **** *
1243:Generated_Source\PSoC4/CyDMA.c **** * Summary:
1244:Generated_Source\PSoC4/CyDMA.c **** *  Returns the trigger deactivation settings as set by CyDmaSetTriggerType() or
1245:Generated_Source\PSoC4/CyDMA.c **** *  CyDmaSetConfiguration().
1246:Generated_Source\PSoC4/CyDMA.c **** *
1247:Generated_Source\PSoC4/CyDMA.c **** * Parameters:
1248:Generated_Source\PSoC4/CyDMA.c **** *  channel:    Channel used by this function.
1249:Generated_Source\PSoC4/CyDMA.c **** *  descriptor: Descriptor (0 or 1) modified by this function.
1250:Generated_Source\PSoC4/CyDMA.c **** *                   
1251:Generated_Source\PSoC4/CyDMA.c **** * Return:
1252:Generated_Source\PSoC4/CyDMA.c **** *  Trigger deactivation settings. Refer to the API bit field definitions in
1253:Generated_Source\PSoC4/CyDMA.c **** *  CyDMA_P4.h or the API description in the DMA channel datasheet for more
1254:Generated_Source\PSoC4/CyDMA.c **** *  information.
1255:Generated_Source\PSoC4/CyDMA.c **** *
1256:Generated_Source\PSoC4/CyDMA.c **** *******************************************************************************/
1257:Generated_Source\PSoC4/CyDMA.c **** uint32 CyDmaGetTriggerType(int32 channel, int32 descriptor)
1258:Generated_Source\PSoC4/CyDMA.c **** {
 1400              		.loc 1 1258 0
 1401              		.cfi_startproc
 1402              	.LVL119:
1259:Generated_Source\PSoC4/CyDMA.c ****     CYASSERT((channel    >= 0) && (channel    < CYDMA_CH_NR));
1260:Generated_Source\PSoC4/CyDMA.c ****     CYASSERT((descriptor >= 0) && (descriptor < CYDMA_DESCR_NR));
1261:Generated_Source\PSoC4/CyDMA.c **** 
1262:Generated_Source\PSoC4/CyDMA.c ****     return (CYDMA_DESCR_BASE.descriptor[channel][descriptor].ctl & CYDMA_TRIGGER_TYPE);
 1403              		.loc 1 1262 0
 1404 0000 4000     		lsl	r0, r0, #1
 1405              	.LVL120:
 1406 0002 4118     		add	r1, r0, r1
 1407              	.LVL121:
 1408 0004 034B     		ldr	r3, .L135
 1409 0006 0901     		lsl	r1, r1, #4
 1410 0008 C918     		add	r1, r1, r3
 1411 000a C023     		mov	r3, #192
 1412 000c 8868     		ldr	r0, [r1, #8]
 1413 000e 9B04     		lsl	r3, r3, #18
 1414 0010 1840     		and	r0, r3
1263:Generated_Source\PSoC4/CyDMA.c **** }
 1415              		.loc 1 1263 0
 1416              		@ sp needed
 1417 0012 7047     		bx	lr
 1418              	.L136:
 1419              		.align	2
 1420              	.L135:
 1421 0014 00181040 		.word	1074796544
 1422              		.cfi_endproc
 1423              	.LFE42:
 1424              		.size	CyDmaGetTriggerType, .-CyDmaGetTriggerType
 1425              		.section	.text.CyDmaSetTransferMode,"ax",%progbits
 1426              		.align	1
 1427              		.global	CyDmaSetTransferMode
 1428              		.code	16
 1429              		.thumb_func
 1430              		.type	CyDmaSetTransferMode, %function
 1431              	CyDmaSetTransferMode:
 1432              	.LFB43:
1264:Generated_Source\PSoC4/CyDMA.c **** 
1265:Generated_Source\PSoC4/CyDMA.c **** 
ARM GAS  C:\Users\Jerry\AppData\Local\Temp\cc4H4eWK.s 			page 50


1266:Generated_Source\PSoC4/CyDMA.c **** /*******************************************************************************
1267:Generated_Source\PSoC4/CyDMA.c **** * Function Name: CyDmaSetTransferMode
1268:Generated_Source\PSoC4/CyDMA.c **** ********************************************************************************
1269:Generated_Source\PSoC4/CyDMA.c **** *
1270:Generated_Source\PSoC4/CyDMA.c **** * Summary:
1271:Generated_Source\PSoC4/CyDMA.c **** *  Sets the DMA transfer mode. This determines how the DMA reacts to each trigger
1272:Generated_Source\PSoC4/CyDMA.c **** *  event.
1273:Generated_Source\PSoC4/CyDMA.c **** *
1274:Generated_Source\PSoC4/CyDMA.c **** * Parameters:
1275:Generated_Source\PSoC4/CyDMA.c **** *  channel:      Channel used by this function.
1276:Generated_Source\PSoC4/CyDMA.c **** *  descriptor:   Descriptor (0 or 1) modified by this function.
1277:Generated_Source\PSoC4/CyDMA.c **** *  transferMode: Specifies the DMA transfer mode settings. Refer to the API bit
1278:Generated_Source\PSoC4/CyDMA.c **** *                field definitions in CyDMA_P4.h or the API description in the
1279:Generated_Source\PSoC4/CyDMA.c **** *                DMA channel datasheet for the parameter options.
1280:Generated_Source\PSoC4/CyDMA.c **** *                   
1281:Generated_Source\PSoC4/CyDMA.c **** * Return:
1282:Generated_Source\PSoC4/CyDMA.c **** *  None.
1283:Generated_Source\PSoC4/CyDMA.c **** *
1284:Generated_Source\PSoC4/CyDMA.c **** * Side effect:
1285:Generated_Source\PSoC4/CyDMA.c **** *  This function should not be called when the specified descriptor is active
1286:Generated_Source\PSoC4/CyDMA.c **** *  in the DMA transfer engine. This can be checked by calling CyDmaGetStatus(). 
1287:Generated_Source\PSoC4/CyDMA.c **** *
1288:Generated_Source\PSoC4/CyDMA.c **** *******************************************************************************/
1289:Generated_Source\PSoC4/CyDMA.c **** void CyDmaSetTransferMode(int32 channel, int32 descriptor, uint32 transferMode)
1290:Generated_Source\PSoC4/CyDMA.c **** {
 1433              		.loc 1 1290 0
 1434              		.cfi_startproc
 1435              	.LVL122:
1291:Generated_Source\PSoC4/CyDMA.c ****     uint32 regValue;
1292:Generated_Source\PSoC4/CyDMA.c **** 
1293:Generated_Source\PSoC4/CyDMA.c ****     CYASSERT((channel    >= 0) && (channel    < CYDMA_CH_NR));
1294:Generated_Source\PSoC4/CyDMA.c ****     CYASSERT((descriptor >= 0) && (descriptor < CYDMA_DESCR_NR));
1295:Generated_Source\PSoC4/CyDMA.c ****     CYASSERT(0u == (transferMode & (uint32)~CYDMA_TRANSFER_MODE));
1296:Generated_Source\PSoC4/CyDMA.c **** 
1297:Generated_Source\PSoC4/CyDMA.c ****     regValue = CYDMA_DESCR_BASE.descriptor[channel][descriptor].ctl & (uint32)~CYDMA_TRANSFER_MODE;
 1436              		.loc 1 1297 0
 1437 0000 4000     		lsl	r0, r0, #1
 1438              	.LVL123:
 1439 0002 4118     		add	r1, r0, r1
 1440              	.LVL124:
 1441 0004 044B     		ldr	r3, .L138
 1442 0006 0901     		lsl	r1, r1, #4
 1443 0008 C918     		add	r1, r1, r3
 1444 000a 8B68     		ldr	r3, [r1, #8]
 1445              	.LVL125:
1298:Generated_Source\PSoC4/CyDMA.c ****     CYDMA_DESCR_BASE.descriptor[channel][descriptor].ctl = regValue | transferMode;
1299:Generated_Source\PSoC4/CyDMA.c **** }
 1446              		.loc 1 1299 0
 1447              		@ sp needed
1297:Generated_Source\PSoC4/CyDMA.c ****     CYDMA_DESCR_BASE.descriptor[channel][descriptor].ctl = regValue | transferMode;
 1448              		.loc 1 1297 0
 1449 000c 9B00     		lsl	r3, r3, #2
 1450              	.LVL126:
 1451 000e 9B08     		lsr	r3, r3, #2
1298:Generated_Source\PSoC4/CyDMA.c ****     CYDMA_DESCR_BASE.descriptor[channel][descriptor].ctl = regValue | transferMode;
 1452              		.loc 1 1298 0
 1453 0010 1A43     		orr	r2, r3
ARM GAS  C:\Users\Jerry\AppData\Local\Temp\cc4H4eWK.s 			page 51


 1454              	.LVL127:
 1455 0012 8A60     		str	r2, [r1, #8]
 1456              		.loc 1 1299 0
 1457 0014 7047     		bx	lr
 1458              	.L139:
 1459 0016 C046     		.align	2
 1460              	.L138:
 1461 0018 00181040 		.word	1074796544
 1462              		.cfi_endproc
 1463              	.LFE43:
 1464              		.size	CyDmaSetTransferMode, .-CyDmaSetTransferMode
 1465              		.section	.text.CyDmaGetTransferMode,"ax",%progbits
 1466              		.align	1
 1467              		.global	CyDmaGetTransferMode
 1468              		.code	16
 1469              		.thumb_func
 1470              		.type	CyDmaGetTransferMode, %function
 1471              	CyDmaGetTransferMode:
 1472              	.LFB44:
1300:Generated_Source\PSoC4/CyDMA.c **** 
1301:Generated_Source\PSoC4/CyDMA.c **** 
1302:Generated_Source\PSoC4/CyDMA.c **** /*******************************************************************************
1303:Generated_Source\PSoC4/CyDMA.c **** * Function Name: CyDmaGetTransferMode
1304:Generated_Source\PSoC4/CyDMA.c **** ********************************************************************************
1305:Generated_Source\PSoC4/CyDMA.c **** *
1306:Generated_Source\PSoC4/CyDMA.c **** * Summary:
1307:Generated_Source\PSoC4/CyDMA.c **** *  Returns the transfer mode for the specified descriptor as set by 
1308:Generated_Source\PSoC4/CyDMA.c **** *  CyDmaSetTransferMode() or CyDmaSetConfiguration.
1309:Generated_Source\PSoC4/CyDMA.c **** *
1310:Generated_Source\PSoC4/CyDMA.c **** * Parameters:
1311:Generated_Source\PSoC4/CyDMA.c **** *  channel:    Channel used by this function.
1312:Generated_Source\PSoC4/CyDMA.c **** *  descriptor: Descriptor (0 or 1) modified by this function.
1313:Generated_Source\PSoC4/CyDMA.c **** *                   
1314:Generated_Source\PSoC4/CyDMA.c **** * Return:
1315:Generated_Source\PSoC4/CyDMA.c **** *  DMA transfer mode settings. Refer to the API bit field definitions in
1316:Generated_Source\PSoC4/CyDMA.c **** *  CyDMA_P4.h or the API description in the DMA channel datasheet for more
1317:Generated_Source\PSoC4/CyDMA.c **** *  information.
1318:Generated_Source\PSoC4/CyDMA.c **** *
1319:Generated_Source\PSoC4/CyDMA.c **** *******************************************************************************/
1320:Generated_Source\PSoC4/CyDMA.c **** uint32 CyDmaGetTransferMode(int32 channel, int32 descriptor)
1321:Generated_Source\PSoC4/CyDMA.c **** {
 1473              		.loc 1 1321 0
 1474              		.cfi_startproc
 1475              	.LVL128:
1322:Generated_Source\PSoC4/CyDMA.c ****     CYASSERT((channel    >= 0) && (channel    < CYDMA_CH_NR));
1323:Generated_Source\PSoC4/CyDMA.c ****     CYASSERT((descriptor >= 0) && (descriptor < CYDMA_DESCR_NR));
1324:Generated_Source\PSoC4/CyDMA.c **** 
1325:Generated_Source\PSoC4/CyDMA.c ****     return (CYDMA_DESCR_BASE.descriptor[channel][descriptor].ctl & CYDMA_TRANSFER_MODE);
 1476              		.loc 1 1325 0
 1477 0000 4000     		lsl	r0, r0, #1
 1478              	.LVL129:
 1479 0002 4118     		add	r1, r0, r1
 1480              	.LVL130:
 1481 0004 034B     		ldr	r3, .L141
 1482 0006 0901     		lsl	r1, r1, #4
 1483 0008 C918     		add	r1, r1, r3
 1484 000a 8868     		ldr	r0, [r1, #8]
ARM GAS  C:\Users\Jerry\AppData\Local\Temp\cc4H4eWK.s 			page 52


1326:Generated_Source\PSoC4/CyDMA.c **** }
 1485              		.loc 1 1326 0
 1486              		@ sp needed
1325:Generated_Source\PSoC4/CyDMA.c **** }
 1487              		.loc 1 1325 0
 1488 000c 800F     		lsr	r0, r0, #30
 1489 000e 8007     		lsl	r0, r0, #30
 1490              		.loc 1 1326 0
 1491 0010 7047     		bx	lr
 1492              	.L142:
 1493 0012 C046     		.align	2
 1494              	.L141:
 1495 0014 00181040 		.word	1074796544
 1496              		.cfi_endproc
 1497              	.LFE44:
 1498              		.size	CyDmaGetTransferMode, .-CyDmaGetTransferMode
 1499              		.section	.text.CyDmaSetPreemptable,"ax",%progbits
 1500              		.align	1
 1501              		.global	CyDmaSetPreemptable
 1502              		.code	16
 1503              		.thumb_func
 1504              		.type	CyDmaSetPreemptable, %function
 1505              	CyDmaSetPreemptable:
 1506              	.LFB45:
1327:Generated_Source\PSoC4/CyDMA.c **** 
1328:Generated_Source\PSoC4/CyDMA.c **** 
1329:Generated_Source\PSoC4/CyDMA.c **** /*******************************************************************************
1330:Generated_Source\PSoC4/CyDMA.c **** * Function Name: CyDmaSetPreemptable
1331:Generated_Source\PSoC4/CyDMA.c **** ********************************************************************************
1332:Generated_Source\PSoC4/CyDMA.c **** *
1333:Generated_Source\PSoC4/CyDMA.c **** * Summary:
1334:Generated_Source\PSoC4/CyDMA.c **** *  Determines if the descriptor is preemptable.
1335:Generated_Source\PSoC4/CyDMA.c **** *
1336:Generated_Source\PSoC4/CyDMA.c **** * Parameters:
1337:Generated_Source\PSoC4/CyDMA.c **** *  channel:     Channel used by this function.
1338:Generated_Source\PSoC4/CyDMA.c **** *  descriptor:  Descriptor (0 or 1) modified by this function.
1339:Generated_Source\PSoC4/CyDMA.c **** *  preemptable: Descriptor preemption settings. Refer to the API bit fields
1340:Generated_Source\PSoC4/CyDMA.c **** *               definition in CyDMA_P4.h or the API description in the DMA 
1341:Generated_Source\PSoC4/CyDMA.c **** *               channel datasheet for the parameter options.
1342:Generated_Source\PSoC4/CyDMA.c **** *                   
1343:Generated_Source\PSoC4/CyDMA.c **** * Return:
1344:Generated_Source\PSoC4/CyDMA.c **** *  None.
1345:Generated_Source\PSoC4/CyDMA.c **** *
1346:Generated_Source\PSoC4/CyDMA.c **** * Side effect:
1347:Generated_Source\PSoC4/CyDMA.c **** *  This function should not be called when the specified descriptor is active
1348:Generated_Source\PSoC4/CyDMA.c **** *  in the DMA transfer engine. This can be checked by calling CyDmaGetStatus(). 
1349:Generated_Source\PSoC4/CyDMA.c **** *
1350:Generated_Source\PSoC4/CyDMA.c **** *******************************************************************************/
1351:Generated_Source\PSoC4/CyDMA.c **** void CyDmaSetPreemptable(int32 channel, int32 descriptor, uint32 preemptable)
1352:Generated_Source\PSoC4/CyDMA.c **** {
 1507              		.loc 1 1352 0
 1508              		.cfi_startproc
 1509              	.LVL131:
1353:Generated_Source\PSoC4/CyDMA.c ****     uint32 regValue;
1354:Generated_Source\PSoC4/CyDMA.c **** 
1355:Generated_Source\PSoC4/CyDMA.c ****     CYASSERT((channel    >= 0) && (channel    < CYDMA_CH_NR));
1356:Generated_Source\PSoC4/CyDMA.c ****     CYASSERT((descriptor >= 0) && (descriptor < CYDMA_DESCR_NR));
ARM GAS  C:\Users\Jerry\AppData\Local\Temp\cc4H4eWK.s 			page 53


1357:Generated_Source\PSoC4/CyDMA.c ****     CYASSERT(0u == (preemptable & (uint32)~CYDMA_PREEMPTABLE));
1358:Generated_Source\PSoC4/CyDMA.c **** 
1359:Generated_Source\PSoC4/CyDMA.c ****     regValue = CYDMA_DESCR_BASE.descriptor[channel][descriptor].ctl & (uint32)~CYDMA_PREEMPTABLE;
 1510              		.loc 1 1359 0
 1511 0000 4000     		lsl	r0, r0, #1
 1512              	.LVL132:
 1513 0002 4118     		add	r1, r0, r1
 1514              	.LVL133:
 1515 0004 044B     		ldr	r3, .L144
 1516 0006 0901     		lsl	r1, r1, #4
 1517 0008 C918     		add	r1, r1, r3
 1518 000a 8868     		ldr	r0, [r1, #8]
 1519              	.LVL134:
 1520 000c 034B     		ldr	r3, .L144+4
1360:Generated_Source\PSoC4/CyDMA.c ****     CYDMA_DESCR_BASE.descriptor[channel][descriptor].ctl = regValue | preemptable;
1361:Generated_Source\PSoC4/CyDMA.c **** }
 1521              		.loc 1 1361 0
 1522              		@ sp needed
1359:Generated_Source\PSoC4/CyDMA.c ****     CYDMA_DESCR_BASE.descriptor[channel][descriptor].ctl = regValue | preemptable;
 1523              		.loc 1 1359 0
 1524 000e 0340     		and	r3, r0
 1525              	.LVL135:
1360:Generated_Source\PSoC4/CyDMA.c ****     CYDMA_DESCR_BASE.descriptor[channel][descriptor].ctl = regValue | preemptable;
 1526              		.loc 1 1360 0
 1527 0010 1A43     		orr	r2, r3
 1528              	.LVL136:
 1529 0012 8A60     		str	r2, [r1, #8]
 1530              		.loc 1 1361 0
 1531 0014 7047     		bx	lr
 1532              	.L145:
 1533 0016 C046     		.align	2
 1534              	.L144:
 1535 0018 00181040 		.word	1074796544
 1536 001c FFFFFFEF 		.word	-268435457
 1537              		.cfi_endproc
 1538              	.LFE45:
 1539              		.size	CyDmaSetPreemptable, .-CyDmaSetPreemptable
 1540              		.section	.text.CyDmaGetPreemptable,"ax",%progbits
 1541              		.align	1
 1542              		.global	CyDmaGetPreemptable
 1543              		.code	16
 1544              		.thumb_func
 1545              		.type	CyDmaGetPreemptable, %function
 1546              	CyDmaGetPreemptable:
 1547              	.LFB46:
1362:Generated_Source\PSoC4/CyDMA.c **** 
1363:Generated_Source\PSoC4/CyDMA.c **** 
1364:Generated_Source\PSoC4/CyDMA.c **** /*******************************************************************************
1365:Generated_Source\PSoC4/CyDMA.c **** * Function Name: CyDmaGetPreemptable
1366:Generated_Source\PSoC4/CyDMA.c **** ********************************************************************************
1367:Generated_Source\PSoC4/CyDMA.c **** *
1368:Generated_Source\PSoC4/CyDMA.c **** * Summary:
1369:Generated_Source\PSoC4/CyDMA.c **** *  Returns whether or not the descriptor is preemptable.
1370:Generated_Source\PSoC4/CyDMA.c **** *
1371:Generated_Source\PSoC4/CyDMA.c **** * Parameters:
1372:Generated_Source\PSoC4/CyDMA.c **** *  channel:    Channel used by this function.
1373:Generated_Source\PSoC4/CyDMA.c **** *  descriptor: Descriptor (0 or 1) modified by this function.
ARM GAS  C:\Users\Jerry\AppData\Local\Temp\cc4H4eWK.s 			page 54


1374:Generated_Source\PSoC4/CyDMA.c **** *                   
1375:Generated_Source\PSoC4/CyDMA.c **** * Return:
1376:Generated_Source\PSoC4/CyDMA.c **** *  Descriptor preemption setting. Refer to the API bit field definitions in
1377:Generated_Source\PSoC4/CyDMA.c **** *  CyDMA_P4.h or the API description in the DMA channel datasheet for more
1378:Generated_Source\PSoC4/CyDMA.c **** *  information.
1379:Generated_Source\PSoC4/CyDMA.c **** *
1380:Generated_Source\PSoC4/CyDMA.c **** *******************************************************************************/
1381:Generated_Source\PSoC4/CyDMA.c **** uint32 CyDmaGetPreemptable(int32 channel, int32 descriptor)
1382:Generated_Source\PSoC4/CyDMA.c **** {
 1548              		.loc 1 1382 0
 1549              		.cfi_startproc
 1550              	.LVL137:
1383:Generated_Source\PSoC4/CyDMA.c ****     CYASSERT((channel    >= 0) && (channel    < CYDMA_CH_NR));
1384:Generated_Source\PSoC4/CyDMA.c ****     CYASSERT((descriptor >= 0) && (descriptor < CYDMA_DESCR_NR));
1385:Generated_Source\PSoC4/CyDMA.c **** 
1386:Generated_Source\PSoC4/CyDMA.c ****     return (CYDMA_DESCR_BASE.descriptor[channel][descriptor].ctl & CYDMA_PREEMPTABLE);
 1551              		.loc 1 1386 0
 1552 0000 4000     		lsl	r0, r0, #1
 1553              	.LVL138:
 1554 0002 4118     		add	r1, r0, r1
 1555              	.LVL139:
 1556 0004 034B     		ldr	r3, .L147
 1557 0006 0901     		lsl	r1, r1, #4
 1558 0008 C918     		add	r1, r1, r3
 1559 000a 8023     		mov	r3, #128
 1560 000c 8868     		ldr	r0, [r1, #8]
 1561 000e 5B05     		lsl	r3, r3, #21
 1562 0010 1840     		and	r0, r3
1387:Generated_Source\PSoC4/CyDMA.c **** }
 1563              		.loc 1 1387 0
 1564              		@ sp needed
 1565 0012 7047     		bx	lr
 1566              	.L148:
 1567              		.align	2
 1568              	.L147:
 1569 0014 00181040 		.word	1074796544
 1570              		.cfi_endproc
 1571              	.LFE46:
 1572              		.size	CyDmaGetPreemptable, .-CyDmaGetPreemptable
 1573              		.section	.text.CyDmaSetPostCompletionActions,"ax",%progbits
 1574              		.align	1
 1575              		.global	CyDmaSetPostCompletionActions
 1576              		.code	16
 1577              		.thumb_func
 1578              		.type	CyDmaSetPostCompletionActions, %function
 1579              	CyDmaSetPostCompletionActions:
 1580              	.LFB47:
1388:Generated_Source\PSoC4/CyDMA.c **** 
1389:Generated_Source\PSoC4/CyDMA.c **** 
1390:Generated_Source\PSoC4/CyDMA.c **** /*******************************************************************************
1391:Generated_Source\PSoC4/CyDMA.c **** * Function Name: CyDmaSetPostCompletionActions
1392:Generated_Source\PSoC4/CyDMA.c **** ********************************************************************************
1393:Generated_Source\PSoC4/CyDMA.c **** *
1394:Generated_Source\PSoC4/CyDMA.c **** * Summary:
1395:Generated_Source\PSoC4/CyDMA.c **** *  Determines what occurs after a descriptor completes.
1396:Generated_Source\PSoC4/CyDMA.c **** *
1397:Generated_Source\PSoC4/CyDMA.c **** * Parameters:
ARM GAS  C:\Users\Jerry\AppData\Local\Temp\cc4H4eWK.s 			page 55


1398:Generated_Source\PSoC4/CyDMA.c **** *  channel:    Channel used by this function.
1399:Generated_Source\PSoC4/CyDMA.c **** *  descriptor: Descriptor (0 or 1) modified by this function.
1400:Generated_Source\PSoC4/CyDMA.c **** *  actions:    Specifies descriptor post completion actions. Refer to the API
1401:Generated_Source\PSoC4/CyDMA.c **** *              bit field definitions in CyDMA_P4.h or the API description
1402:Generated_Source\PSoC4/CyDMA.c **** *              in the DMA channel datasheet for the parameter options.
1403:Generated_Source\PSoC4/CyDMA.c **** *                   
1404:Generated_Source\PSoC4/CyDMA.c **** * Return:
1405:Generated_Source\PSoC4/CyDMA.c **** *  None.  
1406:Generated_Source\PSoC4/CyDMA.c **** *
1407:Generated_Source\PSoC4/CyDMA.c **** * Side effect:
1408:Generated_Source\PSoC4/CyDMA.c **** *  This function should not be called when the specified descriptor is active
1409:Generated_Source\PSoC4/CyDMA.c **** *  in the DMA transfer engine. This can be checked by calling CyDmaGetStatus(). 
1410:Generated_Source\PSoC4/CyDMA.c **** *
1411:Generated_Source\PSoC4/CyDMA.c **** *******************************************************************************/
1412:Generated_Source\PSoC4/CyDMA.c **** void CyDmaSetPostCompletionActions(int32 channel, int32 descriptor, uint32 actions)
1413:Generated_Source\PSoC4/CyDMA.c **** {
 1581              		.loc 1 1413 0
 1582              		.cfi_startproc
 1583              	.LVL140:
1414:Generated_Source\PSoC4/CyDMA.c ****     uint32 regValue;
1415:Generated_Source\PSoC4/CyDMA.c **** 
1416:Generated_Source\PSoC4/CyDMA.c ****     CYASSERT((channel    >= 0) && (channel    < CYDMA_CH_NR));
1417:Generated_Source\PSoC4/CyDMA.c ****     CYASSERT((descriptor >= 0) && (descriptor < CYDMA_DESCR_NR));
1418:Generated_Source\PSoC4/CyDMA.c ****     CYASSERT(0u == (actions & (uint32)~CYDMA_POST_COMPLETE_ACTIONS));
1419:Generated_Source\PSoC4/CyDMA.c **** 
1420:Generated_Source\PSoC4/CyDMA.c ****     regValue = CYDMA_DESCR_BASE.descriptor[channel][descriptor].ctl & (uint32)~CYDMA_POST_COMPLETE_
 1584              		.loc 1 1420 0
 1585 0000 4000     		lsl	r0, r0, #1
 1586              	.LVL141:
 1587 0002 4118     		add	r1, r0, r1
 1588              	.LVL142:
 1589 0004 044B     		ldr	r3, .L150
 1590 0006 0901     		lsl	r1, r1, #4
 1591 0008 C918     		add	r1, r1, r3
 1592 000a 8868     		ldr	r0, [r1, #8]
 1593              	.LVL143:
 1594 000c 034B     		ldr	r3, .L150+4
1421:Generated_Source\PSoC4/CyDMA.c ****     CYDMA_DESCR_BASE.descriptor[channel][descriptor].ctl = regValue | actions;
1422:Generated_Source\PSoC4/CyDMA.c **** }
 1595              		.loc 1 1422 0
 1596              		@ sp needed
1420:Generated_Source\PSoC4/CyDMA.c ****     CYDMA_DESCR_BASE.descriptor[channel][descriptor].ctl = regValue | actions;
 1597              		.loc 1 1420 0
 1598 000e 0340     		and	r3, r0
 1599              	.LVL144:
1421:Generated_Source\PSoC4/CyDMA.c ****     CYDMA_DESCR_BASE.descriptor[channel][descriptor].ctl = regValue | actions;
 1600              		.loc 1 1421 0
 1601 0010 1A43     		orr	r2, r3
 1602              	.LVL145:
 1603 0012 8A60     		str	r2, [r1, #8]
 1604              		.loc 1 1422 0
 1605 0014 7047     		bx	lr
 1606              	.L151:
 1607 0016 C046     		.align	2
 1608              	.L150:
 1609 0018 00181040 		.word	1074796544
 1610 001c FFFFFFD3 		.word	-738197505
ARM GAS  C:\Users\Jerry\AppData\Local\Temp\cc4H4eWK.s 			page 56


 1611              		.cfi_endproc
 1612              	.LFE47:
 1613              		.size	CyDmaSetPostCompletionActions, .-CyDmaSetPostCompletionActions
 1614              		.section	.text.CyDmaGetPostCompletionActions,"ax",%progbits
 1615              		.align	1
 1616              		.global	CyDmaGetPostCompletionActions
 1617              		.code	16
 1618              		.thumb_func
 1619              		.type	CyDmaGetPostCompletionActions, %function
 1620              	CyDmaGetPostCompletionActions:
 1621              	.LFB48:
1423:Generated_Source\PSoC4/CyDMA.c **** 
1424:Generated_Source\PSoC4/CyDMA.c **** 
1425:Generated_Source\PSoC4/CyDMA.c **** /*******************************************************************************
1426:Generated_Source\PSoC4/CyDMA.c **** * Function Name: CyDmaGetPostCompletionActions
1427:Generated_Source\PSoC4/CyDMA.c **** ********************************************************************************
1428:Generated_Source\PSoC4/CyDMA.c **** *
1429:Generated_Source\PSoC4/CyDMA.c **** * Summary:
1430:Generated_Source\PSoC4/CyDMA.c **** *  Returns the post descriptor action settings as set by 
1431:Generated_Source\PSoC4/CyDMA.c **** *  CyDmaSetPostCompletionActions() or CyDmaSetConfiguration().
1432:Generated_Source\PSoC4/CyDMA.c **** *
1433:Generated_Source\PSoC4/CyDMA.c **** * Parameters:
1434:Generated_Source\PSoC4/CyDMA.c **** *  channel:    Channel used by this function.
1435:Generated_Source\PSoC4/CyDMA.c **** *  descriptor: Descriptor (0 or 1) modified by this function.
1436:Generated_Source\PSoC4/CyDMA.c **** *                   
1437:Generated_Source\PSoC4/CyDMA.c **** * Return:
1438:Generated_Source\PSoC4/CyDMA.c **** *  Post descriptor actions. Refer to the API bit field definitions in
1439:Generated_Source\PSoC4/CyDMA.c **** *  CyDMA_P4.h or the API description in the DMA channel datasheet for more
1440:Generated_Source\PSoC4/CyDMA.c **** *  information.
1441:Generated_Source\PSoC4/CyDMA.c **** *
1442:Generated_Source\PSoC4/CyDMA.c **** *******************************************************************************/
1443:Generated_Source\PSoC4/CyDMA.c **** uint32 CyDmaGetPostCompletionActions(int32 channel, int32 descriptor)
1444:Generated_Source\PSoC4/CyDMA.c **** {
 1622              		.loc 1 1444 0
 1623              		.cfi_startproc
 1624              	.LVL146:
1445:Generated_Source\PSoC4/CyDMA.c ****     CYASSERT((channel    >= 0) && (channel    < CYDMA_CH_NR));
1446:Generated_Source\PSoC4/CyDMA.c ****     CYASSERT((descriptor >= 0) && (descriptor < CYDMA_DESCR_NR));
1447:Generated_Source\PSoC4/CyDMA.c **** 
1448:Generated_Source\PSoC4/CyDMA.c ****     return (CYDMA_DESCR_BASE.descriptor[channel][descriptor].ctl & CYDMA_POST_COMPLETE_ACTIONS);
 1625              		.loc 1 1448 0
 1626 0000 4000     		lsl	r0, r0, #1
 1627              	.LVL147:
 1628 0002 4118     		add	r1, r0, r1
 1629              	.LVL148:
 1630 0004 034B     		ldr	r3, .L153
 1631 0006 0901     		lsl	r1, r1, #4
 1632 0008 C918     		add	r1, r1, r3
 1633 000a B023     		mov	r3, #176
 1634 000c 8868     		ldr	r0, [r1, #8]
 1635 000e 9B05     		lsl	r3, r3, #22
 1636 0010 1840     		and	r0, r3
1449:Generated_Source\PSoC4/CyDMA.c **** }
 1637              		.loc 1 1449 0
 1638              		@ sp needed
 1639 0012 7047     		bx	lr
 1640              	.L154:
ARM GAS  C:\Users\Jerry\AppData\Local\Temp\cc4H4eWK.s 			page 57


 1641              		.align	2
 1642              	.L153:
 1643 0014 00181040 		.word	1074796544
 1644              		.cfi_endproc
 1645              	.LFE48:
 1646              		.size	CyDmaGetPostCompletionActions, .-CyDmaGetPostCompletionActions
 1647              		.data
 1648              		.align	2
 1649              		.set	.LANCHOR0,. + 0
 1650              		.type	CyDmaInterruptCallback, %object
 1651              		.size	CyDmaInterruptCallback, 32
 1652              	CyDmaInterruptCallback:
 1653 0000 00000000 		.word	CyDmaDefaultInterruptCallback
 1654 0004 00000000 		.word	CyDmaDefaultInterruptCallback
 1655 0008 00000000 		.word	CyDmaDefaultInterruptCallback
 1656 000c 00000000 		.word	CyDmaDefaultInterruptCallback
 1657 0010 00000000 		.word	CyDmaDefaultInterruptCallback
 1658 0014 00000000 		.word	CyDmaDefaultInterruptCallback
 1659 0018 00000000 		.word	CyDmaDefaultInterruptCallback
 1660 001c 00000000 		.word	CyDmaDefaultInterruptCallback
 1661              		.type	CyDmaChannelUsedMask, %object
 1662              		.size	CyDmaChannelUsedMask, 4
 1663              	CyDmaChannelUsedMask:
 1664 0020 01000000 		.word	1
 1665              		.bss
 1666              		.set	.LANCHOR1,. + 0
 1667              		.type	initIntrVector.4912, %object
 1668              		.size	initIntrVector.4912, 1
 1669              	initIntrVector.4912:
 1670 0000 00       		.space	1
 1671              		.text
 1672              	.Letext0:
 1673              		.file 2 "Generated_Source\\PSoC4\\cytypes.h"
 1674              		.file 3 "Generated_Source\\PSoC4\\CyDMA.h"
 1675              		.file 4 "Generated_Source\\PSoC4\\CyLib.h"