ARM GAS  C:\Users\Jerry\AppData\Local\Temp\ccggdixZ.s 			page 1


   1              		.cpu cortex-m0plus
   2              		.fpu softvfp
   3              		.eabi_attribute 20, 1
   4              		.eabi_attribute 21, 1
   5              		.eabi_attribute 23, 3
   6              		.eabi_attribute 24, 1
   7              		.eabi_attribute 25, 1
   8              		.eabi_attribute 26, 1
   9              		.eabi_attribute 30, 4
  10              		.eabi_attribute 34, 0
  11              		.eabi_attribute 18, 4
  12              		.code	16
  13              		.file	"iprintf.c"
  14              		.text
  15              	.Ltext0:
  16              		.cfi_sections	.debug_frame
  17              		.global	__aeabi_uidivmod
  18              		.global	__aeabi_uidiv
  19              		.section	.text.iprintf,"ax",%progbits
  20              		.align	1
  21              		.global	iprintf
  22              		.code	16
  23              		.thumb_func
  24              		.type	iprintf, %function
  25              	iprintf:
  26              	.LFB96:
  27              		.file 1 "iprintf.c"
   1:iprintf.c     **** /***************************************************************************//**
   2:iprintf.c     **** * @file    iprintf.c
   3:iprintf.c     **** * @version 1.0.0
   4:iprintf.c     **** *
   5:iprintf.c     **** * @brief Low resource printf() replacement.
   6:iprintf.c     **** *
   7:iprintf.c     **** * @par Description
   8:iprintf.c     **** *    Simplified low resource printf() function replacement. Outputs directly
   9:iprintf.c     **** * to UART. Available format modifiers: \%s, \%d, \%c, \%x.
  10:iprintf.c     **** *
  11:iprintf.c     **** * @warning
  12:iprintf.c     **** *    - Modify function iputc() according to current UART name.
  13:iprintf.c     **** *
  14:iprintf.c     **** * @par Source
  15:iprintf.c     **** *    http://www.cypress.com/knowledge-base-article/alternate-printf-function-psoc-4-kba87093
  16:iprintf.c     **** *
  17:iprintf.c     **** * @par Components
  18:iprintf.c     **** *    - SCB_P4         [UART]
  19:iprintf.c     **** *
  20:iprintf.c     **** *******************************************************************************/
  21:iprintf.c     **** #include "iprintf.h"
  22:iprintf.c     **** 
  23:iprintf.c     **** /// @var static const uint8_t NUM_CHARS[]
  24:iprintf.c     **** /// @brief Character table for decimal and hexadecimal conversion
  25:iprintf.c     **** static const uint8_t NUM_CHARS[16] = "0123456789ABCDEF";
  26:iprintf.c     **** 
  27:iprintf.c     **** /// @brief Customized single character output function.
  28:iprintf.c     **** /// @param ch Character to output
  29:iprintf.c     **** /// @return none
  30:iprintf.c     **** static void iputc(char8 ch);
ARM GAS  C:\Users\Jerry\AppData\Local\Temp\ccggdixZ.s 			page 2


  31:iprintf.c     **** 
  32:iprintf.c     **** /*******************************************************************************
  33:iprintf.c     **** * Function Name: iputc
  34:iprintf.c     **** ****************************************************************************//**
  35:iprintf.c     **** * @par Summary
  36:iprintf.c     **** *    Outputs single character to UART specified by UartPutChar() function
  37:iprintf.c     **** * prefix.
  38:iprintf.c     **** *******************************************************************************/
  39:iprintf.c     **** static void 
  40:iprintf.c     **** iputc(char8 ch)
  41:iprintf.c     **** {
  42:iprintf.c     **** 	// !! MODIFY HERE function prefix according to current UART name
  43:iprintf.c     **** 	UART_UartPutChar(ch);
  44:iprintf.c     **** }
  45:iprintf.c     **** 
  46:iprintf.c     **** /*******************************************************************************
  47:iprintf.c     **** * Function Name: iprintf
  48:iprintf.c     **** ****************************************************************************//**
  49:iprintf.c     **** * @par Summary
  50:iprintf.c     **** *    This is a drop-in printf() function replacement which outputs straight 
  51:iprintf.c     **** * to UART. It supports only a subset of printf format specifiers. Supported
  52:iprintf.c     **** * format specifiers are \%s, \%d, \%c and \%x.
  53:iprintf.c     **** *******************************************************************************/
  54:iprintf.c     **** void 
  55:iprintf.c     **** iprintf(char8 *pszFmt, ...)
  56:iprintf.c     **** {
  28              		.loc 1 56 0
  29              		.cfi_startproc
  30              	.LVL0:
  31 0000 0FB4     		push	{r0, r1, r2, r3}
  32              		.cfi_def_cfa_offset 16
  33 0002 F0B5     		push	{r4, r5, r6, r7, lr}
  34              		.cfi_def_cfa_offset 36
  35              		.cfi_offset 4, -36
  36              		.cfi_offset 5, -32
  37              		.cfi_offset 6, -28
  38              		.cfi_offset 7, -24
  39              		.cfi_offset 14, -20
  57:iprintf.c     ****     uint8 *pszVal;
  58:iprintf.c     ****     uint32  index = 1;
  40              		.loc 1 58 0
  41 0004 0125     		mov	r5, #1
  56:iprintf.c     ****     uint8 *pszVal;
  42              		.loc 1 56 0
  43 0006 87B0     		sub	sp, sp, #28
  44              		.cfi_def_cfa_offset 64
  45              	.LVL1:
  46              	.L2:
  59:iprintf.c     ****     uint32  num_cnt;
  60:iprintf.c     ****     uint8_t buffer[12];
  61:iprintf.c     ****     uint32 *p_arg;
  62:iprintf.c     **** 
  63:iprintf.c     ****     p_arg = (uint32 *)&pszFmt;
  64:iprintf.c     **** 
  65:iprintf.c     ****     while (*pszFmt)
  47              		.loc 1 65 0
  48 0008 0C9C     		ldr	r4, [sp, #48]
ARM GAS  C:\Users\Jerry\AppData\Local\Temp\ccggdixZ.s 			page 3


  49 000a 2078     		ldrb	r0, [r4]
  50 000c 0028     		cmp	r0, #0
  51 000e 6ED0     		beq	.L1
  52 0010 661C     		add	r6, r4, #1
  66:iprintf.c     ****     {
  67:iprintf.c     ****         if('%' != *pszFmt)
  53              		.loc 1 67 0
  54 0012 2528     		cmp	r0, #37
  55 0014 03D0     		beq	.L3
  56              	.LVL2:
  57              	.LBB14:
  58              	.LBB15:
  43:iprintf.c     **** }
  59              		.loc 1 43 0
  60 0016 FFF7FEFF 		bl	UART_SpiUartWriteTxData
  61              	.LVL3:
  62              	.LBE15:
  63              	.LBE14:
  68:iprintf.c     ****         {
  69:iprintf.c     ****             iputc(*pszFmt);
  70:iprintf.c     ****             pszFmt++;
  64              		.loc 1 70 0
  65 001a 0C96     		str	r6, [sp, #48]
  71:iprintf.c     ****             continue;
  66              		.loc 1 71 0
  67 001c F4E7     		b	.L2
  68              	.L3:
  72:iprintf.c     ****         }
  73:iprintf.c     **** 
  74:iprintf.c     ****         pszFmt++;
  75:iprintf.c     **** 
  76:iprintf.c     ****         if ('s' == *pszFmt)
  69              		.loc 1 76 0
  70 001e 6378     		ldrb	r3, [r4, #1]
  74:iprintf.c     **** 
  71              		.loc 1 74 0
  72 0020 0C96     		str	r6, [sp, #48]
  73              		.loc 1 76 0
  74 0022 732B     		cmp	r3, #115
  75 0024 0BD1     		bne	.L5
  77:iprintf.c     ****         {
  78:iprintf.c     ****             pszVal = (uint8*)p_arg[index++];
  76              		.loc 1 78 0
  77 0026 6E1C     		add	r6, r5, #1
  78              	.LVL4:
  79 0028 0CAB     		add	r3, sp, #48
  80              	.LVL5:
  81 002a AD00     		lsl	r5, r5, #2
  82 002c 5D19     		add	r5, r3, r5
  83 002e 2D68     		ldr	r5, [r5]
  84              	.LVL6:
  85              	.L6:
  79:iprintf.c     ****             for (; *pszVal != '\0'; pszVal++)
  86              		.loc 1 79 0 discriminator 1
  87 0030 2878     		ldrb	r0, [r5]
  88 0032 0028     		cmp	r0, #0
  89 0034 55D0     		beq	.L19
ARM GAS  C:\Users\Jerry\AppData\Local\Temp\ccggdixZ.s 			page 4


  90              	.LVL7:
  91              	.LBB16:
  92              	.LBB17:
  43:iprintf.c     **** }
  93              		.loc 1 43 0 discriminator 2
  94 0036 FFF7FEFF 		bl	UART_SpiUartWriteTxData
  95              	.LVL8:
  96              	.LBE17:
  97              	.LBE16:
  98              		.loc 1 79 0 discriminator 2
  99 003a 0135     		add	r5, r5, #1
 100              	.LVL9:
 101 003c F8E7     		b	.L6
 102              	.LVL10:
 103              	.L5:
  80:iprintf.c     ****             {
  81:iprintf.c     ****                 iputc(*pszVal);
  82:iprintf.c     ****             }
  83:iprintf.c     ****             pszFmt++;
  84:iprintf.c     ****             continue;
  85:iprintf.c     ****         }
  86:iprintf.c     **** 
  87:iprintf.c     ****         if ('d' == *pszFmt)
 104              		.loc 1 87 0
 105 003e 642B     		cmp	r3, #100
 106 0040 22D1     		bne	.L8
 107              	.LBB18:
  88:iprintf.c     ****         {
  89:iprintf.c     ****             uint32_t i_val = p_arg[index++];
  90:iprintf.c     ****             num_cnt = 0;
 108              		.loc 1 90 0
 109 0042 0026     		mov	r6, #0
  89:iprintf.c     ****             num_cnt = 0;
 110              		.loc 1 89 0
 111 0044 6B1C     		add	r3, r5, #1
 112 0046 0193     		str	r3, [sp, #4]
 113              	.LVL11:
 114 0048 AD00     		lsl	r5, r5, #2
 115 004a 0CAB     		add	r3, sp, #48
 116              	.LVL12:
 117 004c 5D19     		add	r5, r3, r5
 118 004e 2F68     		ldr	r7, [r5]
 119              	.LVL13:
 120              	.L9:
 121 0050 03AB     		add	r3, sp, #12
  91:iprintf.c     ****             do
  92:iprintf.c     ****             {
  93:iprintf.c     ****                 buffer[num_cnt++] = i_val % 10;
 122              		.loc 1 93 0 discriminator 1
 123 0052 381C     		mov	r0, r7
 124 0054 0A21     		mov	r1, #10
 125 0056 751C     		add	r5, r6, #1
 126              	.LVL14:
 127 0058 9E19     		add	r6, r3, r6
 128 005a FFF7FEFF 		bl	__aeabi_uidivmod
 129              	.LVL15:
  94:iprintf.c     ****                 i_val /= 10;
ARM GAS  C:\Users\Jerry\AppData\Local\Temp\ccggdixZ.s 			page 5


 130              		.loc 1 94 0 discriminator 1
 131 005e 381C     		mov	r0, r7
  93:iprintf.c     ****                 i_val /= 10;
 132              		.loc 1 93 0 discriminator 1
 133 0060 3170     		strb	r1, [r6]
 134              		.loc 1 94 0 discriminator 1
 135 0062 0A21     		mov	r1, #10
 136 0064 FFF7FEFF 		bl	__aeabi_uidiv
 137              	.LVL16:
  93:iprintf.c     ****                 i_val /= 10;
 138              		.loc 1 93 0 discriminator 1
 139 0068 2E1C     		mov	r6, r5
 140              		.loc 1 94 0 discriminator 1
 141 006a 071E     		sub	r7, r0, #0
 142              	.LVL17:
  95:iprintf.c     ****             }
  96:iprintf.c     ****             while (i_val);
 143              		.loc 1 96 0 discriminator 1
 144 006c F0D1     		bne	.L9
 145              	.LVL18:
 146              	.L10:
  97:iprintf.c     ****             
  98:iprintf.c     ****             while (num_cnt > 0)
  99:iprintf.c     ****             {
 100:iprintf.c     ****                 num_cnt--;
 147              		.loc 1 100 0
 148 006e 013D     		sub	r5, r5, #1
 149              	.LVL19:
 101:iprintf.c     ****                 iputc(NUM_CHARS[buffer[num_cnt]]);
 150              		.loc 1 101 0
 151 0070 03AB     		add	r3, sp, #12
 152 0072 5B5D     		ldrb	r3, [r3, r5]
 153              	.LBB19:
 154              	.LBB20:
  43:iprintf.c     **** }
 155              		.loc 1 43 0
 156 0074 204A     		ldr	r2, .L21
 157 0076 D05C     		ldrb	r0, [r2, r3]
 158 0078 FFF7FEFF 		bl	UART_SpiUartWriteTxData
 159              	.LVL20:
 160              	.LBE20:
 161              	.LBE19:
  98:iprintf.c     ****             {
 162              		.loc 1 98 0
 163 007c 002D     		cmp	r5, #0
 164 007e F6D1     		bne	.L10
 102:iprintf.c     ****             }
 103:iprintf.c     ****             pszFmt++;
 165              		.loc 1 103 0
 166 0080 0234     		add	r4, r4, #2
 167 0082 0C94     		str	r4, [sp, #48]
  89:iprintf.c     ****             num_cnt = 0;
 168              		.loc 1 89 0
 169 0084 019D     		ldr	r5, [sp, #4]
 170              	.LVL21:
 104:iprintf.c     ****             continue;
 171              		.loc 1 104 0
ARM GAS  C:\Users\Jerry\AppData\Local\Temp\ccggdixZ.s 			page 6


 172 0086 BFE7     		b	.L2
 173              	.LVL22:
 174              	.L8:
 175              	.LBE18:
 105:iprintf.c     ****         }
 106:iprintf.c     **** 
 107:iprintf.c     ****         if ('c' == *pszFmt)
 176              		.loc 1 107 0
 177 0088 632B     		cmp	r3, #99
 178 008a 08D1     		bne	.L11
 108:iprintf.c     ****         {
 109:iprintf.c     ****             iputc((uint8_t)p_arg[index++]);
 179              		.loc 1 109 0
 180 008c 6E1C     		add	r6, r5, #1
 181              	.LVL23:
 182 008e 0CAB     		add	r3, sp, #48
 183              	.LVL24:
 184 0090 AD00     		lsl	r5, r5, #2
 185              	.LVL25:
 186 0092 5D19     		add	r5, r3, r5
 187              	.LBB21:
 188              	.LBB22:
  43:iprintf.c     **** }
 189              		.loc 1 43 0
 190 0094 2868     		ldr	r0, [r5]
 191 0096 C0B2     		uxtb	r0, r0
 192 0098 FFF7FEFF 		bl	UART_SpiUartWriteTxData
 193              	.LVL26:
 194 009c 21E0     		b	.L19
 195              	.LVL27:
 196              	.L11:
 197              	.LBE22:
 198              	.LBE21:
 110:iprintf.c     ****             pszFmt++;
 111:iprintf.c     ****             continue;
 112:iprintf.c     ****         }
 113:iprintf.c     **** 
 114:iprintf.c     ****         if ('x' == *pszFmt)
 199              		.loc 1 114 0
 200 009e 782B     		cmp	r3, #120
 201 00a0 23D1     		bne	.L12
 202              	.LBB23:
 115:iprintf.c     ****         {
 116:iprintf.c     ****             uint32_t x_val = p_arg[index++];
 203              		.loc 1 116 0
 204 00a2 0CAB     		add	r3, sp, #48
 205              	.LVL28:
 206 00a4 6E1C     		add	r6, r5, #1
 207              	.LVL29:
 208 00a6 AD00     		lsl	r5, r5, #2
 209 00a8 5D19     		add	r5, r3, r5
 117:iprintf.c     ****             num_cnt = 0;
 210              		.loc 1 117 0
 211 00aa 0023     		mov	r3, #0
 212              	.LVL30:
 116:iprintf.c     ****             num_cnt = 0;
 213              		.loc 1 116 0
ARM GAS  C:\Users\Jerry\AppData\Local\Temp\ccggdixZ.s 			page 7


 214 00ac 2A68     		ldr	r2, [r5]
 215              	.LVL31:
 216              	.L13:
 118:iprintf.c     ****             do
 119:iprintf.c     ****             {
 120:iprintf.c     ****                 buffer[num_cnt++] = x_val % 16;
 217              		.loc 1 120 0 discriminator 1
 218 00ae 0F21     		mov	r1, #15
 219 00b0 5D1C     		add	r5, r3, #1
 220              	.LVL32:
 221 00b2 1140     		and	r1, r2
 222 00b4 03AF     		add	r7, sp, #12
 223 00b6 F954     		strb	r1, [r7, r3]
 121:iprintf.c     ****                 x_val /= 16;
 224              		.loc 1 121 0 discriminator 1
 225 00b8 1209     		lsr	r2, r2, #4
 226              	.LVL33:
 120:iprintf.c     ****                 x_val /= 16;
 227              		.loc 1 120 0 discriminator 1
 228 00ba 2B1C     		mov	r3, r5
 122:iprintf.c     ****             } 
 123:iprintf.c     ****             while (x_val);
 229              		.loc 1 123 0 discriminator 1
 230 00bc 002A     		cmp	r2, #0
 231 00be F6D1     		bne	.L13
 124:iprintf.c     **** 
 125:iprintf.c     ****             if (0 != (num_cnt % 2))
 232              		.loc 1 125 0
 233 00c0 E907     		lsl	r1, r5, #31
 234 00c2 02D5     		bpl	.L14
 126:iprintf.c     ****             {
 127:iprintf.c     ****                 buffer[num_cnt++] = 0;
 235              		.loc 1 127 0
 236 00c4 0135     		add	r5, r5, #1
 237              	.LVL34:
 238 00c6 FA54     		strb	r2, [r7, r3]
 239 00c8 03E0     		b	.L16
 240              	.LVL35:
 241              	.L14:
 128:iprintf.c     ****             }
 129:iprintf.c     **** 
 130:iprintf.c     ****             if (2 > num_cnt)
 242              		.loc 1 130 0
 243 00ca 012D     		cmp	r5, #1
 244 00cc 01D1     		bne	.L16
 245              	.LVL36:
 131:iprintf.c     ****             {
 132:iprintf.c     ****                 buffer[num_cnt++] = 0;
 246              		.loc 1 132 0
 247 00ce 0225     		mov	r5, #2
 248              	.LVL37:
 249 00d0 7A70     		strb	r2, [r7, #1]
 250              	.LVL38:
 251              	.L16:
 133:iprintf.c     ****             }
 134:iprintf.c     **** 
 135:iprintf.c     ****             while (0 < num_cnt)
ARM GAS  C:\Users\Jerry\AppData\Local\Temp\ccggdixZ.s 			page 8


 136:iprintf.c     ****             {
 137:iprintf.c     ****                 num_cnt--;
 252              		.loc 1 137 0
 253 00d2 013D     		sub	r5, r5, #1
 254              	.LVL39:
 138:iprintf.c     ****                 iputc(NUM_CHARS[buffer[num_cnt]]);
 255              		.loc 1 138 0
 256 00d4 7B5D     		ldrb	r3, [r7, r5]
 257              	.LBB24:
 258              	.LBB25:
  43:iprintf.c     **** }
 259              		.loc 1 43 0
 260 00d6 084A     		ldr	r2, .L21
 261 00d8 D05C     		ldrb	r0, [r2, r3]
 262 00da FFF7FEFF 		bl	UART_SpiUartWriteTxData
 263              	.LVL40:
 264              	.LBE25:
 265              	.LBE24:
 135:iprintf.c     ****             {
 266              		.loc 1 135 0
 267 00de 002D     		cmp	r5, #0
 268 00e0 F7D1     		bne	.L16
 269              	.LVL41:
 270              	.L19:
 139:iprintf.c     ****             }
 140:iprintf.c     **** 
 141:iprintf.c     ****             pszFmt++;
 271              		.loc 1 141 0
 272 00e2 0234     		add	r4, r4, #2
 273 00e4 0C94     		str	r4, [sp, #48]
 116:iprintf.c     ****             num_cnt = 0;
 274              		.loc 1 116 0
 275 00e6 351C     		mov	r5, r6
 142:iprintf.c     ****             continue;
 276              		.loc 1 142 0
 277 00e8 8EE7     		b	.L2
 278              	.LVL42:
 279              	.L12:
 280              	.LBE23:
 143:iprintf.c     ****         }
 144:iprintf.c     ****         
 145:iprintf.c     ****         if ('\0' == pszFmt)
 281              		.loc 1 145 0
 282 00ea 002E     		cmp	r6, #0
 283 00ec 8CD1     		bne	.L2
 284              	.L1:
 146:iprintf.c     ****         {
 147:iprintf.c     ****             break;
 148:iprintf.c     ****         }
 149:iprintf.c     ****     }
 150:iprintf.c     **** }
 285              		.loc 1 150 0
 286 00ee 07B0     		add	sp, sp, #28
 287              		@ sp needed
 288              	.LVL43:
 289 00f0 F0BC     		pop	{r4, r5, r6, r7}
 290 00f2 08BC     		pop	{r3}
ARM GAS  C:\Users\Jerry\AppData\Local\Temp\ccggdixZ.s 			page 9


 291 00f4 04B0     		add	sp, sp, #16
 292 00f6 1847     		bx	r3
 293              	.L22:
 294              		.align	2
 295              	.L21:
 296 00f8 00000000 		.word	.LANCHOR0
 297              		.cfi_endproc
 298              	.LFE96:
 299              		.size	iprintf, .-iprintf
 300              		.section	.rodata
 301              		.set	.LANCHOR0,. + 0
 302              		.type	NUM_CHARS, %object
 303              		.size	NUM_CHARS, 16
 304              	NUM_CHARS:
 305 0000 30313233 		.ascii	"0123456789ABCDEF"
 305      34353637 
 305      38394142 
 305      43444546 
 306              		.text
 307              	.Letext0:
 308              		.file 2 "c:\\program files (x86)\\cypress\\psoc creator\\4.0\\psoc creator\\import\\gnu\\arm\\4.9.
 309              		.file 3 "c:\\program files (x86)\\cypress\\psoc creator\\4.0\\psoc creator\\import\\gnu\\arm\\4.9.
 310              		.file 4 "Generated_Source\\PSoC4/cytypes.h"
 311              		.file 5 "Generated_Source\\PSoC4/UART_SPI_UART.h"