ARM GAS  C:\Users\Jerry\AppData\Local\Temp\ccngDFcI.s 			page 1


   1              		.cpu cortex-m0plus
   2              		.fpu softvfp
   3              		.eabi_attribute 20, 1
   4              		.eabi_attribute 21, 1
   5              		.eabi_attribute 23, 3
   6              		.eabi_attribute 24, 1
   7              		.eabi_attribute 25, 1
   8              		.eabi_attribute 26, 1
   9              		.eabi_attribute 30, 4
  10              		.eabi_attribute 34, 0
  11              		.eabi_attribute 18, 4
  12              		.code	16
  13              		.file	"main.c"
  14              		.text
  15              	.Ltext0:
  16              		.cfi_sections	.debug_frame
  17              		.section	.text.uart_output_time.isra.0,"ax",%progbits
  18              		.align	1
  19              		.code	16
  20              		.thumb_func
  21              		.type	uart_output_time.isra.0, %function
  22              	uart_output_time.isra.0:
  23              	.LFB99:
  24              		.file 1 "main.c"
   1:main.c        **** /***************************************************************************//**
   2:main.c        **** * @file    main.c
   3:main.c        **** * @version 1.0.0
   4:main.c        **** * @authors Jaroslav Groman
   5:main.c        **** *
   6:main.c        **** * @par Project Name
   7:main.c        **** *    Touch Activated Talking Clock with Thermometer
   8:main.c        **** *
   9:main.c        **** * @par Description
  10:main.c        **** *    This project demonstrates usage of various capabilities of Cypress PSoC
  11:main.c        **** * Analog Coprocessor, namely CapSense, real time clock, thermal measurement and
  12:main.c        **** * UART interfacing. Current time and temperature are announced using
  13:main.c        **** * synthesized speech which allows device usage by visually impaired people.
  14:main.c        **** *
  15:main.c        **** * @par Target device
  16:main.c        **** *    CY8C4A45LQI-483
  17:main.c        **** *
  18:main.c        **** * @par Related hardware
  19:main.c        **** *    CY8CKIT-048
  20:main.c        **** *
  21:main.c        **** * @par Code Tested With
  22:main.c        **** *    1. Silicon: PSoC Analog Coprocessor
  23:main.c        **** *    2. IDE: PSoC Creator 4.0 Update 1 (4.0.0.432)
  24:main.c        **** *    3. Compiler: GCC 4.9.3, ARM MDK 4.54.0.0 (armcc 4.1 b894)
  25:main.c        **** *
  26:main.c        **** * @par Notes
  27:main.c        **** *    For exact time measurement it is necessary to perform hardware modification
  28:main.c        **** * of CY8CKIT-048 developer kit. This modification enables use of kit WCO. 
  29:main.c        **** * Correct WCO operation is enabled by moving zero ohm resistor R149 to position
  30:main.c        **** * R138 and zero ohm resistor R150 to position R30.
  31:main.c        **** * For evaluation purposes it is possible to use kit as-is, using ILO as LFCLK
  32:main.c        **** * source, but timekeeping function will be inaccurate.
  33:main.c        **** * Please see project documentation for details.
ARM GAS  C:\Users\Jerry\AppData\Local\Temp\ccngDFcI.s 			page 2


  34:main.c        **** *
  35:main.c        **** *******************************************************************************/
  36:main.c        **** 
  37:main.c        **** #include "custom_assert.h"
  38:main.c        **** #include "iprintf.h"
  39:main.c        **** #include "lpc_synth.h"
  40:main.c        **** #include "custom_synth.h"
  41:main.c        **** #include "temperature.h"
  42:main.c        **** #include "main.h"
  43:main.c        **** 
  44:main.c        **** /// @brief Single character received from UART.
  45:main.c        **** static uint8_t g_rx_char;
  46:main.c        **** 
  47:main.c        **** /// @brief Output current RTC time to UART.
  48:main.c        **** /// @return void
  49:main.c        **** static void uart_output_time(RTC_DATE_TIME dateTime);
  50:main.c        **** 
  51:main.c        **** /// @brief Output current temperature to UART.
  52:main.c        **** /// @return void
  53:main.c        **** static void uart_output_temperature(int16_t temperature);
  54:main.c        **** 
  55:main.c        **** /// @brief Interactive RTC time editor using UART.
  56:main.c        **** /// @return void
  57:main.c        **** static void uart_edit_time(RTC_DATE_TIME dateTime);
  58:main.c        **** 
  59:main.c        **** /*******************************************************************************
  60:main.c        **** * Function Name: main
  61:main.c        **** ****************************************************************************//**
  62:main.c        **** * @brief Application entry point.
  63:main.c        **** *
  64:main.c        **** * @par Summary
  65:main.c        **** *    This is the main entry point for this application. 
  66:main.c        **** *
  67:main.c        **** * @return
  68:main.c        **** *    None
  69:main.c        **** *
  70:main.c        **** *******************************************************************************/
  71:main.c        **** int 
  72:main.c        **** main(void)
  73:main.c        **** {
  74:main.c        ****     // CapSense variables
  75:main.c        ****     uint8_t b_is_touch_ignored = 0;
  76:main.c        ****     uint8_t b_is_short_touch_done = 0;
  77:main.c        ****     uint32_t touch_active_counter = 0;
  78:main.c        **** 
  79:main.c        ****     // Thermometer variables
  80:main.c        ****     int16_t temperature;
  81:main.c        ****     
  82:main.c        ****     // RTC variables
  83:main.c        ****     RTC_DATE_TIME dateTime;
  84:main.c        **** 
  85:main.c        ****     // UART variables
  86:main.c        ****     uint8_t b_is_prompt_skipped = 1;
  87:main.c        ****     
  88:main.c        ****     CyIntEnable(CYDMA_INTR_NUMBER);
  89:main.c        ****     CyGlobalIntEnable;
  90:main.c        **** 
ARM GAS  C:\Users\Jerry\AppData\Local\Temp\ccngDFcI.s 			page 3


  91:main.c        ****     // Start UART as soon as possible for assert messages
  92:main.c        ****     UART_Start();
  93:main.c        **** 
  94:main.c        ****     // Display app banner
  95:main.c        ****     UART_UartPutString(STRING_CRLF APP_BANNER STRING_CRLF);
  96:main.c        ****     
  97:main.c        ****     // Initialize speech synthesizer hardware
  98:main.c        ****     synth_hw_init();
  99:main.c        ****         
 100:main.c        ****     // Initialize temperature hardware
 101:main.c        ****     temperature_hw_init();
 102:main.c        ****     
 103:main.c        ****     // Initialize CapSense and run initial scan
 104:main.c        ****     CapSense_Start();
 105:main.c        ****     CapSense_ScanAllWidgets();
 106:main.c        **** 
 107:main.c        ****     // Initialize RTC
 108:main.c        ****     RTC_Start();
 109:main.c        ****     
 110:main.c        ****     // Send READY message to UART
 111:main.c        ****     UART_UartPutString(STRING_CRLF STRING_READY STRING_CRLF);
 112:main.c        **** 
 113:main.c        ****     for(;;)
 114:main.c        ****     {
 115:main.c        ****         // *** CapSense Block ***
 116:main.c        **** 
 117:main.c        ****         // If CapSense scan finished, process results
 118:main.c        ****         if (CapSense_NOT_BUSY == CapSense_IsBusy())
 119:main.c        ****         {
 120:main.c        ****             CapSense_ProcessAllWidgets();
 121:main.c        **** 
 122:main.c        ****             // The only possibly active widget is proximity sensor
 123:main.c        ****             if (CapSense_IsAnyWidgetActive())
 124:main.c        ****             {
 125:main.c        ****                 if (!b_is_touch_ignored)
 126:main.c        ****                 {
 127:main.c        ****                     touch_active_counter++;
 128:main.c        **** 
 129:main.c        ****                     if (TOUCH_THRSHLD_LONG < touch_active_counter)
 130:main.c        ****                     {
 131:main.c        ****                         // Long touch action
 132:main.c        ****                         //UART_UartPutString("Touch temp\r\n");
 133:main.c        ****                         temperature = get_temperature();
 134:main.c        ****                         say_temperature(temperature);
 135:main.c        ****                         
 136:main.c        ****                         // Ongoing touch is not processed anymore
 137:main.c        ****                         b_is_touch_ignored = 1;
 138:main.c        ****                     }
 139:main.c        ****                     else if ((TOUCH_THRSHLD_SHORT < touch_active_counter) && 
 140:main.c        ****                                 (!b_is_short_touch_done))
 141:main.c        ****                     {
 142:main.c        ****                         // Short touch action
 143:main.c        ****                         //UART_UartPutString("Touch time\r\n");
 144:main.c        ****                         RTC_GetDateAndTime(&dateTime);
 145:main.c        ****                         say_time(dateTime);
 146:main.c        ****                         
 147:main.c        ****                         // Do not activate more short touch events
ARM GAS  C:\Users\Jerry\AppData\Local\Temp\ccngDFcI.s 			page 4


 148:main.c        ****                         b_is_short_touch_done = 1;
 149:main.c        ****                     }
 150:main.c        ****                 }
 151:main.c        ****             }
 152:main.c        ****             else
 153:main.c        ****             {
 154:main.c        ****                 if (0 != touch_active_counter)
 155:main.c        ****                 {
 156:main.c        ****                     // Touch event just ended
 157:main.c        ****                     // Enable touch processing and short event action
 158:main.c        ****                     b_is_touch_ignored = 0;
 159:main.c        ****                     b_is_short_touch_done = 0;
 160:main.c        ****                     touch_active_counter = 0;
 161:main.c        ****                 }
 162:main.c        ****             }
 163:main.c        **** 
 164:main.c        ****             // Start next scan
 165:main.c        ****             CapSense_ScanAllWidgets();
 166:main.c        ****         }
 167:main.c        **** 
 168:main.c        ****         // *** User Interaction Block ***
 169:main.c        **** 
 170:main.c        ****         // Nonblocking read from UART
 171:main.c        ****         g_rx_char = UART_UartGetChar();
 172:main.c        **** 
 173:main.c        ****         switch (g_rx_char) 
 174:main.c        ****         {
 175:main.c        ****             // No key pressed
 176:main.c        ****             case 0:
 177:main.c        ****             break;
 178:main.c        **** 
 179:main.c        ****             // Enter: echo ready message
 180:main.c        ****             case UART_KEYCODE_ENTER:
 181:main.c        ****                 b_is_prompt_skipped = 0;
 182:main.c        ****             break;
 183:main.c        **** 
 184:main.c        ****             // H: Help
 185:main.c        ****             case 'h':
 186:main.c        ****             case 'H':
 187:main.c        ****                 UART_UartPutString(STRING_HELP STRING_CRLF);
 188:main.c        ****                 b_is_prompt_skipped = 0;
 189:main.c        ****             break;
 190:main.c        **** 
 191:main.c        ****             // D: Display data
 192:main.c        ****             case 'd':
 193:main.c        ****             case 'D':
 194:main.c        ****                 // Display time
 195:main.c        ****                 RTC_GetDateAndTime(&dateTime);
 196:main.c        ****                 uart_output_time(dateTime);
 197:main.c        **** 
 198:main.c        ****                 // Display temperature
 199:main.c        ****                 temperature = get_temperature();
 200:main.c        ****                 uart_output_temperature(temperature);
 201:main.c        **** 
 202:main.c        ****                 b_is_prompt_skipped = 0;
 203:main.c        ****             break;
 204:main.c        **** 
ARM GAS  C:\Users\Jerry\AppData\Local\Temp\ccngDFcI.s 			page 5


 205:main.c        ****             // T: Say time
 206:main.c        ****             case 't':
 207:main.c        ****             case 'T':
 208:main.c        ****                 RTC_GetDateAndTime(&dateTime);
 209:main.c        ****                 uart_output_time(dateTime);
 210:main.c        ****                 say_time(dateTime);
 211:main.c        ****                 b_is_prompt_skipped = 0;
 212:main.c        ****             break;
 213:main.c        **** 
 214:main.c        ****             // E: Edit RTC time
 215:main.c        ****             case 'e':
 216:main.c        ****             case 'E':
 217:main.c        ****                 RTC_GetDateAndTime(&dateTime);
 218:main.c        ****                 uart_edit_time(dateTime);
 219:main.c        ****                 b_is_prompt_skipped = 0;
 220:main.c        ****             break;
 221:main.c        **** 
 222:main.c        ****             // M: Say temperature
 223:main.c        ****             case 'm':
 224:main.c        ****             case 'M':
 225:main.c        ****                 temperature = get_temperature();
 226:main.c        ****                 uart_output_temperature(temperature);
 227:main.c        ****                 say_temperature(temperature);
 228:main.c        ****                 b_is_prompt_skipped = 0;
 229:main.c        ****             break;
 230:main.c        **** 
 231:main.c        ****             // Unhandled keys
 232:main.c        ****             default:
 233:main.c        ****             break;
 234:main.c        ****         }
 235:main.c        ****         
 236:main.c        ****         if (!b_is_prompt_skipped)
 237:main.c        ****         {
 238:main.c        ****             // Output help hint and READY message
 239:main.c        ****             UART_UartPutString(STRING_CRLF STRING_HELP_PROMPT STRING_CRLF);
 240:main.c        ****             UART_UartPutString(STRING_READY STRING_CRLF STRING_CRLF);
 241:main.c        ****             b_is_prompt_skipped = 1;
 242:main.c        ****         }
 243:main.c        ****     }
 244:main.c        **** }
 245:main.c        **** 
 246:main.c        **** /*******************************************************************************
 247:main.c        **** * Function Name: uart_output_time
 248:main.c        **** ****************************************************************************//**
 249:main.c        **** * @par Summary
 250:main.c        **** *    Outputs current RTC time to UART.
 251:main.c        **** *******************************************************************************/
 252:main.c        **** static void
 253:main.c        **** uart_output_time(RTC_DATE_TIME dateTime)
  25              		.loc 1 253 0
  26              		.cfi_startproc
  27              	.LVL0:
  28 0000 F8B5     		push	{r3, r4, r5, r6, r7, lr}
  29              		.cfi_def_cfa_offset 24
  30              		.cfi_offset 3, -24
  31              		.cfi_offset 4, -20
  32              		.cfi_offset 5, -16
ARM GAS  C:\Users\Jerry\AppData\Local\Temp\ccngDFcI.s 			page 6


  33              		.cfi_offset 6, -12
  34              		.cfi_offset 7, -8
  35              		.cfi_offset 14, -4
  36              	.LBB37:
  37              	.LBB38:
  38              		.file 2 "Generated_Source\\PSoC4/RTC.h"
   1:Generated_Source\PSoC4/RTC.h **** /***************************************************************************//**
   2:Generated_Source\PSoC4/RTC.h **** * \file Name: RTC.h
   3:Generated_Source\PSoC4/RTC.h **** * \version 1.10
   4:Generated_Source\PSoC4/RTC.h **** *
   5:Generated_Source\PSoC4/RTC.h **** * \brief
   6:Generated_Source\PSoC4/RTC.h **** *  This file provides constants and parameter values for the RTC_P4 Component.
   7:Generated_Source\PSoC4/RTC.h **** *
   8:Generated_Source\PSoC4/RTC.h **** ********************************************************************************
   9:Generated_Source\PSoC4/RTC.h **** * Copyright 2015-2016, Cypress Semiconductor Corporation.  All rights reserved.
  10:Generated_Source\PSoC4/RTC.h **** * You may use this file only in accordance with the license, terms, conditions,
  11:Generated_Source\PSoC4/RTC.h **** * disclaimers, and limitations in the end user license agreement accompanying
  12:Generated_Source\PSoC4/RTC.h **** * the software package with which this file was provided.
  13:Generated_Source\PSoC4/RTC.h **** *******************************************************************************/
  14:Generated_Source\PSoC4/RTC.h **** 
  15:Generated_Source\PSoC4/RTC.h **** #if !defined(CY_RTC_P4_RTC_H)
  16:Generated_Source\PSoC4/RTC.h **** #define CY_RTC_P4_RTC_H
  17:Generated_Source\PSoC4/RTC.h **** 
  18:Generated_Source\PSoC4/RTC.h **** #include <cytypes.h>
  19:Generated_Source\PSoC4/RTC.h **** #include <CyLib.h>
  20:Generated_Source\PSoC4/RTC.h **** 
  21:Generated_Source\PSoC4/RTC.h **** 
  22:Generated_Source\PSoC4/RTC.h **** /*******************************************************************************
  23:Generated_Source\PSoC4/RTC.h **** *    Data types definition
  24:Generated_Source\PSoC4/RTC.h **** *******************************************************************************/
  25:Generated_Source\PSoC4/RTC.h **** 
  26:Generated_Source\PSoC4/RTC.h **** typedef enum
  27:Generated_Source\PSoC4/RTC.h **** {
  28:Generated_Source\PSoC4/RTC.h ****     RTC_DST_DATE_RELATIVE = 0u,
  29:Generated_Source\PSoC4/RTC.h ****     RTC_DST_DATE_FIXED = 1u
  30:Generated_Source\PSoC4/RTC.h **** }RTC_DST_DATETYPE_ENUM;
  31:Generated_Source\PSoC4/RTC.h **** 
  32:Generated_Source\PSoC4/RTC.h **** /**
  33:Generated_Source\PSoC4/RTC.h **** * \addtogroup group_structures
  34:Generated_Source\PSoC4/RTC.h **** * @{
  35:Generated_Source\PSoC4/RTC.h **** */
  36:Generated_Source\PSoC4/RTC.h **** 
  37:Generated_Source\PSoC4/RTC.h **** /**
  38:Generated_Source\PSoC4/RTC.h **** * This is the data structure that is used to save the current time and date 
  39:Generated_Source\PSoC4/RTC.h **** * (RTC_currentTimeDate), and Alarm time and date (RTC_alarmCfgTimeDate).
  40:Generated_Source\PSoC4/RTC.h **** */
  41:Generated_Source\PSoC4/RTC.h **** typedef struct
  42:Generated_Source\PSoC4/RTC.h **** {
  43:Generated_Source\PSoC4/RTC.h ****     uint32 time;
  44:Generated_Source\PSoC4/RTC.h ****     uint32 date;
  45:Generated_Source\PSoC4/RTC.h ****     uint32 dayOfWeek;
  46:Generated_Source\PSoC4/RTC.h ****     uint32 status;
  47:Generated_Source\PSoC4/RTC.h **** }RTC_DATE_TIME;
  48:Generated_Source\PSoC4/RTC.h **** 
  49:Generated_Source\PSoC4/RTC.h **** /**
  50:Generated_Source\PSoC4/RTC.h **** * This is the data structure that is used to save time and date values for 
  51:Generated_Source\PSoC4/RTC.h **** * Daylight Savings Time Start and Stop (RTC_dstTimeDateStart and 
ARM GAS  C:\Users\Jerry\AppData\Local\Temp\ccngDFcI.s 			page 7


  52:Generated_Source\PSoC4/RTC.h **** * RTC_dstTimeDateStop).
  53:Generated_Source\PSoC4/RTC.h **** */
  54:Generated_Source\PSoC4/RTC.h **** typedef struct
  55:Generated_Source\PSoC4/RTC.h **** {
  56:Generated_Source\PSoC4/RTC.h ****     uint32 hour;
  57:Generated_Source\PSoC4/RTC.h ****     uint32 dayOfWeek;
  58:Generated_Source\PSoC4/RTC.h ****     uint32 dayOfMonth;
  59:Generated_Source\PSoC4/RTC.h ****     uint32 weekOfMonth;
  60:Generated_Source\PSoC4/RTC.h ****     uint32 month;
  61:Generated_Source\PSoC4/RTC.h ****     uint8  timeFormat;
  62:Generated_Source\PSoC4/RTC.h **** }RTC_DST_TIME;
  63:Generated_Source\PSoC4/RTC.h **** 
  64:Generated_Source\PSoC4/RTC.h **** /** @} structures */
  65:Generated_Source\PSoC4/RTC.h **** 
  66:Generated_Source\PSoC4/RTC.h **** /*******************************************************************************
  67:Generated_Source\PSoC4/RTC.h **** *    Enumerated Types and Parameters
  68:Generated_Source\PSoC4/RTC.h **** *******************************************************************************/
  69:Generated_Source\PSoC4/RTC.h **** /* Time Format setting constants */
  70:Generated_Source\PSoC4/RTC.h **** #define RTC__HOUR_12 1
  71:Generated_Source\PSoC4/RTC.h **** #define RTC__HOUR_24 0
  72:Generated_Source\PSoC4/RTC.h **** 
  73:Generated_Source\PSoC4/RTC.h **** /*  Date Format setting constants */
  74:Generated_Source\PSoC4/RTC.h **** #define RTC__MM_DD_YYYY 0
  75:Generated_Source\PSoC4/RTC.h **** #define RTC__DD_MM_YYYY 1
  76:Generated_Source\PSoC4/RTC.h **** #define RTC__YYYY_MM_DD 2
  77:Generated_Source\PSoC4/RTC.h **** 
  78:Generated_Source\PSoC4/RTC.h **** /* Date Type setting constants */
  79:Generated_Source\PSoC4/RTC.h **** #define RTC__RELATIVE 0
  80:Generated_Source\PSoC4/RTC.h **** #define RTC__FIXED 1
  81:Generated_Source\PSoC4/RTC.h **** 
  82:Generated_Source\PSoC4/RTC.h **** /* DST Hour setting constants */
  83:Generated_Source\PSoC4/RTC.h **** #define RTC__H0000 0
  84:Generated_Source\PSoC4/RTC.h **** #define RTC__H0100 1
  85:Generated_Source\PSoC4/RTC.h **** #define RTC__H0200 2
  86:Generated_Source\PSoC4/RTC.h **** #define RTC__H0300 3
  87:Generated_Source\PSoC4/RTC.h **** #define RTC__H0400 4
  88:Generated_Source\PSoC4/RTC.h **** #define RTC__H0500 5
  89:Generated_Source\PSoC4/RTC.h **** #define RTC__H0600 6
  90:Generated_Source\PSoC4/RTC.h **** #define RTC__H0700 7
  91:Generated_Source\PSoC4/RTC.h **** #define RTC__H0800 8
  92:Generated_Source\PSoC4/RTC.h **** #define RTC__H0900 9
  93:Generated_Source\PSoC4/RTC.h **** #define RTC__H1000 10
  94:Generated_Source\PSoC4/RTC.h **** #define RTC__H1100 11
  95:Generated_Source\PSoC4/RTC.h **** #define RTC__H1200 12
  96:Generated_Source\PSoC4/RTC.h **** #define RTC__H1300 13
  97:Generated_Source\PSoC4/RTC.h **** #define RTC__H1400 14
  98:Generated_Source\PSoC4/RTC.h **** #define RTC__H1500 15
  99:Generated_Source\PSoC4/RTC.h **** #define RTC__H1600 16
 100:Generated_Source\PSoC4/RTC.h **** #define RTC__H1700 17
 101:Generated_Source\PSoC4/RTC.h **** #define RTC__H1800 18
 102:Generated_Source\PSoC4/RTC.h **** #define RTC__H1900 19
 103:Generated_Source\PSoC4/RTC.h **** #define RTC__H2000 20
 104:Generated_Source\PSoC4/RTC.h **** #define RTC__H2100 21
 105:Generated_Source\PSoC4/RTC.h **** #define RTC__H2200 22
 106:Generated_Source\PSoC4/RTC.h **** #define RTC__H2300 23
 107:Generated_Source\PSoC4/RTC.h **** 
 108:Generated_Source\PSoC4/RTC.h **** /* DST DayOfWeek setting constants */
ARM GAS  C:\Users\Jerry\AppData\Local\Temp\ccngDFcI.s 			page 8


 109:Generated_Source\PSoC4/RTC.h **** #define RTC__SUNDAY 1
 110:Generated_Source\PSoC4/RTC.h **** #define RTC__MONDAY 2
 111:Generated_Source\PSoC4/RTC.h **** #define RTC__TUESDAY 3
 112:Generated_Source\PSoC4/RTC.h **** #define RTC__WEDNESDAY 4
 113:Generated_Source\PSoC4/RTC.h **** #define RTC__THURSDAY 5
 114:Generated_Source\PSoC4/RTC.h **** #define RTC__FRIDAY 6
 115:Generated_Source\PSoC4/RTC.h **** #define RTC__SATURDAY 7
 116:Generated_Source\PSoC4/RTC.h **** 
 117:Generated_Source\PSoC4/RTC.h **** /* DST Month setting constants */
 118:Generated_Source\PSoC4/RTC.h **** #define RTC__JAN 1
 119:Generated_Source\PSoC4/RTC.h **** #define RTC__FEB 2
 120:Generated_Source\PSoC4/RTC.h **** #define RTC__MAR 3
 121:Generated_Source\PSoC4/RTC.h **** #define RTC__APR 4
 122:Generated_Source\PSoC4/RTC.h **** #define RTC__MAY 5
 123:Generated_Source\PSoC4/RTC.h **** #define RTC__JUN 6
 124:Generated_Source\PSoC4/RTC.h **** #define RTC__JUL 7
 125:Generated_Source\PSoC4/RTC.h **** #define RTC__AUG 8
 126:Generated_Source\PSoC4/RTC.h **** #define RTC__SEP 9
 127:Generated_Source\PSoC4/RTC.h **** #define RTC__OCT 10
 128:Generated_Source\PSoC4/RTC.h **** #define RTC__NOV 11
 129:Generated_Source\PSoC4/RTC.h **** #define RTC__DEC 12
 130:Generated_Source\PSoC4/RTC.h **** 
 131:Generated_Source\PSoC4/RTC.h **** /* DST WeekOfMonth setting constants */
 132:Generated_Source\PSoC4/RTC.h **** #define RTC__FIRST 1
 133:Generated_Source\PSoC4/RTC.h **** #define RTC__SECOND 2
 134:Generated_Source\PSoC4/RTC.h **** #define RTC__THIRD 3
 135:Generated_Source\PSoC4/RTC.h **** #define RTC__FOURTH 4
 136:Generated_Source\PSoC4/RTC.h **** #define RTC__FIFTH 5
 137:Generated_Source\PSoC4/RTC.h **** #define RTC__LAST 6
 138:Generated_Source\PSoC4/RTC.h **** 
 139:Generated_Source\PSoC4/RTC.h **** 
 140:Generated_Source\PSoC4/RTC.h **** #define RTC_INITIAL_DATA_FORMAT     (0u)
 141:Generated_Source\PSoC4/RTC.h **** #define RTC_INITIAL_TIME_FORMAT     (1u)
 142:Generated_Source\PSoC4/RTC.h **** #define RTC_INITIAL_UPDATE_MODE     (0u)
 143:Generated_Source\PSoC4/RTC.h **** #define RTC_INITIAL_SECOND          (0u)
 144:Generated_Source\PSoC4/RTC.h **** #define RTC_INITIAL_MINUTE          (0u)
 145:Generated_Source\PSoC4/RTC.h **** #define RTC_INITIAL_HOUR            (14u)
 146:Generated_Source\PSoC4/RTC.h **** #define RTC_INITIAL_DAY             (1u)
 147:Generated_Source\PSoC4/RTC.h **** #define RTC_INITIAL_MONTH           (2u)
 148:Generated_Source\PSoC4/RTC.h **** #define RTC_INITIAL_YEAR            (2017u)
 149:Generated_Source\PSoC4/RTC.h **** 
 150:Generated_Source\PSoC4/RTC.h **** #define RTC_INITIAL_ALARM_STATUS    (0u)
 151:Generated_Source\PSoC4/RTC.h **** 
 152:Generated_Source\PSoC4/RTC.h **** #define RTC_INITIAL_DST_STATUS      (0u)
 153:Generated_Source\PSoC4/RTC.h **** #define RTC_INITIAL_DST_DATE_TYPE   (0u)
 154:Generated_Source\PSoC4/RTC.h **** #define RTC_INITIAL_DST_START_MONTH (3uL)
 155:Generated_Source\PSoC4/RTC.h **** #define RTC_INITIAL_DST_START_WOM   (6uL)
 156:Generated_Source\PSoC4/RTC.h **** #define RTC_INITIAL_DST_START_DOM   (22uL)
 157:Generated_Source\PSoC4/RTC.h **** #define RTC_INITIAL_DST_START_DOW   (1uL)
 158:Generated_Source\PSoC4/RTC.h **** #define RTC_INITIAL_DST_START_HRS   (0uL)
 159:Generated_Source\PSoC4/RTC.h **** #define RTC_INITIAL_DST_STOP_MONTH  (10uL)
 160:Generated_Source\PSoC4/RTC.h **** #define RTC_INITIAL_DST_STOP_DOM    (22uL)
 161:Generated_Source\PSoC4/RTC.h **** #define RTC_INITIAL_DST_STOP_DOW    (1uL)
 162:Generated_Source\PSoC4/RTC.h **** #define RTC_INITIAL_DST_STOP_WOM    (6uL)
 163:Generated_Source\PSoC4/RTC.h **** #define RTC_INITIAL_DST_STOP_HRS    (0uL)
 164:Generated_Source\PSoC4/RTC.h **** 
 165:Generated_Source\PSoC4/RTC.h **** /* Day of week definitions */
ARM GAS  C:\Users\Jerry\AppData\Local\Temp\ccngDFcI.s 			page 9


 166:Generated_Source\PSoC4/RTC.h **** #define RTC_SUNDAY     (RTC__SUNDAY)
 167:Generated_Source\PSoC4/RTC.h **** #define RTC_MONDAY     (RTC__MONDAY)
 168:Generated_Source\PSoC4/RTC.h **** #define RTC_TUESDAY    (RTC__TUESDAY)
 169:Generated_Source\PSoC4/RTC.h **** #define RTC_WEDNESDAY  (RTC__WEDNESDAY)
 170:Generated_Source\PSoC4/RTC.h **** #define RTC_THURSDAY   (RTC__THURSDAY)
 171:Generated_Source\PSoC4/RTC.h **** #define RTC_FRIDAY     (RTC__FRIDAY)
 172:Generated_Source\PSoC4/RTC.h **** #define RTC_SATURDAY   (RTC__SATURDAY)
 173:Generated_Source\PSoC4/RTC.h **** 
 174:Generated_Source\PSoC4/RTC.h **** /* DST WeekOfMonth setting constants definitions */
 175:Generated_Source\PSoC4/RTC.h **** #define RTC_FIRST      (RTC__FIRST)
 176:Generated_Source\PSoC4/RTC.h **** #define RTC_SECOND     (RTC__SECOND)
 177:Generated_Source\PSoC4/RTC.h **** #define RTC_THIRD      (RTC__THIRD)
 178:Generated_Source\PSoC4/RTC.h **** #define RTC_FOURTH     (RTC__FOURTH)
 179:Generated_Source\PSoC4/RTC.h **** #define RTC_FIFTH      (RTC__FIFTH)
 180:Generated_Source\PSoC4/RTC.h **** #define RTC_LAST       (RTC__LAST)
 181:Generated_Source\PSoC4/RTC.h **** 
 182:Generated_Source\PSoC4/RTC.h **** /* Month definitions */
 183:Generated_Source\PSoC4/RTC.h **** #define RTC_JANUARY    (RTC__JAN)
 184:Generated_Source\PSoC4/RTC.h **** #define RTC_FEBRUARY   (RTC__FEB)
 185:Generated_Source\PSoC4/RTC.h **** #define RTC_MARCH      (RTC__MAR)
 186:Generated_Source\PSoC4/RTC.h **** #define RTC_APRIL      (RTC__APR)
 187:Generated_Source\PSoC4/RTC.h **** #define RTC_MAY        (RTC__MAY)
 188:Generated_Source\PSoC4/RTC.h **** #define RTC_JUNE       (RTC__JUN)
 189:Generated_Source\PSoC4/RTC.h **** #define RTC_JULY       (RTC__JUL)
 190:Generated_Source\PSoC4/RTC.h **** #define RTC_AUGUST     (RTC__AUG)
 191:Generated_Source\PSoC4/RTC.h **** #define RTC_SEPTEMBER  (RTC__SEP)
 192:Generated_Source\PSoC4/RTC.h **** #define RTC_OCTOBER    (RTC__OCT)
 193:Generated_Source\PSoC4/RTC.h **** #define RTC_NOVEMBER   (RTC__NOV)
 194:Generated_Source\PSoC4/RTC.h **** #define RTC_DECEMBER   (RTC__DEC)
 195:Generated_Source\PSoC4/RTC.h **** 
 196:Generated_Source\PSoC4/RTC.h **** #define RTC_DAYS_PER_WEEK       (7u)
 197:Generated_Source\PSoC4/RTC.h **** 
 198:Generated_Source\PSoC4/RTC.h **** /* Number of days in month definitions */
 199:Generated_Source\PSoC4/RTC.h **** #define RTC_DAYS_IN_JANUARY     (31u)
 200:Generated_Source\PSoC4/RTC.h **** #define RTC_DAYS_IN_FEBRUARY    (28u)
 201:Generated_Source\PSoC4/RTC.h **** #define RTC_DAYS_IN_MARCH       (31u)
 202:Generated_Source\PSoC4/RTC.h **** #define RTC_DAYS_IN_APRIL       (30u)
 203:Generated_Source\PSoC4/RTC.h **** #define RTC_DAYS_IN_MAY         (31u)
 204:Generated_Source\PSoC4/RTC.h **** #define RTC_DAYS_IN_JUNE        (30u)
 205:Generated_Source\PSoC4/RTC.h **** #define RTC_DAYS_IN_JULY        (31u)
 206:Generated_Source\PSoC4/RTC.h **** #define RTC_DAYS_IN_AUGUST      (31u)
 207:Generated_Source\PSoC4/RTC.h **** #define RTC_DAYS_IN_SEPTEMBER   (30u)
 208:Generated_Source\PSoC4/RTC.h **** #define RTC_DAYS_IN_OCTOBER     (31u)
 209:Generated_Source\PSoC4/RTC.h **** #define RTC_DAYS_IN_NOVEMBER    (30u)
 210:Generated_Source\PSoC4/RTC.h **** #define RTC_DAYS_IN_DECEMBER    (31u)
 211:Generated_Source\PSoC4/RTC.h **** 
 212:Generated_Source\PSoC4/RTC.h **** #define RTC_MONTHS_PER_YEAR     (12uL)
 213:Generated_Source\PSoC4/RTC.h **** 
 214:Generated_Source\PSoC4/RTC.h **** #define RTC_HOURS_PER_DAY       (24uL)
 215:Generated_Source\PSoC4/RTC.h **** #define RTC_HOURS_PER_HALF_DAY  (12uL)
 216:Generated_Source\PSoC4/RTC.h **** 
 217:Generated_Source\PSoC4/RTC.h **** #define RTC_SECONDS_PER_MINUTE  (60uL)
 218:Generated_Source\PSoC4/RTC.h **** #define RTC_SECONDS_PER_HOUR    (3600uL)
 219:Generated_Source\PSoC4/RTC.h **** #define RTC_SECONDS_PER_DAY     (24uL * 3600uL)
 220:Generated_Source\PSoC4/RTC.h **** 
 221:Generated_Source\PSoC4/RTC.h **** #define RTC_SECONDS_PER_LEAP_YEAR    (366uL * 24uL * 3600uL)
 222:Generated_Source\PSoC4/RTC.h **** #define RTC_SECONDS_PER_NONLEAP_YEAR (365uL * 24uL * 3600uL)
ARM GAS  C:\Users\Jerry\AppData\Local\Temp\ccngDFcI.s 			page 10


 223:Generated_Source\PSoC4/RTC.h **** 
 224:Generated_Source\PSoC4/RTC.h **** #define RTC_UNIX_TIME_PM   ((12uL * 3600uL) + 1uL)
 225:Generated_Source\PSoC4/RTC.h **** 
 226:Generated_Source\PSoC4/RTC.h **** /* AM/PM status definitions */
 227:Generated_Source\PSoC4/RTC.h **** #define RTC_AM                 (0u)
 228:Generated_Source\PSoC4/RTC.h **** #define RTC_PM                 (1u)
 229:Generated_Source\PSoC4/RTC.h **** 
 230:Generated_Source\PSoC4/RTC.h **** /* Time format definitions */
 231:Generated_Source\PSoC4/RTC.h **** #define RTC_12_HOURS_FORMAT    (RTC__HOUR_12)
 232:Generated_Source\PSoC4/RTC.h **** #define RTC_24_HOURS_FORMAT    (RTC__HOUR_24)
 233:Generated_Source\PSoC4/RTC.h **** 
 234:Generated_Source\PSoC4/RTC.h **** /* UNIX time begins in 1970 year.  */
 235:Generated_Source\PSoC4/RTC.h **** #define RTC_YEAR_0             (1970u)
 236:Generated_Source\PSoC4/RTC.h **** 
 237:Generated_Source\PSoC4/RTC.h **** /* Definition of date register fields */
 238:Generated_Source\PSoC4/RTC.h **** #if(RTC_INITIAL_DATA_FORMAT == RTC__MM_DD_YYYY)
 239:Generated_Source\PSoC4/RTC.h ****     #define RTC_10_MONTH_OFFSET   (28u)
 240:Generated_Source\PSoC4/RTC.h ****     #define RTC_MONTH_OFFSET      (24u)
 241:Generated_Source\PSoC4/RTC.h ****     #define RTC_10_DAY_OFFSET     (20u)
 242:Generated_Source\PSoC4/RTC.h ****     #define RTC_DAY_OFFSET        (16u)
 243:Generated_Source\PSoC4/RTC.h ****     #define RTC_1000_YEAR_OFFSET  (12u)
 244:Generated_Source\PSoC4/RTC.h ****     #define RTC_100_YEAR_OFFSET   (8u)
 245:Generated_Source\PSoC4/RTC.h ****     #define RTC_10_YEAR_OFFSET    (4u)
 246:Generated_Source\PSoC4/RTC.h ****     #define RTC_YEAR_OFFSET       (0u)
 247:Generated_Source\PSoC4/RTC.h **** #elif(RTC_INITIAL_DATA_FORMAT == RTC__DD_MM_YYYY)
 248:Generated_Source\PSoC4/RTC.h ****     #define RTC_10_MONTH_OFFSET   (20u)
 249:Generated_Source\PSoC4/RTC.h ****     #define RTC_MONTH_OFFSET      (16u)
 250:Generated_Source\PSoC4/RTC.h ****     #define RTC_10_DAY_OFFSET     (28u)
 251:Generated_Source\PSoC4/RTC.h ****     #define RTC_DAY_OFFSET        (24u)
 252:Generated_Source\PSoC4/RTC.h ****     #define RTC_1000_YEAR_OFFSET  (12u)
 253:Generated_Source\PSoC4/RTC.h ****     #define RTC_100_YEAR_OFFSET   (8u)
 254:Generated_Source\PSoC4/RTC.h ****     #define RTC_10_YEAR_OFFSET    (4u)
 255:Generated_Source\PSoC4/RTC.h ****     #define RTC_YEAR_OFFSET       (0u)
 256:Generated_Source\PSoC4/RTC.h **** #else
 257:Generated_Source\PSoC4/RTC.h ****     #define RTC_10_MONTH_OFFSET   (12u)
 258:Generated_Source\PSoC4/RTC.h ****     #define RTC_MONTH_OFFSET      (8u)
 259:Generated_Source\PSoC4/RTC.h ****     #define RTC_10_DAY_OFFSET     (4u)
 260:Generated_Source\PSoC4/RTC.h ****     #define RTC_DAY_OFFSET        (0u)
 261:Generated_Source\PSoC4/RTC.h ****     #define RTC_1000_YEAR_OFFSET  (28u)
 262:Generated_Source\PSoC4/RTC.h ****     #define RTC_100_YEAR_OFFSET   (24u)
 263:Generated_Source\PSoC4/RTC.h ****     #define RTC_10_YEAR_OFFSET    (20u)
 264:Generated_Source\PSoC4/RTC.h ****     #define RTC_YEAR_OFFSET       (16u)
 265:Generated_Source\PSoC4/RTC.h **** #endif /* (RTC_INITIAL_DATA_FORMAT == RTC__MM_DD_YYYY) */
 266:Generated_Source\PSoC4/RTC.h **** 
 267:Generated_Source\PSoC4/RTC.h **** #define RTC_10_MONTH_MASK          (0x00000001uL << RTC_10_MONTH_OFFSET)
 268:Generated_Source\PSoC4/RTC.h **** #define RTC_MONTH_MASK             (0x0000000FuL << RTC_MONTH_OFFSET)
 269:Generated_Source\PSoC4/RTC.h **** #define RTC_10_DAY_MASK            (0x00000003uL << RTC_10_DAY_OFFSET)
 270:Generated_Source\PSoC4/RTC.h **** #define RTC_DAY_MASK               (0x0000000FuL << RTC_DAY_OFFSET)
 271:Generated_Source\PSoC4/RTC.h **** #define RTC_1000_YEAR_MASK         (0x00000003uL << RTC_1000_YEAR_OFFSET)
 272:Generated_Source\PSoC4/RTC.h **** #define RTC_100_YEAR_MASK          (0x0000000FuL << RTC_100_YEAR_OFFSET)
 273:Generated_Source\PSoC4/RTC.h **** #define RTC_10_YEAR_MASK           (0x0000000FuL << RTC_10_YEAR_OFFSET)
 274:Generated_Source\PSoC4/RTC.h **** #define RTC_YEAR_MASK              (0x0000000FuL << RTC_YEAR_OFFSET)
 275:Generated_Source\PSoC4/RTC.h **** 
 276:Generated_Source\PSoC4/RTC.h **** #define  RTC_MONTH_FULL_MASK       (RTC_10_MONTH_MASK  | RTC_MONTH_MASK)
 277:Generated_Source\PSoC4/RTC.h **** #define  RTC_DAY_FULL_MASK         (RTC_10_DAY_MASK    | RTC_DAY_MASK)
 278:Generated_Source\PSoC4/RTC.h **** #define  RTC_YEAR_FULL_MASK        (RTC_1000_YEAR_MASK | RTC_100_YEAR_MASK |\
 279:Generated_Source\PSoC4/RTC.h ****                                                  RTC_10_YEAR_MASK   | RTC_YEAR_MASK)
ARM GAS  C:\Users\Jerry\AppData\Local\Temp\ccngDFcI.s 			page 11


 280:Generated_Source\PSoC4/RTC.h **** 
 281:Generated_Source\PSoC4/RTC.h **** 
 282:Generated_Source\PSoC4/RTC.h **** /* Definition of time register fields */
 283:Generated_Source\PSoC4/RTC.h **** #define RTC_TIME_FORMAT_OFFSET     (23u)
 284:Generated_Source\PSoC4/RTC.h **** #define RTC_PERIOD_OF_DAY_OFFSET   (22u)
 285:Generated_Source\PSoC4/RTC.h **** #define RTC_10_HOURS_OFFSET        (20u)
 286:Generated_Source\PSoC4/RTC.h **** #define RTC_HOURS_OFFSET           (16u)
 287:Generated_Source\PSoC4/RTC.h **** #define RTC_10_MINUTES_OFFSET      (12u)
 288:Generated_Source\PSoC4/RTC.h **** #define RTC_MINUTES_OFFSET         (8u)
 289:Generated_Source\PSoC4/RTC.h **** #define RTC_10_SECONDS_OFFSET      (4u)
 290:Generated_Source\PSoC4/RTC.h **** #define RTC_SECONDS_OFFSET         (0u)
 291:Generated_Source\PSoC4/RTC.h **** 
 292:Generated_Source\PSoC4/RTC.h **** #define RTC_TIME_FORMAT_MASK       (0x00000001uL << RTC_TIME_FORMAT_OFFSET)
 293:Generated_Source\PSoC4/RTC.h **** #define RTC_PERIOD_OF_DAY_MASK     (0x00000001uL << RTC_PERIOD_OF_DAY_OFFSET)
 294:Generated_Source\PSoC4/RTC.h **** #define RTC_10_HOURS_MASK          (0x00000003uL << RTC_10_HOURS_OFFSET)
 295:Generated_Source\PSoC4/RTC.h **** #define RTC_HOURS_MASK             (0x0000000FuL << RTC_HOURS_OFFSET)
 296:Generated_Source\PSoC4/RTC.h **** #define RTC_10_MINUTES_MASK        (0x00000007uL << RTC_10_MINUTES_OFFSET)
 297:Generated_Source\PSoC4/RTC.h **** #define RTC_MINUTES_MASK           (0x0000000FuL << RTC_MINUTES_OFFSET)
 298:Generated_Source\PSoC4/RTC.h **** #define RTC_10_SECONDS_MASK        (0x00000007uL << RTC_10_SECONDS_OFFSET)
 299:Generated_Source\PSoC4/RTC.h **** #define RTC_SECONDS_MASK           (0x0000000FuL << RTC_SECONDS_OFFSET)
 300:Generated_Source\PSoC4/RTC.h **** 
 301:Generated_Source\PSoC4/RTC.h **** #define RTC_HOURS_FULL_MASK        (RTC_10_HOURS_MASK   | RTC_HOURS_MASK)
 302:Generated_Source\PSoC4/RTC.h **** #define RTC_MINUTES_FULL_MASK      (RTC_10_MINUTES_MASK | RTC_MINUTES_MASK)
 303:Generated_Source\PSoC4/RTC.h **** #define RTC_SECONDS_FULL_MASK      (RTC_10_SECONDS_MASK | RTC_SECONDS_MASK)
 304:Generated_Source\PSoC4/RTC.h **** 
 305:Generated_Source\PSoC4/RTC.h **** #define RTC_ALARM_SEC_MASK         (0x00000001uL)
 306:Generated_Source\PSoC4/RTC.h **** #define RTC_ALARM_MIN_MASK         (0x00000002uL)
 307:Generated_Source\PSoC4/RTC.h **** #define RTC_ALARM_HOUR_MASK        (0x00000004uL)
 308:Generated_Source\PSoC4/RTC.h **** #define RTC_ALARM_DAYOFWEEK_MASK   (0x00000008uL)
 309:Generated_Source\PSoC4/RTC.h **** #define RTC_ALARM_DAYOFMONTH_MASK  (0x00000010uL)
 310:Generated_Source\PSoC4/RTC.h **** #define RTC_ALARM_MONTH_MASK       (0x00000020uL)
 311:Generated_Source\PSoC4/RTC.h **** #define RTC_ALARM_YEAR_MASK        (0x00000040uL)
 312:Generated_Source\PSoC4/RTC.h **** 
 313:Generated_Source\PSoC4/RTC.h **** #define RTC_STATUS_DST_OFFSET      (1u)
 314:Generated_Source\PSoC4/RTC.h **** #define RTC_STATUS_ALARM_OFFSET    (2u)
 315:Generated_Source\PSoC4/RTC.h **** #define RTC_STATUS_LY_OFFSET       (3u)
 316:Generated_Source\PSoC4/RTC.h **** #define RTC_STATUS_AM_PM_OFFSET    (4u)
 317:Generated_Source\PSoC4/RTC.h **** 
 318:Generated_Source\PSoC4/RTC.h **** /* Definition of the RTC status values. */
 319:Generated_Source\PSoC4/RTC.h **** #define RTC_STATUS_DST             (1uL << RTC_STATUS_DST_OFFSET)
 320:Generated_Source\PSoC4/RTC.h **** #define RTC_STATUS_LY              (1uL << RTC_STATUS_LY_OFFSET)
 321:Generated_Source\PSoC4/RTC.h **** #define RTC_STATUS_AM_PM           (1uL << RTC_STATUS_AM_PM_OFFSET)
 322:Generated_Source\PSoC4/RTC.h **** 
 323:Generated_Source\PSoC4/RTC.h **** /* Number of bits per one BCD digit. */
 324:Generated_Source\PSoC4/RTC.h **** #define RTC_BCD_NUMBER_SIZE        (4u)
 325:Generated_Source\PSoC4/RTC.h **** #define RTC_BCD_ONE_DIGIT_MASK     (0x0000000FuL)
 326:Generated_Source\PSoC4/RTC.h **** 
 327:Generated_Source\PSoC4/RTC.h **** /*******************************************************************************
 328:Generated_Source\PSoC4/RTC.h **** *    Function Prototypes
 329:Generated_Source\PSoC4/RTC.h **** *******************************************************************************/
 330:Generated_Source\PSoC4/RTC.h **** /**
 331:Generated_Source\PSoC4/RTC.h **** * \addtogroup group_api
 332:Generated_Source\PSoC4/RTC.h **** * @{
 333:Generated_Source\PSoC4/RTC.h **** */
 334:Generated_Source\PSoC4/RTC.h **** void   RTC_Start(void);
 335:Generated_Source\PSoC4/RTC.h **** void   RTC_Stop(void);
 336:Generated_Source\PSoC4/RTC.h **** void   RTC_Init(void);
ARM GAS  C:\Users\Jerry\AppData\Local\Temp\ccngDFcI.s 			page 12


 337:Generated_Source\PSoC4/RTC.h **** void   RTC_SetUnixTime(uint64 unixTime);
 338:Generated_Source\PSoC4/RTC.h **** uint64 RTC_GetUnixTime(void);
 339:Generated_Source\PSoC4/RTC.h **** void   RTC_SetPeriod(uint32 ticks, uint32 refOneSecTicks);
 340:Generated_Source\PSoC4/RTC.h **** uint32 RTC_GetPeriod(void);
 341:Generated_Source\PSoC4/RTC.h **** uint32 RTC_GetRefOneSec(void);
 342:Generated_Source\PSoC4/RTC.h **** void   RTC_SetDateAndTime(uint32 inputTime, uint32 inputDate);
 343:Generated_Source\PSoC4/RTC.h **** void   RTC_GetDateAndTime(RTC_DATE_TIME* dateTime);
 344:Generated_Source\PSoC4/RTC.h **** uint32 RTC_GetTime(void);
 345:Generated_Source\PSoC4/RTC.h **** uint32 RTC_GetDate(void);
 346:Generated_Source\PSoC4/RTC.h **** void   RTC_SetAlarmDateAndTime(const RTC_DATE_TIME* alarmTime);
 347:Generated_Source\PSoC4/RTC.h **** void   RTC_GetAlarmDateAndTime(RTC_DATE_TIME* alarmTimeDate);
 348:Generated_Source\PSoC4/RTC.h **** void   RTC_SetAlarmMask(uint32 mask);
 349:Generated_Source\PSoC4/RTC.h **** uint32 RTC_GetAlarmMask(void);
 350:Generated_Source\PSoC4/RTC.h **** uint32 RTC_ReadStatus(void);
 351:Generated_Source\PSoC4/RTC.h **** uint32 RTC_GetAlarmStatus(void);
 352:Generated_Source\PSoC4/RTC.h **** void   RTC_ClearAlarmStatus(void);
 353:Generated_Source\PSoC4/RTC.h **** void   RTC_SetDSTStartTime(const RTC_DST_TIME* dstStartTime,
 354:Generated_Source\PSoC4/RTC.h ****                                               RTC_DST_DATETYPE_ENUM type);
 355:Generated_Source\PSoC4/RTC.h **** void   RTC_SetDSTStopTime(const RTC_DST_TIME* dstStopTime,
 356:Generated_Source\PSoC4/RTC.h ****                                              RTC_DST_DATETYPE_ENUM type);
 357:Generated_Source\PSoC4/RTC.h **** uint32 RTC_ConvertBCDToDec(uint32 bcdNum);
 358:Generated_Source\PSoC4/RTC.h **** uint32 RTC_ConvertDecToBCD(uint32 decNum);
 359:Generated_Source\PSoC4/RTC.h **** void   RTC_Update(void);
 360:Generated_Source\PSoC4/RTC.h **** void*  RTC_SetAlarmHandler(void (*CallbackFunction)(void));
 361:Generated_Source\PSoC4/RTC.h **** 
 362:Generated_Source\PSoC4/RTC.h **** static uint32 RTC_ConstructDate(uint32 month, uint32 day, uint32 year);
 363:Generated_Source\PSoC4/RTC.h **** static uint32 RTC_ConstructTime(uint32 timeFormat, uint32 stateAmPm, uint32 hour, uint32 min, uint3
 364:Generated_Source\PSoC4/RTC.h **** /** @} api */
 365:Generated_Source\PSoC4/RTC.h **** 
 366:Generated_Source\PSoC4/RTC.h **** static uint32 RTC_GetTimeFormat(uint32 inputTime);
 367:Generated_Source\PSoC4/RTC.h **** static uint32 RTC_SetTimeFormat(uint32 inputTime, uint32 timeFormat);
 368:Generated_Source\PSoC4/RTC.h **** 
 369:Generated_Source\PSoC4/RTC.h **** /**
 370:Generated_Source\PSoC4/RTC.h **** * \addtogroup group_api
 371:Generated_Source\PSoC4/RTC.h **** * @{
 372:Generated_Source\PSoC4/RTC.h **** */
 373:Generated_Source\PSoC4/RTC.h **** static uint32 RTC_LeapYear(uint32 year);
 374:Generated_Source\PSoC4/RTC.h **** static uint32 RTC_IsBitSet(uint32 var, uint32 mask);
 375:Generated_Source\PSoC4/RTC.h **** static uint32 RTC_GetSecond(uint32 inputTime);
 376:Generated_Source\PSoC4/RTC.h **** static uint32 RTC_GetMinutes(uint32 inputTime);
 377:Generated_Source\PSoC4/RTC.h **** static uint32 RTC_GetHours(uint32 inputTime);
 378:Generated_Source\PSoC4/RTC.h **** static uint32 RTC_GetAmPm(uint32 inputTime);
 379:Generated_Source\PSoC4/RTC.h **** static uint32 RTC_GetDay(uint32 date);
 380:Generated_Source\PSoC4/RTC.h **** static uint32 RTC_GetMonth(uint32 date);
 381:Generated_Source\PSoC4/RTC.h **** static uint32 RTC_GetYear(uint32 date);
 382:Generated_Source\PSoC4/RTC.h **** /** @} api */
 383:Generated_Source\PSoC4/RTC.h **** 
 384:Generated_Source\PSoC4/RTC.h **** static uint32 RTC_SetSecond(uint32 inputTime, uint32 inputSecond);
 385:Generated_Source\PSoC4/RTC.h **** static uint32 RTC_SetMinutes(uint32 inputTime, uint32 inputMinute);
 386:Generated_Source\PSoC4/RTC.h **** static uint32 RTC_SetHours(uint32 inputTime, uint32 inputHours);
 387:Generated_Source\PSoC4/RTC.h **** static uint32 RTC_SetAmPm(uint32 inputTime, uint32 periodOfDay);
 388:Generated_Source\PSoC4/RTC.h **** static uint32 RTC_SetDay(uint32 inputDate, uint32 inputDay);
 389:Generated_Source\PSoC4/RTC.h **** static uint32 RTC_SetMonth(uint32 inputDate, uint32 inputMonth);
 390:Generated_Source\PSoC4/RTC.h **** static uint32 RTC_SetYear(uint32 inputDate, uint32 inputYear);
 391:Generated_Source\PSoC4/RTC.h **** 
 392:Generated_Source\PSoC4/RTC.h **** uint64 RTC_ConstructUnixAlarmTime(const RTC_DATE_TIME* alarmTime, uint8 alarmCfgMask);
 393:Generated_Source\PSoC4/RTC.h **** uint64 RTC_GetDstUnixTime(const RTC_DST_TIME* dstTime);
ARM GAS  C:\Users\Jerry\AppData\Local\Temp\ccngDFcI.s 			page 13


 394:Generated_Source\PSoC4/RTC.h **** uint64 RTC_GetNexAlarmTime(uint64 curUnixTime, uint8 alarmCfgMask);
 395:Generated_Source\PSoC4/RTC.h **** 
 396:Generated_Source\PSoC4/RTC.h **** static uint32 RTC_GetNextMinSec(uint32 curVal);
 397:Generated_Source\PSoC4/RTC.h **** static uint32 RTC_GetNextHour(uint32 curVal);
 398:Generated_Source\PSoC4/RTC.h **** static uint32 RTC_GetNextDay(uint32 curYear, uint32 curMonth, uint32 curDay, uint32 alarmCfgMask);
 399:Generated_Source\PSoC4/RTC.h **** static uint32 RTC_GetNextMonth(uint32 curMonth);
 400:Generated_Source\PSoC4/RTC.h **** static uint32 RTC_GetNextYear(uint32 curYear);
 401:Generated_Source\PSoC4/RTC.h **** static uint32 RTC_GetDayOfWeek(uint32 day, uint32 month, uint32 year);
 402:Generated_Source\PSoC4/RTC.h **** 
 403:Generated_Source\PSoC4/RTC.h **** uint32 RTC_DaysInMonth(uint32 month, uint32 year);
 404:Generated_Source\PSoC4/RTC.h **** uint32 RTC_DaysBeforeMonth(uint32 month, uint32 year);
 405:Generated_Source\PSoC4/RTC.h **** 
 406:Generated_Source\PSoC4/RTC.h **** /**
 407:Generated_Source\PSoC4/RTC.h **** * \addtogroup group_api
 408:Generated_Source\PSoC4/RTC.h **** * @{
 409:Generated_Source\PSoC4/RTC.h **** */
 410:Generated_Source\PSoC4/RTC.h **** void   RTC_UnixToDateTime(RTC_DATE_TIME* dateTime, uint64 unixTime, uint32 timeFormat);
 411:Generated_Source\PSoC4/RTC.h **** uint64 RTC_DateTimeToUnix(uint32 inputDate, uint32 inputTime);
 412:Generated_Source\PSoC4/RTC.h **** /** @} api */
 413:Generated_Source\PSoC4/RTC.h **** 
 414:Generated_Source\PSoC4/RTC.h **** uint32 RTC_RelativeToFixed(uint32 dayOfWeek, uint32 weekOfMonth, uint32 month, uint32 year);
 415:Generated_Source\PSoC4/RTC.h **** 
 416:Generated_Source\PSoC4/RTC.h **** 
 417:Generated_Source\PSoC4/RTC.h **** #if defined(CYDEV_RTC_SOURCE_WDT)
 418:Generated_Source\PSoC4/RTC.h ****     #if((0u != CYDEV_WDT_GENERATE_ISR) && (0u == RTC_INITIAL_UPDATE_MODE))
 419:Generated_Source\PSoC4/RTC.h ****         static void RTC_CySysRtcSetCallback(uint32 wdtNumber);
 420:Generated_Source\PSoC4/RTC.h ****         static void RTC_CySysRtcResetCallback(uint32 wdtNumber);
 421:Generated_Source\PSoC4/RTC.h ****     #endif /* ((0u != CYDEV_WDT_GENERATE_ISR) && (0u == RTC_INITIAL_UPDATE_MODE)) */
 422:Generated_Source\PSoC4/RTC.h **** #endif /* (CYDEV_RTC_SOURCE_WDT) */
 423:Generated_Source\PSoC4/RTC.h **** 
 424:Generated_Source\PSoC4/RTC.h **** /*******************************************************************************
 425:Generated_Source\PSoC4/RTC.h **** * Function Name: RTC_IsBitSet
 426:Generated_Source\PSoC4/RTC.h **** ****************************************************************************//**
 427:Generated_Source\PSoC4/RTC.h **** *
 428:Generated_Source\PSoC4/RTC.h **** * \brief
 429:Generated_Source\PSoC4/RTC.h **** *  Checks the state of a bit passed through parameter.
 430:Generated_Source\PSoC4/RTC.h **** *
 431:Generated_Source\PSoC4/RTC.h **** * \param
 432:Generated_Source\PSoC4/RTC.h **** *  var The variable to be checked.
 433:Generated_Source\PSoC4/RTC.h **** * \param
 434:Generated_Source\PSoC4/RTC.h **** *  mask The mask for a bit to be checked.
 435:Generated_Source\PSoC4/RTC.h **** *
 436:Generated_Source\PSoC4/RTC.h **** * \return
 437:Generated_Source\PSoC4/RTC.h **** *  0u - Bit is not set.
 438:Generated_Source\PSoC4/RTC.h **** * \return
 439:Generated_Source\PSoC4/RTC.h **** *  1u - Bit is set.
 440:Generated_Source\PSoC4/RTC.h **** *
 441:Generated_Source\PSoC4/RTC.h **** *******************************************************************************/
 442:Generated_Source\PSoC4/RTC.h **** static CY_INLINE uint32 RTC_IsBitSet(uint32 var, uint32 mask)
 443:Generated_Source\PSoC4/RTC.h **** {
 444:Generated_Source\PSoC4/RTC.h ****     return ((mask == (var & mask)) ? 1Lu : 0Lu);
 445:Generated_Source\PSoC4/RTC.h **** }
 446:Generated_Source\PSoC4/RTC.h **** 
 447:Generated_Source\PSoC4/RTC.h **** 
 448:Generated_Source\PSoC4/RTC.h **** /*******************************************************************************
 449:Generated_Source\PSoC4/RTC.h **** * Function Name: RTC_LeapYear
 450:Generated_Source\PSoC4/RTC.h **** ****************************************************************************//**
ARM GAS  C:\Users\Jerry\AppData\Local\Temp\ccngDFcI.s 			page 14


 451:Generated_Source\PSoC4/RTC.h **** *
 452:Generated_Source\PSoC4/RTC.h **** * \brief
 453:Generated_Source\PSoC4/RTC.h **** * Checks whether the year passed through the parameter is
 454:Generated_Source\PSoC4/RTC.h **** * leap or no.
 455:Generated_Source\PSoC4/RTC.h **** *
 456:Generated_Source\PSoC4/RTC.h **** * \param
 457:Generated_Source\PSoC4/RTC.h **** *  year The year to be checked.
 458:Generated_Source\PSoC4/RTC.h **** *
 459:Generated_Source\PSoC4/RTC.h **** *
 460:Generated_Source\PSoC4/RTC.h **** * \return
 461:Generated_Source\PSoC4/RTC.h **** *  0u - The year is not leap.
 462:Generated_Source\PSoC4/RTC.h **** * \return
 463:Generated_Source\PSoC4/RTC.h **** *  1u - The year is leap.
 464:Generated_Source\PSoC4/RTC.h **** *
 465:Generated_Source\PSoC4/RTC.h **** *******************************************************************************/
 466:Generated_Source\PSoC4/RTC.h **** static CY_INLINE uint32 RTC_LeapYear(uint32 year)
 467:Generated_Source\PSoC4/RTC.h **** {
 468:Generated_Source\PSoC4/RTC.h ****     uint32 retVal;
 469:Generated_Source\PSoC4/RTC.h **** 
 470:Generated_Source\PSoC4/RTC.h ****     if(((0u == (year % 4Lu)) && (0u != (year % 100Lu))) || (0u == (year % 400Lu)))
 471:Generated_Source\PSoC4/RTC.h ****     {
 472:Generated_Source\PSoC4/RTC.h ****         retVal = 1uL;
 473:Generated_Source\PSoC4/RTC.h ****     }
 474:Generated_Source\PSoC4/RTC.h ****     else
 475:Generated_Source\PSoC4/RTC.h ****     {
 476:Generated_Source\PSoC4/RTC.h ****         retVal = 0uL;
 477:Generated_Source\PSoC4/RTC.h ****     }
 478:Generated_Source\PSoC4/RTC.h **** 
 479:Generated_Source\PSoC4/RTC.h ****     return(retVal);
 480:Generated_Source\PSoC4/RTC.h **** }
 481:Generated_Source\PSoC4/RTC.h **** 
 482:Generated_Source\PSoC4/RTC.h **** 
 483:Generated_Source\PSoC4/RTC.h **** /*******************************************************************************
 484:Generated_Source\PSoC4/RTC.h **** * Function Name: RTC_GetSecond
 485:Generated_Source\PSoC4/RTC.h **** ****************************************************************************//**
 486:Generated_Source\PSoC4/RTC.h **** *
 487:Generated_Source\PSoC4/RTC.h **** * \brief
 488:Generated_Source\PSoC4/RTC.h **** *  Returns the seconds value from the time value that is passed as a/the parameter.
 489:Generated_Source\PSoC4/RTC.h **** *
 490:Generated_Source\PSoC4/RTC.h **** * \param
 491:Generated_Source\PSoC4/RTC.h **** *  time The time value.
 492:Generated_Source\PSoC4/RTC.h **** *
 493:Generated_Source\PSoC4/RTC.h **** * \return
 494:Generated_Source\PSoC4/RTC.h **** *  The seconds value.
 495:Generated_Source\PSoC4/RTC.h **** *
 496:Generated_Source\PSoC4/RTC.h **** *******************************************************************************/
 497:Generated_Source\PSoC4/RTC.h **** static CY_INLINE uint32 RTC_GetSecond(uint32 inputTime)
 498:Generated_Source\PSoC4/RTC.h **** {
 499:Generated_Source\PSoC4/RTC.h ****     uint32 retVal;
 500:Generated_Source\PSoC4/RTC.h **** 
 501:Generated_Source\PSoC4/RTC.h ****     retVal  = ((inputTime & RTC_10_SECONDS_MASK) >> RTC_10_SECONDS_OFFSET) * 10u;
 502:Generated_Source\PSoC4/RTC.h ****     retVal += (inputTime & RTC_SECONDS_MASK) >> RTC_SECONDS_OFFSET;
 503:Generated_Source\PSoC4/RTC.h **** 
 504:Generated_Source\PSoC4/RTC.h ****     return (retVal);
 505:Generated_Source\PSoC4/RTC.h **** }
 506:Generated_Source\PSoC4/RTC.h **** 
 507:Generated_Source\PSoC4/RTC.h **** 
ARM GAS  C:\Users\Jerry\AppData\Local\Temp\ccngDFcI.s 			page 15


 508:Generated_Source\PSoC4/RTC.h **** /*******************************************************************************
 509:Generated_Source\PSoC4/RTC.h **** * Function Name: RTC_GetMinutes
 510:Generated_Source\PSoC4/RTC.h **** ****************************************************************************//**
 511:Generated_Source\PSoC4/RTC.h **** *
 512:Generated_Source\PSoC4/RTC.h **** * \brief
 513:Generated_Source\PSoC4/RTC.h **** *  Returns the minutes value from the time value that is passed as a/the 
 514:Generated_Source\PSoC4/RTC.h **** * parameter.
 515:Generated_Source\PSoC4/RTC.h **** *
 516:Generated_Source\PSoC4/RTC.h **** * \param
 517:Generated_Source\PSoC4/RTC.h **** *  time The time value.
 518:Generated_Source\PSoC4/RTC.h **** *
 519:Generated_Source\PSoC4/RTC.h **** * \return
 520:Generated_Source\PSoC4/RTC.h **** *  The minutes value.
 521:Generated_Source\PSoC4/RTC.h **** *
 522:Generated_Source\PSoC4/RTC.h **** *******************************************************************************/
 523:Generated_Source\PSoC4/RTC.h **** static CY_INLINE uint32 RTC_GetMinutes(uint32 inputTime)
 524:Generated_Source\PSoC4/RTC.h **** {
 525:Generated_Source\PSoC4/RTC.h ****     uint32 retVal;
 526:Generated_Source\PSoC4/RTC.h **** 
 527:Generated_Source\PSoC4/RTC.h ****     retVal  = ((inputTime & RTC_10_MINUTES_MASK) >> RTC_10_MINUTES_OFFSET) * 10u;
  39              		.loc 2 527 0
  40 0002 4604     		lsl	r6, r0, #17
  41 0004 760F     		lsr	r6, r6, #29
  42 0006 0A23     		mov	r3, #10
  43 0008 321C     		mov	r2, r6
  44 000a 5A43     		mul	r2, r3
 528:Generated_Source\PSoC4/RTC.h ****     retVal += (inputTime & RTC_MINUTES_MASK) >> RTC_MINUTES_OFFSET;
  45              		.loc 2 528 0
  46 000c 0605     		lsl	r6, r0, #20
  47              	.LBE38:
  48              	.LBE37:
  49              	.LBB40:
  50              	.LBB41:
 501:Generated_Source\PSoC4/RTC.h ****     retVal += (inputTime & RTC_SECONDS_MASK) >> RTC_SECONDS_OFFSET;
  51              		.loc 2 501 0
  52 000e 4506     		lsl	r5, r0, #25
  53 0010 6D0F     		lsr	r5, r5, #29
  54              	.LBE41:
  55              	.LBE40:
  56              	.LBB46:
  57              	.LBB39:
  58              		.loc 2 528 0
  59 0012 360F     		lsr	r6, r6, #28
  60 0014 9619     		add	r6, r2, r6
  61              	.LBE39:
  62              	.LBE46:
  63              	.LBB47:
  64              	.LBB42:
 501:Generated_Source\PSoC4/RTC.h ****     retVal += (inputTime & RTC_SECONDS_MASK) >> RTC_SECONDS_OFFSET;
  65              		.loc 2 501 0
  66 0016 2A1C     		mov	r2, r5
 502:Generated_Source\PSoC4/RTC.h **** 
  67              		.loc 2 502 0
  68 0018 0F25     		mov	r5, #15
  69              	.LBE42:
  70              	.LBE47:
  71              	.LBB48:
ARM GAS  C:\Users\Jerry\AppData\Local\Temp\ccngDFcI.s 			page 16


  72              	.LBB49:
 529:Generated_Source\PSoC4/RTC.h **** 
 530:Generated_Source\PSoC4/RTC.h ****     return (retVal);
 531:Generated_Source\PSoC4/RTC.h **** }
 532:Generated_Source\PSoC4/RTC.h **** 
 533:Generated_Source\PSoC4/RTC.h **** 
 534:Generated_Source\PSoC4/RTC.h **** /*******************************************************************************
 535:Generated_Source\PSoC4/RTC.h **** * Function Name: RTC_GetHours
 536:Generated_Source\PSoC4/RTC.h **** ****************************************************************************//**
 537:Generated_Source\PSoC4/RTC.h **** *
 538:Generated_Source\PSoC4/RTC.h **** * \brief
 539:Generated_Source\PSoC4/RTC.h **** *  Returns the hours value from the time value that is passed as a/the parameter.
 540:Generated_Source\PSoC4/RTC.h **** *
 541:Generated_Source\PSoC4/RTC.h **** * \param
 542:Generated_Source\PSoC4/RTC.h **** *  time The time value.
 543:Generated_Source\PSoC4/RTC.h **** *
 544:Generated_Source\PSoC4/RTC.h **** * \return
 545:Generated_Source\PSoC4/RTC.h **** *  The hours value.
 546:Generated_Source\PSoC4/RTC.h **** *
 547:Generated_Source\PSoC4/RTC.h **** *******************************************************************************/
 548:Generated_Source\PSoC4/RTC.h **** static CY_INLINE uint32 RTC_GetHours(uint32 inputTime)
 549:Generated_Source\PSoC4/RTC.h **** {
 550:Generated_Source\PSoC4/RTC.h ****     uint32 retVal;
 551:Generated_Source\PSoC4/RTC.h **** 
 552:Generated_Source\PSoC4/RTC.h ****     retVal  = ((inputTime & RTC_10_HOURS_MASK) >> RTC_10_HOURS_OFFSET) * 10u;
  73              		.loc 2 552 0
  74 001a 8102     		lsl	r1, r0, #10
  75 001c 890F     		lsr	r1, r1, #30
  76              	.LBE49:
  77              	.LBE48:
  78              	.LBB54:
  79              	.LBB43:
 501:Generated_Source\PSoC4/RTC.h ****     retVal += (inputTime & RTC_SECONDS_MASK) >> RTC_SECONDS_OFFSET;
  80              		.loc 2 501 0
  81 001e 5A43     		mul	r2, r3
  82              	.LBE43:
  83              	.LBE54:
  84              	.LBB55:
  85              	.LBB50:
  86              		.loc 2 552 0
  87 0020 4B43     		mul	r3, r1
  88              	.LBE50:
  89              	.LBE55:
  90              	.LBB56:
  91              	.LBB44:
 502:Generated_Source\PSoC4/RTC.h **** 
  92              		.loc 2 502 0
  93 0022 0540     		and	r5, r0
  94              	.LBE44:
  95              	.LBE56:
  96              	.LBB57:
  97              	.LBB58:
 553:Generated_Source\PSoC4/RTC.h ****     retVal += (inputTime & RTC_HOURS_MASK) >> RTC_HOURS_OFFSET;
 554:Generated_Source\PSoC4/RTC.h **** 
 555:Generated_Source\PSoC4/RTC.h ****     return (retVal);
 556:Generated_Source\PSoC4/RTC.h **** }
 557:Generated_Source\PSoC4/RTC.h **** 
ARM GAS  C:\Users\Jerry\AppData\Local\Temp\ccngDFcI.s 			page 17


 558:Generated_Source\PSoC4/RTC.h **** 
 559:Generated_Source\PSoC4/RTC.h **** /*******************************************************************************
 560:Generated_Source\PSoC4/RTC.h **** * Function Name: RTC_GetAmPm
 561:Generated_Source\PSoC4/RTC.h **** ****************************************************************************//**
 562:Generated_Source\PSoC4/RTC.h **** *
 563:Generated_Source\PSoC4/RTC.h **** * \brief
 564:Generated_Source\PSoC4/RTC.h **** *  Returns the AM/PM status from the time value that is passed as parameter.
 565:Generated_Source\PSoC4/RTC.h **** *
 566:Generated_Source\PSoC4/RTC.h **** * \param
 567:Generated_Source\PSoC4/RTC.h **** *  time The time value.
 568:Generated_Source\PSoC4/RTC.h **** *
 569:Generated_Source\PSoC4/RTC.h **** * \return
 570:Generated_Source\PSoC4/RTC.h **** *  RTC_AM - AM.
 571:Generated_Source\PSoC4/RTC.h **** * \return
 572:Generated_Source\PSoC4/RTC.h **** *  RTC_PM - PM.
 573:Generated_Source\PSoC4/RTC.h **** *
 574:Generated_Source\PSoC4/RTC.h **** *******************************************************************************/
 575:Generated_Source\PSoC4/RTC.h **** static CY_INLINE uint32 RTC_GetAmPm(uint32 inputTime)
 576:Generated_Source\PSoC4/RTC.h **** {
 577:Generated_Source\PSoC4/RTC.h ****     return (RTC_IsBitSet(inputTime, RTC_PERIOD_OF_DAY_MASK));
 578:Generated_Source\PSoC4/RTC.h **** }
 579:Generated_Source\PSoC4/RTC.h **** 
 580:Generated_Source\PSoC4/RTC.h **** 
 581:Generated_Source\PSoC4/RTC.h **** /*******************************************************************************
 582:Generated_Source\PSoC4/RTC.h **** * Function Name: RTC_GetDay
 583:Generated_Source\PSoC4/RTC.h **** ****************************************************************************//**
 584:Generated_Source\PSoC4/RTC.h **** *
 585:Generated_Source\PSoC4/RTC.h **** * \brief
 586:Generated_Source\PSoC4/RTC.h **** *  Returns the day value from the date value that is passed as parameter.
 587:Generated_Source\PSoC4/RTC.h **** *
 588:Generated_Source\PSoC4/RTC.h **** * \param
 589:Generated_Source\PSoC4/RTC.h **** *  date The date value.
 590:Generated_Source\PSoC4/RTC.h **** *
 591:Generated_Source\PSoC4/RTC.h **** * \return
 592:Generated_Source\PSoC4/RTC.h **** *  The day value.
 593:Generated_Source\PSoC4/RTC.h **** *
 594:Generated_Source\PSoC4/RTC.h **** *******************************************************************************/
 595:Generated_Source\PSoC4/RTC.h **** static CY_INLINE uint32 RTC_GetDay(uint32 date)
 596:Generated_Source\PSoC4/RTC.h **** {
 597:Generated_Source\PSoC4/RTC.h ****     uint32 retVal;
 598:Generated_Source\PSoC4/RTC.h **** 
 599:Generated_Source\PSoC4/RTC.h ****     retVal  = ((date & RTC_10_DAY_MASK) >> RTC_10_DAY_OFFSET) * 10u;
 600:Generated_Source\PSoC4/RTC.h ****     retVal += (date & RTC_DAY_MASK) >> RTC_DAY_OFFSET;
 601:Generated_Source\PSoC4/RTC.h **** 
 602:Generated_Source\PSoC4/RTC.h ****     return (retVal);
 603:Generated_Source\PSoC4/RTC.h **** }
 604:Generated_Source\PSoC4/RTC.h **** 
 605:Generated_Source\PSoC4/RTC.h **** 
 606:Generated_Source\PSoC4/RTC.h **** /*******************************************************************************
 607:Generated_Source\PSoC4/RTC.h **** * Function Name: RTC_GetMonth
 608:Generated_Source\PSoC4/RTC.h **** ****************************************************************************//**
 609:Generated_Source\PSoC4/RTC.h **** *
 610:Generated_Source\PSoC4/RTC.h **** * \brief
 611:Generated_Source\PSoC4/RTC.h **** *  Returns the month value from the date value that is passed as parameter.
 612:Generated_Source\PSoC4/RTC.h **** *
 613:Generated_Source\PSoC4/RTC.h **** * \param
 614:Generated_Source\PSoC4/RTC.h **** *  date The date value.
ARM GAS  C:\Users\Jerry\AppData\Local\Temp\ccngDFcI.s 			page 18


 615:Generated_Source\PSoC4/RTC.h **** *
 616:Generated_Source\PSoC4/RTC.h **** * \return
 617:Generated_Source\PSoC4/RTC.h **** *  The month value.
 618:Generated_Source\PSoC4/RTC.h **** *
 619:Generated_Source\PSoC4/RTC.h **** *******************************************************************************/
 620:Generated_Source\PSoC4/RTC.h **** static CY_INLINE uint32 RTC_GetMonth(uint32 date)
 621:Generated_Source\PSoC4/RTC.h **** {
 622:Generated_Source\PSoC4/RTC.h ****     uint32 retVal;
 623:Generated_Source\PSoC4/RTC.h **** 
 624:Generated_Source\PSoC4/RTC.h ****     retVal  = ((date & RTC_10_MONTH_MASK) >> RTC_10_MONTH_OFFSET) * 10u;
 625:Generated_Source\PSoC4/RTC.h ****     retVal += (date & RTC_MONTH_MASK) >> RTC_MONTH_OFFSET;
 626:Generated_Source\PSoC4/RTC.h **** 
 627:Generated_Source\PSoC4/RTC.h ****     return (retVal);
 628:Generated_Source\PSoC4/RTC.h **** }
 629:Generated_Source\PSoC4/RTC.h **** 
 630:Generated_Source\PSoC4/RTC.h **** 
 631:Generated_Source\PSoC4/RTC.h **** /*******************************************************************************
 632:Generated_Source\PSoC4/RTC.h **** * Function Name: RTC_GetYear
 633:Generated_Source\PSoC4/RTC.h **** ****************************************************************************//**
 634:Generated_Source\PSoC4/RTC.h **** *
 635:Generated_Source\PSoC4/RTC.h **** * \brief
 636:Generated_Source\PSoC4/RTC.h **** *  Returns the year value from the date value that is passed as parameter.
 637:Generated_Source\PSoC4/RTC.h **** *
 638:Generated_Source\PSoC4/RTC.h **** * \param
 639:Generated_Source\PSoC4/RTC.h **** *  date The date value.
 640:Generated_Source\PSoC4/RTC.h **** *
 641:Generated_Source\PSoC4/RTC.h **** * \return
 642:Generated_Source\PSoC4/RTC.h **** *  The year value.
 643:Generated_Source\PSoC4/RTC.h **** *
 644:Generated_Source\PSoC4/RTC.h **** *******************************************************************************/
 645:Generated_Source\PSoC4/RTC.h **** static CY_INLINE uint32 RTC_GetYear(uint32 date)
 646:Generated_Source\PSoC4/RTC.h **** {
 647:Generated_Source\PSoC4/RTC.h ****     uint32 retVal;
 648:Generated_Source\PSoC4/RTC.h **** 
 649:Generated_Source\PSoC4/RTC.h ****     retVal  = ((date & RTC_1000_YEAR_MASK) >> RTC_1000_YEAR_OFFSET) * 1000u;
 650:Generated_Source\PSoC4/RTC.h ****     retVal += ((date & RTC_100_YEAR_MASK) >> RTC_100_YEAR_OFFSET) * 100u;
 651:Generated_Source\PSoC4/RTC.h ****     retVal += ((date & RTC_10_YEAR_MASK) >> RTC_10_YEAR_OFFSET) * 10u;
 652:Generated_Source\PSoC4/RTC.h ****     retVal += (date & RTC_YEAR_MASK) >> RTC_YEAR_OFFSET;
 653:Generated_Source\PSoC4/RTC.h **** 
 654:Generated_Source\PSoC4/RTC.h ****     return (retVal);
 655:Generated_Source\PSoC4/RTC.h **** }
 656:Generated_Source\PSoC4/RTC.h **** 
 657:Generated_Source\PSoC4/RTC.h **** 
 658:Generated_Source\PSoC4/RTC.h **** /*******************************************************************************
 659:Generated_Source\PSoC4/RTC.h **** * Function Name: RTC_SetSecond
 660:Generated_Source\PSoC4/RTC.h **** ****************************************************************************//**
 661:Generated_Source\PSoC4/RTC.h **** *\internal
 662:Generated_Source\PSoC4/RTC.h **** * \brief
 663:Generated_Source\PSoC4/RTC.h **** *  Updates the time with the new second value.
 664:Generated_Source\PSoC4/RTC.h **** *
 665:Generated_Source\PSoC4/RTC.h **** * \param
 666:Generated_Source\PSoC4/RTC.h **** * time The current date.
 667:Generated_Source\PSoC4/RTC.h **** * \param
 668:Generated_Source\PSoC4/RTC.h **** * second The seconds value to be set to the time variable.
 669:Generated_Source\PSoC4/RTC.h **** *
 670:Generated_Source\PSoC4/RTC.h **** * \return
 671:Generated_Source\PSoC4/RTC.h **** *  The updated time variable.
ARM GAS  C:\Users\Jerry\AppData\Local\Temp\ccngDFcI.s 			page 19


 672:Generated_Source\PSoC4/RTC.h **** *\endinternal
 673:Generated_Source\PSoC4/RTC.h **** *******************************************************************************/
 674:Generated_Source\PSoC4/RTC.h **** static CY_INLINE uint32 RTC_SetSecond(uint32 inputTime, uint32 inputSecond)
 675:Generated_Source\PSoC4/RTC.h **** {
 676:Generated_Source\PSoC4/RTC.h ****     inputTime &= ~(RTC_SECONDS_FULL_MASK);
 677:Generated_Source\PSoC4/RTC.h **** 
 678:Generated_Source\PSoC4/RTC.h ****     inputTime |= (inputSecond / 10u) << RTC_10_SECONDS_OFFSET;
 679:Generated_Source\PSoC4/RTC.h ****     inputTime |= (inputSecond % 10u) << RTC_SECONDS_OFFSET;
 680:Generated_Source\PSoC4/RTC.h **** 
 681:Generated_Source\PSoC4/RTC.h ****     return(inputTime);
 682:Generated_Source\PSoC4/RTC.h **** }
 683:Generated_Source\PSoC4/RTC.h **** 
 684:Generated_Source\PSoC4/RTC.h **** 
 685:Generated_Source\PSoC4/RTC.h **** /*******************************************************************************
 686:Generated_Source\PSoC4/RTC.h **** * Function Name: RTC_SetMinutes
 687:Generated_Source\PSoC4/RTC.h **** ****************************************************************************//**
 688:Generated_Source\PSoC4/RTC.h **** *\internal
 689:Generated_Source\PSoC4/RTC.h **** * \brief
 690:Generated_Source\PSoC4/RTC.h **** *  Updates the time with the new minute value.
 691:Generated_Source\PSoC4/RTC.h **** *
 692:Generated_Source\PSoC4/RTC.h **** * \param
 693:Generated_Source\PSoC4/RTC.h **** *  time The current date.
 694:Generated_Source\PSoC4/RTC.h **** * \param
 695:Generated_Source\PSoC4/RTC.h **** *  minutes The minutes value to be set to the time variable.
 696:Generated_Source\PSoC4/RTC.h **** *
 697:Generated_Source\PSoC4/RTC.h **** * \return
 698:Generated_Source\PSoC4/RTC.h **** *  The updated time variable.
 699:Generated_Source\PSoC4/RTC.h **** * \endinternal
 700:Generated_Source\PSoC4/RTC.h **** *******************************************************************************/
 701:Generated_Source\PSoC4/RTC.h **** static CY_INLINE uint32 RTC_SetMinutes(uint32 inputTime, uint32 inputMinute)
 702:Generated_Source\PSoC4/RTC.h **** {
 703:Generated_Source\PSoC4/RTC.h ****     inputTime &= ~(RTC_MINUTES_FULL_MASK);
 704:Generated_Source\PSoC4/RTC.h **** 
 705:Generated_Source\PSoC4/RTC.h ****     inputTime |= (inputMinute / 10u) << RTC_10_MINUTES_OFFSET;
 706:Generated_Source\PSoC4/RTC.h ****     inputTime |= (inputMinute % 10u) << RTC_MINUTES_OFFSET;
 707:Generated_Source\PSoC4/RTC.h **** 
 708:Generated_Source\PSoC4/RTC.h ****     return(inputTime);
 709:Generated_Source\PSoC4/RTC.h **** }
 710:Generated_Source\PSoC4/RTC.h **** 
 711:Generated_Source\PSoC4/RTC.h **** 
 712:Generated_Source\PSoC4/RTC.h **** /*******************************************************************************
 713:Generated_Source\PSoC4/RTC.h **** * Function Name: RTC_SetHours
 714:Generated_Source\PSoC4/RTC.h **** ****************************************************************************//**
 715:Generated_Source\PSoC4/RTC.h **** *\internal
 716:Generated_Source\PSoC4/RTC.h **** * \brief
 717:Generated_Source\PSoC4/RTC.h **** *  Updates the time with the new hour value.
 718:Generated_Source\PSoC4/RTC.h **** *
 719:Generated_Source\PSoC4/RTC.h **** * \param
 720:Generated_Source\PSoC4/RTC.h **** * time The current date.
 721:Generated_Source\PSoC4/RTC.h **** * \param
 722:Generated_Source\PSoC4/RTC.h **** * hours The hours value to be set to the time variable.
 723:Generated_Source\PSoC4/RTC.h **** *
 724:Generated_Source\PSoC4/RTC.h **** * \return
 725:Generated_Source\PSoC4/RTC.h **** *  The updated time variable.
 726:Generated_Source\PSoC4/RTC.h **** *\endinternal
 727:Generated_Source\PSoC4/RTC.h **** *******************************************************************************/
 728:Generated_Source\PSoC4/RTC.h **** static CY_INLINE uint32 RTC_SetHours(uint32 inputTime, uint32 inputHours)
ARM GAS  C:\Users\Jerry\AppData\Local\Temp\ccngDFcI.s 			page 20


 729:Generated_Source\PSoC4/RTC.h **** {
 730:Generated_Source\PSoC4/RTC.h ****     inputTime &= ~(RTC_HOURS_FULL_MASK);
 731:Generated_Source\PSoC4/RTC.h **** 
 732:Generated_Source\PSoC4/RTC.h ****     inputTime |= (inputHours / 10u) << RTC_10_HOURS_OFFSET;
 733:Generated_Source\PSoC4/RTC.h ****     inputTime |= (inputHours % 10u) << RTC_HOURS_OFFSET;
 734:Generated_Source\PSoC4/RTC.h **** 
 735:Generated_Source\PSoC4/RTC.h ****     return(inputTime);
 736:Generated_Source\PSoC4/RTC.h **** }
 737:Generated_Source\PSoC4/RTC.h **** 
 738:Generated_Source\PSoC4/RTC.h **** 
 739:Generated_Source\PSoC4/RTC.h **** /*******************************************************************************
 740:Generated_Source\PSoC4/RTC.h **** * Function Name: RTC_SetAmPm
 741:Generated_Source\PSoC4/RTC.h **** ****************************************************************************//**
 742:Generated_Source\PSoC4/RTC.h **** *\internal
 743:Generated_Source\PSoC4/RTC.h **** * \brief
 744:Generated_Source\PSoC4/RTC.h **** *  Updates the time variable with the AmPm status.
 745:Generated_Source\PSoC4/RTC.h **** *
 746:Generated_Source\PSoC4/RTC.h **** * \param
 747:Generated_Source\PSoC4/RTC.h **** * time The current date.
 748:Generated_Source\PSoC4/RTC.h **** * \param
 749:Generated_Source\PSoC4/RTC.h **** * periodOfDay The AmPm status to be set to the time variable.
 750:Generated_Source\PSoC4/RTC.h **** *
 751:Generated_Source\PSoC4/RTC.h **** * \return
 752:Generated_Source\PSoC4/RTC.h **** *  The updated time variable.
 753:Generated_Source\PSoC4/RTC.h **** * \endinternal
 754:Generated_Source\PSoC4/RTC.h **** *******************************************************************************/
 755:Generated_Source\PSoC4/RTC.h **** static CY_INLINE uint32 RTC_SetAmPm(uint32 inputTime, uint32 periodOfDay)
 756:Generated_Source\PSoC4/RTC.h **** {
 757:Generated_Source\PSoC4/RTC.h ****     if(0u != periodOfDay)
 758:Generated_Source\PSoC4/RTC.h ****     {
 759:Generated_Source\PSoC4/RTC.h ****         inputTime &= ~(RTC_PERIOD_OF_DAY_MASK);
 760:Generated_Source\PSoC4/RTC.h ****     }
 761:Generated_Source\PSoC4/RTC.h ****     else
 762:Generated_Source\PSoC4/RTC.h ****     {
 763:Generated_Source\PSoC4/RTC.h ****         inputTime |= RTC_PERIOD_OF_DAY_MASK;
 764:Generated_Source\PSoC4/RTC.h ****     }
 765:Generated_Source\PSoC4/RTC.h **** 
 766:Generated_Source\PSoC4/RTC.h ****     return(inputTime);
 767:Generated_Source\PSoC4/RTC.h **** }
 768:Generated_Source\PSoC4/RTC.h **** 
 769:Generated_Source\PSoC4/RTC.h **** 
 770:Generated_Source\PSoC4/RTC.h **** /*******************************************************************************
 771:Generated_Source\PSoC4/RTC.h **** * Function Name: RTC_SetDay
 772:Generated_Source\PSoC4/RTC.h **** ****************************************************************************//**
 773:Generated_Source\PSoC4/RTC.h **** *\internal
 774:Generated_Source\PSoC4/RTC.h **** * \brief
 775:Generated_Source\PSoC4/RTC.h **** *  Updates the date variable with the new day value.
 776:Generated_Source\PSoC4/RTC.h **** *
 777:Generated_Source\PSoC4/RTC.h **** * \param
 778:Generated_Source\PSoC4/RTC.h **** * date The current date.
 779:Generated_Source\PSoC4/RTC.h **** * \param
 780:Generated_Source\PSoC4/RTC.h **** * day The month to be set to the date variable.
 781:Generated_Source\PSoC4/RTC.h **** *
 782:Generated_Source\PSoC4/RTC.h **** * \return
 783:Generated_Source\PSoC4/RTC.h **** *  The updated date variable.
 784:Generated_Source\PSoC4/RTC.h **** *\endinternal
 785:Generated_Source\PSoC4/RTC.h **** *******************************************************************************/
ARM GAS  C:\Users\Jerry\AppData\Local\Temp\ccngDFcI.s 			page 21


 786:Generated_Source\PSoC4/RTC.h **** static CY_INLINE uint32 RTC_SetDay(uint32 inputDate, uint32 inputDay)
 787:Generated_Source\PSoC4/RTC.h **** {
 788:Generated_Source\PSoC4/RTC.h ****     inputDate &= ~(RTC_DAY_FULL_MASK);
 789:Generated_Source\PSoC4/RTC.h **** 
 790:Generated_Source\PSoC4/RTC.h ****     inputDate |= (inputDay / 10u) << RTC_10_DAY_OFFSET;
 791:Generated_Source\PSoC4/RTC.h ****     inputDate |= (inputDay % 10u) << RTC_DAY_OFFSET;
 792:Generated_Source\PSoC4/RTC.h **** 
 793:Generated_Source\PSoC4/RTC.h ****     return(inputDate);
 794:Generated_Source\PSoC4/RTC.h **** }
 795:Generated_Source\PSoC4/RTC.h **** 
 796:Generated_Source\PSoC4/RTC.h **** 
 797:Generated_Source\PSoC4/RTC.h **** /*******************************************************************************
 798:Generated_Source\PSoC4/RTC.h **** * Function Name: RTC_SetMonth
 799:Generated_Source\PSoC4/RTC.h **** ****************************************************************************//**
 800:Generated_Source\PSoC4/RTC.h **** *\internal
 801:Generated_Source\PSoC4/RTC.h **** * \brief
 802:Generated_Source\PSoC4/RTC.h **** *  Updates the date variable with the new month value.
 803:Generated_Source\PSoC4/RTC.h **** *
 804:Generated_Source\PSoC4/RTC.h **** * \param
 805:Generated_Source\PSoC4/RTC.h **** * date The current date.
 806:Generated_Source\PSoC4/RTC.h **** * \param
 807:Generated_Source\PSoC4/RTC.h **** * month The month that to be set to the date variable.
 808:Generated_Source\PSoC4/RTC.h **** *
 809:Generated_Source\PSoC4/RTC.h **** * \return
 810:Generated_Source\PSoC4/RTC.h **** *  The updated date variable.
 811:Generated_Source\PSoC4/RTC.h **** *\endinternal
 812:Generated_Source\PSoC4/RTC.h **** *******************************************************************************/
 813:Generated_Source\PSoC4/RTC.h **** static CY_INLINE uint32 RTC_SetMonth(uint32 inputDate, uint32 inputMonth)
 814:Generated_Source\PSoC4/RTC.h **** {
 815:Generated_Source\PSoC4/RTC.h ****     inputDate &= ~(RTC_MONTH_FULL_MASK);
 816:Generated_Source\PSoC4/RTC.h **** 
 817:Generated_Source\PSoC4/RTC.h ****     inputDate |= (inputMonth / 10u) << RTC_10_MONTH_OFFSET;
 818:Generated_Source\PSoC4/RTC.h ****     inputDate |= (inputMonth % 10u) << RTC_MONTH_OFFSET;
 819:Generated_Source\PSoC4/RTC.h **** 
 820:Generated_Source\PSoC4/RTC.h ****     return(inputDate);
 821:Generated_Source\PSoC4/RTC.h **** }
 822:Generated_Source\PSoC4/RTC.h **** 
 823:Generated_Source\PSoC4/RTC.h **** 
 824:Generated_Source\PSoC4/RTC.h **** /*******************************************************************************
 825:Generated_Source\PSoC4/RTC.h **** * Function Name: RTC_SetYear
 826:Generated_Source\PSoC4/RTC.h **** ****************************************************************************//**
 827:Generated_Source\PSoC4/RTC.h **** *\internal
 828:Generated_Source\PSoC4/RTC.h **** * \brief
 829:Generated_Source\PSoC4/RTC.h **** *  Updates the date variable with the new year value.
 830:Generated_Source\PSoC4/RTC.h **** *
 831:Generated_Source\PSoC4/RTC.h **** * \param
 832:Generated_Source\PSoC4/RTC.h **** * date The current date.
 833:Generated_Source\PSoC4/RTC.h **** * \param
 834:Generated_Source\PSoC4/RTC.h **** * year The year to be set to the date variable.
 835:Generated_Source\PSoC4/RTC.h **** *
 836:Generated_Source\PSoC4/RTC.h **** * \return
 837:Generated_Source\PSoC4/RTC.h **** * The updated date variable.
 838:Generated_Source\PSoC4/RTC.h **** *\endinternal
 839:Generated_Source\PSoC4/RTC.h **** *******************************************************************************/
 840:Generated_Source\PSoC4/RTC.h **** static CY_INLINE uint32 RTC_SetYear(uint32 inputDate, uint32 inputYear)
 841:Generated_Source\PSoC4/RTC.h **** {
 842:Generated_Source\PSoC4/RTC.h ****     inputDate  &= ~(RTC_YEAR_FULL_MASK);
ARM GAS  C:\Users\Jerry\AppData\Local\Temp\ccngDFcI.s 			page 22


 843:Generated_Source\PSoC4/RTC.h **** 
 844:Generated_Source\PSoC4/RTC.h ****     inputDate |= (inputYear / 1000u) << RTC_1000_YEAR_OFFSET;
 845:Generated_Source\PSoC4/RTC.h ****     inputYear %= 1000u;
 846:Generated_Source\PSoC4/RTC.h **** 
 847:Generated_Source\PSoC4/RTC.h ****     inputDate |= (inputYear / 100u) << RTC_100_YEAR_OFFSET;
 848:Generated_Source\PSoC4/RTC.h ****     inputYear %= 100u;
 849:Generated_Source\PSoC4/RTC.h **** 
 850:Generated_Source\PSoC4/RTC.h ****     inputDate |= (inputYear / 10u) << RTC_10_YEAR_OFFSET;
 851:Generated_Source\PSoC4/RTC.h ****     inputDate |= (inputYear % 10u) << RTC_YEAR_OFFSET;
 852:Generated_Source\PSoC4/RTC.h **** 
 853:Generated_Source\PSoC4/RTC.h ****     return(inputDate);
 854:Generated_Source\PSoC4/RTC.h **** }
 855:Generated_Source\PSoC4/RTC.h **** 
 856:Generated_Source\PSoC4/RTC.h **** 
 857:Generated_Source\PSoC4/RTC.h **** /*******************************************************************************
 858:Generated_Source\PSoC4/RTC.h **** * Function Name: RTC_GetNextMinSec
 859:Generated_Source\PSoC4/RTC.h **** ****************************************************************************//**
 860:Generated_Source\PSoC4/RTC.h **** *\internal
 861:Generated_Source\PSoC4/RTC.h **** * \brief
 862:Generated_Source\PSoC4/RTC.h **** * This is an internal function that calculates the value of the next Second/Minute
 863:Generated_Source\PSoC4/RTC.h **** * that follows after the current Minute/Second.
 864:Generated_Source\PSoC4/RTC.h **** *
 865:Generated_Source\PSoC4/RTC.h **** * \param
 866:Generated_Source\PSoC4/RTC.h **** * curVal The current Second/Minute value.
 867:Generated_Source\PSoC4/RTC.h **** *
 868:Generated_Source\PSoC4/RTC.h **** * \return
 869:Generated_Source\PSoC4/RTC.h **** * Returns the Second/Minute which follows after the current Second/Minute.
 870:Generated_Source\PSoC4/RTC.h **** *\endinternal
 871:Generated_Source\PSoC4/RTC.h **** *******************************************************************************/
 872:Generated_Source\PSoC4/RTC.h **** static CY_INLINE uint32 RTC_GetNextMinSec(uint32 curVal)
 873:Generated_Source\PSoC4/RTC.h **** {
 874:Generated_Source\PSoC4/RTC.h ****     return((curVal < 59u) ? (curVal + 1u) : 0u);
 875:Generated_Source\PSoC4/RTC.h **** }
 876:Generated_Source\PSoC4/RTC.h **** 
 877:Generated_Source\PSoC4/RTC.h **** 
 878:Generated_Source\PSoC4/RTC.h **** /*******************************************************************************
 879:Generated_Source\PSoC4/RTC.h **** * Function Name: RTC_GetNextHour
 880:Generated_Source\PSoC4/RTC.h **** ****************************************************************************//**
 881:Generated_Source\PSoC4/RTC.h **** *\internal
 882:Generated_Source\PSoC4/RTC.h **** * \brief
 883:Generated_Source\PSoC4/RTC.h **** *  This is an internal function that calculates the value of the next Hour
 884:Generated_Source\PSoC4/RTC.h **** *  that follows after the current Hour.
 885:Generated_Source\PSoC4/RTC.h **** *
 886:Generated_Source\PSoC4/RTC.h **** * \param
 887:Generated_Source\PSoC4/RTC.h **** * curVal The current Hour value.
 888:Generated_Source\PSoC4/RTC.h **** *
 889:Generated_Source\PSoC4/RTC.h **** * \return
 890:Generated_Source\PSoC4/RTC.h **** *  Returns the Hour which follows after the current Hour.
 891:Generated_Source\PSoC4/RTC.h **** * \endinternal
 892:Generated_Source\PSoC4/RTC.h **** *******************************************************************************/
 893:Generated_Source\PSoC4/RTC.h **** static CY_INLINE uint32 RTC_GetNextHour(uint32 curVal)
 894:Generated_Source\PSoC4/RTC.h **** {
 895:Generated_Source\PSoC4/RTC.h ****     return((curVal < 23u) ? (curVal + 1u) : 0u);
 896:Generated_Source\PSoC4/RTC.h **** }
 897:Generated_Source\PSoC4/RTC.h **** 
 898:Generated_Source\PSoC4/RTC.h **** 
 899:Generated_Source\PSoC4/RTC.h **** /*******************************************************************************
ARM GAS  C:\Users\Jerry\AppData\Local\Temp\ccngDFcI.s 			page 23


 900:Generated_Source\PSoC4/RTC.h **** * Function Name: RTC_GetNextDay
 901:Generated_Source\PSoC4/RTC.h **** ****************************************************************************//**
 902:Generated_Source\PSoC4/RTC.h **** * \internal
 903:Generated_Source\PSoC4/RTC.h **** * \brief
 904:Generated_Source\PSoC4/RTC.h **** *  This is an internal function that calculates the value of the next Day
 905:Generated_Source\PSoC4/RTC.h **** *  that follows after the current Day.
 906:Generated_Source\PSoC4/RTC.h **** *
 907:Generated_Source\PSoC4/RTC.h **** * \param
 908:Generated_Source\PSoC4/RTC.h **** *  curYear The current year.
 909:Generated_Source\PSoC4/RTC.h **** * \param
 910:Generated_Source\PSoC4/RTC.h **** *  curMonth The current month.
 911:Generated_Source\PSoC4/RTC.h **** * \param
 912:Generated_Source\PSoC4/RTC.h **** *  curDay The current day.
 913:Generated_Source\PSoC4/RTC.h **** * \param
 914:Generated_Source\PSoC4/RTC.h **** *  alarmCfgMask Alarm Config Mask.
 915:Generated_Source\PSoC4/RTC.h **** *
 916:Generated_Source\PSoC4/RTC.h **** * \return
 917:Generated_Source\PSoC4/RTC.h **** *  Returns the day which follows after the current Day.
 918:Generated_Source\PSoC4/RTC.h **** * \endinternal
 919:Generated_Source\PSoC4/RTC.h **** *******************************************************************************/
 920:Generated_Source\PSoC4/RTC.h **** static CY_INLINE uint32 RTC_GetNextDay(uint32 curYear, uint32 curMonth, uint32 curDay, uint32 alarm
 921:Generated_Source\PSoC4/RTC.h **** {
 922:Generated_Source\PSoC4/RTC.h ****     uint32 daysInMonth;
 923:Generated_Source\PSoC4/RTC.h ****     uint32 tmpVal;
 924:Generated_Source\PSoC4/RTC.h **** 
 925:Generated_Source\PSoC4/RTC.h ****     daysInMonth = RTC_DaysInMonth(curMonth, curYear);
 926:Generated_Source\PSoC4/RTC.h **** 
 927:Generated_Source\PSoC4/RTC.h ****     if(0u != (alarmCfgMask & RTC_ALARM_DAYOFWEEK_MASK))
 928:Generated_Source\PSoC4/RTC.h ****     {
 929:Generated_Source\PSoC4/RTC.h ****         tmpVal = curDay + RTC_DAYS_PER_WEEK;
 930:Generated_Source\PSoC4/RTC.h ****         tmpVal = (tmpVal > daysInMonth) ? (tmpVal - daysInMonth) : tmpVal;
 931:Generated_Source\PSoC4/RTC.h ****     }
 932:Generated_Source\PSoC4/RTC.h ****     else
 933:Generated_Source\PSoC4/RTC.h ****     {
 934:Generated_Source\PSoC4/RTC.h ****         tmpVal = (curDay < daysInMonth) ? (curDay + 1u) : 1u;
 935:Generated_Source\PSoC4/RTC.h ****     }
 936:Generated_Source\PSoC4/RTC.h **** 
 937:Generated_Source\PSoC4/RTC.h ****     return(tmpVal);
 938:Generated_Source\PSoC4/RTC.h **** }
 939:Generated_Source\PSoC4/RTC.h **** 
 940:Generated_Source\PSoC4/RTC.h **** 
 941:Generated_Source\PSoC4/RTC.h **** /*******************************************************************************
 942:Generated_Source\PSoC4/RTC.h **** * Function Name: RTC_GetNextMonth
 943:Generated_Source\PSoC4/RTC.h **** ****************************************************************************//**
 944:Generated_Source\PSoC4/RTC.h **** * \internal
 945:Generated_Source\PSoC4/RTC.h **** * \brief
 946:Generated_Source\PSoC4/RTC.h **** *  This is an internal function that calculates the value of the next month
 947:Generated_Source\PSoC4/RTC.h **** *  that follows after the current month.
 948:Generated_Source\PSoC4/RTC.h **** *
 949:Generated_Source\PSoC4/RTC.h **** * \param
 950:Generated_Source\PSoC4/RTC.h **** *  curMonth The current month.
 951:Generated_Source\PSoC4/RTC.h **** *
 952:Generated_Source\PSoC4/RTC.h **** * \return
 953:Generated_Source\PSoC4/RTC.h **** *  Returns the month which follows after the current month.
 954:Generated_Source\PSoC4/RTC.h **** * \endinternal
 955:Generated_Source\PSoC4/RTC.h **** *******************************************************************************/
 956:Generated_Source\PSoC4/RTC.h **** static CY_INLINE uint32 RTC_GetNextMonth(uint32 curMonth)
ARM GAS  C:\Users\Jerry\AppData\Local\Temp\ccngDFcI.s 			page 24


 957:Generated_Source\PSoC4/RTC.h **** {
 958:Generated_Source\PSoC4/RTC.h ****     return((curMonth < 12u) ? (curMonth + 1u) : 1u);
 959:Generated_Source\PSoC4/RTC.h **** }
 960:Generated_Source\PSoC4/RTC.h **** 
 961:Generated_Source\PSoC4/RTC.h **** 
 962:Generated_Source\PSoC4/RTC.h **** /*******************************************************************************
 963:Generated_Source\PSoC4/RTC.h **** * Function Name: RTC_GetNextYear
 964:Generated_Source\PSoC4/RTC.h **** ****************************************************************************//**
 965:Generated_Source\PSoC4/RTC.h **** * \internal
 966:Generated_Source\PSoC4/RTC.h **** * \brief
 967:Generated_Source\PSoC4/RTC.h **** *  This is an internal function that calculates the value of the next year
 968:Generated_Source\PSoC4/RTC.h **** *  that follows after the current year.
 969:Generated_Source\PSoC4/RTC.h **** *
 970:Generated_Source\PSoC4/RTC.h **** * \param
 971:Generated_Source\PSoC4/RTC.h **** *  curYear The current year.
 972:Generated_Source\PSoC4/RTC.h **** *
 973:Generated_Source\PSoC4/RTC.h **** * \return
 974:Generated_Source\PSoC4/RTC.h **** *  Returns the year which follows after the current year.
 975:Generated_Source\PSoC4/RTC.h **** * \endinternal
 976:Generated_Source\PSoC4/RTC.h **** *******************************************************************************/
 977:Generated_Source\PSoC4/RTC.h **** static CY_INLINE uint32 RTC_GetNextYear(uint32 curYear)
 978:Generated_Source\PSoC4/RTC.h **** {
 979:Generated_Source\PSoC4/RTC.h ****     return(curYear + 1u);
 980:Generated_Source\PSoC4/RTC.h **** }
 981:Generated_Source\PSoC4/RTC.h **** 
 982:Generated_Source\PSoC4/RTC.h **** 
 983:Generated_Source\PSoC4/RTC.h **** /*******************************************************************************
 984:Generated_Source\PSoC4/RTC.h **** * Function Name: RTC_SetTimeFormat
 985:Generated_Source\PSoC4/RTC.h **** ****************************************************************************//**
 986:Generated_Source\PSoC4/RTC.h **** * \internal
 987:Generated_Source\PSoC4/RTC.h **** * \brief
 988:Generated_Source\PSoC4/RTC.h **** *  Updates the "Time Format" value in the variable that contains time in the
 989:Generated_Source\PSoC4/RTC.h **** *  "HH:MM:SS" format.
 990:Generated_Source\PSoC4/RTC.h **** *
 991:Generated_Source\PSoC4/RTC.h **** * \param
 992:Generated_Source\PSoC4/RTC.h **** *  inputTime The current value of the time in the "HH:MM:SS" format.
 993:Generated_Source\PSoC4/RTC.h **** *
 994:Generated_Source\PSoC4/RTC.h **** * \return
 995:Generated_Source\PSoC4/RTC.h **** *  Returns the updated value of the time in the "HH:MM:SS" format.
 996:Generated_Source\PSoC4/RTC.h **** * \endinternal
 997:Generated_Source\PSoC4/RTC.h **** *******************************************************************************/
 998:Generated_Source\PSoC4/RTC.h **** static CY_INLINE uint32 RTC_SetTimeFormat(uint32 inputTime, uint32 timeFormat)
 999:Generated_Source\PSoC4/RTC.h **** {
1000:Generated_Source\PSoC4/RTC.h ****     inputTime &= ~(RTC_TIME_FORMAT_MASK);
1001:Generated_Source\PSoC4/RTC.h **** 
1002:Generated_Source\PSoC4/RTC.h ****     if((uint32)RTC_12_HOURS_FORMAT != timeFormat)
1003:Generated_Source\PSoC4/RTC.h ****     {
1004:Generated_Source\PSoC4/RTC.h ****         inputTime |= RTC_TIME_FORMAT_MASK;
1005:Generated_Source\PSoC4/RTC.h ****     }
1006:Generated_Source\PSoC4/RTC.h **** 
1007:Generated_Source\PSoC4/RTC.h ****     return(inputTime);
1008:Generated_Source\PSoC4/RTC.h **** }
1009:Generated_Source\PSoC4/RTC.h **** 
1010:Generated_Source\PSoC4/RTC.h **** 
1011:Generated_Source\PSoC4/RTC.h **** /*******************************************************************************
1012:Generated_Source\PSoC4/RTC.h **** * Function Name: RTC_GetTimeFormat
1013:Generated_Source\PSoC4/RTC.h **** ****************************************************************************//**
ARM GAS  C:\Users\Jerry\AppData\Local\Temp\ccngDFcI.s 			page 25


1014:Generated_Source\PSoC4/RTC.h **** * \internal
1015:Generated_Source\PSoC4/RTC.h **** * \brief
1016:Generated_Source\PSoC4/RTC.h **** *  Reads the time format from the variable that contains time in the
1017:Generated_Source\PSoC4/RTC.h **** *  "HH:MM:SS" format.
1018:Generated_Source\PSoC4/RTC.h **** *
1019:Generated_Source\PSoC4/RTC.h **** * \param
1020:Generated_Source\PSoC4/RTC.h **** *  inputTime The current value of the time in the "HH:MM:SS" format.
1021:Generated_Source\PSoC4/RTC.h **** *
1022:Generated_Source\PSoC4/RTC.h **** * \return
1023:Generated_Source\PSoC4/RTC.h **** *  Returns the time format that is stored in the variable that contains time
1024:Generated_Source\PSoC4/RTC.h **** *  in the "HH:MM:SS" format.
1025:Generated_Source\PSoC4/RTC.h **** * \endinternal
1026:Generated_Source\PSoC4/RTC.h **** *******************************************************************************/
1027:Generated_Source\PSoC4/RTC.h **** static CY_INLINE uint32 RTC_GetTimeFormat(uint32 inputTime)
1028:Generated_Source\PSoC4/RTC.h **** {
1029:Generated_Source\PSoC4/RTC.h ****     return ((0uL != (inputTime & (1uL << RTC_TIME_FORMAT_OFFSET))) ? (uint32)RTC_12_HOURS_FORMAT :
  98              		.loc 2 1029 0
  99 0024 8027     		mov	r7, #128
 100              	.LBE58:
 101              	.LBE57:
 102              	.LBB61:
 103              	.LBB45:
 502:Generated_Source\PSoC4/RTC.h **** 
 104              		.loc 2 502 0
 105 0026 5519     		add	r5, r2, r5
 106              	.LBE45:
 107              	.LBE61:
 108              	.LBB62:
 109              	.LBB51:
 552:Generated_Source\PSoC4/RTC.h ****     retVal += (inputTime & RTC_HOURS_MASK) >> RTC_HOURS_OFFSET;
 110              		.loc 2 552 0
 111 0028 1A1C     		mov	r2, r3
 553:Generated_Source\PSoC4/RTC.h ****     retVal += (inputTime & RTC_HOURS_MASK) >> RTC_HOURS_OFFSET;
 112              		.loc 2 553 0
 113 002a 0103     		lsl	r1, r0, #12
 114              	.LBE51:
 115              	.LBE62:
 116              	.LBB63:
 117              	.LBB59:
 118              		.loc 2 1029 0
 119 002c 3F04     		lsl	r7, r7, #16
 120              	.LBE59:
 121              	.LBE63:
 122              	.LBB64:
 123              	.LBB52:
 553:Generated_Source\PSoC4/RTC.h ****     retVal += (inputTime & RTC_HOURS_MASK) >> RTC_HOURS_OFFSET;
 124              		.loc 2 553 0
 125 002e 0B0F     		lsr	r3, r1, #28
 126              	.LBE52:
 127              	.LBE64:
 128              		.loc 1 253 0
 129 0030 041C     		mov	r4, r0
 130              	.LBB65:
 131              	.LBB60:
 132              		.loc 2 1029 0
 133 0032 0740     		and	r7, r0
 134              	.LVL1:
ARM GAS  C:\Users\Jerry\AppData\Local\Temp\ccngDFcI.s 			page 26


 135              	.LBE60:
 136              	.LBE65:
 137              	.LBB66:
 138              	.LBB53:
 553:Generated_Source\PSoC4/RTC.h ****     retVal += (inputTime & RTC_HOURS_MASK) >> RTC_HOURS_OFFSET;
 139              		.loc 2 553 0
 140 0034 D118     		add	r1, r2, r3
 141              	.LBE53:
 142              	.LBE66:
 254:main.c        **** {
 255:main.c        ****     uint32 time_format = RTC_GetTimeFormat(dateTime.time);
 256:main.c        ****     uint32 hours = RTC_GetHours(dateTime.time);
 257:main.c        ****     uint32 minutes = RTC_GetMinutes(dateTime.time);
 258:main.c        ****     uint32 ampm = RTC_GetAmPm(dateTime.time);
 259:main.c        ****     uint32 seconds = RTC_GetSecond(dateTime.time);
 260:main.c        **** 
 261:main.c        ****     iprintf(STRING_CURR_TIME"%d:", hours);
 143              		.loc 1 261 0
 144 0036 1048     		ldr	r0, .L11
 145              	.LVL2:
 146 0038 FFF7FEFF 		bl	iprintf
 147              	.LVL3:
 262:main.c        **** 
 263:main.c        ****     if (10 > minutes) {
 148              		.loc 1 263 0
 149 003c 092E     		cmp	r6, #9
 150 003e 02D8     		bhi	.L2
 264:main.c        ****         UART_UartPutChar('0');
 151              		.loc 1 264 0
 152 0040 3020     		mov	r0, #48
 153 0042 FFF7FEFF 		bl	UART_SpiUartWriteTxData
 154              	.LVL4:
 155              	.L2:
 265:main.c        ****     }
 266:main.c        ****     iprintf("%d:", minutes);
 156              		.loc 1 266 0
 157 0046 0D48     		ldr	r0, .L11+4
 158 0048 311C     		mov	r1, r6
 159 004a FFF7FEFF 		bl	iprintf
 160              	.LVL5:
 267:main.c        **** 
 268:main.c        ****     if (10 > seconds) {
 161              		.loc 1 268 0
 162 004e 092D     		cmp	r5, #9
 163 0050 02D8     		bhi	.L3
 269:main.c        ****         UART_UartPutChar('0');
 164              		.loc 1 269 0
 165 0052 3020     		mov	r0, #48
 166 0054 FFF7FEFF 		bl	UART_SpiUartWriteTxData
 167              	.LVL6:
 168              	.L3:
 270:main.c        ****     }
 271:main.c        ****     iprintf("%d", seconds);
 169              		.loc 1 271 0
 170 0058 0948     		ldr	r0, .L11+8
 171 005a 291C     		mov	r1, r5
 172 005c FFF7FEFF 		bl	iprintf
ARM GAS  C:\Users\Jerry\AppData\Local\Temp\ccngDFcI.s 			page 27


 173              	.LVL7:
 272:main.c        ****     
 273:main.c        ****     if (RTC_12_HOURS_FORMAT == time_format)
 174              		.loc 1 273 0
 175 0060 002F     		cmp	r7, #0
 176 0062 05D0     		beq	.L4
 274:main.c        ****     {
 275:main.c        ****         if (RTC_AM == ampm)
 276:main.c        ****         {
 277:main.c        ****             UART_UartPutString(" "STRING_AM);
 177              		.loc 1 277 0
 178 0064 0748     		ldr	r0, .L11+12
 275:main.c        ****         {
 179              		.loc 1 275 0
 180 0066 6302     		lsl	r3, r4, #9
 181 0068 00D5     		bpl	.L9
 278:main.c        ****         }
 279:main.c        ****         else if (RTC_PM == ampm)
 280:main.c        ****         {
 281:main.c        ****             UART_UartPutString(" "STRING_PM);
 182              		.loc 1 281 0
 183 006a 0748     		ldr	r0, .L11+16
 184              	.L9:
 185 006c FFF7FEFF 		bl	UART_UartPutString
 186              	.LVL8:
 187              	.L4:
 282:main.c        ****         }
 283:main.c        ****     }
 284:main.c        ****     
 285:main.c        ****     UART_UartPutString(STRING_CRLF);
 188              		.loc 1 285 0
 189 0070 0648     		ldr	r0, .L11+20
 190 0072 FFF7FEFF 		bl	UART_UartPutString
 191              	.LVL9:
 286:main.c        **** }
 192              		.loc 1 286 0
 193              		@ sp needed
 194              	.LVL10:
 195              	.LVL11:
 196              	.LVL12:
 197 0076 F8BD     		pop	{r3, r4, r5, r6, r7, pc}
 198              	.L12:
 199              		.align	2
 200              	.L11:
 201 0078 00000000 		.word	.LC0
 202 007c 14000000 		.word	.LC2
 203 0080 18000000 		.word	.LC4
 204 0084 1B000000 		.word	.LC6
 205 0088 1F000000 		.word	.LC8
 206 008c 23000000 		.word	.LC10
 207              		.cfi_endproc
 208              	.LFE99:
 209              		.size	uart_output_time.isra.0, .-uart_output_time.isra.0
 210              		.global	__aeabi_idiv
 211              		.global	__aeabi_uidiv
 212              		.global	__aeabi_uidivmod
 213              		.section	.text.startup.main,"ax",%progbits
ARM GAS  C:\Users\Jerry\AppData\Local\Temp\ccngDFcI.s 			page 28


 214              		.align	1
 215              		.global	main
 216              		.code	16
 217              		.thumb_func
 218              		.type	main, %function
 219              	main:
 220              	.LFB95:
  73:main.c        ****     // CapSense variables
 221              		.loc 1 73 0
 222              		.cfi_startproc
 223              	.LVL13:
 224 0000 F0B5     		push	{r4, r5, r6, r7, lr}
 225              		.cfi_def_cfa_offset 20
 226              		.cfi_offset 4, -20
 227              		.cfi_offset 5, -16
 228              		.cfi_offset 6, -12
 229              		.cfi_offset 7, -8
 230              		.cfi_offset 14, -4
  88:main.c        ****     CyGlobalIntEnable;
 231              		.loc 1 88 0
 232 0002 0C20     		mov	r0, #12
  73:main.c        ****     // CapSense variables
 233              		.loc 1 73 0
 234 0004 8FB0     		sub	sp, sp, #60
 235              		.cfi_def_cfa_offset 80
  88:main.c        ****     CyGlobalIntEnable;
 236              		.loc 1 88 0
 237 0006 FFF7FEFF 		bl	CyIntEnable
 238              	.LVL14:
  89:main.c        **** 
 239              		.loc 1 89 0
 240              	@ 89 "main.c" 1
 241 000a 62B6     		CPSIE   i
 242              	@ 0 "" 2
  77:main.c        **** 
 243              		.loc 1 77 0
 244              		.code	16
 245 000c 0027     		mov	r7, #0
  92:main.c        **** 
 246              		.loc 1 92 0
 247 000e FFF7FEFF 		bl	UART_Start
 248              	.LVL15:
  95:main.c        ****     
 249              		.loc 1 95 0
 250 0012 C948     		ldr	r0, .L130
 251 0014 FFF7FEFF 		bl	UART_UartPutString
 252              	.LVL16:
  98:main.c        ****         
 253              		.loc 1 98 0
 254 0018 FFF7FEFF 		bl	synth_hw_init
 255              	.LVL17:
 101:main.c        ****     
 256              		.loc 1 101 0
 257 001c FFF7FEFF 		bl	temperature_hw_init
 258              	.LVL18:
 104:main.c        ****     CapSense_ScanAllWidgets();
 259              		.loc 1 104 0
ARM GAS  C:\Users\Jerry\AppData\Local\Temp\ccngDFcI.s 			page 29


 260 0020 FFF7FEFF 		bl	CapSense_Start
 261              	.LVL19:
 105:main.c        **** 
 262              		.loc 1 105 0
 263 0024 FFF7FEFF 		bl	CapSense_ScanAllWidgets
 264              	.LVL20:
 108:main.c        ****     
 265              		.loc 1 108 0
 266 0028 FFF7FEFF 		bl	RTC_Start
 267              	.LVL21:
 111:main.c        **** 
 268              		.loc 1 111 0
 269 002c C348     		ldr	r0, .L130+4
 270 002e FFF7FEFF 		bl	UART_UartPutString
 271              	.LVL22:
  76:main.c        ****     uint32_t touch_active_counter = 0;
 272              		.loc 1 76 0
 273 0032 0497     		str	r7, [sp, #16]
  75:main.c        ****     uint8_t b_is_short_touch_done = 0;
 274              		.loc 1 75 0
 275 0034 0397     		str	r7, [sp, #12]
 276              	.LVL23:
 277              	.L14:
 118:main.c        ****         {
 278              		.loc 1 118 0
 279 0036 FFF7FEFF 		bl	CapSense_IsBusy
 280              	.LVL24:
 281 003a 0028     		cmp	r0, #0
 282 003c 2ED1     		bne	.L16
 120:main.c        **** 
 283              		.loc 1 120 0
 284 003e FFF7FEFF 		bl	CapSense_ProcessAllWidgets
 285              	.LVL25:
 123:main.c        ****             {
 286              		.loc 1 123 0
 287 0042 FFF7FEFF 		bl	CapSense_IsAnyWidgetActive
 288              	.LVL26:
 289 0046 0028     		cmp	r0, #0
 290 0048 21D0     		beq	.L17
 125:main.c        ****                 {
 291              		.loc 1 125 0
 292 004a 039B     		ldr	r3, [sp, #12]
 293 004c 002B     		cmp	r3, #0
 294 004e 23D1     		bne	.L18
 129:main.c        ****                     {
 295              		.loc 1 129 0
 296 0050 AF23     		mov	r3, #175
 127:main.c        **** 
 297              		.loc 1 127 0
 298 0052 0137     		add	r7, r7, #1
 299              	.LVL27:
 129:main.c        ****                     {
 300              		.loc 1 129 0
 301 0054 1B01     		lsl	r3, r3, #4
 302 0056 9F42     		cmp	r7, r3
 303 0058 06D9     		bls	.L19
 133:main.c        ****                         say_temperature(temperature);
ARM GAS  C:\Users\Jerry\AppData\Local\Temp\ccngDFcI.s 			page 30


 304              		.loc 1 133 0
 305 005a FFF7FEFF 		bl	get_temperature
 306              	.LVL28:
 134:main.c        ****                         
 307              		.loc 1 134 0
 308 005e FFF7FEFF 		bl	say_temperature
 309              	.LVL29:
 137:main.c        ****                     }
 310              		.loc 1 137 0
 311 0062 0123     		mov	r3, #1
 312 0064 0393     		str	r3, [sp, #12]
 313 0066 17E0     		b	.L18
 314              	.LVL30:
 315              	.L19:
 139:main.c        ****                                 (!b_is_short_touch_done))
 316              		.loc 1 139 0
 317 0068 FA23     		mov	r3, #250
 318 006a 9B00     		lsl	r3, r3, #2
 319 006c 9F42     		cmp	r7, r3
 320 006e 13D9     		bls	.L18
 139:main.c        ****                                 (!b_is_short_touch_done))
 321              		.loc 1 139 0 is_stmt 0 discriminator 1
 322 0070 049B     		ldr	r3, [sp, #16]
 323 0072 002B     		cmp	r3, #0
 324 0074 10D1     		bne	.L18
 144:main.c        ****                         say_time(dateTime);
 325              		.loc 1 144 0 is_stmt 1
 326 0076 0AA8     		add	r0, sp, #40
 327 0078 FFF7FEFF 		bl	RTC_GetDateAndTime
 328              	.LVL31:
 145:main.c        ****                         
 329              		.loc 1 145 0
 330 007c 0D9B     		ldr	r3, [sp, #52]
 331 007e 0A98     		ldr	r0, [sp, #40]
 332 0080 0B99     		ldr	r1, [sp, #44]
 333 0082 0C9A     		ldr	r2, [sp, #48]
 334 0084 FFF7FEFF 		bl	say_time
 335              	.LVL32:
 148:main.c        ****                     }
 336              		.loc 1 148 0
 337 0088 0123     		mov	r3, #1
 338 008a 0493     		str	r3, [sp, #16]
 339 008c 04E0     		b	.L18
 340              	.LVL33:
 341              	.L17:
 154:main.c        ****                 {
 342              		.loc 1 154 0
 343 008e 002F     		cmp	r7, #0
 344 0090 02D0     		beq	.L18
 160:main.c        ****                 }
 345              		.loc 1 160 0
 346 0092 071C     		mov	r7, r0
 347              	.LVL34:
 159:main.c        ****                     touch_active_counter = 0;
 348              		.loc 1 159 0
 349 0094 0490     		str	r0, [sp, #16]
 350              	.LVL35:
ARM GAS  C:\Users\Jerry\AppData\Local\Temp\ccngDFcI.s 			page 31


 158:main.c        ****                     b_is_short_touch_done = 0;
 351              		.loc 1 158 0
 352 0096 0390     		str	r0, [sp, #12]
 353              	.LVL36:
 354              	.L18:
 165:main.c        ****         }
 355              		.loc 1 165 0
 356 0098 FFF7FEFF 		bl	CapSense_ScanAllWidgets
 357              	.LVL37:
 358              	.L16:
 171:main.c        **** 
 359              		.loc 1 171 0
 360 009c FFF7FEFF 		bl	UART_UartGetChar
 361              	.LVL38:
 362 00a0 A74B     		ldr	r3, .L130+8
 363 00a2 C0B2     		uxtb	r0, r0
 364 00a4 1870     		strb	r0, [r3]
 173:main.c        ****         {
 365              		.loc 1 173 0
 366 00a6 5428     		cmp	r0, #84
 367 00a8 34D0     		beq	.L20
 368 00aa 0DD8     		bhi	.L21
 369 00ac 4528     		cmp	r0, #69
 370 00ae 3ED0     		beq	.L22
 371 00b0 05D8     		bhi	.L23
 372 00b2 0D28     		cmp	r0, #13
 373 00b4 00D1     		bne	.LCB349
 374 00b6 1CE1     		b	.L24	@long jump
 375              	.LCB349:
 376 00b8 4428     		cmp	r0, #68
 377 00ba 16D0     		beq	.L25
 378 00bc BBE7     		b	.L14
 379              	.L23:
 380 00be 4828     		cmp	r0, #72
 381 00c0 0FD0     		beq	.L26
 382 00c2 4D28     		cmp	r0, #77
 383 00c4 5BD0     		beq	.L27
 384 00c6 B6E7     		b	.L14
 385              	.L21:
 386 00c8 6828     		cmp	r0, #104
 387 00ca 0AD0     		beq	.L26
 388 00cc 04D8     		bhi	.L28
 389 00ce 6428     		cmp	r0, #100
 390 00d0 0BD0     		beq	.L25
 391 00d2 6528     		cmp	r0, #101
 392 00d4 2BD0     		beq	.L22
 393 00d6 AEE7     		b	.L14
 394              	.L28:
 395 00d8 6D28     		cmp	r0, #109
 396 00da 50D0     		beq	.L27
 397 00dc 7428     		cmp	r0, #116
 398 00de 19D0     		beq	.L20
 399 00e0 A9E7     		b	.L14
 400              	.L26:
 187:main.c        ****                 b_is_prompt_skipped = 0;
 401              		.loc 1 187 0
 402 00e2 9848     		ldr	r0, .L130+12
ARM GAS  C:\Users\Jerry\AppData\Local\Temp\ccngDFcI.s 			page 32


 403 00e4 FFF7FEFF 		bl	UART_UartPutString
 404              	.LVL39:
 189:main.c        **** 
 405              		.loc 1 189 0
 406 00e8 03E1     		b	.L24
 407              	.LVL40:
 408              	.L25:
 195:main.c        ****                 uart_output_time(dateTime);
 409              		.loc 1 195 0
 410 00ea 0AA8     		add	r0, sp, #40
 411 00ec FFF7FEFF 		bl	RTC_GetDateAndTime
 412              	.LVL41:
 196:main.c        **** 
 413              		.loc 1 196 0
 414 00f0 0A98     		ldr	r0, [sp, #40]
 415 00f2 FFF7FEFF 		bl	uart_output_time.isra.0
 416              	.LVL42:
 199:main.c        ****                 uart_output_temperature(temperature);
 417              		.loc 1 199 0
 418 00f6 FFF7FEFF 		bl	get_temperature
 419              	.LVL43:
 420              	.LBB84:
 421              	.LBB85:
 287:main.c        **** 
 288:main.c        **** /*******************************************************************************
 289:main.c        **** * Function Name: uart_output_temperature
 290:main.c        **** ****************************************************************************//**
 291:main.c        **** * @par Summary
 292:main.c        **** *    Outputs current temperature to UART.
 293:main.c        **** *******************************************************************************/
 294:main.c        **** static void
 295:main.c        **** uart_output_temperature(int16_t temperature)
 296:main.c        **** {
 297:main.c        ****     int16_t temperature100 = temperature / 100;
 422              		.loc 1 297 0
 423 00fa 6421     		mov	r1, #100
 424              	.LBE85:
 425              	.LBE84:
 199:main.c        ****                 uart_output_temperature(temperature);
 426              		.loc 1 199 0
 427 00fc 041C     		mov	r4, r0
 428              	.LVL44:
 429              	.LBB87:
 430              	.LBB86:
 431              		.loc 1 297 0
 432 00fe FFF7FEFF 		bl	__aeabi_idiv
 433              	.LVL45:
 298:main.c        ****     iprintf(STRING_CURR_TEMP"%d.%d "STRING_DEG_CELSIUS STRING_CRLF, 
 299:main.c        ****                 temperature100, 
 300:main.c        ****                 temperature - (temperature100 * 100));
 434              		.loc 1 300 0
 435 0102 6422     		mov	r2, #100
 436 0104 01B2     		sxth	r1, r0
 437 0106 5242     		neg	r2, r2
 438 0108 4A43     		mul	r2, r1
 298:main.c        ****     iprintf(STRING_CURR_TEMP"%d.%d "STRING_DEG_CELSIUS STRING_CRLF, 
 439              		.loc 1 298 0
ARM GAS  C:\Users\Jerry\AppData\Local\Temp\ccngDFcI.s 			page 33


 440 010a 8F48     		ldr	r0, .L130+16
 441 010c A218     		add	r2, r4, r2
 442 010e FFF7FEFF 		bl	iprintf
 443              	.LVL46:
 444 0112 EEE0     		b	.L24
 445              	.L20:
 446              	.LBE86:
 447              	.LBE87:
 208:main.c        ****                 uart_output_time(dateTime);
 448              		.loc 1 208 0
 449 0114 0AA8     		add	r0, sp, #40
 450 0116 FFF7FEFF 		bl	RTC_GetDateAndTime
 451              	.LVL47:
 209:main.c        ****                 say_time(dateTime);
 452              		.loc 1 209 0
 453 011a 0A98     		ldr	r0, [sp, #40]
 454 011c FFF7FEFF 		bl	uart_output_time.isra.0
 455              	.LVL48:
 210:main.c        ****                 b_is_prompt_skipped = 0;
 456              		.loc 1 210 0
 457 0120 0A98     		ldr	r0, [sp, #40]
 458 0122 0B99     		ldr	r1, [sp, #44]
 459 0124 0C9A     		ldr	r2, [sp, #48]
 460 0126 0D9B     		ldr	r3, [sp, #52]
 461 0128 FFF7FEFF 		bl	say_time
 462              	.LVL49:
 212:main.c        **** 
 463              		.loc 1 212 0
 464 012c E1E0     		b	.L24
 465              	.LVL50:
 466              	.L22:
 217:main.c        ****                 uart_edit_time(dateTime);
 467              		.loc 1 217 0
 468 012e 0AA8     		add	r0, sp, #40
 469 0130 FFF7FEFF 		bl	RTC_GetDateAndTime
 470              	.LVL51:
 471 0134 0A9C     		ldr	r4, [sp, #40]
 472 0136 0B9B     		ldr	r3, [sp, #44]
 473              	.LBB88:
 474              	.LBB89:
 475              	.LBB90:
 476              	.LBB91:
 477              		.loc 2 1029 0
 478 0138 2002     		lsl	r0, r4, #8
 479              	.LBE91:
 480              	.LBE90:
 481              	.LBB93:
 482              	.LBB94:
 552:Generated_Source\PSoC4/RTC.h ****     retVal += (inputTime & RTC_HOURS_MASK) >> RTC_HOURS_OFFSET;
 483              		.loc 2 552 0
 484 013a A502     		lsl	r5, r4, #10
 485 013c 0793     		str	r3, [sp, #28]
 486              	.LVL52:
 487 013e AD0F     		lsr	r5, r5, #30
 488              	.LBE94:
 489              	.LBE93:
 490              	.LBB96:
ARM GAS  C:\Users\Jerry\AppData\Local\Temp\ccngDFcI.s 			page 34


 491              	.LBB92:
 492              		.loc 2 1029 0
 493 0140 C30F     		lsr	r3, r0, #31
 494 0142 0593     		str	r3, [sp, #20]
 495              	.LVL53:
 496              	.LBE92:
 497              	.LBE96:
 498              	.LBB97:
 499              	.LBB95:
 552:Generated_Source\PSoC4/RTC.h ****     retVal += (inputTime & RTC_HOURS_MASK) >> RTC_HOURS_OFFSET;
 500              		.loc 2 552 0
 501 0144 0A22     		mov	r2, #10
 502 0146 2B1C     		mov	r3, r5
 503 0148 5343     		mul	r3, r2
 553:Generated_Source\PSoC4/RTC.h **** 
 504              		.loc 2 553 0
 505 014a 2503     		lsl	r5, r4, #12
 506 014c 2D0F     		lsr	r5, r5, #28
 507 014e 5D19     		add	r5, r3, r5
 508              	.LVL54:
 509              	.LBE95:
 510              	.LBE97:
 511              	.LBB98:
 512              	.LBB99:
 527:Generated_Source\PSoC4/RTC.h ****     retVal += (inputTime & RTC_MINUTES_MASK) >> RTC_MINUTES_OFFSET;
 513              		.loc 2 527 0
 514 0150 6304     		lsl	r3, r4, #17
 515 0152 5B0F     		lsr	r3, r3, #29
 516 0154 5A43     		mul	r2, r3
 528:Generated_Source\PSoC4/RTC.h **** 
 517              		.loc 2 528 0
 518 0156 2305     		lsl	r3, r4, #20
 519 0158 1B0F     		lsr	r3, r3, #28
 520              	.LBE99:
 521              	.LBE98:
 522              	.LBB102:
 523              	.LBB103:
 524              	.LBB104:
 444:Generated_Source\PSoC4/RTC.h **** }
 525              		.loc 2 444 0
 526 015a 6402     		lsl	r4, r4, #9
 527              	.LVL55:
 528              	.LBE104:
 529              	.LBE103:
 530              	.LBE102:
 531              	.LBB109:
 532              	.LBB100:
 528:Generated_Source\PSoC4/RTC.h **** 
 533              		.loc 2 528 0
 534 015c D318     		add	r3, r2, r3
 535              	.LBE100:
 536              	.LBE109:
 537              	.LBB110:
 538              	.LBB107:
 539              	.LBB105:
 444:Generated_Source\PSoC4/RTC.h **** }
 540              		.loc 2 444 0
ARM GAS  C:\Users\Jerry\AppData\Local\Temp\ccngDFcI.s 			page 35


 541 015e E40F     		lsr	r4, r4, #31
 542              	.LBE105:
 543              	.LBE107:
 544              	.LBE110:
 301:main.c        **** }
 302:main.c        **** 
 303:main.c        **** /*******************************************************************************
 304:main.c        **** * Function Name: uart_edit_time
 305:main.c        **** ****************************************************************************//**
 306:main.c        **** * @par Summary
 307:main.c        **** *    Interactive editor for configuring current RTC time setting via UART.
 308:main.c        **** *******************************************************************************/
 309:main.c        **** static void
 310:main.c        **** uart_edit_time(RTC_DATE_TIME dateTime)
 311:main.c        **** {
 312:main.c        ****     uint32 time_format = RTC_GetTimeFormat(dateTime.time);
 313:main.c        ****     uint32 hours = RTC_GetHours(dateTime.time);
 314:main.c        ****     uint32 minutes = RTC_GetMinutes(dateTime.time);
 315:main.c        ****     uint32 ampm = RTC_GetAmPm(dateTime.time);
 316:main.c        ****     
 317:main.c        ****     uint8_t input_char_count = 0u;
 318:main.c        ****     uint8_t input_seq[3] = "\0\0";
 545              		.loc 1 318 0
 546 0160 09A8     		add	r0, sp, #36
 547 0162 7A49     		ldr	r1, .L130+20
 548 0164 0322     		mov	r2, #3
 549              	.LBB111:
 550              	.LBB101:
 528:Generated_Source\PSoC4/RTC.h **** 
 551              		.loc 2 528 0
 552 0166 0093     		str	r3, [sp]
 553              	.LVL56:
 554              	.LBE101:
 555              	.LBE111:
 556              	.LBB112:
 557              	.LBB108:
 558              	.LBB106:
 444:Generated_Source\PSoC4/RTC.h **** }
 559              		.loc 2 444 0
 560 0168 0294     		str	r4, [sp, #8]
 561              	.LVL57:
 562              	.LBE106:
 563              	.LBE108:
 564              	.LBE112:
 565              		.loc 1 318 0
 566 016a FFF7FEFF 		bl	memcpy
 567              	.LVL58:
 319:main.c        **** 
 320:main.c        ****     uint8_t hours_new = 0;
 321:main.c        ****     uint8_t minutes_new = 0;
 322:main.c        ****     uint8_t ampm_char;
 323:main.c        ****     
 324:main.c        ****     uint8_t max_hours = 12u;
 568              		.loc 1 324 0
 569 016e 0C23     		mov	r3, #12
 570 0170 0693     		str	r3, [sp, #24]
 325:main.c        ****     
ARM GAS  C:\Users\Jerry\AppData\Local\Temp\ccngDFcI.s 			page 36


 326:main.c        ****     if (RTC_24_HOURS_FORMAT == time_format)
 571              		.loc 1 326 0
 572 0172 059B     		ldr	r3, [sp, #20]
 573 0174 002B     		cmp	r3, #0
 574 0176 14D1     		bne	.L29
 327:main.c        ****     {
 328:main.c        ****         max_hours = 23u;
 575              		.loc 1 328 0
 576 0178 1723     		mov	r3, #23
 577 017a 0693     		str	r3, [sp, #24]
 578 017c 11E0     		b	.L29
 579              	.LVL59:
 580              	.L27:
 581              	.LBE89:
 582              	.LBE88:
 225:main.c        ****                 uart_output_temperature(temperature);
 583              		.loc 1 225 0
 584 017e FFF7FEFF 		bl	get_temperature
 585              	.LVL60:
 586              	.LBB117:
 587              	.LBB118:
 297:main.c        ****     iprintf(STRING_CURR_TEMP"%d.%d "STRING_DEG_CELSIUS STRING_CRLF, 
 588              		.loc 1 297 0
 589 0182 6421     		mov	r1, #100
 590              	.LBE118:
 591              	.LBE117:
 225:main.c        ****                 uart_output_temperature(temperature);
 592              		.loc 1 225 0
 593 0184 041C     		mov	r4, r0
 594              	.LVL61:
 595              	.LBB120:
 596              	.LBB119:
 297:main.c        ****     iprintf(STRING_CURR_TEMP"%d.%d "STRING_DEG_CELSIUS STRING_CRLF, 
 597              		.loc 1 297 0
 598 0186 FFF7FEFF 		bl	__aeabi_idiv
 599              	.LVL62:
 300:main.c        **** }
 600              		.loc 1 300 0
 601 018a 6422     		mov	r2, #100
 602 018c 01B2     		sxth	r1, r0
 603 018e 5242     		neg	r2, r2
 604 0190 4A43     		mul	r2, r1
 298:main.c        ****                 temperature100, 
 605              		.loc 1 298 0
 606 0192 6D48     		ldr	r0, .L130+16
 607 0194 A218     		add	r2, r4, r2
 608 0196 FFF7FEFF 		bl	iprintf
 609              	.LVL63:
 610              	.LBE119:
 611              	.LBE120:
 227:main.c        ****                 b_is_prompt_skipped = 0;
 612              		.loc 1 227 0
 613 019a 201C     		mov	r0, r4
 614 019c FFF7FEFF 		bl	say_temperature
 615              	.LVL64:
 229:main.c        **** 
 616              		.loc 1 229 0
ARM GAS  C:\Users\Jerry\AppData\Local\Temp\ccngDFcI.s 			page 37


 617 01a0 A7E0     		b	.L24
 618              	.LVL65:
 619              	.L29:
 620              	.LBB121:
 621              	.LBB115:
 329:main.c        ****     }
 330:main.c        **** 
 331:main.c        ****     if (RTC_AM == ampm)
 332:main.c        ****     {
 333:main.c        ****         ampm_char = 'A';
 334:main.c        ****     }
 335:main.c        ****     else if (RTC_PM == ampm)
 336:main.c        ****     {
 337:main.c        ****         ampm_char = 'P';
 622              		.loc 1 337 0
 623 01a2 5023     		mov	r3, #80
 624 01a4 0193     		str	r3, [sp, #4]
 331:main.c        ****     {
 625              		.loc 1 331 0
 626 01a6 002C     		cmp	r4, #0
 627 01a8 01D1     		bne	.L52
 333:main.c        ****     }
 628              		.loc 1 333 0
 629 01aa 4123     		mov	r3, #65
 630 01ac 0193     		str	r3, [sp, #4]
 631              	.L52:
 632              	.LVL66:
 338:main.c        ****     }
 339:main.c        ****     else
 340:main.c        ****     {
 341:main.c        ****         ampm_char = ' ';
 342:main.c        ****     }
 343:main.c        ****     
 344:main.c        ****     // Edit hours value
 345:main.c        ****     iprintf(STRING_HOURS" [%d]:", hours);
 633              		.loc 1 345 0
 634 01ae 6848     		ldr	r0, .L130+24
 635 01b0 291C     		mov	r1, r5
 636 01b2 FFF7FEFF 		bl	iprintf
 637              	.LVL67:
 317:main.c        ****     uint8_t input_seq[3] = "\0\0";
 638              		.loc 1 317 0
 639 01b6 0024     		mov	r4, #0
 640              	.LVL68:
 641              	.L54:
 346:main.c        **** 
 347:main.c        ****     uint8_t b_exit_editing = 0;
 348:main.c        ****     while (!b_exit_editing) 
 349:main.c        ****     {
 350:main.c        ****         // Read next char from input
 351:main.c        ****         g_rx_char = UART_UartGetChar();        
 642              		.loc 1 351 0
 643 01b8 FFF7FEFF 		bl	UART_UartGetChar
 644              	.LVL69:
 645 01bc 604B     		ldr	r3, .L130+8
 646 01be C0B2     		uxtb	r0, r0
 647 01c0 1870     		strb	r0, [r3]
ARM GAS  C:\Users\Jerry\AppData\Local\Temp\ccngDFcI.s 			page 38


 352:main.c        **** 
 353:main.c        ****         // Enter keypress handling
 354:main.c        ****         if (UART_KEYCODE_ENTER == g_rx_char)
 648              		.loc 1 354 0
 649 01c2 0D28     		cmp	r0, #13
 650 01c4 20D1     		bne	.L31
 355:main.c        ****         {
 356:main.c        ****             UART_UartPutString(STRING_CRLF);
 651              		.loc 1 356 0
 652 01c6 6348     		ldr	r0, .L130+28
 653 01c8 FFF7FEFF 		bl	UART_UartPutString
 654              	.LVL70:
 357:main.c        **** 
 358:main.c        ****             // Validate entered hours value
 359:main.c        ****             if (0 < input_char_count)
 655              		.loc 1 359 0
 656 01cc 002C     		cmp	r4, #0
 657 01ce 00D1     		bne	.LCB679
 658 01d0 96E0     		b	.L32	@long jump
 659              	.LCB679:
 660 01d2 09AA     		add	r2, sp, #36
 360:main.c        ****             {
 361:main.c        ****                 // Calculate hours value
 362:main.c        ****                 if (1 == input_char_count)
 661              		.loc 1 362 0
 662 01d4 012C     		cmp	r4, #1
 663 01d6 02D1     		bne	.L33
 363:main.c        ****                 {
 364:main.c        ****                     // Converting ASCII '0' - '9' to decimal value
 365:main.c        ****                     hours_new = input_seq[0] - '0';
 664              		.loc 1 365 0
 665 01d8 1378     		ldrb	r3, [r2]
 666 01da 303B     		sub	r3, r3, #48
 667 01dc 07E0     		b	.L124
 668              	.L33:
 669 01de 5378     		ldrb	r3, [r2, #1]
 670 01e0 303B     		sub	r3, r3, #48
 671 01e2 191C     		mov	r1, r3
 366:main.c        ****                 }
 367:main.c        ****                 else
 368:main.c        ****                 {
 369:main.c        ****                     hours_new = 10 * (input_seq[0] - '0') + input_seq[1] - '0';
 672              		.loc 1 369 0
 673 01e4 1378     		ldrb	r3, [r2]
 674 01e6 0A22     		mov	r2, #10
 675 01e8 303B     		sub	r3, r3, #48
 676 01ea 5343     		mul	r3, r2
 677 01ec CB18     		add	r3, r1, r3
 678              	.L124:
 370:main.c        ****                 }
 371:main.c        **** 
 372:main.c        ****                 // Validate hours value
 373:main.c        ****                 if ((0 <= hours_new) && (max_hours >= hours_new))
 679              		.loc 1 373 0
 680 01ee 069A     		ldr	r2, [sp, #24]
 369:main.c        ****                 }
 681              		.loc 1 369 0
ARM GAS  C:\Users\Jerry\AppData\Local\Temp\ccngDFcI.s 			page 39


 682 01f0 DBB2     		uxtb	r3, r3
 683              	.LVL71:
 684              		.loc 1 373 0
 685 01f2 9A42     		cmp	r2, r3
 686 01f4 01D3     		bcc	.L35
 374:main.c        ****                 {
 375:main.c        ****                     hours = hours_new;
 687              		.loc 1 375 0
 688 01f6 1D1C     		mov	r5, r3
 689              	.LVL72:
 690 01f8 82E0     		b	.L32
 691              	.LVL73:
 692              	.L35:
 376:main.c        ****                     b_exit_editing = 1;
 377:main.c        ****                 }
 378:main.c        ****                 else
 379:main.c        ****                 {
 380:main.c        ****                     UART_UartPutString(STRING_INVALID_VALUE STRING_CRLF);
 693              		.loc 1 380 0
 694 01fa 5748     		ldr	r0, .L130+32
 695 01fc FFF7FEFF 		bl	UART_UartPutString
 696              	.LVL74:
 381:main.c        ****                     iprintf(STRING_HOURS" [%d]:%s", hours, input_seq);
 697              		.loc 1 381 0
 698 0200 5648     		ldr	r0, .L130+36
 699 0202 291C     		mov	r1, r5
 700 0204 09AA     		add	r2, sp, #36
 701 0206 12E0     		b	.L123
 702              	.L31:
 382:main.c        ****                 }
 383:main.c        ****             }
 384:main.c        ****             else
 385:main.c        ****             // No numbers entered
 386:main.c        ****             {
 387:main.c        ****                 b_exit_editing = 1;
 388:main.c        ****             }
 389:main.c        ****         }
 390:main.c        **** 
 391:main.c        ****         // Backspace keypress handling
 392:main.c        ****         else if ((UART_KEYCODE_BKSPC == g_rx_char) && (0 < input_char_count))
 703              		.loc 1 392 0
 704 0208 7F28     		cmp	r0, #127
 705 020a 13D1     		bne	.L37
 706 020c 002C     		cmp	r4, #0
 707 020e 11D0     		beq	.L37
 393:main.c        ****         {
 394:main.c        ****             // In result string replace deleted character with space, output
 395:main.c        ****             // result string over previous string using CR without LF. Then trim
 396:main.c        ****             // trailing space and output string again to position cursor
 397:main.c        ****             // correctly
 398:main.c        ****             input_seq[--input_char_count] = ' ';
 708              		.loc 1 398 0
 709 0210 2023     		mov	r3, #32
 710 0212 09AE     		add	r6, sp, #36
 711 0214 013C     		sub	r4, r4, #1
 712              	.LVL75:
 713 0216 E4B2     		uxtb	r4, r4
ARM GAS  C:\Users\Jerry\AppData\Local\Temp\ccngDFcI.s 			page 40


 714              	.LVL76:
 399:main.c        ****             iprintf("\r"STRING_HOURS" [%d]:%s", hours, input_seq);
 715              		.loc 1 399 0
 716 0218 5148     		ldr	r0, .L130+40
 717 021a 291C     		mov	r1, r5
 718 021c 321C     		mov	r2, r6
 398:main.c        ****             iprintf("\r"STRING_HOURS" [%d]:%s", hours, input_seq);
 719              		.loc 1 398 0
 720 021e 3355     		strb	r3, [r6, r4]
 721              		.loc 1 399 0
 722 0220 FFF7FEFF 		bl	iprintf
 723              	.LVL77:
 400:main.c        ****             input_seq[input_char_count] = '\0';
 724              		.loc 1 400 0
 725 0224 0023     		mov	r3, #0
 401:main.c        ****             iprintf("\r"STRING_HOURS" [%d]:%s", hours, input_seq);
 726              		.loc 1 401 0
 727 0226 291C     		mov	r1, r5
 728 0228 321C     		mov	r2, r6
 729 022a 4D48     		ldr	r0, .L130+40
 400:main.c        ****             input_seq[input_char_count] = '\0';
 730              		.loc 1 400 0
 731 022c 3355     		strb	r3, [r6, r4]
 732              	.LVL78:
 733              	.L123:
 734              		.loc 1 401 0
 735 022e FFF7FEFF 		bl	iprintf
 736              	.LVL79:
 737 0232 C1E7     		b	.L54
 738              	.L37:
 402:main.c        ****         }
 403:main.c        **** 
 404:main.c        ****         // Numeric keys handling
 405:main.c        ****         else if (('0' <= g_rx_char) && 
 739              		.loc 1 405 0
 740 0234 031C     		mov	r3, r0
 741 0236 303B     		sub	r3, r3, #48
 742 0238 092B     		cmp	r3, #9
 743 023a BDD8     		bhi	.L54
 406:main.c        ****                  ('9' >= g_rx_char) && 
 744              		.loc 1 406 0
 745 023c 012C     		cmp	r4, #1
 746 023e BBD8     		bhi	.L54
 407:main.c        ****                  (2 > input_char_count))
 408:main.c        ****         {
 409:main.c        ****             input_seq[input_char_count++] = g_rx_char;
 747              		.loc 1 409 0
 748 0240 661C     		add	r6, r4, #1
 749 0242 09AA     		add	r2, sp, #36
 750 0244 1055     		strb	r0, [r2, r4]
 751 0246 F6B2     		uxtb	r6, r6
 752              	.LVL80:
 410:main.c        ****             iprintf("\r"STRING_HOURS" [%d]:%s", hours, input_seq);
 753              		.loc 1 410 0
 754 0248 4548     		ldr	r0, .L130+40
 755 024a 291C     		mov	r1, r5
 756 024c FFF7FEFF 		bl	iprintf
ARM GAS  C:\Users\Jerry\AppData\Local\Temp\ccngDFcI.s 			page 41


 757              	.LVL81:
 409:main.c        ****             iprintf("\r"STRING_HOURS" [%d]:%s", hours, input_seq);
 758              		.loc 1 409 0
 759 0250 341C     		mov	r4, r6
 760              	.LVL82:
 761 0252 B1E7     		b	.L54
 762              	.LVL83:
 763              	.L42:
 411:main.c        ****         }
 412:main.c        ****     }
 413:main.c        **** 
 414:main.c        ****     // Reset input character buffer
 415:main.c        ****     input_char_count = 0u;
 416:main.c        ****     input_seq[0] = '\0';
 417:main.c        ****     input_seq[1] = '\0';
 418:main.c        ****     
 419:main.c        ****     // Edit minutes value
 420:main.c        ****     iprintf(STRING_MINUTES" [%d]:", minutes);
 421:main.c        **** 
 422:main.c        ****     b_exit_editing = 0;
 423:main.c        ****     while (!b_exit_editing) 
 424:main.c        ****     {
 425:main.c        ****         // Read next char from input
 426:main.c        ****         g_rx_char = UART_UartGetChar();
 427:main.c        **** 
 428:main.c        ****         // Enter keypress handling
 429:main.c        ****         if (UART_KEYCODE_ENTER == g_rx_char)
 430:main.c        ****         {
 431:main.c        ****             UART_UartPutString(STRING_CRLF);
 432:main.c        **** 
 433:main.c        ****             // Validate entered minutes value
 434:main.c        ****             if (0 < input_char_count)
 435:main.c        ****             {
 436:main.c        ****                 // Calculate minutes value
 437:main.c        ****                 if (1 == input_char_count)
 438:main.c        ****                 {
 439:main.c        ****                     // Converting ASCII '0' - '9' to decimal value
 440:main.c        ****                     minutes_new = input_seq[0] - '0';
 441:main.c        ****                 }
 442:main.c        ****                 else
 443:main.c        ****                 {
 444:main.c        ****                     // Converting double digits
 445:main.c        ****                     minutes_new = 10 * (input_seq[0] - '0') + 
 446:main.c        ****                                         input_seq[1] - '0';
 447:main.c        ****                 }
 448:main.c        **** 
 449:main.c        ****                 // Validate minutes value
 450:main.c        ****                 if ((0 <= minutes_new) && (59 >= minutes_new))
 451:main.c        ****                 {
 452:main.c        ****                     minutes = minutes_new;
 453:main.c        ****                     b_exit_editing = 1;
 454:main.c        ****                 }
 455:main.c        ****                 else
 456:main.c        ****                 {
 457:main.c        ****                     UART_UartPutString(STRING_INVALID_VALUE STRING_CRLF);
 764              		.loc 1 457 0
 765 0254 4048     		ldr	r0, .L130+32
ARM GAS  C:\Users\Jerry\AppData\Local\Temp\ccngDFcI.s 			page 42


 766 0256 FFF7FEFF 		bl	UART_UartPutString
 767              	.LVL84:
 458:main.c        ****                     iprintf(STRING_MINUTES" [%d]:%s", minutes, input_seq);
 768              		.loc 1 458 0
 769 025a 4248     		ldr	r0, .L130+44
 770 025c 0099     		ldr	r1, [sp]
 771 025e 09AA     		add	r2, sp, #36
 772              	.L125:
 459:main.c        ****                 }
 460:main.c        ****             }
 461:main.c        ****             else
 462:main.c        ****             // No numbers entered
 463:main.c        ****             {
 464:main.c        ****                 b_exit_editing = 1;
 465:main.c        ****             }
 466:main.c        ****         }
 467:main.c        **** 
 468:main.c        ****         // Backspace keypress handling
 469:main.c        ****         else if ((UART_KEYCODE_BKSPC == g_rx_char) && (0 < input_char_count))
 470:main.c        ****         {
 471:main.c        ****             // In result string replace deleted character with space, output
 472:main.c        ****             // result string over previous string using CR without LF. Then trim
 473:main.c        ****             // trailing space and output string again to position cursor
 474:main.c        ****             // correctly
 475:main.c        ****             input_seq[--input_char_count] = ' ';
 476:main.c        ****             iprintf("\r"STRING_MINUTES" [%d]:%s", minutes, input_seq);
 477:main.c        ****             input_seq[input_char_count] = '\0';
 478:main.c        ****             iprintf("\r"STRING_MINUTES" [%d]:%s", minutes, input_seq);
 773              		.loc 1 478 0
 774 0260 FFF7FEFF 		bl	iprintf
 775              	.LVL85:
 776              	.L55:
 426:main.c        **** 
 777              		.loc 1 426 0
 778 0264 FFF7FEFF 		bl	UART_UartGetChar
 779              	.LVL86:
 780 0268 354B     		ldr	r3, .L130+8
 781 026a C0B2     		uxtb	r0, r0
 782 026c 1870     		strb	r0, [r3]
 429:main.c        ****         {
 783              		.loc 1 429 0
 784 026e 0D28     		cmp	r0, #13
 785 0270 00D0     		beq	.LCB824
 786 0272 81E0     		b	.L38	@long jump
 787              	.LCB824:
 431:main.c        **** 
 788              		.loc 1 431 0
 789 0274 3748     		ldr	r0, .L130+28
 790 0276 FFF7FEFF 		bl	UART_UartPutString
 791              	.LVL87:
 434:main.c        ****             {
 792              		.loc 1 434 0
 793 027a 002C     		cmp	r4, #0
 794 027c 49D1     		bne	.L128
 795              	.LVL88:
 796              	.L39:
 479:main.c        ****         }
ARM GAS  C:\Users\Jerry\AppData\Local\Temp\ccngDFcI.s 			page 43


 480:main.c        **** 
 481:main.c        ****         // Numeric keys handling
 482:main.c        ****         else if (('0' <= g_rx_char) && 
 483:main.c        ****                  ('9' >= g_rx_char) && 
 484:main.c        ****                  (2 > input_char_count))
 485:main.c        ****         {
 486:main.c        ****             input_seq[input_char_count++] = g_rx_char;
 487:main.c        ****             iprintf("\r"STRING_MINUTES" [%d]:%s", minutes, input_seq);
 488:main.c        ****         }
 489:main.c        ****     }
 490:main.c        **** 
 491:main.c        ****     if (RTC_12_HOURS_FORMAT == time_format)
 797              		.loc 1 491 0
 798 027e 059B     		ldr	r3, [sp, #20]
 799 0280 002B     		cmp	r3, #0
 800 0282 00D1     		bne	.LCB839
 801 0284 CFE0     		b	.L122	@long jump
 802              	.LCB839:
 803              	.LVL89:
 492:main.c        ****     {
 493:main.c        ****         // Reset input character buffer
 494:main.c        ****         input_char_count = 0u;
 495:main.c        ****         input_seq[0] = '\0';
 804              		.loc 1 495 0
 805 0286 0024     		mov	r4, #0
 806 0288 09AB     		add	r3, sp, #36
 496:main.c        ****         input_seq[1] = '\0';
 497:main.c        **** 
 498:main.c        ****         // Edit AM/PM
 499:main.c        ****         iprintf(STRING_AM"/"STRING_PM" [%c]:", ampm_char);
 807              		.loc 1 499 0
 808 028a 3748     		ldr	r0, .L130+48
 809 028c 0199     		ldr	r1, [sp, #4]
 495:main.c        ****         input_seq[1] = '\0';
 810              		.loc 1 495 0
 811 028e 1C70     		strb	r4, [r3]
 496:main.c        ****         input_seq[1] = '\0';
 812              		.loc 1 496 0
 813 0290 5C70     		strb	r4, [r3, #1]
 814              		.loc 1 499 0
 815 0292 FFF7FEFF 		bl	iprintf
 816              	.LVL90:
 817              	.L45:
 500:main.c        ****         
 501:main.c        ****         b_exit_editing = 0;
 502:main.c        ****         while (!b_exit_editing) 
 503:main.c        ****         {
 504:main.c        ****             // Read next char from input
 505:main.c        ****             g_rx_char = UART_UartGetChar();
 818              		.loc 1 505 0
 819 0296 FFF7FEFF 		bl	UART_UartGetChar
 820              	.LVL91:
 821 029a 294B     		ldr	r3, .L130+8
 822 029c C0B2     		uxtb	r0, r0
 823 029e 1870     		strb	r0, [r3]
 506:main.c        **** 
 507:main.c        ****             // Enter keypress handling
ARM GAS  C:\Users\Jerry\AppData\Local\Temp\ccngDFcI.s 			page 44


 508:main.c        ****             if (UART_KEYCODE_ENTER == g_rx_char)
 824              		.loc 1 508 0
 825 02a0 0D28     		cmp	r0, #13
 826 02a2 00D0     		beq	.LCB865
 827 02a4 99E0     		b	.L46	@long jump
 828              	.LCB865:
 509:main.c        ****             {
 510:main.c        ****                 UART_UartPutString(STRING_CRLF);
 829              		.loc 1 510 0
 830 02a6 2B48     		ldr	r0, .L130+28
 831 02a8 FFF7FEFF 		bl	UART_UartPutString
 832              	.LVL92:
 511:main.c        **** 
 512:main.c        ****                 // Calculate ampm value
 513:main.c        ****                 if (0 < input_char_count)
 833              		.loc 1 513 0
 834 02ac 002C     		cmp	r4, #0
 835 02ae 00D0     		beq	.LCB870
 836 02b0 88E0     		b	.L129	@long jump
 837              	.LCB870:
 838              	.LVL93:
 839              	.L58:
 840              	.LBB113:
 841              	.LBB114:
1030:Generated_Source\PSoC4/RTC.h ****                                                                                   (uint32)RTC_24_HO
1031:Generated_Source\PSoC4/RTC.h **** }
1032:Generated_Source\PSoC4/RTC.h **** 
1033:Generated_Source\PSoC4/RTC.h **** 
1034:Generated_Source\PSoC4/RTC.h **** /*******************************************************************************
1035:Generated_Source\PSoC4/RTC.h **** * Function Name: RTC_ConstructTime
1036:Generated_Source\PSoC4/RTC.h **** ****************************************************************************//**
1037:Generated_Source\PSoC4/RTC.h **** *
1038:Generated_Source\PSoC4/RTC.h **** * \brief
1039:Generated_Source\PSoC4/RTC.h **** *  Returns the time in the format used in APIs from individual elements
1040:Generated_Source\PSoC4/RTC.h **** *  passed (hour, min, sec etc)
1041:Generated_Source\PSoC4/RTC.h **** *
1042:Generated_Source\PSoC4/RTC.h **** * \param
1043:Generated_Source\PSoC4/RTC.h **** * timeFormat The 12/24 hours time format <br>
1044:Generated_Source\PSoC4/RTC.h **** * RTC_24_HOURS_FORMAT - The 24 hours format. <br>
1045:Generated_Source\PSoC4/RTC.h **** * RTC_12_HOURS_FORMAT - The 12 hours format.
1046:Generated_Source\PSoC4/RTC.h **** *
1047:Generated_Source\PSoC4/RTC.h **** * \param
1048:Generated_Source\PSoC4/RTC.h **** * stateAmPm  The AM/PM status <br>
1049:Generated_Source\PSoC4/RTC.h **** * RTC_AM - AM. <br>
1050:Generated_Source\PSoC4/RTC.h **** * RTC_PM - PM.
1051:Generated_Source\PSoC4/RTC.h **** *
1052:Generated_Source\PSoC4/RTC.h **** * \param
1053:Generated_Source\PSoC4/RTC.h **** *  hour The hour.
1054:Generated_Source\PSoC4/RTC.h **** *
1055:Generated_Source\PSoC4/RTC.h **** * \param
1056:Generated_Source\PSoC4/RTC.h **** *  min The minute.
1057:Generated_Source\PSoC4/RTC.h **** *
1058:Generated_Source\PSoC4/RTC.h **** * \param
1059:Generated_Source\PSoC4/RTC.h **** *  sec The second.
1060:Generated_Source\PSoC4/RTC.h **** *
1061:Generated_Source\PSoC4/RTC.h **** * \return
1062:Generated_Source\PSoC4/RTC.h **** *  Time in the format used in API.
ARM GAS  C:\Users\Jerry\AppData\Local\Temp\ccngDFcI.s 			page 45


1063:Generated_Source\PSoC4/RTC.h **** *
1064:Generated_Source\PSoC4/RTC.h **** *******************************************************************************/
1065:Generated_Source\PSoC4/RTC.h **** static CY_INLINE uint32 RTC_ConstructTime(uint32 timeFormat, uint32 stateAmPm, uint32 hour, uint32 
1066:Generated_Source\PSoC4/RTC.h **** {
1067:Generated_Source\PSoC4/RTC.h ****     uint32 retVal;
1068:Generated_Source\PSoC4/RTC.h **** 
1069:Generated_Source\PSoC4/RTC.h ****     retVal  = timeFormat << RTC_TIME_FORMAT_OFFSET;
1070:Generated_Source\PSoC4/RTC.h ****     retVal |= stateAmPm << RTC_PERIOD_OF_DAY_OFFSET;
1071:Generated_Source\PSoC4/RTC.h **** 
1072:Generated_Source\PSoC4/RTC.h ****     retVal |= (hour / 10u) << RTC_10_HOURS_OFFSET;
 842              		.loc 2 1072 0
 843 02b2 0A21     		mov	r1, #10
 844 02b4 281C     		mov	r0, r5
 845 02b6 FFF7FEFF 		bl	__aeabi_uidiv
 846              	.LVL94:
1073:Generated_Source\PSoC4/RTC.h ****     retVal |= (hour % 10u) << RTC_HOURS_OFFSET;
 847              		.loc 2 1073 0
 848 02ba 0A21     		mov	r1, #10
1072:Generated_Source\PSoC4/RTC.h ****     retVal |= (hour % 10u) << RTC_HOURS_OFFSET;
 849              		.loc 2 1072 0
 850 02bc 0405     		lsl	r4, r0, #20
 851              		.loc 2 1073 0
 852 02be 281C     		mov	r0, r5
 853 02c0 FFF7FEFF 		bl	__aeabi_uidivmod
 854              	.LVL95:
1069:Generated_Source\PSoC4/RTC.h ****     retVal |= stateAmPm << RTC_PERIOD_OF_DAY_OFFSET;
 855              		.loc 2 1069 0
 856 02c4 059B     		ldr	r3, [sp, #20]
 857              		.loc 2 1073 0
 858 02c6 0904     		lsl	r1, r1, #16
1069:Generated_Source\PSoC4/RTC.h ****     retVal |= stateAmPm << RTC_PERIOD_OF_DAY_OFFSET;
 859              		.loc 2 1069 0
 860 02c8 D805     		lsl	r0, r3, #23
 861 02ca 0C43     		orr	r4, r1
 862 02cc 0443     		orr	r4, r0
1074:Generated_Source\PSoC4/RTC.h **** 
1075:Generated_Source\PSoC4/RTC.h ****     retVal |= (min / 10u) << RTC_10_MINUTES_OFFSET;
 863              		.loc 2 1075 0
 864 02ce 0A21     		mov	r1, #10
 865 02d0 0098     		ldr	r0, [sp]
 866 02d2 FFF7FEFF 		bl	__aeabi_uidiv
 867              	.LVL96:
 868 02d6 0003     		lsl	r0, r0, #12
 869 02d8 0443     		orr	r4, r0
1076:Generated_Source\PSoC4/RTC.h ****     retVal |= (min % 10u) << RTC_MINUTES_OFFSET;
 870              		.loc 2 1076 0
 871 02da 0A21     		mov	r1, #10
 872 02dc 0098     		ldr	r0, [sp]
 873 02de FFF7FEFF 		bl	__aeabi_uidivmod
 874              	.LVL97:
1070:Generated_Source\PSoC4/RTC.h **** 
 875              		.loc 2 1070 0
 876 02e2 029B     		ldr	r3, [sp, #8]
 877              		.loc 2 1076 0
 878 02e4 0902     		lsl	r1, r1, #8
 879 02e6 0C43     		orr	r4, r1
 880              	.LVL98:
ARM GAS  C:\Users\Jerry\AppData\Local\Temp\ccngDFcI.s 			page 46


1070:Generated_Source\PSoC4/RTC.h **** 
 881              		.loc 2 1070 0
 882 02e8 9805     		lsl	r0, r3, #22
 883              		.loc 2 1076 0
 884 02ea 2043     		orr	r0, r4
 885              	.LVL99:
 886              	.LBE114:
 887              	.LBE113:
 514:main.c        ****                 {
 515:main.c        ****                     if (('a' == input_seq[0]) ||
 516:main.c        ****                         ('A' == input_seq[0]))
 517:main.c        ****                     {
 518:main.c        ****                         ampm = RTC_AM;
 519:main.c        ****                     }
 520:main.c        ****                     else if (('p' == input_seq[0]) ||
 521:main.c        ****                             ('P' == input_seq[0]))
 522:main.c        ****                     {
 523:main.c        ****                         ampm = RTC_PM;
 524:main.c        ****                     }
 525:main.c        ****                 }
 526:main.c        ****                 // Leave editing loop
 527:main.c        ****                 b_exit_editing = 1;
 528:main.c        ****             }
 529:main.c        **** 
 530:main.c        ****             // Backspace keypress handling
 531:main.c        ****             else if ((UART_KEYCODE_BKSPC == g_rx_char) && 
 532:main.c        ****                      (0 < input_char_count))
 533:main.c        ****             {
 534:main.c        ****                 // In result string replace deleted character with space, output
 535:main.c        ****                 // result string over previous string using CR without LF. Then 
 536:main.c        ****                 // trim trailing space and output string again to position 
 537:main.c        ****                 // cursor correctly
 538:main.c        ****                 input_seq[--input_char_count] = ' ';
 539:main.c        ****                 iprintf("\r"STRING_AM"/"STRING_PM" [%c]:%s", ampm_char, 
 540:main.c        ****                             input_seq);
 541:main.c        ****                 input_seq[input_char_count] = '\0';
 542:main.c        ****                 iprintf("\r"STRING_AM"/"STRING_PM" [%c]:%s", ampm_char, 
 543:main.c        ****                             input_seq);
 544:main.c        ****             }
 545:main.c        **** 
 546:main.c        ****             // A and P keys handling
 547:main.c        ****             else if ((('a' == g_rx_char) ||
 548:main.c        ****                      ('A' == g_rx_char) || 
 549:main.c        ****                      ('p' == g_rx_char) || 
 550:main.c        ****                      ('P' == g_rx_char)) &&
 551:main.c        ****                      (1 > input_char_count))
 552:main.c        ****             {
 553:main.c        ****                 input_seq[input_char_count++] = g_rx_char;
 554:main.c        ****                 iprintf("\r"STRING_AM"/"STRING_PM" [%c]:%s", ampm_char, 
 555:main.c        ****                         input_seq);
 556:main.c        ****             }
 557:main.c        ****         }
 558:main.c        ****         
 559:main.c        ****     }
 560:main.c        ****     else
 561:main.c        ****     {
 562:main.c        ****         // We are using 24 hour time format, just calculate ampm value
ARM GAS  C:\Users\Jerry\AppData\Local\Temp\ccngDFcI.s 			page 47


 563:main.c        ****         // for RTC_ConstructTime
 564:main.c        ****         if (12 < hours)
 565:main.c        ****         {
 566:main.c        ****             ampm = RTC_PM;
 567:main.c        ****         }
 568:main.c        ****         else
 569:main.c        ****         {
 570:main.c        ****             ampm = RTC_AM;
 571:main.c        ****         }
 572:main.c        ****     }
 573:main.c        ****     
 574:main.c        ****     RTC_SetDateAndTime(RTC_ConstructTime(time_format, ampm, hours, minutes, 0),
 888              		.loc 1 574 0
 889 02ec 0799     		ldr	r1, [sp, #28]
 890 02ee FFF7FEFF 		bl	RTC_SetDateAndTime
 891              	.LVL100:
 892              	.L24:
 893              	.LBE115:
 894              	.LBE121:
 239:main.c        ****             UART_UartPutString(STRING_READY STRING_CRLF STRING_CRLF);
 895              		.loc 1 239 0
 896 02f2 1E48     		ldr	r0, .L130+52
 897 02f4 FFF7FEFF 		bl	UART_UartPutString
 898              	.LVL101:
 240:main.c        ****             b_is_prompt_skipped = 1;
 899              		.loc 1 240 0
 900 02f8 1D48     		ldr	r0, .L130+56
 901 02fa FFF7FEFF 		bl	UART_UartPutString
 902              	.LVL102:
 903 02fe 9AE6     		b	.L14
 904              	.LVL103:
 905              	.L32:
 906              	.LBB122:
 907              	.LBB116:
 416:main.c        ****     input_seq[1] = '\0';
 908              		.loc 1 416 0
 909 0300 0024     		mov	r4, #0
 910 0302 09AB     		add	r3, sp, #36
 420:main.c        **** 
 911              		.loc 1 420 0
 912 0304 1B48     		ldr	r0, .L130+60
 913 0306 0099     		ldr	r1, [sp]
 416:main.c        ****     input_seq[1] = '\0';
 914              		.loc 1 416 0
 915 0308 1C70     		strb	r4, [r3]
 417:main.c        ****     
 916              		.loc 1 417 0
 917 030a 5C70     		strb	r4, [r3, #1]
 420:main.c        **** 
 918              		.loc 1 420 0
 919 030c FFF7FEFF 		bl	iprintf
 920              	.LVL104:
 921 0310 A8E7     		b	.L55
 922              	.LVL105:
 923              	.L128:
 924 0312 09AA     		add	r2, sp, #36
 437:main.c        ****                 {
ARM GAS  C:\Users\Jerry\AppData\Local\Temp\ccngDFcI.s 			page 48


 925              		.loc 1 437 0
 926 0314 012C     		cmp	r4, #1
 927 0316 02D1     		bne	.L40
 440:main.c        ****                 }
 928              		.loc 1 440 0
 929 0318 1378     		ldrb	r3, [r2]
 930 031a 303B     		sub	r3, r3, #48
 931 031c 07E0     		b	.L126
 932              	.L40:
 933 031e 5378     		ldrb	r3, [r2, #1]
 934 0320 303B     		sub	r3, r3, #48
 935 0322 191C     		mov	r1, r3
 445:main.c        ****                                         input_seq[1] - '0';
 936              		.loc 1 445 0
 937 0324 1378     		ldrb	r3, [r2]
 938 0326 0A22     		mov	r2, #10
 939 0328 303B     		sub	r3, r3, #48
 940 032a 5343     		mul	r3, r2
 941 032c CB18     		add	r3, r1, r3
 942              	.L126:
 943 032e DBB2     		uxtb	r3, r3
 944              	.LVL106:
 450:main.c        ****                 {
 945              		.loc 1 450 0
 946 0330 3B2B     		cmp	r3, #59
 947 0332 8FD8     		bhi	.L42
 452:main.c        ****                     b_exit_editing = 1;
 948              		.loc 1 452 0
 949 0334 0093     		str	r3, [sp]
 950              	.LVL107:
 951 0336 A2E7     		b	.L39
 952              	.L131:
 953              		.align	2
 954              	.L130:
 955 0338 26000000 		.word	.LC12
 956 033c 45000000 		.word	.LC14
 957 0340 00000000 		.word	.LANCHOR0
 958 0344 4F000000 		.word	.LC17
 959 0348 94000000 		.word	.LC19
 960 034c 00000000 		.word	.LANCHOR1
 961 0350 B9000000 		.word	.LC23
 962 0354 23000000 		.word	.LC10
 963 0358 C5000000 		.word	.LC26
 964 035c D5000000 		.word	.LC28
 965 0360 E3000000 		.word	.LC30
 966 0364 F2000000 		.word	.LC32
 967 0368 13010000 		.word	.LC36
 968 036c 2E010000 		.word	.LC40
 969 0370 45010000 		.word	.LC42
 970 0374 4F010000 		.word	.LC44
 971              	.LVL108:
 972              	.L38:
 469:main.c        ****         {
 973              		.loc 1 469 0
 974 0378 7F28     		cmp	r0, #127
 975 037a 11D1     		bne	.L44
 976 037c 002C     		cmp	r4, #0
ARM GAS  C:\Users\Jerry\AppData\Local\Temp\ccngDFcI.s 			page 49


 977 037e 0FD0     		beq	.L44
 475:main.c        ****             iprintf("\r"STRING_MINUTES" [%d]:%s", minutes, input_seq);
 978              		.loc 1 475 0
 979 0380 2023     		mov	r3, #32
 980 0382 09AE     		add	r6, sp, #36
 981 0384 013C     		sub	r4, r4, #1
 982              	.LVL109:
 983 0386 E4B2     		uxtb	r4, r4
 984              	.LVL110:
 476:main.c        ****             input_seq[input_char_count] = '\0';
 985              		.loc 1 476 0
 986 0388 2C48     		ldr	r0, .L132
 987 038a 0099     		ldr	r1, [sp]
 988 038c 321C     		mov	r2, r6
 475:main.c        ****             iprintf("\r"STRING_MINUTES" [%d]:%s", minutes, input_seq);
 989              		.loc 1 475 0
 990 038e 3355     		strb	r3, [r6, r4]
 476:main.c        ****             input_seq[input_char_count] = '\0';
 991              		.loc 1 476 0
 992 0390 FFF7FEFF 		bl	iprintf
 993              	.LVL111:
 477:main.c        ****             iprintf("\r"STRING_MINUTES" [%d]:%s", minutes, input_seq);
 994              		.loc 1 477 0
 995 0394 0023     		mov	r3, #0
 478:main.c        ****         }
 996              		.loc 1 478 0
 997 0396 2948     		ldr	r0, .L132
 477:main.c        ****             iprintf("\r"STRING_MINUTES" [%d]:%s", minutes, input_seq);
 998              		.loc 1 477 0
 999 0398 3355     		strb	r3, [r6, r4]
 478:main.c        ****         }
 1000              		.loc 1 478 0
 1001 039a 0099     		ldr	r1, [sp]
 1002 039c 321C     		mov	r2, r6
 1003 039e 5FE7     		b	.L125
 1004              	.L44:
 482:main.c        ****                  ('9' >= g_rx_char) && 
 1005              		.loc 1 482 0
 1006 03a0 031C     		mov	r3, r0
 1007 03a2 303B     		sub	r3, r3, #48
 1008 03a4 092B     		cmp	r3, #9
 1009 03a6 00D9     		bls	.LCB1097
 1010 03a8 5CE7     		b	.L55	@long jump
 1011              	.LCB1097:
 483:main.c        ****                  (2 > input_char_count))
 1012              		.loc 1 483 0
 1013 03aa 012C     		cmp	r4, #1
 1014 03ac 00D9     		bls	.LCB1099
 1015 03ae 59E7     		b	.L55	@long jump
 1016              	.LCB1099:
 486:main.c        ****             iprintf("\r"STRING_MINUTES" [%d]:%s", minutes, input_seq);
 1017              		.loc 1 486 0
 1018 03b0 661C     		add	r6, r4, #1
 1019 03b2 09AA     		add	r2, sp, #36
 1020 03b4 1055     		strb	r0, [r2, r4]
 1021 03b6 F6B2     		uxtb	r6, r6
 1022              	.LVL112:
ARM GAS  C:\Users\Jerry\AppData\Local\Temp\ccngDFcI.s 			page 50


 487:main.c        ****         }
 1023              		.loc 1 487 0
 1024 03b8 2048     		ldr	r0, .L132
 1025 03ba 0099     		ldr	r1, [sp]
 1026 03bc FFF7FEFF 		bl	iprintf
 1027              	.LVL113:
 486:main.c        ****             iprintf("\r"STRING_MINUTES" [%d]:%s", minutes, input_seq);
 1028              		.loc 1 486 0
 1029 03c0 341C     		mov	r4, r6
 1030              	.LVL114:
 1031 03c2 4FE7     		b	.L55
 1032              	.LVL115:
 1033              	.L129:
 515:main.c        ****                         ('A' == input_seq[0]))
 1034              		.loc 1 515 0
 1035 03c4 2022     		mov	r2, #32
 1036 03c6 09AB     		add	r3, sp, #36
 1037 03c8 1B78     		ldrb	r3, [r3]
 1038 03ca 9343     		bic	r3, r2
 1039 03cc 412B     		cmp	r3, #65
 1040 03ce 30D0     		beq	.L60
 520:main.c        ****                             ('P' == input_seq[0]))
 1041              		.loc 1 520 0
 1042 03d0 502B     		cmp	r3, #80
 1043 03d2 00D0     		beq	.LCB1129
 1044 03d4 6DE7     		b	.L58	@long jump
 1045              	.LCB1129:
 523:main.c        ****                     }
 1046              		.loc 1 523 0
 1047 03d6 4F3B     		sub	r3, r3, #79
 1048 03d8 29E0     		b	.L127
 1049              	.L46:
 531:main.c        ****                      (0 < input_char_count))
 1050              		.loc 1 531 0
 1051 03da 7F28     		cmp	r0, #127
 1052 03dc 12D1     		bne	.L48
 1053 03de 002C     		cmp	r4, #0
 1054 03e0 00D1     		bne	.LCB1138
 1055 03e2 58E7     		b	.L45	@long jump
 1056              	.LCB1138:
 1057              	.LVL116:
 538:main.c        ****                 iprintf("\r"STRING_AM"/"STRING_PM" [%c]:%s", ampm_char, 
 1058              		.loc 1 538 0
 1059 03e4 2023     		mov	r3, #32
 541:main.c        ****                 iprintf("\r"STRING_AM"/"STRING_PM" [%c]:%s", ampm_char, 
 1060              		.loc 1 541 0
 1061 03e6 0024     		mov	r4, #0
 538:main.c        ****                 iprintf("\r"STRING_AM"/"STRING_PM" [%c]:%s", ampm_char, 
 1062              		.loc 1 538 0
 1063 03e8 09AE     		add	r6, sp, #36
 539:main.c        ****                             input_seq);
 1064              		.loc 1 539 0
 1065 03ea 0199     		ldr	r1, [sp, #4]
 1066 03ec 321C     		mov	r2, r6
 1067 03ee 1448     		ldr	r0, .L132+4
 538:main.c        ****                 iprintf("\r"STRING_AM"/"STRING_PM" [%c]:%s", ampm_char, 
 1068              		.loc 1 538 0
ARM GAS  C:\Users\Jerry\AppData\Local\Temp\ccngDFcI.s 			page 51


 1069 03f0 3370     		strb	r3, [r6]
 539:main.c        ****                             input_seq);
 1070              		.loc 1 539 0
 1071 03f2 FFF7FEFF 		bl	iprintf
 1072              	.LVL117:
 542:main.c        ****                             input_seq);
 1073              		.loc 1 542 0
 1074 03f6 1248     		ldr	r0, .L132+4
 1075 03f8 0199     		ldr	r1, [sp, #4]
 1076 03fa 321C     		mov	r2, r6
 541:main.c        ****                 iprintf("\r"STRING_AM"/"STRING_PM" [%c]:%s", ampm_char, 
 1077              		.loc 1 541 0
 1078 03fc 3470     		strb	r4, [r6]
 542:main.c        ****                             input_seq);
 1079              		.loc 1 542 0
 1080 03fe FFF7FEFF 		bl	iprintf
 1081              	.LVL118:
 1082 0402 48E7     		b	.L45
 1083              	.LVL119:
 1084              	.L48:
 547:main.c        ****                      ('A' == g_rx_char) || 
 1085              		.loc 1 547 0
 1086 0404 2023     		mov	r3, #32
 1087 0406 021C     		mov	r2, r0
 1088 0408 9A43     		bic	r2, r3
 1089 040a 412A     		cmp	r2, #65
 1090 040c 02D0     		beq	.L51
 549:main.c        ****                      ('P' == g_rx_char)) &&
 1091              		.loc 1 549 0
 1092 040e 502A     		cmp	r2, #80
 1093 0410 00D0     		beq	.LCB1168
 1094 0412 40E7     		b	.L45	@long jump
 1095              	.LCB1168:
 1096              	.L51:
 550:main.c        ****                      (1 > input_char_count))
 1097              		.loc 1 550 0
 1098 0414 002C     		cmp	r4, #0
 1099 0416 0ED1     		bne	.L61
 1100              	.LVL120:
 553:main.c        ****                 iprintf("\r"STRING_AM"/"STRING_PM" [%c]:%s", ampm_char, 
 1101              		.loc 1 553 0
 1102 0418 09AA     		add	r2, sp, #36
 1103 041a 1070     		strb	r0, [r2]
 554:main.c        ****                         input_seq);
 1104              		.loc 1 554 0
 1105 041c 0199     		ldr	r1, [sp, #4]
 1106 041e 0848     		ldr	r0, .L132+4
 1107 0420 FFF7FEFF 		bl	iprintf
 1108              	.LVL121:
 1109 0424 07E0     		b	.L61
 1110              	.LVL122:
 1111              	.L122:
 564:main.c        ****         {
 1112              		.loc 1 564 0
 1113 0426 0C20     		mov	r0, #12
 1114 0428 A842     		cmp	r0, r5
 1115 042a 8041     		sbc	r0, r0, r0
ARM GAS  C:\Users\Jerry\AppData\Local\Temp\ccngDFcI.s 			page 52


 1116 042c 4342     		neg	r3, r0
 1117              	.LVL123:
 1118              	.L127:
 1119 042e 0293     		str	r3, [sp, #8]
 1120 0430 3FE7     		b	.L58
 1121              	.LVL124:
 1122              	.L60:
 518:main.c        ****                     }
 1123              		.loc 1 518 0
 1124 0432 0023     		mov	r3, #0
 1125 0434 FBE7     		b	.L127
 1126              	.LVL125:
 1127              	.L61:
 550:main.c        ****                      (1 > input_char_count))
 1128              		.loc 1 550 0
 1129 0436 0124     		mov	r4, #1
 1130              	.LVL126:
 1131 0438 2DE7     		b	.L45
 1132              	.L133:
 1133 043a C046     		.align	2
 1134              	.L132:
 1135 043c 02010000 		.word	.LC34
 1136 0440 1F010000 		.word	.LC38
 1137              	.LBE116:
 1138              	.LBE122:
 1139              		.cfi_endproc
 1140              	.LFE95:
 1141              		.size	main, .-main
 1142              		.section	.rodata
 1143              		.set	.LANCHOR1,. + 0
 1144              	.LC21:
 1145 0000 000000   		.ascii	"\000\000\000"
 1146              		.section	.rodata.str1.1,"aMS",%progbits,1
 1147              	.LC0:
 1148 0000 43757272 		.ascii	"Current time is %d:\000"
 1148      656E7420 
 1148      74696D65 
 1148      20697320 
 1148      25643A00 
 1149              	.LC2:
 1150 0014 25643A00 		.ascii	"%d:\000"
 1151              	.LC4:
 1152 0018 256400   		.ascii	"%d\000"
 1153              	.LC6:
 1154 001b 20414D00 		.ascii	" AM\000"
 1155              	.LC8:
 1156 001f 20504D00 		.ascii	" PM\000"
 1157              	.LC10:
 1158 0023 0D0A00   		.ascii	"\015\012\000"
 1159              	.LC12:
 1160 0026 0D0A2A2A 		.ascii	"\015\012*** Talking clock V1.0 ***\015\012\000"
 1160      2A205461 
 1160      6C6B696E 
 1160      6720636C 
 1160      6F636B20 
 1161              	.LC14:
 1162 0045 0D0A5245 		.ascii	"\015\012READY\015\012\000"
ARM GAS  C:\Users\Jerry\AppData\Local\Temp\ccngDFcI.s 			page 53


 1162      4144590D 
 1162      0A00
 1163              	.LC17:
 1164 004f 5B445D20 		.ascii	"[D] Display data\015\012[T] Say time\015\012[E] Edi"
 1164      44697370 
 1164      6C617920 
 1164      64617461 
 1164      0D0A5B54 
 1165 0076 74207469 		.ascii	"t time\015\012[M] Say temperature\015\012\000"
 1165      6D650D0A 
 1165      5B4D5D20 
 1165      53617920 
 1165      74656D70 
 1166              	.LC19:
 1167 0094 43757272 		.ascii	"Current temperature is %d.%d deg C\015\012\000"
 1167      656E7420 
 1167      74656D70 
 1167      65726174 
 1167      75726520 
 1168              	.LC23:
 1169 00b9 486F7572 		.ascii	"Hours [%d]:\000"
 1169      73205B25 
 1169      645D3A00 
 1170              	.LC26:
 1171 00c5 496E7661 		.ascii	"Invalid value\015\012\000"
 1171      6C696420 
 1171      76616C75 
 1171      650D0A00 
 1172              	.LC28:
 1173 00d5 486F7572 		.ascii	"Hours [%d]:%s\000"
 1173      73205B25 
 1173      645D3A25 
 1173      7300
 1174              	.LC30:
 1175 00e3 0D486F75 		.ascii	"\015Hours [%d]:%s\000"
 1175      7273205B 
 1175      25645D3A 
 1175      257300
 1176              	.LC32:
 1177 00f2 4D696E75 		.ascii	"Minutes [%d]:%s\000"
 1177      74657320 
 1177      5B25645D 
 1177      3A257300 
 1178              	.LC34:
 1179 0102 0D4D696E 		.ascii	"\015Minutes [%d]:%s\000"
 1179      75746573 
 1179      205B2564 
 1179      5D3A2573 
 1179      00
 1180              	.LC36:
 1181 0113 414D2F50 		.ascii	"AM/PM [%c]:\000"
 1181      4D205B25 
 1181      635D3A00 
 1182              	.LC38:
 1183 011f 0D414D2F 		.ascii	"\015AM/PM [%c]:%s\000"
 1183      504D205B 
 1183      25635D3A 
ARM GAS  C:\Users\Jerry\AppData\Local\Temp\ccngDFcI.s 			page 54


 1183      257300
 1184              	.LC40:
 1185 012e 0D0A2850 		.ascii	"\015\012(Press H for help)\015\012\000"
 1185      72657373 
 1185      20482066 
 1185      6F722068 
 1185      656C7029 
 1186              	.LC42:
 1187 0145 52454144 		.ascii	"READY\015\012\015\012\000"
 1187      590D0A0D 
 1187      0A00
 1188              	.LC44:
 1189 014f 4D696E75 		.ascii	"Minutes [%d]:\000"
 1189      74657320 
 1189      5B25645D 
 1189      3A00
 1190              		.bss
 1191              		.set	.LANCHOR0,. + 0
 1192              		.type	g_rx_char, %object
 1193              		.size	g_rx_char, 1
 1194              	g_rx_char:
 1195 0000 00       		.space	1
 1196              		.text
 1197              	.Letext0:
 1198              		.file 3 "c:\\program files (x86)\\cypress\\psoc creator\\4.0\\psoc creator\\import\\gnu\\arm\\4.9.
 1199              		.file 4 "c:\\program files (x86)\\cypress\\psoc creator\\4.0\\psoc creator\\import\\gnu\\arm\\4.9.
 1200              		.file 5 "Generated_Source\\PSoC4/cytypes.h"
 1201              		.file 6 "iprintf.h"
 1202              		.file 7 "Generated_Source\\PSoC4/UART_SPI_UART.h"
 1203              		.file 8 "Generated_Source\\PSoC4/CyLib.h"
 1204              		.file 9 "Generated_Source\\PSoC4/UART.h"
 1205              		.file 10 "lpc_synth.h"
 1206              		.file 11 "temperature.h"
 1207              		.file 12 "Generated_Source\\PSoC4/CapSense_Control.h"
 1208              		.file 13 "Generated_Source\\PSoC4/CapSense_Sensing.h"
 1209              		.file 14 "Generated_Source\\PSoC4/CapSense_Structure.h"
 1210              		.file 15 "custom_synth.h"