ARM GAS  C:\Users\Jerry\AppData\Local\Temp\cc7m5IHi.s 			page 1


   1              		.cpu cortex-m0plus
   2              		.fpu softvfp
   3              		.eabi_attribute 20, 1
   4              		.eabi_attribute 21, 1
   5              		.eabi_attribute 23, 3
   6              		.eabi_attribute 24, 1
   7              		.eabi_attribute 25, 1
   8              		.eabi_attribute 26, 1
   9              		.eabi_attribute 30, 4
  10              		.eabi_attribute 34, 0
  11              		.eabi_attribute 18, 4
  12              		.code	16
  13              		.file	"RTC.c"
  14              		.text
  15              	.Ltext0:
  16              		.cfi_sections	.debug_frame
  17              		.global	__aeabi_uidivmod
  18              		.section	.text.RTC_LeapYear,"ax",%progbits
  19              		.align	1
  20              		.code	16
  21              		.thumb_func
  22              		.type	RTC_LeapYear, %function
  23              	RTC_LeapYear:
  24              	.LFB2:
  25              		.file 1 "Generated_Source\\PSoC4\\RTC.h"
   1:Generated_Source\PSoC4/RTC.h **** /***************************************************************************//**
   2:Generated_Source\PSoC4/RTC.h **** * \file Name: RTC.h
   3:Generated_Source\PSoC4/RTC.h **** * \version 1.10
   4:Generated_Source\PSoC4/RTC.h **** *
   5:Generated_Source\PSoC4/RTC.h **** * \brief
   6:Generated_Source\PSoC4/RTC.h **** *  This file provides constants and parameter values for the RTC_P4 Component.
   7:Generated_Source\PSoC4/RTC.h **** *
   8:Generated_Source\PSoC4/RTC.h **** ********************************************************************************
   9:Generated_Source\PSoC4/RTC.h **** * Copyright 2015-2016, Cypress Semiconductor Corporation.  All rights reserved.
  10:Generated_Source\PSoC4/RTC.h **** * You may use this file only in accordance with the license, terms, conditions,
  11:Generated_Source\PSoC4/RTC.h **** * disclaimers, and limitations in the end user license agreement accompanying
  12:Generated_Source\PSoC4/RTC.h **** * the software package with which this file was provided.
  13:Generated_Source\PSoC4/RTC.h **** *******************************************************************************/
  14:Generated_Source\PSoC4/RTC.h **** 
  15:Generated_Source\PSoC4/RTC.h **** #if !defined(CY_RTC_P4_RTC_H)
  16:Generated_Source\PSoC4/RTC.h **** #define CY_RTC_P4_RTC_H
  17:Generated_Source\PSoC4/RTC.h **** 
  18:Generated_Source\PSoC4/RTC.h **** #include <cytypes.h>
  19:Generated_Source\PSoC4/RTC.h **** #include <CyLib.h>
  20:Generated_Source\PSoC4/RTC.h **** 
  21:Generated_Source\PSoC4/RTC.h **** 
  22:Generated_Source\PSoC4/RTC.h **** /*******************************************************************************
  23:Generated_Source\PSoC4/RTC.h **** *    Data types definition
  24:Generated_Source\PSoC4/RTC.h **** *******************************************************************************/
  25:Generated_Source\PSoC4/RTC.h **** 
  26:Generated_Source\PSoC4/RTC.h **** typedef enum
  27:Generated_Source\PSoC4/RTC.h **** {
  28:Generated_Source\PSoC4/RTC.h ****     RTC_DST_DATE_RELATIVE = 0u,
  29:Generated_Source\PSoC4/RTC.h ****     RTC_DST_DATE_FIXED = 1u
  30:Generated_Source\PSoC4/RTC.h **** }RTC_DST_DATETYPE_ENUM;
  31:Generated_Source\PSoC4/RTC.h **** 
  32:Generated_Source\PSoC4/RTC.h **** /**
ARM GAS  C:\Users\Jerry\AppData\Local\Temp\cc7m5IHi.s 			page 2


  33:Generated_Source\PSoC4/RTC.h **** * \addtogroup group_structures
  34:Generated_Source\PSoC4/RTC.h **** * @{
  35:Generated_Source\PSoC4/RTC.h **** */
  36:Generated_Source\PSoC4/RTC.h **** 
  37:Generated_Source\PSoC4/RTC.h **** /**
  38:Generated_Source\PSoC4/RTC.h **** * This is the data structure that is used to save the current time and date 
  39:Generated_Source\PSoC4/RTC.h **** * (RTC_currentTimeDate), and Alarm time and date (RTC_alarmCfgTimeDate).
  40:Generated_Source\PSoC4/RTC.h **** */
  41:Generated_Source\PSoC4/RTC.h **** typedef struct
  42:Generated_Source\PSoC4/RTC.h **** {
  43:Generated_Source\PSoC4/RTC.h ****     uint32 time;
  44:Generated_Source\PSoC4/RTC.h ****     uint32 date;
  45:Generated_Source\PSoC4/RTC.h ****     uint32 dayOfWeek;
  46:Generated_Source\PSoC4/RTC.h ****     uint32 status;
  47:Generated_Source\PSoC4/RTC.h **** }RTC_DATE_TIME;
  48:Generated_Source\PSoC4/RTC.h **** 
  49:Generated_Source\PSoC4/RTC.h **** /**
  50:Generated_Source\PSoC4/RTC.h **** * This is the data structure that is used to save time and date values for 
  51:Generated_Source\PSoC4/RTC.h **** * Daylight Savings Time Start and Stop (RTC_dstTimeDateStart and 
  52:Generated_Source\PSoC4/RTC.h **** * RTC_dstTimeDateStop).
  53:Generated_Source\PSoC4/RTC.h **** */
  54:Generated_Source\PSoC4/RTC.h **** typedef struct
  55:Generated_Source\PSoC4/RTC.h **** {
  56:Generated_Source\PSoC4/RTC.h ****     uint32 hour;
  57:Generated_Source\PSoC4/RTC.h ****     uint32 dayOfWeek;
  58:Generated_Source\PSoC4/RTC.h ****     uint32 dayOfMonth;
  59:Generated_Source\PSoC4/RTC.h ****     uint32 weekOfMonth;
  60:Generated_Source\PSoC4/RTC.h ****     uint32 month;
  61:Generated_Source\PSoC4/RTC.h ****     uint8  timeFormat;
  62:Generated_Source\PSoC4/RTC.h **** }RTC_DST_TIME;
  63:Generated_Source\PSoC4/RTC.h **** 
  64:Generated_Source\PSoC4/RTC.h **** /** @} structures */
  65:Generated_Source\PSoC4/RTC.h **** 
  66:Generated_Source\PSoC4/RTC.h **** /*******************************************************************************
  67:Generated_Source\PSoC4/RTC.h **** *    Enumerated Types and Parameters
  68:Generated_Source\PSoC4/RTC.h **** *******************************************************************************/
  69:Generated_Source\PSoC4/RTC.h **** /* Time Format setting constants */
  70:Generated_Source\PSoC4/RTC.h **** #define RTC__HOUR_12 1
  71:Generated_Source\PSoC4/RTC.h **** #define RTC__HOUR_24 0
  72:Generated_Source\PSoC4/RTC.h **** 
  73:Generated_Source\PSoC4/RTC.h **** /*  Date Format setting constants */
  74:Generated_Source\PSoC4/RTC.h **** #define RTC__MM_DD_YYYY 0
  75:Generated_Source\PSoC4/RTC.h **** #define RTC__DD_MM_YYYY 1
  76:Generated_Source\PSoC4/RTC.h **** #define RTC__YYYY_MM_DD 2
  77:Generated_Source\PSoC4/RTC.h **** 
  78:Generated_Source\PSoC4/RTC.h **** /* Date Type setting constants */
  79:Generated_Source\PSoC4/RTC.h **** #define RTC__RELATIVE 0
  80:Generated_Source\PSoC4/RTC.h **** #define RTC__FIXED 1
  81:Generated_Source\PSoC4/RTC.h **** 
  82:Generated_Source\PSoC4/RTC.h **** /* DST Hour setting constants */
  83:Generated_Source\PSoC4/RTC.h **** #define RTC__H0000 0
  84:Generated_Source\PSoC4/RTC.h **** #define RTC__H0100 1
  85:Generated_Source\PSoC4/RTC.h **** #define RTC__H0200 2
  86:Generated_Source\PSoC4/RTC.h **** #define RTC__H0300 3
  87:Generated_Source\PSoC4/RTC.h **** #define RTC__H0400 4
  88:Generated_Source\PSoC4/RTC.h **** #define RTC__H0500 5
  89:Generated_Source\PSoC4/RTC.h **** #define RTC__H0600 6
ARM GAS  C:\Users\Jerry\AppData\Local\Temp\cc7m5IHi.s 			page 3


  90:Generated_Source\PSoC4/RTC.h **** #define RTC__H0700 7
  91:Generated_Source\PSoC4/RTC.h **** #define RTC__H0800 8
  92:Generated_Source\PSoC4/RTC.h **** #define RTC__H0900 9
  93:Generated_Source\PSoC4/RTC.h **** #define RTC__H1000 10
  94:Generated_Source\PSoC4/RTC.h **** #define RTC__H1100 11
  95:Generated_Source\PSoC4/RTC.h **** #define RTC__H1200 12
  96:Generated_Source\PSoC4/RTC.h **** #define RTC__H1300 13
  97:Generated_Source\PSoC4/RTC.h **** #define RTC__H1400 14
  98:Generated_Source\PSoC4/RTC.h **** #define RTC__H1500 15
  99:Generated_Source\PSoC4/RTC.h **** #define RTC__H1600 16
 100:Generated_Source\PSoC4/RTC.h **** #define RTC__H1700 17
 101:Generated_Source\PSoC4/RTC.h **** #define RTC__H1800 18
 102:Generated_Source\PSoC4/RTC.h **** #define RTC__H1900 19
 103:Generated_Source\PSoC4/RTC.h **** #define RTC__H2000 20
 104:Generated_Source\PSoC4/RTC.h **** #define RTC__H2100 21
 105:Generated_Source\PSoC4/RTC.h **** #define RTC__H2200 22
 106:Generated_Source\PSoC4/RTC.h **** #define RTC__H2300 23
 107:Generated_Source\PSoC4/RTC.h **** 
 108:Generated_Source\PSoC4/RTC.h **** /* DST DayOfWeek setting constants */
 109:Generated_Source\PSoC4/RTC.h **** #define RTC__SUNDAY 1
 110:Generated_Source\PSoC4/RTC.h **** #define RTC__MONDAY 2
 111:Generated_Source\PSoC4/RTC.h **** #define RTC__TUESDAY 3
 112:Generated_Source\PSoC4/RTC.h **** #define RTC__WEDNESDAY 4
 113:Generated_Source\PSoC4/RTC.h **** #define RTC__THURSDAY 5
 114:Generated_Source\PSoC4/RTC.h **** #define RTC__FRIDAY 6
 115:Generated_Source\PSoC4/RTC.h **** #define RTC__SATURDAY 7
 116:Generated_Source\PSoC4/RTC.h **** 
 117:Generated_Source\PSoC4/RTC.h **** /* DST Month setting constants */
 118:Generated_Source\PSoC4/RTC.h **** #define RTC__JAN 1
 119:Generated_Source\PSoC4/RTC.h **** #define RTC__FEB 2
 120:Generated_Source\PSoC4/RTC.h **** #define RTC__MAR 3
 121:Generated_Source\PSoC4/RTC.h **** #define RTC__APR 4
 122:Generated_Source\PSoC4/RTC.h **** #define RTC__MAY 5
 123:Generated_Source\PSoC4/RTC.h **** #define RTC__JUN 6
 124:Generated_Source\PSoC4/RTC.h **** #define RTC__JUL 7
 125:Generated_Source\PSoC4/RTC.h **** #define RTC__AUG 8
 126:Generated_Source\PSoC4/RTC.h **** #define RTC__SEP 9
 127:Generated_Source\PSoC4/RTC.h **** #define RTC__OCT 10
 128:Generated_Source\PSoC4/RTC.h **** #define RTC__NOV 11
 129:Generated_Source\PSoC4/RTC.h **** #define RTC__DEC 12
 130:Generated_Source\PSoC4/RTC.h **** 
 131:Generated_Source\PSoC4/RTC.h **** /* DST WeekOfMonth setting constants */
 132:Generated_Source\PSoC4/RTC.h **** #define RTC__FIRST 1
 133:Generated_Source\PSoC4/RTC.h **** #define RTC__SECOND 2
 134:Generated_Source\PSoC4/RTC.h **** #define RTC__THIRD 3
 135:Generated_Source\PSoC4/RTC.h **** #define RTC__FOURTH 4
 136:Generated_Source\PSoC4/RTC.h **** #define RTC__FIFTH 5
 137:Generated_Source\PSoC4/RTC.h **** #define RTC__LAST 6
 138:Generated_Source\PSoC4/RTC.h **** 
 139:Generated_Source\PSoC4/RTC.h **** 
 140:Generated_Source\PSoC4/RTC.h **** #define RTC_INITIAL_DATA_FORMAT     (0u)
 141:Generated_Source\PSoC4/RTC.h **** #define RTC_INITIAL_TIME_FORMAT     (1u)
 142:Generated_Source\PSoC4/RTC.h **** #define RTC_INITIAL_UPDATE_MODE     (0u)
 143:Generated_Source\PSoC4/RTC.h **** #define RTC_INITIAL_SECOND          (0u)
 144:Generated_Source\PSoC4/RTC.h **** #define RTC_INITIAL_MINUTE          (0u)
 145:Generated_Source\PSoC4/RTC.h **** #define RTC_INITIAL_HOUR            (14u)
 146:Generated_Source\PSoC4/RTC.h **** #define RTC_INITIAL_DAY             (1u)
ARM GAS  C:\Users\Jerry\AppData\Local\Temp\cc7m5IHi.s 			page 4


 147:Generated_Source\PSoC4/RTC.h **** #define RTC_INITIAL_MONTH           (2u)
 148:Generated_Source\PSoC4/RTC.h **** #define RTC_INITIAL_YEAR            (2017u)
 149:Generated_Source\PSoC4/RTC.h **** 
 150:Generated_Source\PSoC4/RTC.h **** #define RTC_INITIAL_ALARM_STATUS    (0u)
 151:Generated_Source\PSoC4/RTC.h **** 
 152:Generated_Source\PSoC4/RTC.h **** #define RTC_INITIAL_DST_STATUS      (0u)
 153:Generated_Source\PSoC4/RTC.h **** #define RTC_INITIAL_DST_DATE_TYPE   (0u)
 154:Generated_Source\PSoC4/RTC.h **** #define RTC_INITIAL_DST_START_MONTH (3uL)
 155:Generated_Source\PSoC4/RTC.h **** #define RTC_INITIAL_DST_START_WOM   (6uL)
 156:Generated_Source\PSoC4/RTC.h **** #define RTC_INITIAL_DST_START_DOM   (22uL)
 157:Generated_Source\PSoC4/RTC.h **** #define RTC_INITIAL_DST_START_DOW   (1uL)
 158:Generated_Source\PSoC4/RTC.h **** #define RTC_INITIAL_DST_START_HRS   (0uL)
 159:Generated_Source\PSoC4/RTC.h **** #define RTC_INITIAL_DST_STOP_MONTH  (10uL)
 160:Generated_Source\PSoC4/RTC.h **** #define RTC_INITIAL_DST_STOP_DOM    (22uL)
 161:Generated_Source\PSoC4/RTC.h **** #define RTC_INITIAL_DST_STOP_DOW    (1uL)
 162:Generated_Source\PSoC4/RTC.h **** #define RTC_INITIAL_DST_STOP_WOM    (6uL)
 163:Generated_Source\PSoC4/RTC.h **** #define RTC_INITIAL_DST_STOP_HRS    (0uL)
 164:Generated_Source\PSoC4/RTC.h **** 
 165:Generated_Source\PSoC4/RTC.h **** /* Day of week definitions */
 166:Generated_Source\PSoC4/RTC.h **** #define RTC_SUNDAY     (RTC__SUNDAY)
 167:Generated_Source\PSoC4/RTC.h **** #define RTC_MONDAY     (RTC__MONDAY)
 168:Generated_Source\PSoC4/RTC.h **** #define RTC_TUESDAY    (RTC__TUESDAY)
 169:Generated_Source\PSoC4/RTC.h **** #define RTC_WEDNESDAY  (RTC__WEDNESDAY)
 170:Generated_Source\PSoC4/RTC.h **** #define RTC_THURSDAY   (RTC__THURSDAY)
 171:Generated_Source\PSoC4/RTC.h **** #define RTC_FRIDAY     (RTC__FRIDAY)
 172:Generated_Source\PSoC4/RTC.h **** #define RTC_SATURDAY   (RTC__SATURDAY)
 173:Generated_Source\PSoC4/RTC.h **** 
 174:Generated_Source\PSoC4/RTC.h **** /* DST WeekOfMonth setting constants definitions */
 175:Generated_Source\PSoC4/RTC.h **** #define RTC_FIRST      (RTC__FIRST)
 176:Generated_Source\PSoC4/RTC.h **** #define RTC_SECOND     (RTC__SECOND)
 177:Generated_Source\PSoC4/RTC.h **** #define RTC_THIRD      (RTC__THIRD)
 178:Generated_Source\PSoC4/RTC.h **** #define RTC_FOURTH     (RTC__FOURTH)
 179:Generated_Source\PSoC4/RTC.h **** #define RTC_FIFTH      (RTC__FIFTH)
 180:Generated_Source\PSoC4/RTC.h **** #define RTC_LAST       (RTC__LAST)
 181:Generated_Source\PSoC4/RTC.h **** 
 182:Generated_Source\PSoC4/RTC.h **** /* Month definitions */
 183:Generated_Source\PSoC4/RTC.h **** #define RTC_JANUARY    (RTC__JAN)
 184:Generated_Source\PSoC4/RTC.h **** #define RTC_FEBRUARY   (RTC__FEB)
 185:Generated_Source\PSoC4/RTC.h **** #define RTC_MARCH      (RTC__MAR)
 186:Generated_Source\PSoC4/RTC.h **** #define RTC_APRIL      (RTC__APR)
 187:Generated_Source\PSoC4/RTC.h **** #define RTC_MAY        (RTC__MAY)
 188:Generated_Source\PSoC4/RTC.h **** #define RTC_JUNE       (RTC__JUN)
 189:Generated_Source\PSoC4/RTC.h **** #define RTC_JULY       (RTC__JUL)
 190:Generated_Source\PSoC4/RTC.h **** #define RTC_AUGUST     (RTC__AUG)
 191:Generated_Source\PSoC4/RTC.h **** #define RTC_SEPTEMBER  (RTC__SEP)
 192:Generated_Source\PSoC4/RTC.h **** #define RTC_OCTOBER    (RTC__OCT)
 193:Generated_Source\PSoC4/RTC.h **** #define RTC_NOVEMBER   (RTC__NOV)
 194:Generated_Source\PSoC4/RTC.h **** #define RTC_DECEMBER   (RTC__DEC)
 195:Generated_Source\PSoC4/RTC.h **** 
 196:Generated_Source\PSoC4/RTC.h **** #define RTC_DAYS_PER_WEEK       (7u)
 197:Generated_Source\PSoC4/RTC.h **** 
 198:Generated_Source\PSoC4/RTC.h **** /* Number of days in month definitions */
 199:Generated_Source\PSoC4/RTC.h **** #define RTC_DAYS_IN_JANUARY     (31u)
 200:Generated_Source\PSoC4/RTC.h **** #define RTC_DAYS_IN_FEBRUARY    (28u)
 201:Generated_Source\PSoC4/RTC.h **** #define RTC_DAYS_IN_MARCH       (31u)
 202:Generated_Source\PSoC4/RTC.h **** #define RTC_DAYS_IN_APRIL       (30u)
 203:Generated_Source\PSoC4/RTC.h **** #define RTC_DAYS_IN_MAY         (31u)
ARM GAS  C:\Users\Jerry\AppData\Local\Temp\cc7m5IHi.s 			page 5


 204:Generated_Source\PSoC4/RTC.h **** #define RTC_DAYS_IN_JUNE        (30u)
 205:Generated_Source\PSoC4/RTC.h **** #define RTC_DAYS_IN_JULY        (31u)
 206:Generated_Source\PSoC4/RTC.h **** #define RTC_DAYS_IN_AUGUST      (31u)
 207:Generated_Source\PSoC4/RTC.h **** #define RTC_DAYS_IN_SEPTEMBER   (30u)
 208:Generated_Source\PSoC4/RTC.h **** #define RTC_DAYS_IN_OCTOBER     (31u)
 209:Generated_Source\PSoC4/RTC.h **** #define RTC_DAYS_IN_NOVEMBER    (30u)
 210:Generated_Source\PSoC4/RTC.h **** #define RTC_DAYS_IN_DECEMBER    (31u)
 211:Generated_Source\PSoC4/RTC.h **** 
 212:Generated_Source\PSoC4/RTC.h **** #define RTC_MONTHS_PER_YEAR     (12uL)
 213:Generated_Source\PSoC4/RTC.h **** 
 214:Generated_Source\PSoC4/RTC.h **** #define RTC_HOURS_PER_DAY       (24uL)
 215:Generated_Source\PSoC4/RTC.h **** #define RTC_HOURS_PER_HALF_DAY  (12uL)
 216:Generated_Source\PSoC4/RTC.h **** 
 217:Generated_Source\PSoC4/RTC.h **** #define RTC_SECONDS_PER_MINUTE  (60uL)
 218:Generated_Source\PSoC4/RTC.h **** #define RTC_SECONDS_PER_HOUR    (3600uL)
 219:Generated_Source\PSoC4/RTC.h **** #define RTC_SECONDS_PER_DAY     (24uL * 3600uL)
 220:Generated_Source\PSoC4/RTC.h **** 
 221:Generated_Source\PSoC4/RTC.h **** #define RTC_SECONDS_PER_LEAP_YEAR    (366uL * 24uL * 3600uL)
 222:Generated_Source\PSoC4/RTC.h **** #define RTC_SECONDS_PER_NONLEAP_YEAR (365uL * 24uL * 3600uL)
 223:Generated_Source\PSoC4/RTC.h **** 
 224:Generated_Source\PSoC4/RTC.h **** #define RTC_UNIX_TIME_PM   ((12uL * 3600uL) + 1uL)
 225:Generated_Source\PSoC4/RTC.h **** 
 226:Generated_Source\PSoC4/RTC.h **** /* AM/PM status definitions */
 227:Generated_Source\PSoC4/RTC.h **** #define RTC_AM                 (0u)
 228:Generated_Source\PSoC4/RTC.h **** #define RTC_PM                 (1u)
 229:Generated_Source\PSoC4/RTC.h **** 
 230:Generated_Source\PSoC4/RTC.h **** /* Time format definitions */
 231:Generated_Source\PSoC4/RTC.h **** #define RTC_12_HOURS_FORMAT    (RTC__HOUR_12)
 232:Generated_Source\PSoC4/RTC.h **** #define RTC_24_HOURS_FORMAT    (RTC__HOUR_24)
 233:Generated_Source\PSoC4/RTC.h **** 
 234:Generated_Source\PSoC4/RTC.h **** /* UNIX time begins in 1970 year.  */
 235:Generated_Source\PSoC4/RTC.h **** #define RTC_YEAR_0             (1970u)
 236:Generated_Source\PSoC4/RTC.h **** 
 237:Generated_Source\PSoC4/RTC.h **** /* Definition of date register fields */
 238:Generated_Source\PSoC4/RTC.h **** #if(RTC_INITIAL_DATA_FORMAT == RTC__MM_DD_YYYY)
 239:Generated_Source\PSoC4/RTC.h ****     #define RTC_10_MONTH_OFFSET   (28u)
 240:Generated_Source\PSoC4/RTC.h ****     #define RTC_MONTH_OFFSET      (24u)
 241:Generated_Source\PSoC4/RTC.h ****     #define RTC_10_DAY_OFFSET     (20u)
 242:Generated_Source\PSoC4/RTC.h ****     #define RTC_DAY_OFFSET        (16u)
 243:Generated_Source\PSoC4/RTC.h ****     #define RTC_1000_YEAR_OFFSET  (12u)
 244:Generated_Source\PSoC4/RTC.h ****     #define RTC_100_YEAR_OFFSET   (8u)
 245:Generated_Source\PSoC4/RTC.h ****     #define RTC_10_YEAR_OFFSET    (4u)
 246:Generated_Source\PSoC4/RTC.h ****     #define RTC_YEAR_OFFSET       (0u)
 247:Generated_Source\PSoC4/RTC.h **** #elif(RTC_INITIAL_DATA_FORMAT == RTC__DD_MM_YYYY)
 248:Generated_Source\PSoC4/RTC.h ****     #define RTC_10_MONTH_OFFSET   (20u)
 249:Generated_Source\PSoC4/RTC.h ****     #define RTC_MONTH_OFFSET      (16u)
 250:Generated_Source\PSoC4/RTC.h ****     #define RTC_10_DAY_OFFSET     (28u)
 251:Generated_Source\PSoC4/RTC.h ****     #define RTC_DAY_OFFSET        (24u)
 252:Generated_Source\PSoC4/RTC.h ****     #define RTC_1000_YEAR_OFFSET  (12u)
 253:Generated_Source\PSoC4/RTC.h ****     #define RTC_100_YEAR_OFFSET   (8u)
 254:Generated_Source\PSoC4/RTC.h ****     #define RTC_10_YEAR_OFFSET    (4u)
 255:Generated_Source\PSoC4/RTC.h ****     #define RTC_YEAR_OFFSET       (0u)
 256:Generated_Source\PSoC4/RTC.h **** #else
 257:Generated_Source\PSoC4/RTC.h ****     #define RTC_10_MONTH_OFFSET   (12u)
 258:Generated_Source\PSoC4/RTC.h ****     #define RTC_MONTH_OFFSET      (8u)
 259:Generated_Source\PSoC4/RTC.h ****     #define RTC_10_DAY_OFFSET     (4u)
 260:Generated_Source\PSoC4/RTC.h ****     #define RTC_DAY_OFFSET        (0u)
ARM GAS  C:\Users\Jerry\AppData\Local\Temp\cc7m5IHi.s 			page 6


 261:Generated_Source\PSoC4/RTC.h ****     #define RTC_1000_YEAR_OFFSET  (28u)
 262:Generated_Source\PSoC4/RTC.h ****     #define RTC_100_YEAR_OFFSET   (24u)
 263:Generated_Source\PSoC4/RTC.h ****     #define RTC_10_YEAR_OFFSET    (20u)
 264:Generated_Source\PSoC4/RTC.h ****     #define RTC_YEAR_OFFSET       (16u)
 265:Generated_Source\PSoC4/RTC.h **** #endif /* (RTC_INITIAL_DATA_FORMAT == RTC__MM_DD_YYYY) */
 266:Generated_Source\PSoC4/RTC.h **** 
 267:Generated_Source\PSoC4/RTC.h **** #define RTC_10_MONTH_MASK          (0x00000001uL << RTC_10_MONTH_OFFSET)
 268:Generated_Source\PSoC4/RTC.h **** #define RTC_MONTH_MASK             (0x0000000FuL << RTC_MONTH_OFFSET)
 269:Generated_Source\PSoC4/RTC.h **** #define RTC_10_DAY_MASK            (0x00000003uL << RTC_10_DAY_OFFSET)
 270:Generated_Source\PSoC4/RTC.h **** #define RTC_DAY_MASK               (0x0000000FuL << RTC_DAY_OFFSET)
 271:Generated_Source\PSoC4/RTC.h **** #define RTC_1000_YEAR_MASK         (0x00000003uL << RTC_1000_YEAR_OFFSET)
 272:Generated_Source\PSoC4/RTC.h **** #define RTC_100_YEAR_MASK          (0x0000000FuL << RTC_100_YEAR_OFFSET)
 273:Generated_Source\PSoC4/RTC.h **** #define RTC_10_YEAR_MASK           (0x0000000FuL << RTC_10_YEAR_OFFSET)
 274:Generated_Source\PSoC4/RTC.h **** #define RTC_YEAR_MASK              (0x0000000FuL << RTC_YEAR_OFFSET)
 275:Generated_Source\PSoC4/RTC.h **** 
 276:Generated_Source\PSoC4/RTC.h **** #define  RTC_MONTH_FULL_MASK       (RTC_10_MONTH_MASK  | RTC_MONTH_MASK)
 277:Generated_Source\PSoC4/RTC.h **** #define  RTC_DAY_FULL_MASK         (RTC_10_DAY_MASK    | RTC_DAY_MASK)
 278:Generated_Source\PSoC4/RTC.h **** #define  RTC_YEAR_FULL_MASK        (RTC_1000_YEAR_MASK | RTC_100_YEAR_MASK |\
 279:Generated_Source\PSoC4/RTC.h ****                                                  RTC_10_YEAR_MASK   | RTC_YEAR_MASK)
 280:Generated_Source\PSoC4/RTC.h **** 
 281:Generated_Source\PSoC4/RTC.h **** 
 282:Generated_Source\PSoC4/RTC.h **** /* Definition of time register fields */
 283:Generated_Source\PSoC4/RTC.h **** #define RTC_TIME_FORMAT_OFFSET     (23u)
 284:Generated_Source\PSoC4/RTC.h **** #define RTC_PERIOD_OF_DAY_OFFSET   (22u)
 285:Generated_Source\PSoC4/RTC.h **** #define RTC_10_HOURS_OFFSET        (20u)
 286:Generated_Source\PSoC4/RTC.h **** #define RTC_HOURS_OFFSET           (16u)
 287:Generated_Source\PSoC4/RTC.h **** #define RTC_10_MINUTES_OFFSET      (12u)
 288:Generated_Source\PSoC4/RTC.h **** #define RTC_MINUTES_OFFSET         (8u)
 289:Generated_Source\PSoC4/RTC.h **** #define RTC_10_SECONDS_OFFSET      (4u)
 290:Generated_Source\PSoC4/RTC.h **** #define RTC_SECONDS_OFFSET         (0u)
 291:Generated_Source\PSoC4/RTC.h **** 
 292:Generated_Source\PSoC4/RTC.h **** #define RTC_TIME_FORMAT_MASK       (0x00000001uL << RTC_TIME_FORMAT_OFFSET)
 293:Generated_Source\PSoC4/RTC.h **** #define RTC_PERIOD_OF_DAY_MASK     (0x00000001uL << RTC_PERIOD_OF_DAY_OFFSET)
 294:Generated_Source\PSoC4/RTC.h **** #define RTC_10_HOURS_MASK          (0x00000003uL << RTC_10_HOURS_OFFSET)
 295:Generated_Source\PSoC4/RTC.h **** #define RTC_HOURS_MASK             (0x0000000FuL << RTC_HOURS_OFFSET)
 296:Generated_Source\PSoC4/RTC.h **** #define RTC_10_MINUTES_MASK        (0x00000007uL << RTC_10_MINUTES_OFFSET)
 297:Generated_Source\PSoC4/RTC.h **** #define RTC_MINUTES_MASK           (0x0000000FuL << RTC_MINUTES_OFFSET)
 298:Generated_Source\PSoC4/RTC.h **** #define RTC_10_SECONDS_MASK        (0x00000007uL << RTC_10_SECONDS_OFFSET)
 299:Generated_Source\PSoC4/RTC.h **** #define RTC_SECONDS_MASK           (0x0000000FuL << RTC_SECONDS_OFFSET)
 300:Generated_Source\PSoC4/RTC.h **** 
 301:Generated_Source\PSoC4/RTC.h **** #define RTC_HOURS_FULL_MASK        (RTC_10_HOURS_MASK   | RTC_HOURS_MASK)
 302:Generated_Source\PSoC4/RTC.h **** #define RTC_MINUTES_FULL_MASK      (RTC_10_MINUTES_MASK | RTC_MINUTES_MASK)
 303:Generated_Source\PSoC4/RTC.h **** #define RTC_SECONDS_FULL_MASK      (RTC_10_SECONDS_MASK | RTC_SECONDS_MASK)
 304:Generated_Source\PSoC4/RTC.h **** 
 305:Generated_Source\PSoC4/RTC.h **** #define RTC_ALARM_SEC_MASK         (0x00000001uL)
 306:Generated_Source\PSoC4/RTC.h **** #define RTC_ALARM_MIN_MASK         (0x00000002uL)
 307:Generated_Source\PSoC4/RTC.h **** #define RTC_ALARM_HOUR_MASK        (0x00000004uL)
 308:Generated_Source\PSoC4/RTC.h **** #define RTC_ALARM_DAYOFWEEK_MASK   (0x00000008uL)
 309:Generated_Source\PSoC4/RTC.h **** #define RTC_ALARM_DAYOFMONTH_MASK  (0x00000010uL)
 310:Generated_Source\PSoC4/RTC.h **** #define RTC_ALARM_MONTH_MASK       (0x00000020uL)
 311:Generated_Source\PSoC4/RTC.h **** #define RTC_ALARM_YEAR_MASK        (0x00000040uL)
 312:Generated_Source\PSoC4/RTC.h **** 
 313:Generated_Source\PSoC4/RTC.h **** #define RTC_STATUS_DST_OFFSET      (1u)
 314:Generated_Source\PSoC4/RTC.h **** #define RTC_STATUS_ALARM_OFFSET    (2u)
 315:Generated_Source\PSoC4/RTC.h **** #define RTC_STATUS_LY_OFFSET       (3u)
 316:Generated_Source\PSoC4/RTC.h **** #define RTC_STATUS_AM_PM_OFFSET    (4u)
 317:Generated_Source\PSoC4/RTC.h **** 
ARM GAS  C:\Users\Jerry\AppData\Local\Temp\cc7m5IHi.s 			page 7


 318:Generated_Source\PSoC4/RTC.h **** /* Definition of the RTC status values. */
 319:Generated_Source\PSoC4/RTC.h **** #define RTC_STATUS_DST             (1uL << RTC_STATUS_DST_OFFSET)
 320:Generated_Source\PSoC4/RTC.h **** #define RTC_STATUS_LY              (1uL << RTC_STATUS_LY_OFFSET)
 321:Generated_Source\PSoC4/RTC.h **** #define RTC_STATUS_AM_PM           (1uL << RTC_STATUS_AM_PM_OFFSET)
 322:Generated_Source\PSoC4/RTC.h **** 
 323:Generated_Source\PSoC4/RTC.h **** /* Number of bits per one BCD digit. */
 324:Generated_Source\PSoC4/RTC.h **** #define RTC_BCD_NUMBER_SIZE        (4u)
 325:Generated_Source\PSoC4/RTC.h **** #define RTC_BCD_ONE_DIGIT_MASK     (0x0000000FuL)
 326:Generated_Source\PSoC4/RTC.h **** 
 327:Generated_Source\PSoC4/RTC.h **** /*******************************************************************************
 328:Generated_Source\PSoC4/RTC.h **** *    Function Prototypes
 329:Generated_Source\PSoC4/RTC.h **** *******************************************************************************/
 330:Generated_Source\PSoC4/RTC.h **** /**
 331:Generated_Source\PSoC4/RTC.h **** * \addtogroup group_api
 332:Generated_Source\PSoC4/RTC.h **** * @{
 333:Generated_Source\PSoC4/RTC.h **** */
 334:Generated_Source\PSoC4/RTC.h **** void   RTC_Start(void);
 335:Generated_Source\PSoC4/RTC.h **** void   RTC_Stop(void);
 336:Generated_Source\PSoC4/RTC.h **** void   RTC_Init(void);
 337:Generated_Source\PSoC4/RTC.h **** void   RTC_SetUnixTime(uint64 unixTime);
 338:Generated_Source\PSoC4/RTC.h **** uint64 RTC_GetUnixTime(void);
 339:Generated_Source\PSoC4/RTC.h **** void   RTC_SetPeriod(uint32 ticks, uint32 refOneSecTicks);
 340:Generated_Source\PSoC4/RTC.h **** uint32 RTC_GetPeriod(void);
 341:Generated_Source\PSoC4/RTC.h **** uint32 RTC_GetRefOneSec(void);
 342:Generated_Source\PSoC4/RTC.h **** void   RTC_SetDateAndTime(uint32 inputTime, uint32 inputDate);
 343:Generated_Source\PSoC4/RTC.h **** void   RTC_GetDateAndTime(RTC_DATE_TIME* dateTime);
 344:Generated_Source\PSoC4/RTC.h **** uint32 RTC_GetTime(void);
 345:Generated_Source\PSoC4/RTC.h **** uint32 RTC_GetDate(void);
 346:Generated_Source\PSoC4/RTC.h **** void   RTC_SetAlarmDateAndTime(const RTC_DATE_TIME* alarmTime);
 347:Generated_Source\PSoC4/RTC.h **** void   RTC_GetAlarmDateAndTime(RTC_DATE_TIME* alarmTimeDate);
 348:Generated_Source\PSoC4/RTC.h **** void   RTC_SetAlarmMask(uint32 mask);
 349:Generated_Source\PSoC4/RTC.h **** uint32 RTC_GetAlarmMask(void);
 350:Generated_Source\PSoC4/RTC.h **** uint32 RTC_ReadStatus(void);
 351:Generated_Source\PSoC4/RTC.h **** uint32 RTC_GetAlarmStatus(void);
 352:Generated_Source\PSoC4/RTC.h **** void   RTC_ClearAlarmStatus(void);
 353:Generated_Source\PSoC4/RTC.h **** void   RTC_SetDSTStartTime(const RTC_DST_TIME* dstStartTime,
 354:Generated_Source\PSoC4/RTC.h ****                                               RTC_DST_DATETYPE_ENUM type);
 355:Generated_Source\PSoC4/RTC.h **** void   RTC_SetDSTStopTime(const RTC_DST_TIME* dstStopTime,
 356:Generated_Source\PSoC4/RTC.h ****                                              RTC_DST_DATETYPE_ENUM type);
 357:Generated_Source\PSoC4/RTC.h **** uint32 RTC_ConvertBCDToDec(uint32 bcdNum);
 358:Generated_Source\PSoC4/RTC.h **** uint32 RTC_ConvertDecToBCD(uint32 decNum);
 359:Generated_Source\PSoC4/RTC.h **** void   RTC_Update(void);
 360:Generated_Source\PSoC4/RTC.h **** void*  RTC_SetAlarmHandler(void (*CallbackFunction)(void));
 361:Generated_Source\PSoC4/RTC.h **** 
 362:Generated_Source\PSoC4/RTC.h **** static uint32 RTC_ConstructDate(uint32 month, uint32 day, uint32 year);
 363:Generated_Source\PSoC4/RTC.h **** static uint32 RTC_ConstructTime(uint32 timeFormat, uint32 stateAmPm, uint32 hour, uint32 min, uint3
 364:Generated_Source\PSoC4/RTC.h **** /** @} api */
 365:Generated_Source\PSoC4/RTC.h **** 
 366:Generated_Source\PSoC4/RTC.h **** static uint32 RTC_GetTimeFormat(uint32 inputTime);
 367:Generated_Source\PSoC4/RTC.h **** static uint32 RTC_SetTimeFormat(uint32 inputTime, uint32 timeFormat);
 368:Generated_Source\PSoC4/RTC.h **** 
 369:Generated_Source\PSoC4/RTC.h **** /**
 370:Generated_Source\PSoC4/RTC.h **** * \addtogroup group_api
 371:Generated_Source\PSoC4/RTC.h **** * @{
 372:Generated_Source\PSoC4/RTC.h **** */
 373:Generated_Source\PSoC4/RTC.h **** static uint32 RTC_LeapYear(uint32 year);
 374:Generated_Source\PSoC4/RTC.h **** static uint32 RTC_IsBitSet(uint32 var, uint32 mask);
ARM GAS  C:\Users\Jerry\AppData\Local\Temp\cc7m5IHi.s 			page 8


 375:Generated_Source\PSoC4/RTC.h **** static uint32 RTC_GetSecond(uint32 inputTime);
 376:Generated_Source\PSoC4/RTC.h **** static uint32 RTC_GetMinutes(uint32 inputTime);
 377:Generated_Source\PSoC4/RTC.h **** static uint32 RTC_GetHours(uint32 inputTime);
 378:Generated_Source\PSoC4/RTC.h **** static uint32 RTC_GetAmPm(uint32 inputTime);
 379:Generated_Source\PSoC4/RTC.h **** static uint32 RTC_GetDay(uint32 date);
 380:Generated_Source\PSoC4/RTC.h **** static uint32 RTC_GetMonth(uint32 date);
 381:Generated_Source\PSoC4/RTC.h **** static uint32 RTC_GetYear(uint32 date);
 382:Generated_Source\PSoC4/RTC.h **** /** @} api */
 383:Generated_Source\PSoC4/RTC.h **** 
 384:Generated_Source\PSoC4/RTC.h **** static uint32 RTC_SetSecond(uint32 inputTime, uint32 inputSecond);
 385:Generated_Source\PSoC4/RTC.h **** static uint32 RTC_SetMinutes(uint32 inputTime, uint32 inputMinute);
 386:Generated_Source\PSoC4/RTC.h **** static uint32 RTC_SetHours(uint32 inputTime, uint32 inputHours);
 387:Generated_Source\PSoC4/RTC.h **** static uint32 RTC_SetAmPm(uint32 inputTime, uint32 periodOfDay);
 388:Generated_Source\PSoC4/RTC.h **** static uint32 RTC_SetDay(uint32 inputDate, uint32 inputDay);
 389:Generated_Source\PSoC4/RTC.h **** static uint32 RTC_SetMonth(uint32 inputDate, uint32 inputMonth);
 390:Generated_Source\PSoC4/RTC.h **** static uint32 RTC_SetYear(uint32 inputDate, uint32 inputYear);
 391:Generated_Source\PSoC4/RTC.h **** 
 392:Generated_Source\PSoC4/RTC.h **** uint64 RTC_ConstructUnixAlarmTime(const RTC_DATE_TIME* alarmTime, uint8 alarmCfgMask);
 393:Generated_Source\PSoC4/RTC.h **** uint64 RTC_GetDstUnixTime(const RTC_DST_TIME* dstTime);
 394:Generated_Source\PSoC4/RTC.h **** uint64 RTC_GetNexAlarmTime(uint64 curUnixTime, uint8 alarmCfgMask);
 395:Generated_Source\PSoC4/RTC.h **** 
 396:Generated_Source\PSoC4/RTC.h **** static uint32 RTC_GetNextMinSec(uint32 curVal);
 397:Generated_Source\PSoC4/RTC.h **** static uint32 RTC_GetNextHour(uint32 curVal);
 398:Generated_Source\PSoC4/RTC.h **** static uint32 RTC_GetNextDay(uint32 curYear, uint32 curMonth, uint32 curDay, uint32 alarmCfgMask);
 399:Generated_Source\PSoC4/RTC.h **** static uint32 RTC_GetNextMonth(uint32 curMonth);
 400:Generated_Source\PSoC4/RTC.h **** static uint32 RTC_GetNextYear(uint32 curYear);
 401:Generated_Source\PSoC4/RTC.h **** static uint32 RTC_GetDayOfWeek(uint32 day, uint32 month, uint32 year);
 402:Generated_Source\PSoC4/RTC.h **** 
 403:Generated_Source\PSoC4/RTC.h **** uint32 RTC_DaysInMonth(uint32 month, uint32 year);
 404:Generated_Source\PSoC4/RTC.h **** uint32 RTC_DaysBeforeMonth(uint32 month, uint32 year);
 405:Generated_Source\PSoC4/RTC.h **** 
 406:Generated_Source\PSoC4/RTC.h **** /**
 407:Generated_Source\PSoC4/RTC.h **** * \addtogroup group_api
 408:Generated_Source\PSoC4/RTC.h **** * @{
 409:Generated_Source\PSoC4/RTC.h **** */
 410:Generated_Source\PSoC4/RTC.h **** void   RTC_UnixToDateTime(RTC_DATE_TIME* dateTime, uint64 unixTime, uint32 timeFormat);
 411:Generated_Source\PSoC4/RTC.h **** uint64 RTC_DateTimeToUnix(uint32 inputDate, uint32 inputTime);
 412:Generated_Source\PSoC4/RTC.h **** /** @} api */
 413:Generated_Source\PSoC4/RTC.h **** 
 414:Generated_Source\PSoC4/RTC.h **** uint32 RTC_RelativeToFixed(uint32 dayOfWeek, uint32 weekOfMonth, uint32 month, uint32 year);
 415:Generated_Source\PSoC4/RTC.h **** 
 416:Generated_Source\PSoC4/RTC.h **** 
 417:Generated_Source\PSoC4/RTC.h **** #if defined(CYDEV_RTC_SOURCE_WDT)
 418:Generated_Source\PSoC4/RTC.h ****     #if((0u != CYDEV_WDT_GENERATE_ISR) && (0u == RTC_INITIAL_UPDATE_MODE))
 419:Generated_Source\PSoC4/RTC.h ****         static void RTC_CySysRtcSetCallback(uint32 wdtNumber);
 420:Generated_Source\PSoC4/RTC.h ****         static void RTC_CySysRtcResetCallback(uint32 wdtNumber);
 421:Generated_Source\PSoC4/RTC.h ****     #endif /* ((0u != CYDEV_WDT_GENERATE_ISR) && (0u == RTC_INITIAL_UPDATE_MODE)) */
 422:Generated_Source\PSoC4/RTC.h **** #endif /* (CYDEV_RTC_SOURCE_WDT) */
 423:Generated_Source\PSoC4/RTC.h **** 
 424:Generated_Source\PSoC4/RTC.h **** /*******************************************************************************
 425:Generated_Source\PSoC4/RTC.h **** * Function Name: RTC_IsBitSet
 426:Generated_Source\PSoC4/RTC.h **** ****************************************************************************//**
 427:Generated_Source\PSoC4/RTC.h **** *
 428:Generated_Source\PSoC4/RTC.h **** * \brief
 429:Generated_Source\PSoC4/RTC.h **** *  Checks the state of a bit passed through parameter.
 430:Generated_Source\PSoC4/RTC.h **** *
 431:Generated_Source\PSoC4/RTC.h **** * \param
ARM GAS  C:\Users\Jerry\AppData\Local\Temp\cc7m5IHi.s 			page 9


 432:Generated_Source\PSoC4/RTC.h **** *  var The variable to be checked.
 433:Generated_Source\PSoC4/RTC.h **** * \param
 434:Generated_Source\PSoC4/RTC.h **** *  mask The mask for a bit to be checked.
 435:Generated_Source\PSoC4/RTC.h **** *
 436:Generated_Source\PSoC4/RTC.h **** * \return
 437:Generated_Source\PSoC4/RTC.h **** *  0u - Bit is not set.
 438:Generated_Source\PSoC4/RTC.h **** * \return
 439:Generated_Source\PSoC4/RTC.h **** *  1u - Bit is set.
 440:Generated_Source\PSoC4/RTC.h **** *
 441:Generated_Source\PSoC4/RTC.h **** *******************************************************************************/
 442:Generated_Source\PSoC4/RTC.h **** static CY_INLINE uint32 RTC_IsBitSet(uint32 var, uint32 mask)
 443:Generated_Source\PSoC4/RTC.h **** {
 444:Generated_Source\PSoC4/RTC.h ****     return ((mask == (var & mask)) ? 1Lu : 0Lu);
 445:Generated_Source\PSoC4/RTC.h **** }
 446:Generated_Source\PSoC4/RTC.h **** 
 447:Generated_Source\PSoC4/RTC.h **** 
 448:Generated_Source\PSoC4/RTC.h **** /*******************************************************************************
 449:Generated_Source\PSoC4/RTC.h **** * Function Name: RTC_LeapYear
 450:Generated_Source\PSoC4/RTC.h **** ****************************************************************************//**
 451:Generated_Source\PSoC4/RTC.h **** *
 452:Generated_Source\PSoC4/RTC.h **** * \brief
 453:Generated_Source\PSoC4/RTC.h **** * Checks whether the year passed through the parameter is
 454:Generated_Source\PSoC4/RTC.h **** * leap or no.
 455:Generated_Source\PSoC4/RTC.h **** *
 456:Generated_Source\PSoC4/RTC.h **** * \param
 457:Generated_Source\PSoC4/RTC.h **** *  year The year to be checked.
 458:Generated_Source\PSoC4/RTC.h **** *
 459:Generated_Source\PSoC4/RTC.h **** *
 460:Generated_Source\PSoC4/RTC.h **** * \return
 461:Generated_Source\PSoC4/RTC.h **** *  0u - The year is not leap.
 462:Generated_Source\PSoC4/RTC.h **** * \return
 463:Generated_Source\PSoC4/RTC.h **** *  1u - The year is leap.
 464:Generated_Source\PSoC4/RTC.h **** *
 465:Generated_Source\PSoC4/RTC.h **** *******************************************************************************/
 466:Generated_Source\PSoC4/RTC.h **** static CY_INLINE uint32 RTC_LeapYear(uint32 year)
 467:Generated_Source\PSoC4/RTC.h **** {
  26              		.loc 1 467 0
  27              		.cfi_startproc
  28              	.LVL0:
  29 0000 10B5     		push	{r4, lr}
  30              		.cfi_def_cfa_offset 8
  31              		.cfi_offset 4, -8
  32              		.cfi_offset 14, -4
  33              		.loc 1 467 0
  34 0002 041C     		mov	r4, r0
 468:Generated_Source\PSoC4/RTC.h ****     uint32 retVal;
 469:Generated_Source\PSoC4/RTC.h **** 
 470:Generated_Source\PSoC4/RTC.h ****     if(((0u == (year % 4Lu)) && (0u != (year % 100Lu))) || (0u == (year % 400Lu)))
  35              		.loc 1 470 0
  36 0004 8307     		lsl	r3, r0, #30
  37 0006 05D1     		bne	.L2
  38              		.loc 1 470 0 is_stmt 0 discriminator 1
  39 0008 6421     		mov	r1, #100
  40 000a FFF7FEFF 		bl	__aeabi_uidivmod
  41              	.LVL1:
 471:Generated_Source\PSoC4/RTC.h ****     {
 472:Generated_Source\PSoC4/RTC.h ****         retVal = 1uL;
ARM GAS  C:\Users\Jerry\AppData\Local\Temp\cc7m5IHi.s 			page 10


  42              		.loc 1 472 0 is_stmt 1 discriminator 1
  43 000e 0120     		mov	r0, #1
 470:Generated_Source\PSoC4/RTC.h ****     {
  44              		.loc 1 470 0 discriminator 1
  45 0010 0029     		cmp	r1, #0
  46 0012 06D1     		bne	.L3
  47              	.L2:
 470:Generated_Source\PSoC4/RTC.h ****     {
  48              		.loc 1 470 0 is_stmt 0 discriminator 3
  49 0014 C821     		mov	r1, #200
  50 0016 201C     		mov	r0, r4
  51 0018 4900     		lsl	r1, r1, #1
  52 001a FFF7FEFF 		bl	__aeabi_uidivmod
  53              	.LVL2:
  54              		.loc 1 472 0 is_stmt 1 discriminator 3
  55 001e 4842     		neg	r0, r1
  56 0020 4841     		adc	r0, r0, r1
  57              	.L3:
  58              	.LVL3:
 473:Generated_Source\PSoC4/RTC.h ****     }
 474:Generated_Source\PSoC4/RTC.h ****     else
 475:Generated_Source\PSoC4/RTC.h ****     {
 476:Generated_Source\PSoC4/RTC.h ****         retVal = 0uL;
 477:Generated_Source\PSoC4/RTC.h ****     }
 478:Generated_Source\PSoC4/RTC.h **** 
 479:Generated_Source\PSoC4/RTC.h ****     return(retVal);
 480:Generated_Source\PSoC4/RTC.h **** }
  59              		.loc 1 480 0
  60              		@ sp needed
  61              	.LVL4:
  62 0022 10BD     		pop	{r4, pc}
  63              		.cfi_endproc
  64              	.LFE2:
  65              		.size	RTC_LeapYear, .-RTC_LeapYear
  66              		.section	.text.RTC_GetYear,"ax",%progbits
  67              		.align	1
  68              		.code	16
  69              		.thumb_func
  70              		.type	RTC_GetYear, %function
  71              	RTC_GetYear:
  72              	.LFB9:
 481:Generated_Source\PSoC4/RTC.h **** 
 482:Generated_Source\PSoC4/RTC.h **** 
 483:Generated_Source\PSoC4/RTC.h **** /*******************************************************************************
 484:Generated_Source\PSoC4/RTC.h **** * Function Name: RTC_GetSecond
 485:Generated_Source\PSoC4/RTC.h **** ****************************************************************************//**
 486:Generated_Source\PSoC4/RTC.h **** *
 487:Generated_Source\PSoC4/RTC.h **** * \brief
 488:Generated_Source\PSoC4/RTC.h **** *  Returns the seconds value from the time value that is passed as a/the parameter.
 489:Generated_Source\PSoC4/RTC.h **** *
 490:Generated_Source\PSoC4/RTC.h **** * \param
 491:Generated_Source\PSoC4/RTC.h **** *  time The time value.
 492:Generated_Source\PSoC4/RTC.h **** *
 493:Generated_Source\PSoC4/RTC.h **** * \return
 494:Generated_Source\PSoC4/RTC.h **** *  The seconds value.
 495:Generated_Source\PSoC4/RTC.h **** *
 496:Generated_Source\PSoC4/RTC.h **** *******************************************************************************/
ARM GAS  C:\Users\Jerry\AppData\Local\Temp\cc7m5IHi.s 			page 11


 497:Generated_Source\PSoC4/RTC.h **** static CY_INLINE uint32 RTC_GetSecond(uint32 inputTime)
 498:Generated_Source\PSoC4/RTC.h **** {
 499:Generated_Source\PSoC4/RTC.h ****     uint32 retVal;
 500:Generated_Source\PSoC4/RTC.h **** 
 501:Generated_Source\PSoC4/RTC.h ****     retVal  = ((inputTime & RTC_10_SECONDS_MASK) >> RTC_10_SECONDS_OFFSET) * 10u;
 502:Generated_Source\PSoC4/RTC.h ****     retVal += (inputTime & RTC_SECONDS_MASK) >> RTC_SECONDS_OFFSET;
 503:Generated_Source\PSoC4/RTC.h **** 
 504:Generated_Source\PSoC4/RTC.h ****     return (retVal);
 505:Generated_Source\PSoC4/RTC.h **** }
 506:Generated_Source\PSoC4/RTC.h **** 
 507:Generated_Source\PSoC4/RTC.h **** 
 508:Generated_Source\PSoC4/RTC.h **** /*******************************************************************************
 509:Generated_Source\PSoC4/RTC.h **** * Function Name: RTC_GetMinutes
 510:Generated_Source\PSoC4/RTC.h **** ****************************************************************************//**
 511:Generated_Source\PSoC4/RTC.h **** *
 512:Generated_Source\PSoC4/RTC.h **** * \brief
 513:Generated_Source\PSoC4/RTC.h **** *  Returns the minutes value from the time value that is passed as a/the 
 514:Generated_Source\PSoC4/RTC.h **** * parameter.
 515:Generated_Source\PSoC4/RTC.h **** *
 516:Generated_Source\PSoC4/RTC.h **** * \param
 517:Generated_Source\PSoC4/RTC.h **** *  time The time value.
 518:Generated_Source\PSoC4/RTC.h **** *
 519:Generated_Source\PSoC4/RTC.h **** * \return
 520:Generated_Source\PSoC4/RTC.h **** *  The minutes value.
 521:Generated_Source\PSoC4/RTC.h **** *
 522:Generated_Source\PSoC4/RTC.h **** *******************************************************************************/
 523:Generated_Source\PSoC4/RTC.h **** static CY_INLINE uint32 RTC_GetMinutes(uint32 inputTime)
 524:Generated_Source\PSoC4/RTC.h **** {
 525:Generated_Source\PSoC4/RTC.h ****     uint32 retVal;
 526:Generated_Source\PSoC4/RTC.h **** 
 527:Generated_Source\PSoC4/RTC.h ****     retVal  = ((inputTime & RTC_10_MINUTES_MASK) >> RTC_10_MINUTES_OFFSET) * 10u;
 528:Generated_Source\PSoC4/RTC.h ****     retVal += (inputTime & RTC_MINUTES_MASK) >> RTC_MINUTES_OFFSET;
 529:Generated_Source\PSoC4/RTC.h **** 
 530:Generated_Source\PSoC4/RTC.h ****     return (retVal);
 531:Generated_Source\PSoC4/RTC.h **** }
 532:Generated_Source\PSoC4/RTC.h **** 
 533:Generated_Source\PSoC4/RTC.h **** 
 534:Generated_Source\PSoC4/RTC.h **** /*******************************************************************************
 535:Generated_Source\PSoC4/RTC.h **** * Function Name: RTC_GetHours
 536:Generated_Source\PSoC4/RTC.h **** ****************************************************************************//**
 537:Generated_Source\PSoC4/RTC.h **** *
 538:Generated_Source\PSoC4/RTC.h **** * \brief
 539:Generated_Source\PSoC4/RTC.h **** *  Returns the hours value from the time value that is passed as a/the parameter.
 540:Generated_Source\PSoC4/RTC.h **** *
 541:Generated_Source\PSoC4/RTC.h **** * \param
 542:Generated_Source\PSoC4/RTC.h **** *  time The time value.
 543:Generated_Source\PSoC4/RTC.h **** *
 544:Generated_Source\PSoC4/RTC.h **** * \return
 545:Generated_Source\PSoC4/RTC.h **** *  The hours value.
 546:Generated_Source\PSoC4/RTC.h **** *
 547:Generated_Source\PSoC4/RTC.h **** *******************************************************************************/
 548:Generated_Source\PSoC4/RTC.h **** static CY_INLINE uint32 RTC_GetHours(uint32 inputTime)
 549:Generated_Source\PSoC4/RTC.h **** {
 550:Generated_Source\PSoC4/RTC.h ****     uint32 retVal;
 551:Generated_Source\PSoC4/RTC.h **** 
 552:Generated_Source\PSoC4/RTC.h ****     retVal  = ((inputTime & RTC_10_HOURS_MASK) >> RTC_10_HOURS_OFFSET) * 10u;
 553:Generated_Source\PSoC4/RTC.h ****     retVal += (inputTime & RTC_HOURS_MASK) >> RTC_HOURS_OFFSET;
ARM GAS  C:\Users\Jerry\AppData\Local\Temp\cc7m5IHi.s 			page 12


 554:Generated_Source\PSoC4/RTC.h **** 
 555:Generated_Source\PSoC4/RTC.h ****     return (retVal);
 556:Generated_Source\PSoC4/RTC.h **** }
 557:Generated_Source\PSoC4/RTC.h **** 
 558:Generated_Source\PSoC4/RTC.h **** 
 559:Generated_Source\PSoC4/RTC.h **** /*******************************************************************************
 560:Generated_Source\PSoC4/RTC.h **** * Function Name: RTC_GetAmPm
 561:Generated_Source\PSoC4/RTC.h **** ****************************************************************************//**
 562:Generated_Source\PSoC4/RTC.h **** *
 563:Generated_Source\PSoC4/RTC.h **** * \brief
 564:Generated_Source\PSoC4/RTC.h **** *  Returns the AM/PM status from the time value that is passed as parameter.
 565:Generated_Source\PSoC4/RTC.h **** *
 566:Generated_Source\PSoC4/RTC.h **** * \param
 567:Generated_Source\PSoC4/RTC.h **** *  time The time value.
 568:Generated_Source\PSoC4/RTC.h **** *
 569:Generated_Source\PSoC4/RTC.h **** * \return
 570:Generated_Source\PSoC4/RTC.h **** *  RTC_AM - AM.
 571:Generated_Source\PSoC4/RTC.h **** * \return
 572:Generated_Source\PSoC4/RTC.h **** *  RTC_PM - PM.
 573:Generated_Source\PSoC4/RTC.h **** *
 574:Generated_Source\PSoC4/RTC.h **** *******************************************************************************/
 575:Generated_Source\PSoC4/RTC.h **** static CY_INLINE uint32 RTC_GetAmPm(uint32 inputTime)
 576:Generated_Source\PSoC4/RTC.h **** {
 577:Generated_Source\PSoC4/RTC.h ****     return (RTC_IsBitSet(inputTime, RTC_PERIOD_OF_DAY_MASK));
 578:Generated_Source\PSoC4/RTC.h **** }
 579:Generated_Source\PSoC4/RTC.h **** 
 580:Generated_Source\PSoC4/RTC.h **** 
 581:Generated_Source\PSoC4/RTC.h **** /*******************************************************************************
 582:Generated_Source\PSoC4/RTC.h **** * Function Name: RTC_GetDay
 583:Generated_Source\PSoC4/RTC.h **** ****************************************************************************//**
 584:Generated_Source\PSoC4/RTC.h **** *
 585:Generated_Source\PSoC4/RTC.h **** * \brief
 586:Generated_Source\PSoC4/RTC.h **** *  Returns the day value from the date value that is passed as parameter.
 587:Generated_Source\PSoC4/RTC.h **** *
 588:Generated_Source\PSoC4/RTC.h **** * \param
 589:Generated_Source\PSoC4/RTC.h **** *  date The date value.
 590:Generated_Source\PSoC4/RTC.h **** *
 591:Generated_Source\PSoC4/RTC.h **** * \return
 592:Generated_Source\PSoC4/RTC.h **** *  The day value.
 593:Generated_Source\PSoC4/RTC.h **** *
 594:Generated_Source\PSoC4/RTC.h **** *******************************************************************************/
 595:Generated_Source\PSoC4/RTC.h **** static CY_INLINE uint32 RTC_GetDay(uint32 date)
 596:Generated_Source\PSoC4/RTC.h **** {
 597:Generated_Source\PSoC4/RTC.h ****     uint32 retVal;
 598:Generated_Source\PSoC4/RTC.h **** 
 599:Generated_Source\PSoC4/RTC.h ****     retVal  = ((date & RTC_10_DAY_MASK) >> RTC_10_DAY_OFFSET) * 10u;
 600:Generated_Source\PSoC4/RTC.h ****     retVal += (date & RTC_DAY_MASK) >> RTC_DAY_OFFSET;
 601:Generated_Source\PSoC4/RTC.h **** 
 602:Generated_Source\PSoC4/RTC.h ****     return (retVal);
 603:Generated_Source\PSoC4/RTC.h **** }
 604:Generated_Source\PSoC4/RTC.h **** 
 605:Generated_Source\PSoC4/RTC.h **** 
 606:Generated_Source\PSoC4/RTC.h **** /*******************************************************************************
 607:Generated_Source\PSoC4/RTC.h **** * Function Name: RTC_GetMonth
 608:Generated_Source\PSoC4/RTC.h **** ****************************************************************************//**
 609:Generated_Source\PSoC4/RTC.h **** *
 610:Generated_Source\PSoC4/RTC.h **** * \brief
ARM GAS  C:\Users\Jerry\AppData\Local\Temp\cc7m5IHi.s 			page 13


 611:Generated_Source\PSoC4/RTC.h **** *  Returns the month value from the date value that is passed as parameter.
 612:Generated_Source\PSoC4/RTC.h **** *
 613:Generated_Source\PSoC4/RTC.h **** * \param
 614:Generated_Source\PSoC4/RTC.h **** *  date The date value.
 615:Generated_Source\PSoC4/RTC.h **** *
 616:Generated_Source\PSoC4/RTC.h **** * \return
 617:Generated_Source\PSoC4/RTC.h **** *  The month value.
 618:Generated_Source\PSoC4/RTC.h **** *
 619:Generated_Source\PSoC4/RTC.h **** *******************************************************************************/
 620:Generated_Source\PSoC4/RTC.h **** static CY_INLINE uint32 RTC_GetMonth(uint32 date)
 621:Generated_Source\PSoC4/RTC.h **** {
 622:Generated_Source\PSoC4/RTC.h ****     uint32 retVal;
 623:Generated_Source\PSoC4/RTC.h **** 
 624:Generated_Source\PSoC4/RTC.h ****     retVal  = ((date & RTC_10_MONTH_MASK) >> RTC_10_MONTH_OFFSET) * 10u;
 625:Generated_Source\PSoC4/RTC.h ****     retVal += (date & RTC_MONTH_MASK) >> RTC_MONTH_OFFSET;
 626:Generated_Source\PSoC4/RTC.h **** 
 627:Generated_Source\PSoC4/RTC.h ****     return (retVal);
 628:Generated_Source\PSoC4/RTC.h **** }
 629:Generated_Source\PSoC4/RTC.h **** 
 630:Generated_Source\PSoC4/RTC.h **** 
 631:Generated_Source\PSoC4/RTC.h **** /*******************************************************************************
 632:Generated_Source\PSoC4/RTC.h **** * Function Name: RTC_GetYear
 633:Generated_Source\PSoC4/RTC.h **** ****************************************************************************//**
 634:Generated_Source\PSoC4/RTC.h **** *
 635:Generated_Source\PSoC4/RTC.h **** * \brief
 636:Generated_Source\PSoC4/RTC.h **** *  Returns the year value from the date value that is passed as parameter.
 637:Generated_Source\PSoC4/RTC.h **** *
 638:Generated_Source\PSoC4/RTC.h **** * \param
 639:Generated_Source\PSoC4/RTC.h **** *  date The date value.
 640:Generated_Source\PSoC4/RTC.h **** *
 641:Generated_Source\PSoC4/RTC.h **** * \return
 642:Generated_Source\PSoC4/RTC.h **** *  The year value.
 643:Generated_Source\PSoC4/RTC.h **** *
 644:Generated_Source\PSoC4/RTC.h **** *******************************************************************************/
 645:Generated_Source\PSoC4/RTC.h **** static CY_INLINE uint32 RTC_GetYear(uint32 date)
 646:Generated_Source\PSoC4/RTC.h **** {
  73              		.loc 1 646 0
  74              		.cfi_startproc
  75              	.LVL5:
 647:Generated_Source\PSoC4/RTC.h ****     uint32 retVal;
 648:Generated_Source\PSoC4/RTC.h **** 
 649:Generated_Source\PSoC4/RTC.h ****     retVal  = ((date & RTC_1000_YEAR_MASK) >> RTC_1000_YEAR_OFFSET) * 1000u;
  76              		.loc 1 649 0
  77 0000 FA21     		mov	r1, #250
  78 0002 8304     		lsl	r3, r0, #18
  79 0004 9B0F     		lsr	r3, r3, #30
  80 0006 8900     		lsl	r1, r1, #2
  81 0008 5943     		mul	r1, r3
 646:Generated_Source\PSoC4/RTC.h ****     uint32 retVal;
  82              		.loc 1 646 0
  83 000a 10B5     		push	{r4, lr}
  84              		.cfi_def_cfa_offset 8
  85              		.cfi_offset 4, -8
  86              		.cfi_offset 14, -4
  87              		.loc 1 649 0
  88 000c 0C1C     		mov	r4, r1
  89              	.LVL6:
ARM GAS  C:\Users\Jerry\AppData\Local\Temp\cc7m5IHi.s 			page 14


 650:Generated_Source\PSoC4/RTC.h ****     retVal += ((date & RTC_100_YEAR_MASK) >> RTC_100_YEAR_OFFSET) * 100u;
  90              		.loc 1 650 0
  91 000e 6421     		mov	r1, #100
  92              	.LVL7:
 651:Generated_Source\PSoC4/RTC.h ****     retVal += ((date & RTC_10_YEAR_MASK) >> RTC_10_YEAR_OFFSET) * 10u;
 652:Generated_Source\PSoC4/RTC.h ****     retVal += (date & RTC_YEAR_MASK) >> RTC_YEAR_OFFSET;
  93              		.loc 1 652 0
  94 0010 0F22     		mov	r2, #15
 650:Generated_Source\PSoC4/RTC.h ****     retVal += ((date & RTC_100_YEAR_MASK) >> RTC_100_YEAR_OFFSET) * 100u;
  95              		.loc 1 650 0
  96 0012 0305     		lsl	r3, r0, #20
  97 0014 1B0F     		lsr	r3, r3, #28
  98 0016 4B43     		mul	r3, r1
  99              		.loc 1 652 0
 100 0018 0240     		and	r2, r0
 650:Generated_Source\PSoC4/RTC.h ****     retVal += ((date & RTC_100_YEAR_MASK) >> RTC_100_YEAR_OFFSET) * 100u;
 101              		.loc 1 650 0
 102 001a E318     		add	r3, r4, r3
 103 001c 9A18     		add	r2, r3, r2
 104              	.LVL8:
 651:Generated_Source\PSoC4/RTC.h ****     retVal += ((date & RTC_10_YEAR_MASK) >> RTC_10_YEAR_OFFSET) * 10u;
 105              		.loc 1 651 0
 106 001e 0A23     		mov	r3, #10
 107 0020 0006     		lsl	r0, r0, #24
 108              	.LVL9:
 109 0022 000F     		lsr	r0, r0, #28
 110 0024 5843     		mul	r0, r3
 653:Generated_Source\PSoC4/RTC.h **** 
 654:Generated_Source\PSoC4/RTC.h ****     return (retVal);
 655:Generated_Source\PSoC4/RTC.h **** }
 111              		.loc 1 655 0
 112              		@ sp needed
 652:Generated_Source\PSoC4/RTC.h **** 
 113              		.loc 1 652 0
 114 0026 1018     		add	r0, r2, r0
 115              		.loc 1 655 0
 116 0028 10BD     		pop	{r4, pc}
 117              		.cfi_endproc
 118              	.LFE9:
 119              		.size	RTC_GetYear, .-RTC_GetYear
 120              		.global	__aeabi_uidiv
 121              		.section	.text.RTC_ConstructDate,"ax",%progbits
 122              		.align	1
 123              		.code	16
 124              		.thumb_func
 125              		.type	RTC_ConstructDate, %function
 126              	RTC_ConstructDate:
 127              	.LFB25:
 656:Generated_Source\PSoC4/RTC.h **** 
 657:Generated_Source\PSoC4/RTC.h **** 
 658:Generated_Source\PSoC4/RTC.h **** /*******************************************************************************
 659:Generated_Source\PSoC4/RTC.h **** * Function Name: RTC_SetSecond
 660:Generated_Source\PSoC4/RTC.h **** ****************************************************************************//**
 661:Generated_Source\PSoC4/RTC.h **** *\internal
 662:Generated_Source\PSoC4/RTC.h **** * \brief
 663:Generated_Source\PSoC4/RTC.h **** *  Updates the time with the new second value.
 664:Generated_Source\PSoC4/RTC.h **** *
ARM GAS  C:\Users\Jerry\AppData\Local\Temp\cc7m5IHi.s 			page 15


 665:Generated_Source\PSoC4/RTC.h **** * \param
 666:Generated_Source\PSoC4/RTC.h **** * time The current date.
 667:Generated_Source\PSoC4/RTC.h **** * \param
 668:Generated_Source\PSoC4/RTC.h **** * second The seconds value to be set to the time variable.
 669:Generated_Source\PSoC4/RTC.h **** *
 670:Generated_Source\PSoC4/RTC.h **** * \return
 671:Generated_Source\PSoC4/RTC.h **** *  The updated time variable.
 672:Generated_Source\PSoC4/RTC.h **** *\endinternal
 673:Generated_Source\PSoC4/RTC.h **** *******************************************************************************/
 674:Generated_Source\PSoC4/RTC.h **** static CY_INLINE uint32 RTC_SetSecond(uint32 inputTime, uint32 inputSecond)
 675:Generated_Source\PSoC4/RTC.h **** {
 676:Generated_Source\PSoC4/RTC.h ****     inputTime &= ~(RTC_SECONDS_FULL_MASK);
 677:Generated_Source\PSoC4/RTC.h **** 
 678:Generated_Source\PSoC4/RTC.h ****     inputTime |= (inputSecond / 10u) << RTC_10_SECONDS_OFFSET;
 679:Generated_Source\PSoC4/RTC.h ****     inputTime |= (inputSecond % 10u) << RTC_SECONDS_OFFSET;
 680:Generated_Source\PSoC4/RTC.h **** 
 681:Generated_Source\PSoC4/RTC.h ****     return(inputTime);
 682:Generated_Source\PSoC4/RTC.h **** }
 683:Generated_Source\PSoC4/RTC.h **** 
 684:Generated_Source\PSoC4/RTC.h **** 
 685:Generated_Source\PSoC4/RTC.h **** /*******************************************************************************
 686:Generated_Source\PSoC4/RTC.h **** * Function Name: RTC_SetMinutes
 687:Generated_Source\PSoC4/RTC.h **** ****************************************************************************//**
 688:Generated_Source\PSoC4/RTC.h **** *\internal
 689:Generated_Source\PSoC4/RTC.h **** * \brief
 690:Generated_Source\PSoC4/RTC.h **** *  Updates the time with the new minute value.
 691:Generated_Source\PSoC4/RTC.h **** *
 692:Generated_Source\PSoC4/RTC.h **** * \param
 693:Generated_Source\PSoC4/RTC.h **** *  time The current date.
 694:Generated_Source\PSoC4/RTC.h **** * \param
 695:Generated_Source\PSoC4/RTC.h **** *  minutes The minutes value to be set to the time variable.
 696:Generated_Source\PSoC4/RTC.h **** *
 697:Generated_Source\PSoC4/RTC.h **** * \return
 698:Generated_Source\PSoC4/RTC.h **** *  The updated time variable.
 699:Generated_Source\PSoC4/RTC.h **** * \endinternal
 700:Generated_Source\PSoC4/RTC.h **** *******************************************************************************/
 701:Generated_Source\PSoC4/RTC.h **** static CY_INLINE uint32 RTC_SetMinutes(uint32 inputTime, uint32 inputMinute)
 702:Generated_Source\PSoC4/RTC.h **** {
 703:Generated_Source\PSoC4/RTC.h ****     inputTime &= ~(RTC_MINUTES_FULL_MASK);
 704:Generated_Source\PSoC4/RTC.h **** 
 705:Generated_Source\PSoC4/RTC.h ****     inputTime |= (inputMinute / 10u) << RTC_10_MINUTES_OFFSET;
 706:Generated_Source\PSoC4/RTC.h ****     inputTime |= (inputMinute % 10u) << RTC_MINUTES_OFFSET;
 707:Generated_Source\PSoC4/RTC.h **** 
 708:Generated_Source\PSoC4/RTC.h ****     return(inputTime);
 709:Generated_Source\PSoC4/RTC.h **** }
 710:Generated_Source\PSoC4/RTC.h **** 
 711:Generated_Source\PSoC4/RTC.h **** 
 712:Generated_Source\PSoC4/RTC.h **** /*******************************************************************************
 713:Generated_Source\PSoC4/RTC.h **** * Function Name: RTC_SetHours
 714:Generated_Source\PSoC4/RTC.h **** ****************************************************************************//**
 715:Generated_Source\PSoC4/RTC.h **** *\internal
 716:Generated_Source\PSoC4/RTC.h **** * \brief
 717:Generated_Source\PSoC4/RTC.h **** *  Updates the time with the new hour value.
 718:Generated_Source\PSoC4/RTC.h **** *
 719:Generated_Source\PSoC4/RTC.h **** * \param
 720:Generated_Source\PSoC4/RTC.h **** * time The current date.
 721:Generated_Source\PSoC4/RTC.h **** * \param
ARM GAS  C:\Users\Jerry\AppData\Local\Temp\cc7m5IHi.s 			page 16


 722:Generated_Source\PSoC4/RTC.h **** * hours The hours value to be set to the time variable.
 723:Generated_Source\PSoC4/RTC.h **** *
 724:Generated_Source\PSoC4/RTC.h **** * \return
 725:Generated_Source\PSoC4/RTC.h **** *  The updated time variable.
 726:Generated_Source\PSoC4/RTC.h **** *\endinternal
 727:Generated_Source\PSoC4/RTC.h **** *******************************************************************************/
 728:Generated_Source\PSoC4/RTC.h **** static CY_INLINE uint32 RTC_SetHours(uint32 inputTime, uint32 inputHours)
 729:Generated_Source\PSoC4/RTC.h **** {
 730:Generated_Source\PSoC4/RTC.h ****     inputTime &= ~(RTC_HOURS_FULL_MASK);
 731:Generated_Source\PSoC4/RTC.h **** 
 732:Generated_Source\PSoC4/RTC.h ****     inputTime |= (inputHours / 10u) << RTC_10_HOURS_OFFSET;
 733:Generated_Source\PSoC4/RTC.h ****     inputTime |= (inputHours % 10u) << RTC_HOURS_OFFSET;
 734:Generated_Source\PSoC4/RTC.h **** 
 735:Generated_Source\PSoC4/RTC.h ****     return(inputTime);
 736:Generated_Source\PSoC4/RTC.h **** }
 737:Generated_Source\PSoC4/RTC.h **** 
 738:Generated_Source\PSoC4/RTC.h **** 
 739:Generated_Source\PSoC4/RTC.h **** /*******************************************************************************
 740:Generated_Source\PSoC4/RTC.h **** * Function Name: RTC_SetAmPm
 741:Generated_Source\PSoC4/RTC.h **** ****************************************************************************//**
 742:Generated_Source\PSoC4/RTC.h **** *\internal
 743:Generated_Source\PSoC4/RTC.h **** * \brief
 744:Generated_Source\PSoC4/RTC.h **** *  Updates the time variable with the AmPm status.
 745:Generated_Source\PSoC4/RTC.h **** *
 746:Generated_Source\PSoC4/RTC.h **** * \param
 747:Generated_Source\PSoC4/RTC.h **** * time The current date.
 748:Generated_Source\PSoC4/RTC.h **** * \param
 749:Generated_Source\PSoC4/RTC.h **** * periodOfDay The AmPm status to be set to the time variable.
 750:Generated_Source\PSoC4/RTC.h **** *
 751:Generated_Source\PSoC4/RTC.h **** * \return
 752:Generated_Source\PSoC4/RTC.h **** *  The updated time variable.
 753:Generated_Source\PSoC4/RTC.h **** * \endinternal
 754:Generated_Source\PSoC4/RTC.h **** *******************************************************************************/
 755:Generated_Source\PSoC4/RTC.h **** static CY_INLINE uint32 RTC_SetAmPm(uint32 inputTime, uint32 periodOfDay)
 756:Generated_Source\PSoC4/RTC.h **** {
 757:Generated_Source\PSoC4/RTC.h ****     if(0u != periodOfDay)
 758:Generated_Source\PSoC4/RTC.h ****     {
 759:Generated_Source\PSoC4/RTC.h ****         inputTime &= ~(RTC_PERIOD_OF_DAY_MASK);
 760:Generated_Source\PSoC4/RTC.h ****     }
 761:Generated_Source\PSoC4/RTC.h ****     else
 762:Generated_Source\PSoC4/RTC.h ****     {
 763:Generated_Source\PSoC4/RTC.h ****         inputTime |= RTC_PERIOD_OF_DAY_MASK;
 764:Generated_Source\PSoC4/RTC.h ****     }
 765:Generated_Source\PSoC4/RTC.h **** 
 766:Generated_Source\PSoC4/RTC.h ****     return(inputTime);
 767:Generated_Source\PSoC4/RTC.h **** }
 768:Generated_Source\PSoC4/RTC.h **** 
 769:Generated_Source\PSoC4/RTC.h **** 
 770:Generated_Source\PSoC4/RTC.h **** /*******************************************************************************
 771:Generated_Source\PSoC4/RTC.h **** * Function Name: RTC_SetDay
 772:Generated_Source\PSoC4/RTC.h **** ****************************************************************************//**
 773:Generated_Source\PSoC4/RTC.h **** *\internal
 774:Generated_Source\PSoC4/RTC.h **** * \brief
 775:Generated_Source\PSoC4/RTC.h **** *  Updates the date variable with the new day value.
 776:Generated_Source\PSoC4/RTC.h **** *
 777:Generated_Source\PSoC4/RTC.h **** * \param
 778:Generated_Source\PSoC4/RTC.h **** * date The current date.
ARM GAS  C:\Users\Jerry\AppData\Local\Temp\cc7m5IHi.s 			page 17


 779:Generated_Source\PSoC4/RTC.h **** * \param
 780:Generated_Source\PSoC4/RTC.h **** * day The month to be set to the date variable.
 781:Generated_Source\PSoC4/RTC.h **** *
 782:Generated_Source\PSoC4/RTC.h **** * \return
 783:Generated_Source\PSoC4/RTC.h **** *  The updated date variable.
 784:Generated_Source\PSoC4/RTC.h **** *\endinternal
 785:Generated_Source\PSoC4/RTC.h **** *******************************************************************************/
 786:Generated_Source\PSoC4/RTC.h **** static CY_INLINE uint32 RTC_SetDay(uint32 inputDate, uint32 inputDay)
 787:Generated_Source\PSoC4/RTC.h **** {
 788:Generated_Source\PSoC4/RTC.h ****     inputDate &= ~(RTC_DAY_FULL_MASK);
 789:Generated_Source\PSoC4/RTC.h **** 
 790:Generated_Source\PSoC4/RTC.h ****     inputDate |= (inputDay / 10u) << RTC_10_DAY_OFFSET;
 791:Generated_Source\PSoC4/RTC.h ****     inputDate |= (inputDay % 10u) << RTC_DAY_OFFSET;
 792:Generated_Source\PSoC4/RTC.h **** 
 793:Generated_Source\PSoC4/RTC.h ****     return(inputDate);
 794:Generated_Source\PSoC4/RTC.h **** }
 795:Generated_Source\PSoC4/RTC.h **** 
 796:Generated_Source\PSoC4/RTC.h **** 
 797:Generated_Source\PSoC4/RTC.h **** /*******************************************************************************
 798:Generated_Source\PSoC4/RTC.h **** * Function Name: RTC_SetMonth
 799:Generated_Source\PSoC4/RTC.h **** ****************************************************************************//**
 800:Generated_Source\PSoC4/RTC.h **** *\internal
 801:Generated_Source\PSoC4/RTC.h **** * \brief
 802:Generated_Source\PSoC4/RTC.h **** *  Updates the date variable with the new month value.
 803:Generated_Source\PSoC4/RTC.h **** *
 804:Generated_Source\PSoC4/RTC.h **** * \param
 805:Generated_Source\PSoC4/RTC.h **** * date The current date.
 806:Generated_Source\PSoC4/RTC.h **** * \param
 807:Generated_Source\PSoC4/RTC.h **** * month The month that to be set to the date variable.
 808:Generated_Source\PSoC4/RTC.h **** *
 809:Generated_Source\PSoC4/RTC.h **** * \return
 810:Generated_Source\PSoC4/RTC.h **** *  The updated date variable.
 811:Generated_Source\PSoC4/RTC.h **** *\endinternal
 812:Generated_Source\PSoC4/RTC.h **** *******************************************************************************/
 813:Generated_Source\PSoC4/RTC.h **** static CY_INLINE uint32 RTC_SetMonth(uint32 inputDate, uint32 inputMonth)
 814:Generated_Source\PSoC4/RTC.h **** {
 815:Generated_Source\PSoC4/RTC.h ****     inputDate &= ~(RTC_MONTH_FULL_MASK);
 816:Generated_Source\PSoC4/RTC.h **** 
 817:Generated_Source\PSoC4/RTC.h ****     inputDate |= (inputMonth / 10u) << RTC_10_MONTH_OFFSET;
 818:Generated_Source\PSoC4/RTC.h ****     inputDate |= (inputMonth % 10u) << RTC_MONTH_OFFSET;
 819:Generated_Source\PSoC4/RTC.h **** 
 820:Generated_Source\PSoC4/RTC.h ****     return(inputDate);
 821:Generated_Source\PSoC4/RTC.h **** }
 822:Generated_Source\PSoC4/RTC.h **** 
 823:Generated_Source\PSoC4/RTC.h **** 
 824:Generated_Source\PSoC4/RTC.h **** /*******************************************************************************
 825:Generated_Source\PSoC4/RTC.h **** * Function Name: RTC_SetYear
 826:Generated_Source\PSoC4/RTC.h **** ****************************************************************************//**
 827:Generated_Source\PSoC4/RTC.h **** *\internal
 828:Generated_Source\PSoC4/RTC.h **** * \brief
 829:Generated_Source\PSoC4/RTC.h **** *  Updates the date variable with the new year value.
 830:Generated_Source\PSoC4/RTC.h **** *
 831:Generated_Source\PSoC4/RTC.h **** * \param
 832:Generated_Source\PSoC4/RTC.h **** * date The current date.
 833:Generated_Source\PSoC4/RTC.h **** * \param
 834:Generated_Source\PSoC4/RTC.h **** * year The year to be set to the date variable.
 835:Generated_Source\PSoC4/RTC.h **** *
ARM GAS  C:\Users\Jerry\AppData\Local\Temp\cc7m5IHi.s 			page 18


 836:Generated_Source\PSoC4/RTC.h **** * \return
 837:Generated_Source\PSoC4/RTC.h **** * The updated date variable.
 838:Generated_Source\PSoC4/RTC.h **** *\endinternal
 839:Generated_Source\PSoC4/RTC.h **** *******************************************************************************/
 840:Generated_Source\PSoC4/RTC.h **** static CY_INLINE uint32 RTC_SetYear(uint32 inputDate, uint32 inputYear)
 841:Generated_Source\PSoC4/RTC.h **** {
 842:Generated_Source\PSoC4/RTC.h ****     inputDate  &= ~(RTC_YEAR_FULL_MASK);
 843:Generated_Source\PSoC4/RTC.h **** 
 844:Generated_Source\PSoC4/RTC.h ****     inputDate |= (inputYear / 1000u) << RTC_1000_YEAR_OFFSET;
 845:Generated_Source\PSoC4/RTC.h ****     inputYear %= 1000u;
 846:Generated_Source\PSoC4/RTC.h **** 
 847:Generated_Source\PSoC4/RTC.h ****     inputDate |= (inputYear / 100u) << RTC_100_YEAR_OFFSET;
 848:Generated_Source\PSoC4/RTC.h ****     inputYear %= 100u;
 849:Generated_Source\PSoC4/RTC.h **** 
 850:Generated_Source\PSoC4/RTC.h ****     inputDate |= (inputYear / 10u) << RTC_10_YEAR_OFFSET;
 851:Generated_Source\PSoC4/RTC.h ****     inputDate |= (inputYear % 10u) << RTC_YEAR_OFFSET;
 852:Generated_Source\PSoC4/RTC.h **** 
 853:Generated_Source\PSoC4/RTC.h ****     return(inputDate);
 854:Generated_Source\PSoC4/RTC.h **** }
 855:Generated_Source\PSoC4/RTC.h **** 
 856:Generated_Source\PSoC4/RTC.h **** 
 857:Generated_Source\PSoC4/RTC.h **** /*******************************************************************************
 858:Generated_Source\PSoC4/RTC.h **** * Function Name: RTC_GetNextMinSec
 859:Generated_Source\PSoC4/RTC.h **** ****************************************************************************//**
 860:Generated_Source\PSoC4/RTC.h **** *\internal
 861:Generated_Source\PSoC4/RTC.h **** * \brief
 862:Generated_Source\PSoC4/RTC.h **** * This is an internal function that calculates the value of the next Second/Minute
 863:Generated_Source\PSoC4/RTC.h **** * that follows after the current Minute/Second.
 864:Generated_Source\PSoC4/RTC.h **** *
 865:Generated_Source\PSoC4/RTC.h **** * \param
 866:Generated_Source\PSoC4/RTC.h **** * curVal The current Second/Minute value.
 867:Generated_Source\PSoC4/RTC.h **** *
 868:Generated_Source\PSoC4/RTC.h **** * \return
 869:Generated_Source\PSoC4/RTC.h **** * Returns the Second/Minute which follows after the current Second/Minute.
 870:Generated_Source\PSoC4/RTC.h **** *\endinternal
 871:Generated_Source\PSoC4/RTC.h **** *******************************************************************************/
 872:Generated_Source\PSoC4/RTC.h **** static CY_INLINE uint32 RTC_GetNextMinSec(uint32 curVal)
 873:Generated_Source\PSoC4/RTC.h **** {
 874:Generated_Source\PSoC4/RTC.h ****     return((curVal < 59u) ? (curVal + 1u) : 0u);
 875:Generated_Source\PSoC4/RTC.h **** }
 876:Generated_Source\PSoC4/RTC.h **** 
 877:Generated_Source\PSoC4/RTC.h **** 
 878:Generated_Source\PSoC4/RTC.h **** /*******************************************************************************
 879:Generated_Source\PSoC4/RTC.h **** * Function Name: RTC_GetNextHour
 880:Generated_Source\PSoC4/RTC.h **** ****************************************************************************//**
 881:Generated_Source\PSoC4/RTC.h **** *\internal
 882:Generated_Source\PSoC4/RTC.h **** * \brief
 883:Generated_Source\PSoC4/RTC.h **** *  This is an internal function that calculates the value of the next Hour
 884:Generated_Source\PSoC4/RTC.h **** *  that follows after the current Hour.
 885:Generated_Source\PSoC4/RTC.h **** *
 886:Generated_Source\PSoC4/RTC.h **** * \param
 887:Generated_Source\PSoC4/RTC.h **** * curVal The current Hour value.
 888:Generated_Source\PSoC4/RTC.h **** *
 889:Generated_Source\PSoC4/RTC.h **** * \return
 890:Generated_Source\PSoC4/RTC.h **** *  Returns the Hour which follows after the current Hour.
 891:Generated_Source\PSoC4/RTC.h **** * \endinternal
 892:Generated_Source\PSoC4/RTC.h **** *******************************************************************************/
ARM GAS  C:\Users\Jerry\AppData\Local\Temp\cc7m5IHi.s 			page 19


 893:Generated_Source\PSoC4/RTC.h **** static CY_INLINE uint32 RTC_GetNextHour(uint32 curVal)
 894:Generated_Source\PSoC4/RTC.h **** {
 895:Generated_Source\PSoC4/RTC.h ****     return((curVal < 23u) ? (curVal + 1u) : 0u);
 896:Generated_Source\PSoC4/RTC.h **** }
 897:Generated_Source\PSoC4/RTC.h **** 
 898:Generated_Source\PSoC4/RTC.h **** 
 899:Generated_Source\PSoC4/RTC.h **** /*******************************************************************************
 900:Generated_Source\PSoC4/RTC.h **** * Function Name: RTC_GetNextDay
 901:Generated_Source\PSoC4/RTC.h **** ****************************************************************************//**
 902:Generated_Source\PSoC4/RTC.h **** * \internal
 903:Generated_Source\PSoC4/RTC.h **** * \brief
 904:Generated_Source\PSoC4/RTC.h **** *  This is an internal function that calculates the value of the next Day
 905:Generated_Source\PSoC4/RTC.h **** *  that follows after the current Day.
 906:Generated_Source\PSoC4/RTC.h **** *
 907:Generated_Source\PSoC4/RTC.h **** * \param
 908:Generated_Source\PSoC4/RTC.h **** *  curYear The current year.
 909:Generated_Source\PSoC4/RTC.h **** * \param
 910:Generated_Source\PSoC4/RTC.h **** *  curMonth The current month.
 911:Generated_Source\PSoC4/RTC.h **** * \param
 912:Generated_Source\PSoC4/RTC.h **** *  curDay The current day.
 913:Generated_Source\PSoC4/RTC.h **** * \param
 914:Generated_Source\PSoC4/RTC.h **** *  alarmCfgMask Alarm Config Mask.
 915:Generated_Source\PSoC4/RTC.h **** *
 916:Generated_Source\PSoC4/RTC.h **** * \return
 917:Generated_Source\PSoC4/RTC.h **** *  Returns the day which follows after the current Day.
 918:Generated_Source\PSoC4/RTC.h **** * \endinternal
 919:Generated_Source\PSoC4/RTC.h **** *******************************************************************************/
 920:Generated_Source\PSoC4/RTC.h **** static CY_INLINE uint32 RTC_GetNextDay(uint32 curYear, uint32 curMonth, uint32 curDay, uint32 alarm
 921:Generated_Source\PSoC4/RTC.h **** {
 922:Generated_Source\PSoC4/RTC.h ****     uint32 daysInMonth;
 923:Generated_Source\PSoC4/RTC.h ****     uint32 tmpVal;
 924:Generated_Source\PSoC4/RTC.h **** 
 925:Generated_Source\PSoC4/RTC.h ****     daysInMonth = RTC_DaysInMonth(curMonth, curYear);
 926:Generated_Source\PSoC4/RTC.h **** 
 927:Generated_Source\PSoC4/RTC.h ****     if(0u != (alarmCfgMask & RTC_ALARM_DAYOFWEEK_MASK))
 928:Generated_Source\PSoC4/RTC.h ****     {
 929:Generated_Source\PSoC4/RTC.h ****         tmpVal = curDay + RTC_DAYS_PER_WEEK;
 930:Generated_Source\PSoC4/RTC.h ****         tmpVal = (tmpVal > daysInMonth) ? (tmpVal - daysInMonth) : tmpVal;
 931:Generated_Source\PSoC4/RTC.h ****     }
 932:Generated_Source\PSoC4/RTC.h ****     else
 933:Generated_Source\PSoC4/RTC.h ****     {
 934:Generated_Source\PSoC4/RTC.h ****         tmpVal = (curDay < daysInMonth) ? (curDay + 1u) : 1u;
 935:Generated_Source\PSoC4/RTC.h ****     }
 936:Generated_Source\PSoC4/RTC.h **** 
 937:Generated_Source\PSoC4/RTC.h ****     return(tmpVal);
 938:Generated_Source\PSoC4/RTC.h **** }
 939:Generated_Source\PSoC4/RTC.h **** 
 940:Generated_Source\PSoC4/RTC.h **** 
 941:Generated_Source\PSoC4/RTC.h **** /*******************************************************************************
 942:Generated_Source\PSoC4/RTC.h **** * Function Name: RTC_GetNextMonth
 943:Generated_Source\PSoC4/RTC.h **** ****************************************************************************//**
 944:Generated_Source\PSoC4/RTC.h **** * \internal
 945:Generated_Source\PSoC4/RTC.h **** * \brief
 946:Generated_Source\PSoC4/RTC.h **** *  This is an internal function that calculates the value of the next month
 947:Generated_Source\PSoC4/RTC.h **** *  that follows after the current month.
 948:Generated_Source\PSoC4/RTC.h **** *
 949:Generated_Source\PSoC4/RTC.h **** * \param
ARM GAS  C:\Users\Jerry\AppData\Local\Temp\cc7m5IHi.s 			page 20


 950:Generated_Source\PSoC4/RTC.h **** *  curMonth The current month.
 951:Generated_Source\PSoC4/RTC.h **** *
 952:Generated_Source\PSoC4/RTC.h **** * \return
 953:Generated_Source\PSoC4/RTC.h **** *  Returns the month which follows after the current month.
 954:Generated_Source\PSoC4/RTC.h **** * \endinternal
 955:Generated_Source\PSoC4/RTC.h **** *******************************************************************************/
 956:Generated_Source\PSoC4/RTC.h **** static CY_INLINE uint32 RTC_GetNextMonth(uint32 curMonth)
 957:Generated_Source\PSoC4/RTC.h **** {
 958:Generated_Source\PSoC4/RTC.h ****     return((curMonth < 12u) ? (curMonth + 1u) : 1u);
 959:Generated_Source\PSoC4/RTC.h **** }
 960:Generated_Source\PSoC4/RTC.h **** 
 961:Generated_Source\PSoC4/RTC.h **** 
 962:Generated_Source\PSoC4/RTC.h **** /*******************************************************************************
 963:Generated_Source\PSoC4/RTC.h **** * Function Name: RTC_GetNextYear
 964:Generated_Source\PSoC4/RTC.h **** ****************************************************************************//**
 965:Generated_Source\PSoC4/RTC.h **** * \internal
 966:Generated_Source\PSoC4/RTC.h **** * \brief
 967:Generated_Source\PSoC4/RTC.h **** *  This is an internal function that calculates the value of the next year
 968:Generated_Source\PSoC4/RTC.h **** *  that follows after the current year.
 969:Generated_Source\PSoC4/RTC.h **** *
 970:Generated_Source\PSoC4/RTC.h **** * \param
 971:Generated_Source\PSoC4/RTC.h **** *  curYear The current year.
 972:Generated_Source\PSoC4/RTC.h **** *
 973:Generated_Source\PSoC4/RTC.h **** * \return
 974:Generated_Source\PSoC4/RTC.h **** *  Returns the year which follows after the current year.
 975:Generated_Source\PSoC4/RTC.h **** * \endinternal
 976:Generated_Source\PSoC4/RTC.h **** *******************************************************************************/
 977:Generated_Source\PSoC4/RTC.h **** static CY_INLINE uint32 RTC_GetNextYear(uint32 curYear)
 978:Generated_Source\PSoC4/RTC.h **** {
 979:Generated_Source\PSoC4/RTC.h ****     return(curYear + 1u);
 980:Generated_Source\PSoC4/RTC.h **** }
 981:Generated_Source\PSoC4/RTC.h **** 
 982:Generated_Source\PSoC4/RTC.h **** 
 983:Generated_Source\PSoC4/RTC.h **** /*******************************************************************************
 984:Generated_Source\PSoC4/RTC.h **** * Function Name: RTC_SetTimeFormat
 985:Generated_Source\PSoC4/RTC.h **** ****************************************************************************//**
 986:Generated_Source\PSoC4/RTC.h **** * \internal
 987:Generated_Source\PSoC4/RTC.h **** * \brief
 988:Generated_Source\PSoC4/RTC.h **** *  Updates the "Time Format" value in the variable that contains time in the
 989:Generated_Source\PSoC4/RTC.h **** *  "HH:MM:SS" format.
 990:Generated_Source\PSoC4/RTC.h **** *
 991:Generated_Source\PSoC4/RTC.h **** * \param
 992:Generated_Source\PSoC4/RTC.h **** *  inputTime The current value of the time in the "HH:MM:SS" format.
 993:Generated_Source\PSoC4/RTC.h **** *
 994:Generated_Source\PSoC4/RTC.h **** * \return
 995:Generated_Source\PSoC4/RTC.h **** *  Returns the updated value of the time in the "HH:MM:SS" format.
 996:Generated_Source\PSoC4/RTC.h **** * \endinternal
 997:Generated_Source\PSoC4/RTC.h **** *******************************************************************************/
 998:Generated_Source\PSoC4/RTC.h **** static CY_INLINE uint32 RTC_SetTimeFormat(uint32 inputTime, uint32 timeFormat)
 999:Generated_Source\PSoC4/RTC.h **** {
1000:Generated_Source\PSoC4/RTC.h ****     inputTime &= ~(RTC_TIME_FORMAT_MASK);
1001:Generated_Source\PSoC4/RTC.h **** 
1002:Generated_Source\PSoC4/RTC.h ****     if((uint32)RTC_12_HOURS_FORMAT != timeFormat)
1003:Generated_Source\PSoC4/RTC.h ****     {
1004:Generated_Source\PSoC4/RTC.h ****         inputTime |= RTC_TIME_FORMAT_MASK;
1005:Generated_Source\PSoC4/RTC.h ****     }
1006:Generated_Source\PSoC4/RTC.h **** 
ARM GAS  C:\Users\Jerry\AppData\Local\Temp\cc7m5IHi.s 			page 21


1007:Generated_Source\PSoC4/RTC.h ****     return(inputTime);
1008:Generated_Source\PSoC4/RTC.h **** }
1009:Generated_Source\PSoC4/RTC.h **** 
1010:Generated_Source\PSoC4/RTC.h **** 
1011:Generated_Source\PSoC4/RTC.h **** /*******************************************************************************
1012:Generated_Source\PSoC4/RTC.h **** * Function Name: RTC_GetTimeFormat
1013:Generated_Source\PSoC4/RTC.h **** ****************************************************************************//**
1014:Generated_Source\PSoC4/RTC.h **** * \internal
1015:Generated_Source\PSoC4/RTC.h **** * \brief
1016:Generated_Source\PSoC4/RTC.h **** *  Reads the time format from the variable that contains time in the
1017:Generated_Source\PSoC4/RTC.h **** *  "HH:MM:SS" format.
1018:Generated_Source\PSoC4/RTC.h **** *
1019:Generated_Source\PSoC4/RTC.h **** * \param
1020:Generated_Source\PSoC4/RTC.h **** *  inputTime The current value of the time in the "HH:MM:SS" format.
1021:Generated_Source\PSoC4/RTC.h **** *
1022:Generated_Source\PSoC4/RTC.h **** * \return
1023:Generated_Source\PSoC4/RTC.h **** *  Returns the time format that is stored in the variable that contains time
1024:Generated_Source\PSoC4/RTC.h **** *  in the "HH:MM:SS" format.
1025:Generated_Source\PSoC4/RTC.h **** * \endinternal
1026:Generated_Source\PSoC4/RTC.h **** *******************************************************************************/
1027:Generated_Source\PSoC4/RTC.h **** static CY_INLINE uint32 RTC_GetTimeFormat(uint32 inputTime)
1028:Generated_Source\PSoC4/RTC.h **** {
1029:Generated_Source\PSoC4/RTC.h ****     return ((0uL != (inputTime & (1uL << RTC_TIME_FORMAT_OFFSET))) ? (uint32)RTC_12_HOURS_FORMAT :
1030:Generated_Source\PSoC4/RTC.h ****                                                                                   (uint32)RTC_24_HO
1031:Generated_Source\PSoC4/RTC.h **** }
1032:Generated_Source\PSoC4/RTC.h **** 
1033:Generated_Source\PSoC4/RTC.h **** 
1034:Generated_Source\PSoC4/RTC.h **** /*******************************************************************************
1035:Generated_Source\PSoC4/RTC.h **** * Function Name: RTC_ConstructTime
1036:Generated_Source\PSoC4/RTC.h **** ****************************************************************************//**
1037:Generated_Source\PSoC4/RTC.h **** *
1038:Generated_Source\PSoC4/RTC.h **** * \brief
1039:Generated_Source\PSoC4/RTC.h **** *  Returns the time in the format used in APIs from individual elements
1040:Generated_Source\PSoC4/RTC.h **** *  passed (hour, min, sec etc)
1041:Generated_Source\PSoC4/RTC.h **** *
1042:Generated_Source\PSoC4/RTC.h **** * \param
1043:Generated_Source\PSoC4/RTC.h **** * timeFormat The 12/24 hours time format <br>
1044:Generated_Source\PSoC4/RTC.h **** * RTC_24_HOURS_FORMAT - The 24 hours format. <br>
1045:Generated_Source\PSoC4/RTC.h **** * RTC_12_HOURS_FORMAT - The 12 hours format.
1046:Generated_Source\PSoC4/RTC.h **** *
1047:Generated_Source\PSoC4/RTC.h **** * \param
1048:Generated_Source\PSoC4/RTC.h **** * stateAmPm  The AM/PM status <br>
1049:Generated_Source\PSoC4/RTC.h **** * RTC_AM - AM. <br>
1050:Generated_Source\PSoC4/RTC.h **** * RTC_PM - PM.
1051:Generated_Source\PSoC4/RTC.h **** *
1052:Generated_Source\PSoC4/RTC.h **** * \param
1053:Generated_Source\PSoC4/RTC.h **** *  hour The hour.
1054:Generated_Source\PSoC4/RTC.h **** *
1055:Generated_Source\PSoC4/RTC.h **** * \param
1056:Generated_Source\PSoC4/RTC.h **** *  min The minute.
1057:Generated_Source\PSoC4/RTC.h **** *
1058:Generated_Source\PSoC4/RTC.h **** * \param
1059:Generated_Source\PSoC4/RTC.h **** *  sec The second.
1060:Generated_Source\PSoC4/RTC.h **** *
1061:Generated_Source\PSoC4/RTC.h **** * \return
1062:Generated_Source\PSoC4/RTC.h **** *  Time in the format used in API.
1063:Generated_Source\PSoC4/RTC.h **** *
ARM GAS  C:\Users\Jerry\AppData\Local\Temp\cc7m5IHi.s 			page 22


1064:Generated_Source\PSoC4/RTC.h **** *******************************************************************************/
1065:Generated_Source\PSoC4/RTC.h **** static CY_INLINE uint32 RTC_ConstructTime(uint32 timeFormat, uint32 stateAmPm, uint32 hour, uint32 
1066:Generated_Source\PSoC4/RTC.h **** {
1067:Generated_Source\PSoC4/RTC.h ****     uint32 retVal;
1068:Generated_Source\PSoC4/RTC.h **** 
1069:Generated_Source\PSoC4/RTC.h ****     retVal  = timeFormat << RTC_TIME_FORMAT_OFFSET;
1070:Generated_Source\PSoC4/RTC.h ****     retVal |= stateAmPm << RTC_PERIOD_OF_DAY_OFFSET;
1071:Generated_Source\PSoC4/RTC.h **** 
1072:Generated_Source\PSoC4/RTC.h ****     retVal |= (hour / 10u) << RTC_10_HOURS_OFFSET;
1073:Generated_Source\PSoC4/RTC.h ****     retVal |= (hour % 10u) << RTC_HOURS_OFFSET;
1074:Generated_Source\PSoC4/RTC.h **** 
1075:Generated_Source\PSoC4/RTC.h ****     retVal |= (min / 10u) << RTC_10_MINUTES_OFFSET;
1076:Generated_Source\PSoC4/RTC.h ****     retVal |= (min % 10u) << RTC_MINUTES_OFFSET;
1077:Generated_Source\PSoC4/RTC.h **** 
1078:Generated_Source\PSoC4/RTC.h ****     retVal |= (sec / 10u) << RTC_10_SECONDS_OFFSET;
1079:Generated_Source\PSoC4/RTC.h ****     retVal |= (sec % 10u) << RTC_SECONDS_OFFSET;
1080:Generated_Source\PSoC4/RTC.h **** 
1081:Generated_Source\PSoC4/RTC.h ****     return (retVal);
1082:Generated_Source\PSoC4/RTC.h **** }
1083:Generated_Source\PSoC4/RTC.h **** 
1084:Generated_Source\PSoC4/RTC.h **** 
1085:Generated_Source\PSoC4/RTC.h **** /*******************************************************************************
1086:Generated_Source\PSoC4/RTC.h **** * Function Name: RTC_ConstructDate
1087:Generated_Source\PSoC4/RTC.h **** ****************************************************************************//**
1088:Generated_Source\PSoC4/RTC.h **** *
1089:Generated_Source\PSoC4/RTC.h **** * \brief
1090:Generated_Source\PSoC4/RTC.h **** *  Returns the date in the format used in APIs from individual elements
1091:Generated_Source\PSoC4/RTC.h **** *  passed (day. Month and year)
1092:Generated_Source\PSoC4/RTC.h **** *
1093:Generated_Source\PSoC4/RTC.h **** * \param
1094:Generated_Source\PSoC4/RTC.h **** *  month The month.
1095:Generated_Source\PSoC4/RTC.h **** *
1096:Generated_Source\PSoC4/RTC.h **** * \param
1097:Generated_Source\PSoC4/RTC.h **** *  day The day.
1098:Generated_Source\PSoC4/RTC.h **** *
1099:Generated_Source\PSoC4/RTC.h **** * \param
1100:Generated_Source\PSoC4/RTC.h **** *  year The year.
1101:Generated_Source\PSoC4/RTC.h **** *
1102:Generated_Source\PSoC4/RTC.h **** * \return
1103:Generated_Source\PSoC4/RTC.h **** *  The date in the format used in API.
1104:Generated_Source\PSoC4/RTC.h **** *
1105:Generated_Source\PSoC4/RTC.h **** *******************************************************************************/
1106:Generated_Source\PSoC4/RTC.h **** static CY_INLINE uint32 RTC_ConstructDate(uint32 month, uint32 day, uint32 year)
1107:Generated_Source\PSoC4/RTC.h **** {
 128              		.loc 1 1107 0
 129              		.cfi_startproc
 130              	.LVL10:
 131 0000 F7B5     		push	{r0, r1, r2, r4, r5, r6, r7, lr}
 132              		.cfi_def_cfa_offset 32
 133              		.cfi_offset 0, -32
 134              		.cfi_offset 1, -28
 135              		.cfi_offset 2, -24
 136              		.cfi_offset 4, -20
 137              		.cfi_offset 5, -16
 138              		.cfi_offset 6, -12
 139              		.cfi_offset 7, -8
 140              		.cfi_offset 14, -4
ARM GAS  C:\Users\Jerry\AppData\Local\Temp\cc7m5IHi.s 			page 23


 141              		.loc 1 1107 0
 142 0002 0F1C     		mov	r7, r1
1108:Generated_Source\PSoC4/RTC.h ****     uint32 retVal;
1109:Generated_Source\PSoC4/RTC.h ****     uint32 tmpVal = year;
1110:Generated_Source\PSoC4/RTC.h **** 
1111:Generated_Source\PSoC4/RTC.h ****     retVal  = (month / 10u) << RTC_10_MONTH_OFFSET;
1112:Generated_Source\PSoC4/RTC.h ****     retVal |= (month % 10u) << RTC_MONTH_OFFSET;
1113:Generated_Source\PSoC4/RTC.h **** 
1114:Generated_Source\PSoC4/RTC.h ****     retVal |= (day / 10u) << RTC_10_DAY_OFFSET;
1115:Generated_Source\PSoC4/RTC.h ****     retVal |= (day % 10u) << RTC_DAY_OFFSET;
1116:Generated_Source\PSoC4/RTC.h **** 
1117:Generated_Source\PSoC4/RTC.h ****     retVal |= (year / 1000u) << RTC_1000_YEAR_OFFSET;
1118:Generated_Source\PSoC4/RTC.h ****     tmpVal %= 1000u;
 143              		.loc 1 1118 0
 144 0004 FA21     		mov	r1, #250
 145              	.LVL11:
1107:Generated_Source\PSoC4/RTC.h ****     uint32 retVal;
 146              		.loc 1 1107 0
 147 0006 061C     		mov	r6, r0
 148              	.LVL12:
 149              		.loc 1 1118 0
 150 0008 8900     		lsl	r1, r1, #2
 151 000a 101C     		mov	r0, r2
 152              	.LVL13:
1107:Generated_Source\PSoC4/RTC.h ****     uint32 retVal;
 153              		.loc 1 1107 0
 154 000c 151C     		mov	r5, r2
 155              		.loc 1 1118 0
 156 000e FFF7FEFF 		bl	__aeabi_uidivmod
 157              	.LVL14:
 158 0012 0C1C     		mov	r4, r1
 159              	.LVL15:
1119:Generated_Source\PSoC4/RTC.h **** 
1120:Generated_Source\PSoC4/RTC.h ****     retVal |= (tmpVal / 100u) << RTC_100_YEAR_OFFSET;
1121:Generated_Source\PSoC4/RTC.h ****     tmpVal %= 100u;
 160              		.loc 1 1121 0
 161 0014 081C     		mov	r0, r1
 162 0016 6421     		mov	r1, #100
 163              	.LVL16:
 164 0018 FFF7FEFF 		bl	__aeabi_uidivmod
 165              	.LVL17:
1115:Generated_Source\PSoC4/RTC.h **** 
 166              		.loc 1 1115 0
 167 001c 381C     		mov	r0, r7
 168              		.loc 1 1121 0
 169 001e 0091     		str	r1, [sp]
 170              	.LVL18:
1115:Generated_Source\PSoC4/RTC.h **** 
 171              		.loc 1 1115 0
 172 0020 0A21     		mov	r1, #10
 173              	.LVL19:
 174 0022 FFF7FEFF 		bl	__aeabi_uidivmod
 175              	.LVL20:
1114:Generated_Source\PSoC4/RTC.h ****     retVal |= (day % 10u) << RTC_DAY_OFFSET;
 176              		.loc 1 1114 0
 177 0026 381C     		mov	r0, r7
1115:Generated_Source\PSoC4/RTC.h **** 
ARM GAS  C:\Users\Jerry\AppData\Local\Temp\cc7m5IHi.s 			page 24


 178              		.loc 1 1115 0
 179 0028 0B04     		lsl	r3, r1, #16
1114:Generated_Source\PSoC4/RTC.h ****     retVal |= (day % 10u) << RTC_DAY_OFFSET;
 180              		.loc 1 1114 0
 181 002a 0A21     		mov	r1, #10
1115:Generated_Source\PSoC4/RTC.h **** 
 182              		.loc 1 1115 0
 183 002c 0193     		str	r3, [sp, #4]
1114:Generated_Source\PSoC4/RTC.h ****     retVal |= (day % 10u) << RTC_DAY_OFFSET;
 184              		.loc 1 1114 0
 185 002e FFF7FEFF 		bl	__aeabi_uidiv
 186              	.LVL21:
 187 0032 019B     		ldr	r3, [sp, #4]
 188 0034 0705     		lsl	r7, r0, #20
 189              	.LVL22:
1111:Generated_Source\PSoC4/RTC.h ****     retVal |= (month % 10u) << RTC_MONTH_OFFSET;
 190              		.loc 1 1111 0
 191 0036 0A21     		mov	r1, #10
 192 0038 301C     		mov	r0, r6
 193 003a 1F43     		orr	r7, r3
 194 003c FFF7FEFF 		bl	__aeabi_uidiv
 195              	.LVL23:
 196 0040 0007     		lsl	r0, r0, #28
 197 0042 0743     		orr	r7, r0
1112:Generated_Source\PSoC4/RTC.h **** 
 198              		.loc 1 1112 0
 199 0044 0A21     		mov	r1, #10
 200 0046 301C     		mov	r0, r6
 201 0048 FFF7FEFF 		bl	__aeabi_uidivmod
 202              	.LVL24:
 203 004c 0906     		lsl	r1, r1, #24
 204 004e 0F43     		orr	r7, r1
1117:Generated_Source\PSoC4/RTC.h ****     tmpVal %= 1000u;
 205              		.loc 1 1117 0
 206 0050 FA21     		mov	r1, #250
 207 0052 281C     		mov	r0, r5
 208 0054 8900     		lsl	r1, r1, #2
 209 0056 FFF7FEFF 		bl	__aeabi_uidiv
 210              	.LVL25:
 211 005a 0003     		lsl	r0, r0, #12
 212 005c 0743     		orr	r7, r0
1120:Generated_Source\PSoC4/RTC.h ****     tmpVal %= 100u;
 213              		.loc 1 1120 0
 214 005e 6421     		mov	r1, #100
 215 0060 201C     		mov	r0, r4
 216 0062 FFF7FEFF 		bl	__aeabi_uidiv
 217              	.LVL26:
 218 0066 0002     		lsl	r0, r0, #8
 219 0068 0743     		orr	r7, r0
1122:Generated_Source\PSoC4/RTC.h **** 
1123:Generated_Source\PSoC4/RTC.h ****     retVal |= (tmpVal / 10u) << RTC_10_YEAR_OFFSET;
1124:Generated_Source\PSoC4/RTC.h ****     retVal |= (tmpVal % 10u) << RTC_YEAR_OFFSET;
 220              		.loc 1 1124 0
 221 006a 0A21     		mov	r1, #10
 222 006c 0098     		ldr	r0, [sp]
 223 006e FFF7FEFF 		bl	__aeabi_uidivmod
 224              	.LVL27:
ARM GAS  C:\Users\Jerry\AppData\Local\Temp\cc7m5IHi.s 			page 25


1123:Generated_Source\PSoC4/RTC.h ****     retVal |= (tmpVal % 10u) << RTC_YEAR_OFFSET;
 225              		.loc 1 1123 0
 226 0072 0098     		ldr	r0, [sp]
 227 0074 0F43     		orr	r7, r1
 228              	.LVL28:
 229 0076 0A21     		mov	r1, #10
 230 0078 FFF7FEFF 		bl	__aeabi_uidiv
 231              	.LVL29:
 232 007c 0001     		lsl	r0, r0, #4
 233              		.loc 1 1124 0
 234 007e 3843     		orr	r0, r7
1125:Generated_Source\PSoC4/RTC.h **** 
1126:Generated_Source\PSoC4/RTC.h ****     return (retVal);
1127:Generated_Source\PSoC4/RTC.h **** }
 235              		.loc 1 1127 0
 236              		@ sp needed
 237              	.LVL30:
 238              	.LVL31:
 239              	.LVL32:
 240 0080 FEBD     		pop	{r1, r2, r3, r4, r5, r6, r7, pc}
 241              		.cfi_endproc
 242              	.LFE25:
 243              		.size	RTC_ConstructDate, .-RTC_ConstructDate
 244              		.section	.text.RTC_GetDayOfWeek,"ax",%progbits
 245              		.align	1
 246              		.code	16
 247              		.thumb_func
 248              		.type	RTC_GetDayOfWeek, %function
 249              	RTC_GetDayOfWeek:
 250              	.LFB26:
1128:Generated_Source\PSoC4/RTC.h **** 
1129:Generated_Source\PSoC4/RTC.h **** 
1130:Generated_Source\PSoC4/RTC.h **** /*******************************************************************************
1131:Generated_Source\PSoC4/RTC.h **** * Function Name: RTC_GetDayOfWeek
1132:Generated_Source\PSoC4/RTC.h **** ****************************************************************************//**
1133:Generated_Source\PSoC4/RTC.h **** * \internal
1134:Generated_Source\PSoC4/RTC.h **** *
1135:Generated_Source\PSoC4/RTC.h **** * \brief
1136:Generated_Source\PSoC4/RTC.h **** *  Returns a day of the week for a year, month, and day of month that are passed
1137:Generated_Source\PSoC4/RTC.h **** *  through parameters. Zeller's congruence is used to calculate the day of
1138:Generated_Source\PSoC4/RTC.h **** *  the week.
1139:Generated_Source\PSoC4/RTC.h **** *
1140:Generated_Source\PSoC4/RTC.h **** *  For the Georgian calendar, Zeller's congruence is:
1141:Generated_Source\PSoC4/RTC.h **** *  h = (q + [13 * (m + 1)] + K + [K/4] + [J/4] - 2J) mod 7
1142:Generated_Source\PSoC4/RTC.h **** *
1143:Generated_Source\PSoC4/RTC.h **** *  h - The day of the week (0 = Saturday, 1 = Sunday, 2 = Monday, ..., 6 = Friday).
1144:Generated_Source\PSoC4/RTC.h **** *  q - The day of the month.
1145:Generated_Source\PSoC4/RTC.h **** *  m - The month (3 = March, 4 = April, 5 = May, ..., 14 = February)
1146:Generated_Source\PSoC4/RTC.h **** *  K - The year of the century (year \mod 100).
1147:Generated_Source\PSoC4/RTC.h **** *  J - The zero-based century (actually [year/100]) For example, the zero-based
1148:Generated_Source\PSoC4/RTC.h **** *  centuries for 1995 and 2000 are 19 and 20 respectively (not to be
1149:Generated_Source\PSoC4/RTC.h **** *  confused with the common ordinal century enumeration which indicates
1150:Generated_Source\PSoC4/RTC.h **** *  20th for both cases).
1151:Generated_Source\PSoC4/RTC.h **** *
1152:Generated_Source\PSoC4/RTC.h **** * \note In this algorithm January and February are counted as months 13 and 14
1153:Generated_Source\PSoC4/RTC.h **** * of the previous year.
1154:Generated_Source\PSoC4/RTC.h **** *
ARM GAS  C:\Users\Jerry\AppData\Local\Temp\cc7m5IHi.s 			page 26


1155:Generated_Source\PSoC4/RTC.h **** * \param
1156:Generated_Source\PSoC4/RTC.h **** *  day The day of the month(1..31)
1157:Generated_Source\PSoC4/RTC.h **** *
1158:Generated_Source\PSoC4/RTC.h **** * \param
1159:Generated_Source\PSoC4/RTC.h **** *  month The month of the year
1160:Generated_Source\PSoC4/RTC.h **** * RTC_JANUARY <br>
1161:Generated_Source\PSoC4/RTC.h **** * RTC_FEBRUARY <br>
1162:Generated_Source\PSoC4/RTC.h **** * RTC_MARCH <br>
1163:Generated_Source\PSoC4/RTC.h **** * RTC_APRIL <br>
1164:Generated_Source\PSoC4/RTC.h **** * RTC_MAY <br>
1165:Generated_Source\PSoC4/RTC.h **** * RTC_JUNE <br>
1166:Generated_Source\PSoC4/RTC.h **** * RTC_JULY <br>
1167:Generated_Source\PSoC4/RTC.h **** * RTC_AUGUST <br>
1168:Generated_Source\PSoC4/RTC.h **** * RTC_SEPTEMBER <br>
1169:Generated_Source\PSoC4/RTC.h **** * RTC_OCTOBER <br>
1170:Generated_Source\PSoC4/RTC.h **** * RTC_NOVEMBER <br>
1171:Generated_Source\PSoC4/RTC.h **** * RTC_DECEMBER <br>
1172:Generated_Source\PSoC4/RTC.h **** *
1173:Generated_Source\PSoC4/RTC.h **** * \param
1174:Generated_Source\PSoC4/RTC.h **** *  year The year value.
1175:Generated_Source\PSoC4/RTC.h **** *
1176:Generated_Source\PSoC4/RTC.h **** * \return
1177:Generated_Source\PSoC4/RTC.h **** * Returns a day of the week
1178:Generated_Source\PSoC4/RTC.h **** * RTC_SUNDAY <br>
1179:Generated_Source\PSoC4/RTC.h **** * RTC_MONDAY <br>
1180:Generated_Source\PSoC4/RTC.h **** * RTC_TUESDAY <br>
1181:Generated_Source\PSoC4/RTC.h **** * RTC_WEDNESDAY <br>
1182:Generated_Source\PSoC4/RTC.h **** * RTC_THURSDAY <br>
1183:Generated_Source\PSoC4/RTC.h **** * RTC_FRIDAY <br>
1184:Generated_Source\PSoC4/RTC.h **** * RTC_SATURDAY <br>
1185:Generated_Source\PSoC4/RTC.h **** *
1186:Generated_Source\PSoC4/RTC.h **** * \endinternal
1187:Generated_Source\PSoC4/RTC.h **** *******************************************************************************/
1188:Generated_Source\PSoC4/RTC.h **** static CY_INLINE uint32 RTC_GetDayOfWeek(uint32 day, uint32 month, uint32 year)
1189:Generated_Source\PSoC4/RTC.h **** {
 251              		.loc 1 1189 0
 252              		.cfi_startproc
 253              	.LVL33:
 254 0000 70B5     		push	{r4, r5, r6, lr}
 255              		.cfi_def_cfa_offset 16
 256              		.cfi_offset 4, -16
 257              		.cfi_offset 5, -12
 258              		.cfi_offset 6, -8
 259              		.cfi_offset 14, -4
 260              		.loc 1 1189 0
 261 0002 0C1C     		mov	r4, r1
 262 0004 151C     		mov	r5, r2
1190:Generated_Source\PSoC4/RTC.h ****     uint32 retVal;
1191:Generated_Source\PSoC4/RTC.h **** 
1192:Generated_Source\PSoC4/RTC.h ****     /* Converts month number from regular convention
1193:Generated_Source\PSoC4/RTC.h ****      * (1=January,..., 12=December) to convention required for this
1194:Generated_Source\PSoC4/RTC.h ****      * algorithm(January and February are counted as months 13 and 14 of
1195:Generated_Source\PSoC4/RTC.h ****      * previous year).
1196:Generated_Source\PSoC4/RTC.h ****     */
1197:Generated_Source\PSoC4/RTC.h ****     if(month < (uint32)RTC_MARCH)
 263              		.loc 1 1197 0
 264 0006 0229     		cmp	r1, #2
ARM GAS  C:\Users\Jerry\AppData\Local\Temp\cc7m5IHi.s 			page 27


 265 0008 01D8     		bhi	.L9
1198:Generated_Source\PSoC4/RTC.h ****     {
1199:Generated_Source\PSoC4/RTC.h ****         month = 12u + month;
 266              		.loc 1 1199 0
 267 000a 0C34     		add	r4, r4, #12
 268              	.LVL34:
1200:Generated_Source\PSoC4/RTC.h ****         year--;
 269              		.loc 1 1200 0
 270 000c 013D     		sub	r5, r5, #1
 271              	.LVL35:
 272              	.L9:
1201:Generated_Source\PSoC4/RTC.h ****     }
1202:Generated_Source\PSoC4/RTC.h **** 
1203:Generated_Source\PSoC4/RTC.h ****     /* Calculates Day of Week using Zeller's congruence algorithms.
1204:Generated_Source\PSoC4/RTC.h ****     */
1205:Generated_Source\PSoC4/RTC.h ****     retVal = (day + (((month + 1u) * 26u) / 10u) + year + (year / 4u) + (6u * (year / 100u)) + (yea
 273              		.loc 1 1205 0
 274 000e C821     		mov	r1, #200
 275 0010 AB08     		lsr	r3, r5, #2
 276 0012 2E18     		add	r6, r5, r0
 277 0014 4900     		lsl	r1, r1, #1
 278 0016 281C     		mov	r0, r5
 279              	.LVL36:
 280 0018 F618     		add	r6, r6, r3
 281 001a FFF7FEFF 		bl	__aeabi_uidiv
 282              	.LVL37:
 283 001e 6421     		mov	r1, #100
 284 0020 3618     		add	r6, r6, r0
 285 0022 281C     		mov	r0, r5
 286 0024 FFF7FEFF 		bl	__aeabi_uidiv
 287              	.LVL38:
 288 0028 0623     		mov	r3, #6
 289 002a 5843     		mul	r0, r3
 290 002c 3518     		add	r5, r6, r0
 291              	.LVL39:
 292 002e 1A20     		mov	r0, #26
 293 0030 0134     		add	r4, r4, #1
 294              	.LVL40:
 295 0032 0A21     		mov	r1, #10
 296 0034 6043     		mul	r0, r4
 297 0036 FFF7FEFF 		bl	__aeabi_uidiv
 298              	.LVL41:
 299 003a 0721     		mov	r1, #7
 300 003c 2818     		add	r0, r5, r0
 301 003e FFF7FEFF 		bl	__aeabi_uidivmod
 302              	.LVL42:
1206:Generated_Source\PSoC4/RTC.h **** 
1207:Generated_Source\PSoC4/RTC.h ****     /* Makes correction for Saturday. Saturday number should be 7 instead of 0. */
1208:Generated_Source\PSoC4/RTC.h ****     if(0u == retVal)
 303              		.loc 1 1208 0
 304 0042 0029     		cmp	r1, #0
 305 0044 00D1     		bne	.L10
1209:Generated_Source\PSoC4/RTC.h ****     {
1210:Generated_Source\PSoC4/RTC.h ****         retVal = (uint32)RTC_SATURDAY;
 306              		.loc 1 1210 0
 307 0046 0731     		add	r1, r1, #7
 308              	.LVL43:
ARM GAS  C:\Users\Jerry\AppData\Local\Temp\cc7m5IHi.s 			page 28


 309              	.L10:
1211:Generated_Source\PSoC4/RTC.h ****     }
1212:Generated_Source\PSoC4/RTC.h **** 
1213:Generated_Source\PSoC4/RTC.h ****     return(retVal);
1214:Generated_Source\PSoC4/RTC.h **** }
 310              		.loc 1 1214 0
 311 0048 081C     		mov	r0, r1
 312              		@ sp needed
 313              	.LVL44:
 314 004a 70BD     		pop	{r4, r5, r6, pc}
 315              		.cfi_endproc
 316              	.LFE26:
 317              		.size	RTC_GetDayOfWeek, .-RTC_GetDayOfWeek
 318              		.section	.text.RTC_Update,"ax",%progbits
 319              		.align	1
 320              		.global	RTC_Update
 321              		.code	16
 322              		.thumb_func
 323              		.type	RTC_Update, %function
 324              	RTC_Update:
 325              	.LFB44:
 326              		.file 2 "Generated_Source\\PSoC4\\RTC.c"
   1:Generated_Source\PSoC4/RTC.c **** /***************************************************************************//**
   2:Generated_Source\PSoC4/RTC.c **** * \file Name: RTC.c
   3:Generated_Source\PSoC4/RTC.c **** * \version 1.10
   4:Generated_Source\PSoC4/RTC.c **** *
   5:Generated_Source\PSoC4/RTC.c **** * \brief
   6:Generated_Source\PSoC4/RTC.c **** *  This file provides the source code to the API for the RTC_P4 Component.
   7:Generated_Source\PSoC4/RTC.c **** *
   8:Generated_Source\PSoC4/RTC.c **** ********************************************************************************
   9:Generated_Source\PSoC4/RTC.c **** * \copyright
  10:Generated_Source\PSoC4/RTC.c **** * Copyright 2015-2016, Cypress Semiconductor Corporation. All rights reserved.
  11:Generated_Source\PSoC4/RTC.c **** * You may use this file only in accordance with the license, terms, conditions,
  12:Generated_Source\PSoC4/RTC.c **** * disclaimers, and limitations in the end user license agreement accompanying
  13:Generated_Source\PSoC4/RTC.c **** * the software package with which this file was provided.
  14:Generated_Source\PSoC4/RTC.c **** *******************************************************************************/
  15:Generated_Source\PSoC4/RTC.c **** 
  16:Generated_Source\PSoC4/RTC.c **** #include "RTC.h"
  17:Generated_Source\PSoC4/RTC.c **** 
  18:Generated_Source\PSoC4/RTC.c **** uint8  RTC_initVar;
  19:Generated_Source\PSoC4/RTC.c **** 
  20:Generated_Source\PSoC4/RTC.c **** volatile uint64 RTC_unixTime;
  21:Generated_Source\PSoC4/RTC.c **** RTC_DATE_TIME RTC_currentTimeDate;
  22:Generated_Source\PSoC4/RTC.c **** 
  23:Generated_Source\PSoC4/RTC.c **** static uint32 RTC_updateTimePeriod;
  24:Generated_Source\PSoC4/RTC.c **** static uint32 RTC_tickRefOneSec;
  25:Generated_Source\PSoC4/RTC.c **** 
  26:Generated_Source\PSoC4/RTC.c **** uint8  RTC_dstStatus;
  27:Generated_Source\PSoC4/RTC.c **** static uint32 RTC_dstTimeOffset;
  28:Generated_Source\PSoC4/RTC.c **** #if(0u != RTC_INITIAL_DST_STATUS)
  29:Generated_Source\PSoC4/RTC.c ****     static volatile uint64 RTC_unixTimeDstStart;
  30:Generated_Source\PSoC4/RTC.c ****     static volatile uint64 RTC_unixTimeDstStop;
  31:Generated_Source\PSoC4/RTC.c ****     RTC_DST_TIME RTC_dstStartTime;
  32:Generated_Source\PSoC4/RTC.c ****     RTC_DST_TIME RTC_dstStopTime;
  33:Generated_Source\PSoC4/RTC.c **** #endif /* (0u != RTC_INITIAL_DST_STATUS) */
  34:Generated_Source\PSoC4/RTC.c **** 
  35:Generated_Source\PSoC4/RTC.c **** uint32 RTC_alarmCurStatus;
ARM GAS  C:\Users\Jerry\AppData\Local\Temp\cc7m5IHi.s 			page 29


  36:Generated_Source\PSoC4/RTC.c **** #if(0u != RTC_INITIAL_ALARM_STATUS)
  37:Generated_Source\PSoC4/RTC.c ****     uint32  RTC_alarmCfgMask = 0xFFu;
  38:Generated_Source\PSoC4/RTC.c ****     static volatile uint64 RTC_unixTimeAlarm;
  39:Generated_Source\PSoC4/RTC.c ****     RTC_DATE_TIME RTC_alarmCfgTimeDate;
  40:Generated_Source\PSoC4/RTC.c ****     void (*RTC_alarmCallbackPtr)(void) = (void *)0;
  41:Generated_Source\PSoC4/RTC.c **** #endif /* (0u != RTC_INITIAL_ALARM_STATUS) */
  42:Generated_Source\PSoC4/RTC.c **** 
  43:Generated_Source\PSoC4/RTC.c **** const uint16 RTC_daysBeforeMonthTbl[RTC_MONTHS_PER_YEAR] = {
  44:Generated_Source\PSoC4/RTC.c ****                                                  (0u), /* JANUARY */
  45:Generated_Source\PSoC4/RTC.c ****                                                  (0u + 31u), /* FEBRUARY */
  46:Generated_Source\PSoC4/RTC.c ****                                                  (0u + 31u + 28u), /* MARCH */
  47:Generated_Source\PSoC4/RTC.c ****                                                  (0u + 31u + 28u + 31u), /* APRIL */
  48:Generated_Source\PSoC4/RTC.c ****                                                  (0u + 31u + 28u + 31u + 30u), /* MAY */
  49:Generated_Source\PSoC4/RTC.c ****                                                  (0u + 31u + 28u + 31u + 30u + 31u), /* JUNE */
  50:Generated_Source\PSoC4/RTC.c ****                                                  (0u + 31u + 28u + 31u + 30u + 31u + 30u), /* JULY 
  51:Generated_Source\PSoC4/RTC.c ****                                                  (0u + 31u + 28u + 31u + 30u + 31u + 30u + 31u), /*
  52:Generated_Source\PSoC4/RTC.c ****                                                  (0u + 31u + 28u + 31u + 30u + 31u + 30u + 31u + 31
  53:Generated_Source\PSoC4/RTC.c ****                                                  (0u + 31u + 28u + 31u + 30u + 31u + 30u + 31u + 31
  54:Generated_Source\PSoC4/RTC.c ****                                                  (0u + 31u + 28u + 31u + 30u + 31u + 30u + 31u + 31
  55:Generated_Source\PSoC4/RTC.c ****                                                  (0u + 31u + 28u + 31u + 30u + 31u + 30u + 31u + 31
  56:Generated_Source\PSoC4/RTC.c **** 
  57:Generated_Source\PSoC4/RTC.c **** const uint8 RTC_daysInMonthTbl[RTC_MONTHS_PER_YEAR] = {RTC_DAYS_IN_JANUARY,
  58:Generated_Source\PSoC4/RTC.c ****                                                                                  RTC_DAYS_IN_FEBRUA
  59:Generated_Source\PSoC4/RTC.c ****                                                                                  RTC_DAYS_IN_MARCH,
  60:Generated_Source\PSoC4/RTC.c ****                                                                                  RTC_DAYS_IN_APRIL,
  61:Generated_Source\PSoC4/RTC.c ****                                                                                  RTC_DAYS_IN_MAY,
  62:Generated_Source\PSoC4/RTC.c ****                                                                                  RTC_DAYS_IN_JUNE,
  63:Generated_Source\PSoC4/RTC.c ****                                                                                  RTC_DAYS_IN_JULY,
  64:Generated_Source\PSoC4/RTC.c ****                                                                                  RTC_DAYS_IN_AUGUST
  65:Generated_Source\PSoC4/RTC.c ****                                                                                  RTC_DAYS_IN_SEPTEM
  66:Generated_Source\PSoC4/RTC.c ****                                                                                  RTC_DAYS_IN_OCTOBE
  67:Generated_Source\PSoC4/RTC.c ****                                                                                  RTC_DAYS_IN_NOVEMB
  68:Generated_Source\PSoC4/RTC.c ****                                                                                  RTC_DAYS_IN_DECEMB
  69:Generated_Source\PSoC4/RTC.c **** 
  70:Generated_Source\PSoC4/RTC.c **** 
  71:Generated_Source\PSoC4/RTC.c **** /*******************************************************************************
  72:Generated_Source\PSoC4/RTC.c **** * Function Name: RTC_Start
  73:Generated_Source\PSoC4/RTC.c **** ****************************************************************************//**
  74:Generated_Source\PSoC4/RTC.c **** *
  75:Generated_Source\PSoC4/RTC.c **** * \brief
  76:Generated_Source\PSoC4/RTC.c **** *  Performs all the required calculations for the time and date registers and
  77:Generated_Source\PSoC4/RTC.c **** *  initializes the component along with the date and time selected in the
  78:Generated_Source\PSoC4/RTC.c **** *  customizer. 
  79:Generated_Source\PSoC4/RTC.c **** *
  80:Generated_Source\PSoC4/RTC.c **** *  If "Implement RTC update manually" is disabled in the customizer
  81:Generated_Source\PSoC4/RTC.c **** *  and if WDT or WCO timer is selected as a source in the clocks configuration 
  82:Generated_Source\PSoC4/RTC.c **** *  window (low frequency clocks tab), attaches RTC_Update API to a corresponding
  83:Generated_Source\PSoC4/RTC.c **** *  WDT's or WCO's ISR callback.
  84:Generated_Source\PSoC4/RTC.c **** *
  85:Generated_Source\PSoC4/RTC.c **** * \note "Implement RTC update manually" checkbox is available for PSoC 4200L / 
  86:Generated_Source\PSoC4/RTC.c **** * PSoC 4100M / PSoC 4200M / PSoC 4100 BLE / PSoC 4200 BLE / PSoC 4000S / PSoC 
  87:Generated_Source\PSoC4/RTC.c **** * 4100S and Analog Coprocessor.
  88:Generated_Source\PSoC4/RTC.c **** *
  89:Generated_Source\PSoC4/RTC.c **** *******************************************************************************/
  90:Generated_Source\PSoC4/RTC.c **** void RTC_Start(void)
  91:Generated_Source\PSoC4/RTC.c **** {
  92:Generated_Source\PSoC4/RTC.c ****     if(0u == RTC_initVar)
ARM GAS  C:\Users\Jerry\AppData\Local\Temp\cc7m5IHi.s 			page 30


  93:Generated_Source\PSoC4/RTC.c ****     {
  94:Generated_Source\PSoC4/RTC.c ****         RTC_Init();
  95:Generated_Source\PSoC4/RTC.c ****     }
  96:Generated_Source\PSoC4/RTC.c **** 
  97:Generated_Source\PSoC4/RTC.c ****     #if defined(CYDEV_RTC_SOURCE_WDT)
  98:Generated_Source\PSoC4/RTC.c ****         #if((0u != CYDEV_WDT_GENERATE_ISR) && (0u == RTC_INITIAL_UPDATE_MODE))
  99:Generated_Source\PSoC4/RTC.c ****             RTC_CySysRtcSetCallback(CYDEV_RTC_SOURCE_WDT);
 100:Generated_Source\PSoC4/RTC.c ****         #endif /* ((0u != CYDEV_WDT_GENERATE_ISR) && (0u == RTC_INITIAL_UPDATE_MODE)) */
 101:Generated_Source\PSoC4/RTC.c ****     #endif /* (CYDEV_RTC_SOURCE_WDT) */
 102:Generated_Source\PSoC4/RTC.c **** }
 103:Generated_Source\PSoC4/RTC.c **** 
 104:Generated_Source\PSoC4/RTC.c **** 
 105:Generated_Source\PSoC4/RTC.c **** /*******************************************************************************
 106:Generated_Source\PSoC4/RTC.c **** * Function Name: RTC_Stop
 107:Generated_Source\PSoC4/RTC.c **** ****************************************************************************//**
 108:Generated_Source\PSoC4/RTC.c **** *
 109:Generated_Source\PSoC4/RTC.c **** * \brief
 110:Generated_Source\PSoC4/RTC.c **** *  Stops the time and date updates.
 111:Generated_Source\PSoC4/RTC.c **** *
 112:Generated_Source\PSoC4/RTC.c **** *******************************************************************************/
 113:Generated_Source\PSoC4/RTC.c **** void RTC_Stop(void)
 114:Generated_Source\PSoC4/RTC.c **** {
 115:Generated_Source\PSoC4/RTC.c ****     #if defined(CYDEV_RTC_SOURCE_WDT)
 116:Generated_Source\PSoC4/RTC.c ****         #if((0u != CYDEV_WDT_GENERATE_ISR) && (0u == RTC_INITIAL_UPDATE_MODE))
 117:Generated_Source\PSoC4/RTC.c ****             RTC_CySysRtcResetCallback(CYDEV_RTC_SOURCE_WDT);
 118:Generated_Source\PSoC4/RTC.c ****         #endif /* ((0u != CYDEV_WDT_GENERATE_ISR) && (0u == RTC_INITIAL_UPDATE_MODE)) */
 119:Generated_Source\PSoC4/RTC.c ****     #endif /* (CYDEV_RTC_SOURCE_WDT) */
 120:Generated_Source\PSoC4/RTC.c **** }
 121:Generated_Source\PSoC4/RTC.c **** 
 122:Generated_Source\PSoC4/RTC.c **** 
 123:Generated_Source\PSoC4/RTC.c **** /*******************************************************************************
 124:Generated_Source\PSoC4/RTC.c **** * Function Name: RTC_Init
 125:Generated_Source\PSoC4/RTC.c **** ****************************************************************************//**
 126:Generated_Source\PSoC4/RTC.c **** *
 127:Generated_Source\PSoC4/RTC.c **** * \brief
 128:Generated_Source\PSoC4/RTC.c **** *  Initializes or restores the component according to the customizer Configure
 129:Generated_Source\PSoC4/RTC.c **** *  dialog settings. 
 130:Generated_Source\PSoC4/RTC.c **** *
 131:Generated_Source\PSoC4/RTC.c **** * It is not necessary to call RTC_Init() because
 132:Generated_Source\PSoC4/RTC.c **** *  RTC_Start() API calls this function and is the preferred method to begin
 133:Generated_Source\PSoC4/RTC.c **** *  component operation.
 134:Generated_Source\PSoC4/RTC.c **** *
 135:Generated_Source\PSoC4/RTC.c **** *  All registers are set to values according to the customizer Configure
 136:Generated_Source\PSoC4/RTC.c **** *  dialog. The default date value, if not set by the user before this function 
 137:Generated_Source\PSoC4/RTC.c **** *  call, is 12:00:00 AM January 1, 2000.
 138:Generated_Source\PSoC4/RTC.c **** *
 139:Generated_Source\PSoC4/RTC.c **** *******************************************************************************/
 140:Generated_Source\PSoC4/RTC.c **** void RTC_Init(void)
 141:Generated_Source\PSoC4/RTC.c **** {
 142:Generated_Source\PSoC4/RTC.c ****     uint32 tmpDate;
 143:Generated_Source\PSoC4/RTC.c ****     uint32 tmpTime;
 144:Generated_Source\PSoC4/RTC.c **** 
 145:Generated_Source\PSoC4/RTC.c ****     #if(0u != RTC_INITIAL_DST_STATUS)
 146:Generated_Source\PSoC4/RTC.c ****         RTC_DST_TIME dstTimeTmp;
 147:Generated_Source\PSoC4/RTC.c ****     #endif /* (0u != RTC_INITIAL_DST_STATUS) */
 148:Generated_Source\PSoC4/RTC.c **** 
 149:Generated_Source\PSoC4/RTC.c ****     RTC_initVar = 1u;
ARM GAS  C:\Users\Jerry\AppData\Local\Temp\cc7m5IHi.s 			page 31


 150:Generated_Source\PSoC4/RTC.c ****     RTC_dstTimeOffset = 0uL;
 151:Generated_Source\PSoC4/RTC.c ****     RTC_currentTimeDate.status = 0uL;
 152:Generated_Source\PSoC4/RTC.c **** 
 153:Generated_Source\PSoC4/RTC.c ****     RTC_dstStatus      = RTC_INITIAL_DST_STATUS;
 154:Generated_Source\PSoC4/RTC.c ****     RTC_alarmCurStatus = RTC_INITIAL_ALARM_STATUS;
 155:Generated_Source\PSoC4/RTC.c **** 
 156:Generated_Source\PSoC4/RTC.c ****     tmpDate = RTC_ConstructDate(RTC_INITIAL_MONTH,
 157:Generated_Source\PSoC4/RTC.c ****                                           RTC_INITIAL_DAY,
 158:Generated_Source\PSoC4/RTC.c ****                                           RTC_INITIAL_YEAR);
 159:Generated_Source\PSoC4/RTC.c **** 
 160:Generated_Source\PSoC4/RTC.c ****     tmpTime = RTC_ConstructTime(RTC_INITIAL_TIME_FORMAT,
 161:Generated_Source\PSoC4/RTC.c ****                                           0u,
 162:Generated_Source\PSoC4/RTC.c ****                                           RTC_INITIAL_HOUR,
 163:Generated_Source\PSoC4/RTC.c ****                                           RTC_INITIAL_MINUTE,
 164:Generated_Source\PSoC4/RTC.c ****                                           RTC_INITIAL_SECOND);
 165:Generated_Source\PSoC4/RTC.c **** 
 166:Generated_Source\PSoC4/RTC.c ****     #if(0u != RTC_INITIAL_DST_STATUS)
 167:Generated_Source\PSoC4/RTC.c ****         RTC_dstStatus = 0u;
 168:Generated_Source\PSoC4/RTC.c ****         RTC_currentTimeDate.status = (1uL << RTC_STATUS_DST_OFFSET);
 169:Generated_Source\PSoC4/RTC.c **** 
 170:Generated_Source\PSoC4/RTC.c ****         dstTimeTmp.timeFormat    = RTC_INITIAL_DST_DATE_TYPE;
 171:Generated_Source\PSoC4/RTC.c ****         dstTimeTmp.hour          = RTC_INITIAL_DST_START_HRS;
 172:Generated_Source\PSoC4/RTC.c ****         dstTimeTmp.dayOfWeek     = RTC_INITIAL_DST_START_DOW;
 173:Generated_Source\PSoC4/RTC.c ****         dstTimeTmp.weekOfMonth   = RTC_INITIAL_DST_START_WOM;
 174:Generated_Source\PSoC4/RTC.c ****         dstTimeTmp.dayOfMonth    = RTC_INITIAL_DST_START_DOM;
 175:Generated_Source\PSoC4/RTC.c ****         dstTimeTmp.month         = RTC_INITIAL_DST_START_MONTH;
 176:Generated_Source\PSoC4/RTC.c ****         RTC_SetDSTStartTime(&dstTimeTmp, (RTC_DST_DATETYPE_ENUM)RTC_INITIAL_DST_DATE_TYPE);
 177:Generated_Source\PSoC4/RTC.c **** 
 178:Generated_Source\PSoC4/RTC.c ****         dstTimeTmp.timeFormat    = RTC_INITIAL_DST_DATE_TYPE;
 179:Generated_Source\PSoC4/RTC.c ****         dstTimeTmp.hour          = RTC_INITIAL_DST_STOP_HRS;
 180:Generated_Source\PSoC4/RTC.c ****         dstTimeTmp.dayOfWeek     = RTC_INITIAL_DST_STOP_DOW;
 181:Generated_Source\PSoC4/RTC.c ****         dstTimeTmp.weekOfMonth   = RTC_INITIAL_DST_STOP_WOM;
 182:Generated_Source\PSoC4/RTC.c ****         dstTimeTmp.dayOfMonth    = RTC_INITIAL_DST_STOP_DOM;
 183:Generated_Source\PSoC4/RTC.c ****         dstTimeTmp.month         = RTC_INITIAL_DST_STOP_MONTH;
 184:Generated_Source\PSoC4/RTC.c ****         RTC_SetDSTStopTime(&dstTimeTmp, (RTC_DST_DATETYPE_ENUM)RTC_INITIAL_DST_DATE_TYPE);
 185:Generated_Source\PSoC4/RTC.c **** 
 186:Generated_Source\PSoC4/RTC.c ****         RTC_unixTimeDstStart = RTC_GetDstUnixTime(&RTC_dstStartTime);
 187:Generated_Source\PSoC4/RTC.c ****         RTC_unixTimeDstStop  = RTC_GetDstUnixTime(&RTC_dstStopTime);
 188:Generated_Source\PSoC4/RTC.c **** 
 189:Generated_Source\PSoC4/RTC.c ****         if((RTC_unixTime >= RTC_unixTimeDstStart) &&
 190:Generated_Source\PSoC4/RTC.c ****            (RTC_unixTime <= RTC_unixTimeDstStop))
 191:Generated_Source\PSoC4/RTC.c ****         {
 192:Generated_Source\PSoC4/RTC.c ****             RTC_dstStatus = 1u;
 193:Generated_Source\PSoC4/RTC.c ****             RTC_dstTimeOffset = RTC_SECONDS_PER_HOUR;
 194:Generated_Source\PSoC4/RTC.c ****         }
 195:Generated_Source\PSoC4/RTC.c ****     #endif /* (0u != RTC_INITIAL_DST_STATUS) */
 196:Generated_Source\PSoC4/RTC.c **** 
 197:Generated_Source\PSoC4/RTC.c ****     RTC_SetDateAndTime(tmpTime, tmpDate);
 198:Generated_Source\PSoC4/RTC.c **** }
 199:Generated_Source\PSoC4/RTC.c **** 
 200:Generated_Source\PSoC4/RTC.c **** 
 201:Generated_Source\PSoC4/RTC.c **** /*******************************************************************************
 202:Generated_Source\PSoC4/RTC.c **** * Function Name: RTC_SetDateAndTime
 203:Generated_Source\PSoC4/RTC.c **** ****************************************************************************//**
 204:Generated_Source\PSoC4/RTC.c **** *
 205:Generated_Source\PSoC4/RTC.c **** * \brief
 206:Generated_Source\PSoC4/RTC.c **** * Sets the time and date values as the current time and date.
ARM GAS  C:\Users\Jerry\AppData\Local\Temp\cc7m5IHi.s 			page 32


 207:Generated_Source\PSoC4/RTC.c **** *
 208:Generated_Source\PSoC4/RTC.c **** * \param
 209:Generated_Source\PSoC4/RTC.c **** * inputTime The time value in the HH:MM:SS format. <br>
 210:Generated_Source\PSoC4/RTC.c **** * "HH"- The 2nd 8-bit MSB that denotes the hour value.
 211:Generated_Source\PSoC4/RTC.c **** * (0-23 for the 24-hour format and 1-12 for the 12-hour format. The MSB bit of the
 212:Generated_Source\PSoC4/RTC.c **** * value denotes AM/PM for the 12-hour format (0-AM and 1-PM). <br>
 213:Generated_Source\PSoC4/RTC.c **** * "MM" - The 3nd 8-bit MSB denotes the minutes value, the valid entries -> 0-59.<br>
 214:Generated_Source\PSoC4/RTC.c **** * "SS" - The 8-bit LSB denotes the seconds value, the valid entries -> 0-59.
 215:Generated_Source\PSoC4/RTC.c **** * Each byte is in the BCD format. Invalid time entries retain the
 216:Generated_Source\PSoC4/RTC.c **** * previously set values.
 217:Generated_Source\PSoC4/RTC.c **** *
 218:Generated_Source\PSoC4/RTC.c **** * \param
 219:Generated_Source\PSoC4/RTC.c **** *  inputDate The date value in the format selected in the customizer.
 220:Generated_Source\PSoC4/RTC.c **** * For the MM/DD/YYYY format: <br>
 221:Generated_Source\PSoC4/RTC.c **** * "MM" - The 8-bit MSB denotes the month value in BCD, the valid entries -> 1-12<br>
 222:Generated_Source\PSoC4/RTC.c **** * "DD" - The 2nd 8-bit MSB denotes a day of the month value in BCD, the valid
 223:Generated_Source\PSoC4/RTC.c **** * entries -> 1-31.<br>
 224:Generated_Source\PSoC4/RTC.c **** * "YYYY" - The 16-bit LSB denotes a year in BCD, the valid entries -> 1900-2200.
 225:Generated_Source\PSoC4/RTC.c **** * Each byte is in the BCD format. Invalid date entries retain the
 226:Generated_Source\PSoC4/RTC.c **** * previously set values.
 227:Generated_Source\PSoC4/RTC.c **** *
 228:Generated_Source\PSoC4/RTC.c **** *******************************************************************************/
 229:Generated_Source\PSoC4/RTC.c **** void RTC_SetDateAndTime(uint32 inputTime, uint32 inputDate)
 230:Generated_Source\PSoC4/RTC.c **** {
 231:Generated_Source\PSoC4/RTC.c ****     uint32 tmpDay;
 232:Generated_Source\PSoC4/RTC.c ****     uint32 tmpMonth;
 233:Generated_Source\PSoC4/RTC.c ****     uint32 tmpYear;
 234:Generated_Source\PSoC4/RTC.c **** 
 235:Generated_Source\PSoC4/RTC.c ****     tmpDay   = RTC_GetDay(inputDate);
 236:Generated_Source\PSoC4/RTC.c ****     tmpMonth = RTC_GetMonth(inputDate);
 237:Generated_Source\PSoC4/RTC.c ****     tmpYear  = RTC_GetYear(inputDate);
 238:Generated_Source\PSoC4/RTC.c **** 
 239:Generated_Source\PSoC4/RTC.c ****     RTC_unixTime = RTC_DateTimeToUnix(inputDate, inputTime);
 240:Generated_Source\PSoC4/RTC.c ****     RTC_currentTimeDate.date = inputDate;
 241:Generated_Source\PSoC4/RTC.c ****     RTC_currentTimeDate.time = inputTime;
 242:Generated_Source\PSoC4/RTC.c ****     RTC_currentTimeDate.dayOfWeek = RTC_GetDayOfWeek(tmpDay, tmpMonth, tmpYear);
 243:Generated_Source\PSoC4/RTC.c **** 
 244:Generated_Source\PSoC4/RTC.c ****     #if(0u != RTC_INITIAL_DST_STATUS)
 245:Generated_Source\PSoC4/RTC.c ****         RTC_unixTimeDstStart = RTC_GetDstUnixTime(&RTC_dstStartTime);
 246:Generated_Source\PSoC4/RTC.c ****         RTC_unixTimeDstStop  = RTC_GetDstUnixTime(&RTC_dstStopTime);
 247:Generated_Source\PSoC4/RTC.c **** 
 248:Generated_Source\PSoC4/RTC.c ****         if((RTC_unixTime >= RTC_unixTimeDstStart) &&
 249:Generated_Source\PSoC4/RTC.c ****            (RTC_unixTime <= RTC_unixTimeDstStop))
 250:Generated_Source\PSoC4/RTC.c ****         {
 251:Generated_Source\PSoC4/RTC.c ****             RTC_dstStatus = 1u;
 252:Generated_Source\PSoC4/RTC.c ****             RTC_dstTimeOffset = RTC_SECONDS_PER_HOUR;
 253:Generated_Source\PSoC4/RTC.c ****             RTC_unixTime -= RTC_dstTimeOffset;
 254:Generated_Source\PSoC4/RTC.c ****         }
 255:Generated_Source\PSoC4/RTC.c ****         else
 256:Generated_Source\PSoC4/RTC.c ****         {
 257:Generated_Source\PSoC4/RTC.c ****             RTC_dstStatus = 0u;
 258:Generated_Source\PSoC4/RTC.c ****             RTC_dstTimeOffset = 0uL;
 259:Generated_Source\PSoC4/RTC.c ****         }
 260:Generated_Source\PSoC4/RTC.c ****     #endif /* (0u != RTC_INITIAL_DST_STATUS) */
 261:Generated_Source\PSoC4/RTC.c **** 
 262:Generated_Source\PSoC4/RTC.c ****     #if(0u != RTC_INITIAL_ALARM_STATUS)
 263:Generated_Source\PSoC4/RTC.c ****         RTC_unixTimeAlarm = RTC_ConstructUnixAlarmTime(&RTC_alarmCfgTimeDate,
ARM GAS  C:\Users\Jerry\AppData\Local\Temp\cc7m5IHi.s 			page 33


 264:Generated_Source\PSoC4/RTC.c ****                                                                                  (uint8)RTC_alarmCf
 265:Generated_Source\PSoC4/RTC.c ****     #endif /* (0u != RTC_INITIAL_ALARM_STATUS) */
 266:Generated_Source\PSoC4/RTC.c **** }
 267:Generated_Source\PSoC4/RTC.c **** 
 268:Generated_Source\PSoC4/RTC.c **** 
 269:Generated_Source\PSoC4/RTC.c **** /*******************************************************************************
 270:Generated_Source\PSoC4/RTC.c **** * Function Name: RTC_SetUnixTime
 271:Generated_Source\PSoC4/RTC.c **** ****************************************************************************//**
 272:Generated_Source\PSoC4/RTC.c **** *
 273:Generated_Source\PSoC4/RTC.c **** * \brief
 274:Generated_Source\PSoC4/RTC.c **** * Sets the time in the Unix/Epoch time format - the number of seconds elapsed 
 275:Generated_Source\PSoC4/RTC.c **** *  from January 1, 1970 UTC 00:00 hrs.
 276:Generated_Source\PSoC4/RTC.c **** *
 277:Generated_Source\PSoC4/RTC.c **** * \param
 278:Generated_Source\PSoC4/RTC.c **** *  time The time value in the Unix time/Epoch time format.
 279:Generated_Source\PSoC4/RTC.c **** *
 280:Generated_Source\PSoC4/RTC.c **** *******************************************************************************/
 281:Generated_Source\PSoC4/RTC.c **** void RTC_SetUnixTime(uint64 unixTime)
 282:Generated_Source\PSoC4/RTC.c **** {
 283:Generated_Source\PSoC4/RTC.c ****     RTC_DATE_TIME tmpDateTime;
 284:Generated_Source\PSoC4/RTC.c **** 
 285:Generated_Source\PSoC4/RTC.c ****     RTC_unixTime = unixTime;
 286:Generated_Source\PSoC4/RTC.c ****     RTC_UnixToDateTime(&tmpDateTime, unixTime, (uint32)RTC_24_HOURS_FORMAT);
 287:Generated_Source\PSoC4/RTC.c **** 
 288:Generated_Source\PSoC4/RTC.c ****     #if(0u != RTC_INITIAL_DST_STATUS)
 289:Generated_Source\PSoC4/RTC.c ****         RTC_unixTimeDstStart = RTC_GetDstUnixTime(&RTC_dstStartTime);
 290:Generated_Source\PSoC4/RTC.c ****         RTC_unixTimeDstStop  = RTC_GetDstUnixTime(&RTC_dstStopTime);
 291:Generated_Source\PSoC4/RTC.c **** 
 292:Generated_Source\PSoC4/RTC.c ****         if((RTC_unixTime >= RTC_unixTimeDstStart) &&
 293:Generated_Source\PSoC4/RTC.c ****            (RTC_unixTime <= RTC_unixTimeDstStop))
 294:Generated_Source\PSoC4/RTC.c ****         {
 295:Generated_Source\PSoC4/RTC.c ****             RTC_dstStatus = 1u;
 296:Generated_Source\PSoC4/RTC.c ****             RTC_dstTimeOffset = RTC_SECONDS_PER_HOUR;
 297:Generated_Source\PSoC4/RTC.c ****         }
 298:Generated_Source\PSoC4/RTC.c ****         else
 299:Generated_Source\PSoC4/RTC.c ****         {
 300:Generated_Source\PSoC4/RTC.c ****             RTC_dstStatus = 0u;
 301:Generated_Source\PSoC4/RTC.c ****             RTC_dstTimeOffset = 0uL;
 302:Generated_Source\PSoC4/RTC.c ****         }
 303:Generated_Source\PSoC4/RTC.c ****     #endif /* (0u != RTC_INITIAL_DST_STATUS) */
 304:Generated_Source\PSoC4/RTC.c **** }
 305:Generated_Source\PSoC4/RTC.c **** 
 306:Generated_Source\PSoC4/RTC.c **** 
 307:Generated_Source\PSoC4/RTC.c **** /*******************************************************************************
 308:Generated_Source\PSoC4/RTC.c **** * Function Name: RTC_GetUnixTime
 309:Generated_Source\PSoC4/RTC.c **** ****************************************************************************//**
 310:Generated_Source\PSoC4/RTC.c **** *
 311:Generated_Source\PSoC4/RTC.c **** * \brief
 312:Generated_Source\PSoC4/RTC.c **** *  Returns the time in the Unix/Epoch time format - the number of seconds 
 313:Generated_Source\PSoC4/RTC.c **** * elapsed from January 1, 1970 UTC 00:00 hrs.
 314:Generated_Source\PSoC4/RTC.c **** *
 315:Generated_Source\PSoC4/RTC.c **** * \return time The time value in the Unix time/Epoch time format.
 316:Generated_Source\PSoC4/RTC.c **** *
 317:Generated_Source\PSoC4/RTC.c **** *******************************************************************************/
 318:Generated_Source\PSoC4/RTC.c **** uint64 RTC_GetUnixTime(void)
 319:Generated_Source\PSoC4/RTC.c **** {
 320:Generated_Source\PSoC4/RTC.c ****     return (RTC_unixTime);
ARM GAS  C:\Users\Jerry\AppData\Local\Temp\cc7m5IHi.s 			page 34


 321:Generated_Source\PSoC4/RTC.c **** }
 322:Generated_Source\PSoC4/RTC.c **** 
 323:Generated_Source\PSoC4/RTC.c **** 
 324:Generated_Source\PSoC4/RTC.c **** /*******************************************************************************
 325:Generated_Source\PSoC4/RTC.c **** * Function Name: RTC_SetPeriod
 326:Generated_Source\PSoC4/RTC.c **** ****************************************************************************//**
 327:Generated_Source\PSoC4/RTC.c **** *
 328:Generated_Source\PSoC4/RTC.c **** * \brief
 329:Generated_Source\PSoC4/RTC.c **** *  Sets the RTC time update API period.
 330:Generated_Source\PSoC4/RTC.c **** *
 331:Generated_Source\PSoC4/RTC.c **** *  The user needs to pass the period as
 332:Generated_Source\PSoC4/RTC.c **** *  a number of ticks and also a reference number of ticks taken by the same clock
 333:Generated_Source\PSoC4/RTC.c **** *  source for one second. For instance, for a 32 kHz clock source and RTC
 334:Generated_Source\PSoC4/RTC.c **** *  period of 100 ms, the "ticks" value is 3200 and the "refOneSecTicks" value
 335:Generated_Source\PSoC4/RTC.c **** *  is 32000. This value is used to increment the time every time
 336:Generated_Source\PSoC4/RTC.c **** *  RTC_Update() API is called.
 337:Generated_Source\PSoC4/RTC.c **** *
 338:Generated_Source\PSoC4/RTC.c **** * \param
 339:Generated_Source\PSoC4/RTC.c **** *  ticks The clock period taken as a number of ticks.
 340:Generated_Source\PSoC4/RTC.c **** *
 341:Generated_Source\PSoC4/RTC.c **** * \param
 342:Generated_Source\PSoC4/RTC.c **** * refOneSecTicks The reference number of ticks taken by the same clock source
 343:Generated_Source\PSoC4/RTC.c **** *  for one second (the input clock frequency in Hz).
 344:Generated_Source\PSoC4/RTC.c **** *
 345:Generated_Source\PSoC4/RTC.c **** *******************************************************************************/
 346:Generated_Source\PSoC4/RTC.c **** void RTC_SetPeriod(uint32 ticks, uint32 refOneSecTicks)
 347:Generated_Source\PSoC4/RTC.c **** {
 348:Generated_Source\PSoC4/RTC.c ****     RTC_updateTimePeriod = ticks;
 349:Generated_Source\PSoC4/RTC.c ****     RTC_tickRefOneSec    = refOneSecTicks;
 350:Generated_Source\PSoC4/RTC.c **** }
 351:Generated_Source\PSoC4/RTC.c **** 
 352:Generated_Source\PSoC4/RTC.c **** 
 353:Generated_Source\PSoC4/RTC.c **** /*******************************************************************************
 354:Generated_Source\PSoC4/RTC.c **** * Function Name: RTC_SetPeriod
 355:Generated_Source\PSoC4/RTC.c **** ****************************************************************************//**
 356:Generated_Source\PSoC4/RTC.c **** *
 357:Generated_Source\PSoC4/RTC.c **** * \brief
 358:Generated_Source\PSoC4/RTC.c **** *  Gets the RTC time update API period.
 359:Generated_Source\PSoC4/RTC.c **** *
 360:Generated_Source\PSoC4/RTC.c **** * \return period The clock period taken as a number of ticks.
 361:Generated_Source\PSoC4/RTC.c **** *
 362:Generated_Source\PSoC4/RTC.c **** *******************************************************************************/
 363:Generated_Source\PSoC4/RTC.c **** uint32 RTC_GetPeriod(void)
 364:Generated_Source\PSoC4/RTC.c **** {
 365:Generated_Source\PSoC4/RTC.c ****     return(RTC_updateTimePeriod);
 366:Generated_Source\PSoC4/RTC.c **** }
 367:Generated_Source\PSoC4/RTC.c **** 
 368:Generated_Source\PSoC4/RTC.c **** 
 369:Generated_Source\PSoC4/RTC.c **** /*******************************************************************************
 370:Generated_Source\PSoC4/RTC.c **** * Function Name: RTC_GetRefOneSec
 371:Generated_Source\PSoC4/RTC.c **** ****************************************************************************//**
 372:Generated_Source\PSoC4/RTC.c **** * \brief
 373:Generated_Source\PSoC4/RTC.c **** * Gets the RTC time update API period.
 374:Generated_Source\PSoC4/RTC.c **** *
 375:Generated_Source\PSoC4/RTC.c **** * \return
 376:Generated_Source\PSoC4/RTC.c **** * period The reference number of ticks taken by the RTC clock source for one
 377:Generated_Source\PSoC4/RTC.c **** * second.
ARM GAS  C:\Users\Jerry\AppData\Local\Temp\cc7m5IHi.s 			page 35


 378:Generated_Source\PSoC4/RTC.c **** *
 379:Generated_Source\PSoC4/RTC.c **** *******************************************************************************/
 380:Generated_Source\PSoC4/RTC.c **** uint32 RTC_GetRefOneSec(void)
 381:Generated_Source\PSoC4/RTC.c **** {
 382:Generated_Source\PSoC4/RTC.c ****     return(RTC_tickRefOneSec);
 383:Generated_Source\PSoC4/RTC.c **** }
 384:Generated_Source\PSoC4/RTC.c **** 
 385:Generated_Source\PSoC4/RTC.c **** 
 386:Generated_Source\PSoC4/RTC.c **** /*******************************************************************************
 387:Generated_Source\PSoC4/RTC.c **** * Function Name: RTC_GetDateAndTime
 388:Generated_Source\PSoC4/RTC.c **** ****************************************************************************//**
 389:Generated_Source\PSoC4/RTC.c **** *
 390:Generated_Source\PSoC4/RTC.c **** * Reads the current time and date.
 391:Generated_Source\PSoC4/RTC.c **** *
 392:Generated_Source\PSoC4/RTC.c **** * \param dateTime The pointer to the RTC_date_time structure to which time and 
 393:Generated_Source\PSoC4/RTC.c **** * date is returned.
 394:Generated_Source\PSoC4/RTC.c **** *
 395:Generated_Source\PSoC4/RTC.c **** *******************************************************************************/
 396:Generated_Source\PSoC4/RTC.c **** void RTC_GetDateAndTime(RTC_DATE_TIME* dateTime)
 397:Generated_Source\PSoC4/RTC.c **** {
 398:Generated_Source\PSoC4/RTC.c ****     RTC_UnixToDateTime(dateTime, (RTC_unixTime  + RTC_dstTimeOffset),
 399:Generated_Source\PSoC4/RTC.c ****                                                                             RTC_INITIAL_TIME_FORMAT
 400:Generated_Source\PSoC4/RTC.c **** }
 401:Generated_Source\PSoC4/RTC.c **** 
 402:Generated_Source\PSoC4/RTC.c **** 
 403:Generated_Source\PSoC4/RTC.c **** /*******************************************************************************
 404:Generated_Source\PSoC4/RTC.c **** * Function Name: RTC_GetTime
 405:Generated_Source\PSoC4/RTC.c **** ****************************************************************************//**
 406:Generated_Source\PSoC4/RTC.c **** * \brief
 407:Generated_Source\PSoC4/RTC.c **** * Reads the current time.
 408:Generated_Source\PSoC4/RTC.c **** *
 409:Generated_Source\PSoC4/RTC.c **** * \return
 410:Generated_Source\PSoC4/RTC.c **** * date The value of date in the user selected format. The date value is 
 411:Generated_Source\PSoC4/RTC.c **** * available in the BCD format.
 412:Generated_Source\PSoC4/RTC.c **** *
 413:Generated_Source\PSoC4/RTC.c **** * \warning
 414:Generated_Source\PSoC4/RTC.c **** *  Using RTC_GetTime and RTC_GetDate API separately might result
 415:Generated_Source\PSoC4/RTC.c **** *  in errors when the time wraps around the end of the day. To avoid this,
 416:Generated_Source\PSoC4/RTC.c **** *  use RTC_GetDateAndTime API.
 417:Generated_Source\PSoC4/RTC.c **** *
 418:Generated_Source\PSoC4/RTC.c **** *******************************************************************************/
 419:Generated_Source\PSoC4/RTC.c **** uint32 RTC_GetTime(void)
 420:Generated_Source\PSoC4/RTC.c **** {
 421:Generated_Source\PSoC4/RTC.c ****     RTC_UnixToDateTime(&RTC_currentTimeDate,
 422:Generated_Source\PSoC4/RTC.c ****                                     (RTC_unixTime  + RTC_dstTimeOffset),
 423:Generated_Source\PSoC4/RTC.c ****                                      RTC_INITIAL_TIME_FORMAT);
 424:Generated_Source\PSoC4/RTC.c **** 
 425:Generated_Source\PSoC4/RTC.c ****     return(RTC_currentTimeDate.time);
 426:Generated_Source\PSoC4/RTC.c **** }
 427:Generated_Source\PSoC4/RTC.c **** 
 428:Generated_Source\PSoC4/RTC.c **** 
 429:Generated_Source\PSoC4/RTC.c **** /*******************************************************************************
 430:Generated_Source\PSoC4/RTC.c **** * Function Name: RTC_GetDate
 431:Generated_Source\PSoC4/RTC.c **** ****************************************************************************//**
 432:Generated_Source\PSoC4/RTC.c **** *
 433:Generated_Source\PSoC4/RTC.c **** * \brief Reads the current time.
 434:Generated_Source\PSoC4/RTC.c **** *
ARM GAS  C:\Users\Jerry\AppData\Local\Temp\cc7m5IHi.s 			page 36


 435:Generated_Source\PSoC4/RTC.c **** * \return
 436:Generated_Source\PSoC4/RTC.c **** * time The time value in the format selected by the user (12/24 hr);
 437:Generated_Source\PSoC4/RTC.c **** * The time value is available in the BCD format.
 438:Generated_Source\PSoC4/RTC.c **** *
 439:Generated_Source\PSoC4/RTC.c **** * \note
 440:Generated_Source\PSoC4/RTC.c **** *  Using RTC_GetTime and RTC_GetDate API separately
 441:Generated_Source\PSoC4/RTC.c **** *  might result in errors when the time wraps around the end of the day. To
 442:Generated_Source\PSoC4/RTC.c **** *  avoid this, use RTC_GetDateAndTime API.
 443:Generated_Source\PSoC4/RTC.c **** *
 444:Generated_Source\PSoC4/RTC.c **** *******************************************************************************/
 445:Generated_Source\PSoC4/RTC.c **** uint32 RTC_GetDate(void)
 446:Generated_Source\PSoC4/RTC.c **** {
 447:Generated_Source\PSoC4/RTC.c ****     RTC_UnixToDateTime(&RTC_currentTimeDate,
 448:Generated_Source\PSoC4/RTC.c ****                                     (RTC_unixTime  + RTC_dstTimeOffset),
 449:Generated_Source\PSoC4/RTC.c ****                                      RTC_INITIAL_TIME_FORMAT);
 450:Generated_Source\PSoC4/RTC.c **** 
 451:Generated_Source\PSoC4/RTC.c ****     return(RTC_currentTimeDate.date);
 452:Generated_Source\PSoC4/RTC.c **** }
 453:Generated_Source\PSoC4/RTC.c **** 
 454:Generated_Source\PSoC4/RTC.c **** 
 455:Generated_Source\PSoC4/RTC.c **** #if(0u != RTC_INITIAL_ALARM_STATUS)
 456:Generated_Source\PSoC4/RTC.c ****     /*******************************************************************************
 457:Generated_Source\PSoC4/RTC.c ****     * Function Name: RTC_SetAlarmDateAndTime
 458:Generated_Source\PSoC4/RTC.c ****     ****************************************************************************//**
 459:Generated_Source\PSoC4/RTC.c ****     *
 460:Generated_Source\PSoC4/RTC.c ****     * \brief
 461:Generated_Source\PSoC4/RTC.c ****     *  Writes the time and date values as the current alarm time and date.
 462:Generated_Source\PSoC4/RTC.c ****     *
 463:Generated_Source\PSoC4/RTC.c ****     * \param
 464:Generated_Source\PSoC4/RTC.c ****     *  alarmTime The pointer to the RTC_date_time global structure where
 465:Generated_Source\PSoC4/RTC.c ****     *  new values of the alarm time and date are stored.
 466:Generated_Source\PSoC4/RTC.c ****     *
 467:Generated_Source\PSoC4/RTC.c ****     * \note
 468:Generated_Source\PSoC4/RTC.c ****     *  Invalid time entries are written with "00:00:00:00" for the 24-hour format and
 469:Generated_Source\PSoC4/RTC.c ****     *  "AM 12:00:00:00" for the 12-hour format. Invalid date entries are written with
 470:Generated_Source\PSoC4/RTC.c ****     *  a date equivalent to 01-JAN-2000.
 471:Generated_Source\PSoC4/RTC.c ****     *
 472:Generated_Source\PSoC4/RTC.c ****     *******************************************************************************/
 473:Generated_Source\PSoC4/RTC.c ****     void RTC_SetAlarmDateAndTime(const RTC_DATE_TIME* alarmTime)
 474:Generated_Source\PSoC4/RTC.c ****     {
 475:Generated_Source\PSoC4/RTC.c ****         RTC_alarmCfgTimeDate = *alarmTime;
 476:Generated_Source\PSoC4/RTC.c ****         RTC_unixTimeAlarm = RTC_ConstructUnixAlarmTime(alarmTime, (uint8)RTC_alarmCfgMask);
 477:Generated_Source\PSoC4/RTC.c ****     }
 478:Generated_Source\PSoC4/RTC.c **** 
 479:Generated_Source\PSoC4/RTC.c **** 
 480:Generated_Source\PSoC4/RTC.c ****     /*******************************************************************************
 481:Generated_Source\PSoC4/RTC.c ****     * Function Name: RTC_GetAlarmDateAndTime
 482:Generated_Source\PSoC4/RTC.c ****     ****************************************************************************//**
 483:Generated_Source\PSoC4/RTC.c ****     *
 484:Generated_Source\PSoC4/RTC.c ****     * \brief
 485:Generated_Source\PSoC4/RTC.c ****     *  Reads the current alarm time and date.
 486:Generated_Source\PSoC4/RTC.c ****     *
 487:Generated_Source\PSoC4/RTC.c ****     * \param
 488:Generated_Source\PSoC4/RTC.c ****     *  alarmTimeDate The pointer to the RTC_date_time structure to which
 489:Generated_Source\PSoC4/RTC.c ****     *  the alarm date and time are returned.
 490:Generated_Source\PSoC4/RTC.c ****     *
 491:Generated_Source\PSoC4/RTC.c ****     *******************************************************************************/
ARM GAS  C:\Users\Jerry\AppData\Local\Temp\cc7m5IHi.s 			page 37


 492:Generated_Source\PSoC4/RTC.c ****     void RTC_GetAlarmDateAndTime(RTC_DATE_TIME* alarmTimeDate)
 493:Generated_Source\PSoC4/RTC.c ****     {
 494:Generated_Source\PSoC4/RTC.c ****         *alarmTimeDate = RTC_alarmCfgTimeDate;
 495:Generated_Source\PSoC4/RTC.c ****     }
 496:Generated_Source\PSoC4/RTC.c **** 
 497:Generated_Source\PSoC4/RTC.c **** 
 498:Generated_Source\PSoC4/RTC.c ****     /*******************************************************************************
 499:Generated_Source\PSoC4/RTC.c ****     * Function Name: RTC_SetAlarmMask
 500:Generated_Source\PSoC4/RTC.c ****     ****************************************************************************//**
 501:Generated_Source\PSoC4/RTC.c ****     *
 502:Generated_Source\PSoC4/RTC.c ****     * \brief
 503:Generated_Source\PSoC4/RTC.c ****     *  Writes the Alarm Mask software register with one bit per time/date entry.
 504:Generated_Source\PSoC4/RTC.c ****     *  The alarm is true when all masked time/date values match the Alarm values.
 505:Generated_Source\PSoC4/RTC.c ****     *  Generated only if the alarm functionality is enabled.
 506:Generated_Source\PSoC4/RTC.c ****     *
 507:Generated_Source\PSoC4/RTC.c ****     * \param
 508:Generated_Source\PSoC4/RTC.c ****     *  mask The Alarm Mask software register value. The values shown below can be
 509:Generated_Source\PSoC4/RTC.c ****     *  OR'ed and passed as an argument as well.
 510:Generated_Source\PSoC4/RTC.c ****     * \param
 511:Generated_Source\PSoC4/RTC.c ****     *  RTC_ALARM_SEC_MASK The second alarm mask allows
 512:Generated_Source\PSoC4/RTC.c ****     *  matching the alarm second register with the current second register.
 513:Generated_Source\PSoC4/RTC.c ****     * \param
 514:Generated_Source\PSoC4/RTC.c ****     *  RTC_ALARM_MIN_MASK The minute alarm mask allows matching the
 515:Generated_Source\PSoC4/RTC.c ****     *  alarm minute register with the current minute register.
 516:Generated_Source\PSoC4/RTC.c ****     * \param
 517:Generated_Source\PSoC4/RTC.c ****     *  RTC_ALARM_HOUR_MASK The hour alarm mask allows
 518:Generated_Source\PSoC4/RTC.c ****     * matching the alarm hour register with the current hour register.
 519:Generated_Source\PSoC4/RTC.c ****     * \param
 520:Generated_Source\PSoC4/RTC.c ****     *  RTC_ALARM_DAYOFWEEK_MASK The day of the week alarm mask 
 521:Generated_Source\PSoC4/RTC.c ****     * allows matching the alarm day of the week register with the current day of
 522:Generated_Source\PSoC4/RTC.c ****     * the week register.
 523:Generated_Source\PSoC4/RTC.c ****     * \param
 524:Generated_Source\PSoC4/RTC.c ****     * RTC_ALARM_DAYOFMONTH_MASK The day of the month alarm mask
 525:Generated_Source\PSoC4/RTC.c ****     * allows matching the alarm day of the month register with the current day 
 526:Generated_Source\PSoC4/RTC.c ****     * of the month register.
 527:Generated_Source\PSoC4/RTC.c ****     * \param
 528:Generated_Source\PSoC4/RTC.c ****     * RTC_ALARM_MONTH_MASK The month alarm mask allows matching 
 529:Generated_Source\PSoC4/RTC.c ****     * the alarm month register with the current month register.
 530:Generated_Source\PSoC4/RTC.c ****     * \param
 531:Generated_Source\PSoC4/RTC.c ****     * RTC_ALARM_YEAR_MASK The year alarm mask allows matching the
 532:Generated_Source\PSoC4/RTC.c ****     *  alarm year register with the current year register.
 533:Generated_Source\PSoC4/RTC.c ****     *
 534:Generated_Source\PSoC4/RTC.c ****     *******************************************************************************/
 535:Generated_Source\PSoC4/RTC.c ****     void RTC_SetAlarmMask(uint32 mask)
 536:Generated_Source\PSoC4/RTC.c ****     {
 537:Generated_Source\PSoC4/RTC.c ****         RTC_alarmCfgMask = (uint8)mask;
 538:Generated_Source\PSoC4/RTC.c ****         RTC_unixTimeAlarm = RTC_ConstructUnixAlarmTime(&RTC_alarmCfgTimeDate, (uint8)mask);
 539:Generated_Source\PSoC4/RTC.c ****     }
 540:Generated_Source\PSoC4/RTC.c **** 
 541:Generated_Source\PSoC4/RTC.c **** 
 542:Generated_Source\PSoC4/RTC.c ****     /*******************************************************************************
 543:Generated_Source\PSoC4/RTC.c ****     * Function Name: RTC_GetAlarmMask
 544:Generated_Source\PSoC4/RTC.c ****     ****************************************************************************//**
 545:Generated_Source\PSoC4/RTC.c ****     *
 546:Generated_Source\PSoC4/RTC.c ****     * \brief
 547:Generated_Source\PSoC4/RTC.c ****     *  Reads the Alarm Mask software register. Generated only if the alarm 
 548:Generated_Source\PSoC4/RTC.c ****     * functionality is enabled.
ARM GAS  C:\Users\Jerry\AppData\Local\Temp\cc7m5IHi.s 			page 38


 549:Generated_Source\PSoC4/RTC.c ****     *
 550:Generated_Source\PSoC4/RTC.c ****     * \return
 551:Generated_Source\PSoC4/RTC.c ****     *  The Alarm Mask value with each bit representing the status of the alarm 
 552:Generated_Source\PSoC4/RTC.c ****     * time/date match enable.
 553:Generated_Source\PSoC4/RTC.c ****     *
 554:Generated_Source\PSoC4/RTC.c ****     * \return
 555:Generated_Source\PSoC4/RTC.c ****     *  RTC_ALARM_SEC_MASK - The second alarm mask allows matching the
 556:Generated_Source\PSoC4/RTC.c ****     * alarm second register with the current second register.
 557:Generated_Source\PSoC4/RTC.c ****     *
 558:Generated_Source\PSoC4/RTC.c ****     * \return
 559:Generated_Source\PSoC4/RTC.c ****     * RTC_ALARM_MIN_MASK - The minute alarm mask allows matching the 
 560:Generated_Source\PSoC4/RTC.c ****     * alarm minute register with the current minute register.
 561:Generated_Source\PSoC4/RTC.c ****     *
 562:Generated_Source\PSoC4/RTC.c ****     * \return
 563:Generated_Source\PSoC4/RTC.c ****     *  RTC_ALARM_HOUR_MASK - The hour alarm mask allows matching the 
 564:Generated_Source\PSoC4/RTC.c ****     * alarm hour register with the current hour register.
 565:Generated_Source\PSoC4/RTC.c ****     *
 566:Generated_Source\PSoC4/RTC.c ****     * \return
 567:Generated_Source\PSoC4/RTC.c ****     *  RTC_ALARM_DAYOFWEEK_MASK - The day of the week alarm mask allows
 568:Generated_Source\PSoC4/RTC.c ****     * matching the alarm day of the week register with the current day of the 
 569:Generated_Source\PSoC4/RTC.c ****     * week register.
 570:Generated_Source\PSoC4/RTC.c ****     *
 571:Generated_Source\PSoC4/RTC.c ****     * \return
 572:Generated_Source\PSoC4/RTC.c ****     *  RTC_ALARM_DAYOFMONTH_MASK - The day of the month alarm mask 
 573:Generated_Source\PSoC4/RTC.c ****     * allows matching the alarm day of the month register with the current day of 
 574:Generated_Source\PSoC4/RTC.c ****     * the month register.
 575:Generated_Source\PSoC4/RTC.c ****     *
 576:Generated_Source\PSoC4/RTC.c ****     * \return
 577:Generated_Source\PSoC4/RTC.c ****     *  RTC_ALARM_MONTH_MASK - The month alarm mask allows matching 
 578:Generated_Source\PSoC4/RTC.c ****     * the alarm month register with the current month register.
 579:Generated_Source\PSoC4/RTC.c ****     *
 580:Generated_Source\PSoC4/RTC.c ****     * \return
 581:Generated_Source\PSoC4/RTC.c ****     *  RTC_ALARM_YEAR_MASK - The year alarm mask allows matching the
 582:Generated_Source\PSoC4/RTC.c ****     * alarm year register with the current year register.
 583:Generated_Source\PSoC4/RTC.c ****     *
 584:Generated_Source\PSoC4/RTC.c ****     *******************************************************************************/
 585:Generated_Source\PSoC4/RTC.c ****     uint32 RTC_GetAlarmMask(void)
 586:Generated_Source\PSoC4/RTC.c ****     {
 587:Generated_Source\PSoC4/RTC.c ****         return((uint32)RTC_alarmCfgMask);
 588:Generated_Source\PSoC4/RTC.c ****     }
 589:Generated_Source\PSoC4/RTC.c **** 
 590:Generated_Source\PSoC4/RTC.c **** 
 591:Generated_Source\PSoC4/RTC.c ****     /*******************************************************************************
 592:Generated_Source\PSoC4/RTC.c ****     * Function Name: RTC_GetAlarmStatus
 593:Generated_Source\PSoC4/RTC.c ****     ****************************************************************************//**
 594:Generated_Source\PSoC4/RTC.c ****     *
 595:Generated_Source\PSoC4/RTC.c ****     * \brief
 596:Generated_Source\PSoC4/RTC.c ****     *  Returns the alarm status of RTC.
 597:Generated_Source\PSoC4/RTC.c ****     *
 598:Generated_Source\PSoC4/RTC.c ****     * \return
 599:Generated_Source\PSoC4/RTC.c ****     *  The Alarm active status. This bit is high when the current time and date match the alarm
 600:Generated_Source\PSoC4/RTC.c ****     *  time and date.
 601:Generated_Source\PSoC4/RTC.c ****     *
 602:Generated_Source\PSoC4/RTC.c ****     * \return
 603:Generated_Source\PSoC4/RTC.c ****     *  0 - The Alarm status is not active.
 604:Generated_Source\PSoC4/RTC.c ****     * \return
 605:Generated_Source\PSoC4/RTC.c ****     *  1 - The Alarm status is active.
ARM GAS  C:\Users\Jerry\AppData\Local\Temp\cc7m5IHi.s 			page 39


 606:Generated_Source\PSoC4/RTC.c ****     *
 607:Generated_Source\PSoC4/RTC.c ****     *******************************************************************************/
 608:Generated_Source\PSoC4/RTC.c ****     uint32 RTC_GetAlarmStatus(void)
 609:Generated_Source\PSoC4/RTC.c ****     {
 610:Generated_Source\PSoC4/RTC.c ****         return((0uL != (RTC_currentTimeDate.status & (1uL << RTC_STATUS_ALARM_OFFSET))) ? 1uL : 0uL
 611:Generated_Source\PSoC4/RTC.c ****     }
 612:Generated_Source\PSoC4/RTC.c **** 
 613:Generated_Source\PSoC4/RTC.c **** 
 614:Generated_Source\PSoC4/RTC.c ****     /*******************************************************************************
 615:Generated_Source\PSoC4/RTC.c ****     * Function Name: RTC_ClearAlarmStatus
 616:Generated_Source\PSoC4/RTC.c ****     ****************************************************************************//**
 617:Generated_Source\PSoC4/RTC.c ****     *
 618:Generated_Source\PSoC4/RTC.c ****     * \brief
 619:Generated_Source\PSoC4/RTC.c ****     *  Clears the alarm status of RTC.
 620:Generated_Source\PSoC4/RTC.c ****     *
 621:Generated_Source\PSoC4/RTC.c ****     * \note
 622:Generated_Source\PSoC4/RTC.c ****     * The Alarm active (AA) flag clears after read. This bit will be set in the next
 623:Generated_Source\PSoC4/RTC.c ****     * alarm match event only. If Alarm is set on only minutes and the alarm
 624:Generated_Source\PSoC4/RTC.c ****     * minutes is 20 minutes - the alarm triggers once every 20th minute of
 625:Generated_Source\PSoC4/RTC.c ****     * every hour.
 626:Generated_Source\PSoC4/RTC.c ****     *
 627:Generated_Source\PSoC4/RTC.c ****     *******************************************************************************/
 628:Generated_Source\PSoC4/RTC.c ****     void RTC_ClearAlarmStatus(void)
 629:Generated_Source\PSoC4/RTC.c ****     {
 630:Generated_Source\PSoC4/RTC.c ****         RTC_currentTimeDate.status &= (~(1uL << RTC_STATUS_ALARM_OFFSET));
 631:Generated_Source\PSoC4/RTC.c ****         RTC_alarmCurStatus = 0u;
 632:Generated_Source\PSoC4/RTC.c ****     }
 633:Generated_Source\PSoC4/RTC.c **** 
 634:Generated_Source\PSoC4/RTC.c **** 
 635:Generated_Source\PSoC4/RTC.c ****     /*******************************************************************************
 636:Generated_Source\PSoC4/RTC.c ****     * Function Name: RTC_SetAlarmHandler
 637:Generated_Source\PSoC4/RTC.c ****     ****************************************************************************//**
 638:Generated_Source\PSoC4/RTC.c ****     *
 639:Generated_Source\PSoC4/RTC.c ****     * \brief
 640:Generated_Source\PSoC4/RTC.c ****     *  This API sets the function to be called when the alarm goes off / triggers.
 641:Generated_Source\PSoC4/RTC.c ****     *  This API is generated only if the alarm functionality is enabled in the
 642:Generated_Source\PSoC4/RTC.c ****     *  customizer.
 643:Generated_Source\PSoC4/RTC.c ****     *
 644:Generated_Source\PSoC4/RTC.c ****     * \param
 645:Generated_Source\PSoC4/RTC.c ****     *  CallbackFunction The callback function address.
 646:Generated_Source\PSoC4/RTC.c ****     *
 647:Generated_Source\PSoC4/RTC.c ****     * \return
 648:Generated_Source\PSoC4/RTC.c ****     *  A previous callback function address.
 649:Generated_Source\PSoC4/RTC.c ****     *
 650:Generated_Source\PSoC4/RTC.c ****     *******************************************************************************/
 651:Generated_Source\PSoC4/RTC.c ****     void* RTC_SetAlarmHandler(void (*CallbackFunction)(void))
 652:Generated_Source\PSoC4/RTC.c ****     {
 653:Generated_Source\PSoC4/RTC.c ****         void (*tmpCallbackPtr)(void);
 654:Generated_Source\PSoC4/RTC.c **** 
 655:Generated_Source\PSoC4/RTC.c ****         tmpCallbackPtr = RTC_alarmCallbackPtr;
 656:Generated_Source\PSoC4/RTC.c ****         RTC_alarmCallbackPtr = CallbackFunction;
 657:Generated_Source\PSoC4/RTC.c **** 
 658:Generated_Source\PSoC4/RTC.c ****         return((void*)tmpCallbackPtr);
 659:Generated_Source\PSoC4/RTC.c ****     }
 660:Generated_Source\PSoC4/RTC.c **** 
 661:Generated_Source\PSoC4/RTC.c **** 
 662:Generated_Source\PSoC4/RTC.c ****     /*******************************************************************************
ARM GAS  C:\Users\Jerry\AppData\Local\Temp\cc7m5IHi.s 			page 40


 663:Generated_Source\PSoC4/RTC.c ****     * Function Name: RTC_GetNexAlarmTime
 664:Generated_Source\PSoC4/RTC.c ****     ****************************************************************************//**
 665:Generated_Source\PSoC4/RTC.c ****     *
 666:Generated_Source\PSoC4/RTC.c ****     * \brief
 667:Generated_Source\PSoC4/RTC.c ****     *  This is an internal function that calculates the time of the next alarm
 668:Generated_Source\PSoC4/RTC.c ****     *  in the UNIX format taking into account the current "Alarm Config Mask".
 669:Generated_Source\PSoC4/RTC.c ****     *
 670:Generated_Source\PSoC4/RTC.c ****     * \param
 671:Generated_Source\PSoC4/RTC.c ****     *  curUnixTime The current time value in the UNIX format.
 672:Generated_Source\PSoC4/RTC.c ****     *
 673:Generated_Source\PSoC4/RTC.c ****     * \param
 674:Generated_Source\PSoC4/RTC.c ****     *  alarmCfgMask The current Alarm Config Mask.
 675:Generated_Source\PSoC4/RTC.c ****     *
 676:Generated_Source\PSoC4/RTC.c ****     * \return Returns time of the next alarm in the UNIX format.
 677:Generated_Source\PSoC4/RTC.c ****     *
 678:Generated_Source\PSoC4/RTC.c ****     *******************************************************************************/
 679:Generated_Source\PSoC4/RTC.c ****     uint64 RTC_GetNexAlarmTime(uint64 curUnixTime, uint8 alarmCfgMask)
 680:Generated_Source\PSoC4/RTC.c ****     {
 681:Generated_Source\PSoC4/RTC.c ****         uint32 prevVal;
 682:Generated_Source\PSoC4/RTC.c ****         uint32 nextVal;
 683:Generated_Source\PSoC4/RTC.c ****         uint32 carryFlag;
 684:Generated_Source\PSoC4/RTC.c ****         uint32 daysInMonth;
 685:Generated_Source\PSoC4/RTC.c ****         RTC_DATE_TIME curDateTime;
 686:Generated_Source\PSoC4/RTC.c **** 
 687:Generated_Source\PSoC4/RTC.c ****         carryFlag = 1u;
 688:Generated_Source\PSoC4/RTC.c ****         RTC_UnixToDateTime(&curDateTime, curUnixTime, (uint32)RTC_24_HOURS_FORMAT);
 689:Generated_Source\PSoC4/RTC.c **** 
 690:Generated_Source\PSoC4/RTC.c ****         /* Calculates Second value of next alarm time based on current time and Alarm Config Mask. 
 691:Generated_Source\PSoC4/RTC.c ****         if(0uL != ((~((uint32)alarmCfgMask)) & RTC_ALARM_SEC_MASK))
 692:Generated_Source\PSoC4/RTC.c ****         {
 693:Generated_Source\PSoC4/RTC.c ****             prevVal = RTC_GetSecond(curDateTime.time);
 694:Generated_Source\PSoC4/RTC.c ****             nextVal = RTC_GetNextMinSec(prevVal);
 695:Generated_Source\PSoC4/RTC.c ****             curDateTime.time = RTC_SetSecond(curDateTime.time, nextVal);
 696:Generated_Source\PSoC4/RTC.c ****             carryFlag = (nextVal < prevVal) ? 1u : 0u;
 697:Generated_Source\PSoC4/RTC.c ****         }
 698:Generated_Source\PSoC4/RTC.c **** 
 699:Generated_Source\PSoC4/RTC.c ****         /* Calculates Minute value of next alarm time based on current time and Alarm Config Mask. 
 700:Generated_Source\PSoC4/RTC.c ****         if((0uL != carryFlag) && (0uL != ((~((uint32)alarmCfgMask)) & RTC_ALARM_MIN_MASK)))
 701:Generated_Source\PSoC4/RTC.c ****         {
 702:Generated_Source\PSoC4/RTC.c ****             prevVal = RTC_GetMinutes(curDateTime.time);
 703:Generated_Source\PSoC4/RTC.c ****             nextVal = RTC_GetNextMinSec(prevVal);
 704:Generated_Source\PSoC4/RTC.c ****             curDateTime.time = RTC_SetMinutes(curDateTime.time, nextVal);
 705:Generated_Source\PSoC4/RTC.c ****             carryFlag = (nextVal < prevVal) ? 1u : 0u;
 706:Generated_Source\PSoC4/RTC.c ****         }
 707:Generated_Source\PSoC4/RTC.c **** 
 708:Generated_Source\PSoC4/RTC.c ****         /* Calculates Hour value of next alarm time based on current time and Alarm Config Mask. */
 709:Generated_Source\PSoC4/RTC.c ****         if((0uL != carryFlag) && (0uL != ((~((uint32)alarmCfgMask)) & RTC_ALARM_HOUR_MASK)))
 710:Generated_Source\PSoC4/RTC.c ****         {
 711:Generated_Source\PSoC4/RTC.c ****             prevVal = RTC_GetHours(curDateTime.time);
 712:Generated_Source\PSoC4/RTC.c ****             nextVal = RTC_GetNextHour(prevVal);
 713:Generated_Source\PSoC4/RTC.c ****             curDateTime.time = RTC_SetHours(curDateTime.time, nextVal);
 714:Generated_Source\PSoC4/RTC.c ****             carryFlag = (nextVal < prevVal) ? 1u : 0u;
 715:Generated_Source\PSoC4/RTC.c ****         }
 716:Generated_Source\PSoC4/RTC.c **** 
 717:Generated_Source\PSoC4/RTC.c ****         /* Calculates Day value of next alarm time based on current time and Alarm Config Mask. */
 718:Generated_Source\PSoC4/RTC.c ****         if((0uL != carryFlag) && (0uL != ((~((uint32)alarmCfgMask)) & RTC_ALARM_DAYOFMONTH_MASK)))
 719:Generated_Source\PSoC4/RTC.c ****         {
ARM GAS  C:\Users\Jerry\AppData\Local\Temp\cc7m5IHi.s 			page 41


 720:Generated_Source\PSoC4/RTC.c ****             prevVal = RTC_GetDay(curDateTime.date);
 721:Generated_Source\PSoC4/RTC.c ****             if(0u != (alarmCfgMask & RTC_ALARM_DAYOFWEEK_MASK))
 722:Generated_Source\PSoC4/RTC.c ****             {
 723:Generated_Source\PSoC4/RTC.c ****                 daysInMonth = RTC_DaysInMonth(RTC_GetMonth(curDateTime.date),
 724:Generated_Source\PSoC4/RTC.c ****                                                            RTC_GetYear(curDateTime.date));
 725:Generated_Source\PSoC4/RTC.c ****                 nextVal = prevVal + RTC_DAYS_PER_WEEK;
 726:Generated_Source\PSoC4/RTC.c ****                 nextVal = (nextVal > daysInMonth) ? (nextVal - daysInMonth) : nextVal;
 727:Generated_Source\PSoC4/RTC.c ****             }
 728:Generated_Source\PSoC4/RTC.c ****             else
 729:Generated_Source\PSoC4/RTC.c ****             {
 730:Generated_Source\PSoC4/RTC.c ****                 nextVal = RTC_GetNextDay(RTC_GetYear(curDateTime.date),
 731:Generated_Source\PSoC4/RTC.c ****                                                       RTC_GetMonth(curDateTime.date),
 732:Generated_Source\PSoC4/RTC.c ****                                                       RTC_GetDay(curDateTime.date),
 733:Generated_Source\PSoC4/RTC.c ****                                                       (~((uint32)alarmCfgMask)));
 734:Generated_Source\PSoC4/RTC.c ****             }
 735:Generated_Source\PSoC4/RTC.c ****             curDateTime.date = RTC_SetDay(curDateTime.date, nextVal);
 736:Generated_Source\PSoC4/RTC.c ****             carryFlag = (nextVal < prevVal) ? 1u : 0u;
 737:Generated_Source\PSoC4/RTC.c ****         }
 738:Generated_Source\PSoC4/RTC.c **** 
 739:Generated_Source\PSoC4/RTC.c ****         /* Calculates Month value of next alarm time based on current time and Alarm Config Mask. *
 740:Generated_Source\PSoC4/RTC.c ****         if((0uL != carryFlag) && (0uL != ((~((uint32)alarmCfgMask)) & RTC_ALARM_MONTH_MASK)))
 741:Generated_Source\PSoC4/RTC.c ****         {
 742:Generated_Source\PSoC4/RTC.c ****             prevVal = RTC_GetMonth(curDateTime.date);
 743:Generated_Source\PSoC4/RTC.c ****             nextVal = RTC_GetNextMonth(prevVal);
 744:Generated_Source\PSoC4/RTC.c ****             curDateTime.date = RTC_SetMonth(curDateTime.date, nextVal);
 745:Generated_Source\PSoC4/RTC.c ****             carryFlag = (nextVal < prevVal) ? 1u : 0u;
 746:Generated_Source\PSoC4/RTC.c ****         }
 747:Generated_Source\PSoC4/RTC.c **** 
 748:Generated_Source\PSoC4/RTC.c ****         /* Calculates Year value of next alarm time based on current time and Alarm Config Mask. */
 749:Generated_Source\PSoC4/RTC.c ****         if((0uL != carryFlag) && (0uL != ((~((uint32)alarmCfgMask)) & RTC_ALARM_YEAR_MASK)))
 750:Generated_Source\PSoC4/RTC.c ****         {
 751:Generated_Source\PSoC4/RTC.c ****             prevVal = RTC_GetYear(curDateTime.date);
 752:Generated_Source\PSoC4/RTC.c ****             nextVal = RTC_GetNextYear(prevVal);
 753:Generated_Source\PSoC4/RTC.c ****             curDateTime.date = RTC_SetYear(curDateTime.date, nextVal);
 754:Generated_Source\PSoC4/RTC.c ****         }
 755:Generated_Source\PSoC4/RTC.c **** 
 756:Generated_Source\PSoC4/RTC.c ****         return(RTC_DateTimeToUnix(curDateTime.date, curDateTime.time));
 757:Generated_Source\PSoC4/RTC.c ****     }
 758:Generated_Source\PSoC4/RTC.c **** 
 759:Generated_Source\PSoC4/RTC.c **** 
 760:Generated_Source\PSoC4/RTC.c ****     /*******************************************************************************
 761:Generated_Source\PSoC4/RTC.c ****     * Function Name: RTC_ConstructUnixAlarmTime
 762:Generated_Source\PSoC4/RTC.c ****     ****************************************************************************//**
 763:Generated_Source\PSoC4/RTC.c ****     *
 764:Generated_Source\PSoC4/RTC.c ****     * \brief
 765:Generated_Source\PSoC4/RTC.c ****     *  This is an internal function that calculates the time of the first alarm
 766:Generated_Source\PSoC4/RTC.c ****     *  in the UNIX format taking into account the current "Alarm Config Mask".
 767:Generated_Source\PSoC4/RTC.c ****     *
 768:Generated_Source\PSoC4/RTC.c ****     * \param
 769:Generated_Source\PSoC4/RTC.c ****     *  alarmTime Desired alarm time in the regular time format.
 770:Generated_Source\PSoC4/RTC.c ****     *
 771:Generated_Source\PSoC4/RTC.c ****     * \param
 772:Generated_Source\PSoC4/RTC.c ****     *  alarmCfgMask The current Alarm Config Mask.
 773:Generated_Source\PSoC4/RTC.c ****     *
 774:Generated_Source\PSoC4/RTC.c ****     * \return
 775:Generated_Source\PSoC4/RTC.c ****     *  time of the first alarm in the UNIX format.
 776:Generated_Source\PSoC4/RTC.c ****     *
ARM GAS  C:\Users\Jerry\AppData\Local\Temp\cc7m5IHi.s 			page 42


 777:Generated_Source\PSoC4/RTC.c ****     *******************************************************************************/
 778:Generated_Source\PSoC4/RTC.c ****     uint64 RTC_ConstructUnixAlarmTime(const RTC_DATE_TIME* alarmTime, uint8 alarmCfgMask)
 779:Generated_Source\PSoC4/RTC.c ****     {
 780:Generated_Source\PSoC4/RTC.c ****         uint32 tmpCurVal;
 781:Generated_Source\PSoC4/RTC.c ****         uint32 tmpNextVal;
 782:Generated_Source\PSoC4/RTC.c ****         uint32 carryFlag;
 783:Generated_Source\PSoC4/RTC.c ****         uint32 tmpAlarmDate;
 784:Generated_Source\PSoC4/RTC.c ****         uint32 tmpAlarmTime;
 785:Generated_Source\PSoC4/RTC.c ****         uint32 daysInMonth;
 786:Generated_Source\PSoC4/RTC.c ****         RTC_DATE_TIME curDateTime;
 787:Generated_Source\PSoC4/RTC.c **** 
 788:Generated_Source\PSoC4/RTC.c ****         tmpAlarmDate = 0u;
 789:Generated_Source\PSoC4/RTC.c ****         tmpAlarmTime = 0u;
 790:Generated_Source\PSoC4/RTC.c ****         RTC_UnixToDateTime(&curDateTime, RTC_unixTime, (uint32)RTC_24_HOURS_FORMAT);
 791:Generated_Source\PSoC4/RTC.c **** 
 792:Generated_Source\PSoC4/RTC.c ****         /* Calculates Seconds value of first Alarm based on current time and Alarm Config Mask. */
 793:Generated_Source\PSoC4/RTC.c ****         tmpCurVal =  RTC_GetSecond(curDateTime.time);
 794:Generated_Source\PSoC4/RTC.c ****         tmpNextVal = RTC_GetSecond(alarmTime->time);
 795:Generated_Source\PSoC4/RTC.c ****         carryFlag = (tmpCurVal > tmpNextVal) ? 1u : 0u;
 796:Generated_Source\PSoC4/RTC.c ****         if(0u != ((~((uint32)alarmCfgMask)) & RTC_ALARM_SEC_MASK))
 797:Generated_Source\PSoC4/RTC.c ****         {
 798:Generated_Source\PSoC4/RTC.c ****             tmpNextVal = (0u != carryFlag) ? 0u : tmpCurVal;
 799:Generated_Source\PSoC4/RTC.c ****         }
 800:Generated_Source\PSoC4/RTC.c ****         tmpAlarmTime = RTC_SetSecond(tmpAlarmTime, tmpNextVal);
 801:Generated_Source\PSoC4/RTC.c **** 
 802:Generated_Source\PSoC4/RTC.c ****         /* Calculates Minutes value of first Alarm based on current time and Alarm Config Mask. */
 803:Generated_Source\PSoC4/RTC.c ****         tmpCurVal  = RTC_GetMinutes(curDateTime.time);
 804:Generated_Source\PSoC4/RTC.c ****         if(0u != ((~((uint32)alarmCfgMask)) & RTC_ALARM_MIN_MASK))
 805:Generated_Source\PSoC4/RTC.c ****         {
 806:Generated_Source\PSoC4/RTC.c ****             tmpNextVal = (0u != carryFlag) ? RTC_GetNextMinSec(tmpCurVal) : tmpCurVal;
 807:Generated_Source\PSoC4/RTC.c ****         }
 808:Generated_Source\PSoC4/RTC.c ****         else
 809:Generated_Source\PSoC4/RTC.c ****         {
 810:Generated_Source\PSoC4/RTC.c ****             tmpNextVal = RTC_GetMinutes(alarmTime->time);
 811:Generated_Source\PSoC4/RTC.c ****         }
 812:Generated_Source\PSoC4/RTC.c ****         carryFlag  = (tmpNextVal < tmpCurVal) ? 1u : 0u;
 813:Generated_Source\PSoC4/RTC.c ****         tmpAlarmTime =  RTC_SetMinutes(tmpAlarmTime, tmpNextVal);
 814:Generated_Source\PSoC4/RTC.c **** 
 815:Generated_Source\PSoC4/RTC.c ****         /* Calculates Hours value of first Alarm based on current time and Alarm Config Mask. */
 816:Generated_Source\PSoC4/RTC.c ****         tmpCurVal  = RTC_GetHours(curDateTime.time);
 817:Generated_Source\PSoC4/RTC.c ****         if(0u != ((~((uint32)alarmCfgMask)) & RTC_ALARM_HOUR_MASK))
 818:Generated_Source\PSoC4/RTC.c ****         {
 819:Generated_Source\PSoC4/RTC.c ****             tmpNextVal = (0u != carryFlag) ? RTC_GetNextHour(tmpCurVal) : tmpCurVal;
 820:Generated_Source\PSoC4/RTC.c ****         }
 821:Generated_Source\PSoC4/RTC.c ****         else
 822:Generated_Source\PSoC4/RTC.c ****         {
 823:Generated_Source\PSoC4/RTC.c ****             tmpNextVal = RTC_GetHours(alarmTime->time);
 824:Generated_Source\PSoC4/RTC.c ****             if((uint32)RTC_24_HOURS_FORMAT != RTC_GetTimeFormat(alarmTime->time))
 825:Generated_Source\PSoC4/RTC.c ****             {
 826:Generated_Source\PSoC4/RTC.c ****                 if((uint32)RTC_AM != RTC_GetAmPm(alarmTime->time))
 827:Generated_Source\PSoC4/RTC.c ****                 {
 828:Generated_Source\PSoC4/RTC.c ****                     tmpNextVal += RTC_HOURS_PER_HALF_DAY;
 829:Generated_Source\PSoC4/RTC.c ****                 }
 830:Generated_Source\PSoC4/RTC.c ****             }
 831:Generated_Source\PSoC4/RTC.c ****         }
 832:Generated_Source\PSoC4/RTC.c ****         carryFlag  = (tmpNextVal < tmpCurVal) ? 1u : 0u;
 833:Generated_Source\PSoC4/RTC.c ****         tmpAlarmTime =  RTC_SetHours(tmpAlarmTime, tmpNextVal);
ARM GAS  C:\Users\Jerry\AppData\Local\Temp\cc7m5IHi.s 			page 43


 834:Generated_Source\PSoC4/RTC.c **** 
 835:Generated_Source\PSoC4/RTC.c ****         /* Calculates Day value of first Alarm based on current time and Alarm Config Mask. */
 836:Generated_Source\PSoC4/RTC.c ****         tmpCurVal  = RTC_GetDay(curDateTime.date);
 837:Generated_Source\PSoC4/RTC.c ****         tmpNextVal = RTC_GetDay(alarmTime->date);
 838:Generated_Source\PSoC4/RTC.c ****         if(0u != ((~((uint32)alarmCfgMask)) & RTC_ALARM_DAYOFMONTH_MASK))
 839:Generated_Source\PSoC4/RTC.c ****         {
 840:Generated_Source\PSoC4/RTC.c ****             if(0u != (alarmCfgMask & RTC_ALARM_DAYOFWEEK_MASK))
 841:Generated_Source\PSoC4/RTC.c ****             {
 842:Generated_Source\PSoC4/RTC.c ****                 daysInMonth = RTC_DaysInMonth(RTC_GetMonth(curDateTime.date),
 843:Generated_Source\PSoC4/RTC.c ****                                                            RTC_GetYear(curDateTime.date));
 844:Generated_Source\PSoC4/RTC.c ****                 tmpNextVal = (curDateTime.dayOfWeek <= alarmTime->dayOfWeek) ? (alarmTime->dayOfWee
 845:Generated_Source\PSoC4/RTC.c ****                                 ((RTC_DAYS_PER_WEEK - curDateTime.dayOfWeek) + alarmTime->dayOfWeek
 846:Generated_Source\PSoC4/RTC.c ****                 tmpNextVal = tmpCurVal + tmpNextVal;
 847:Generated_Source\PSoC4/RTC.c ****                 tmpNextVal = (tmpNextVal > daysInMonth) ? (tmpNextVal - daysInMonth) : tmpNextVal;
 848:Generated_Source\PSoC4/RTC.c ****             }
 849:Generated_Source\PSoC4/RTC.c ****             else
 850:Generated_Source\PSoC4/RTC.c ****             {
 851:Generated_Source\PSoC4/RTC.c ****                 tmpNextVal = (0u == carryFlag) ? tmpCurVal : RTC_GetNextDay(RTC_GetYear(curDateTime
 852:Generated_Source\PSoC4/RTC.c ****                                                               RTC_GetMonth(curDateTime.date),
 853:Generated_Source\PSoC4/RTC.c ****                                                                tmpCurVal,
 854:Generated_Source\PSoC4/RTC.c ****                                                               RTC_ALARM_DAYOFMONTH_MASK);
 855:Generated_Source\PSoC4/RTC.c ****             }
 856:Generated_Source\PSoC4/RTC.c ****         }
 857:Generated_Source\PSoC4/RTC.c ****         carryFlag  = (tmpNextVal < tmpCurVal) ? 1u : 0u;
 858:Generated_Source\PSoC4/RTC.c ****         tmpAlarmDate =  RTC_SetDay(tmpAlarmDate, tmpNextVal);
 859:Generated_Source\PSoC4/RTC.c **** 
 860:Generated_Source\PSoC4/RTC.c ****         /* Calculates Month value of first Alarm based on current time and Alarm Config Mask. */
 861:Generated_Source\PSoC4/RTC.c ****         tmpCurVal  = RTC_GetMonth(curDateTime.date);
 862:Generated_Source\PSoC4/RTC.c ****         if(0u != ((~((uint32)alarmCfgMask)) & RTC_ALARM_MONTH_MASK))
 863:Generated_Source\PSoC4/RTC.c ****         {
 864:Generated_Source\PSoC4/RTC.c ****             tmpNextVal = (0u != carryFlag) ? RTC_GetNextMonth(tmpCurVal) : tmpCurVal;
 865:Generated_Source\PSoC4/RTC.c ****         }
 866:Generated_Source\PSoC4/RTC.c ****         else
 867:Generated_Source\PSoC4/RTC.c ****         {
 868:Generated_Source\PSoC4/RTC.c ****             tmpNextVal = RTC_GetMonth(alarmTime->date);
 869:Generated_Source\PSoC4/RTC.c ****         }
 870:Generated_Source\PSoC4/RTC.c ****         carryFlag  = (tmpNextVal < tmpCurVal) ? 1u : 0u;
 871:Generated_Source\PSoC4/RTC.c ****         tmpAlarmDate =  RTC_SetMonth(tmpAlarmDate, tmpNextVal);
 872:Generated_Source\PSoC4/RTC.c **** 
 873:Generated_Source\PSoC4/RTC.c ****         /* Calculates Year value of first Alarm based on current time and Alarm Config Mask. */
 874:Generated_Source\PSoC4/RTC.c ****         tmpCurVal  = RTC_GetYear(curDateTime.date);
 875:Generated_Source\PSoC4/RTC.c ****         if(0u != ((~((uint32)alarmCfgMask)) & RTC_ALARM_MONTH_MASK))
 876:Generated_Source\PSoC4/RTC.c ****         {
 877:Generated_Source\PSoC4/RTC.c ****             tmpNextVal = (0u != carryFlag) ? RTC_GetNextYear(tmpCurVal) : tmpCurVal;
 878:Generated_Source\PSoC4/RTC.c ****         }
 879:Generated_Source\PSoC4/RTC.c ****         else
 880:Generated_Source\PSoC4/RTC.c ****         {
 881:Generated_Source\PSoC4/RTC.c ****             tmpNextVal = RTC_GetYear(alarmTime->date);
 882:Generated_Source\PSoC4/RTC.c ****         }
 883:Generated_Source\PSoC4/RTC.c ****         tmpAlarmDate =  RTC_SetYear(tmpAlarmDate, tmpNextVal);
 884:Generated_Source\PSoC4/RTC.c **** 
 885:Generated_Source\PSoC4/RTC.c ****         return(RTC_DateTimeToUnix(tmpAlarmDate, tmpAlarmTime));
 886:Generated_Source\PSoC4/RTC.c ****     }
 887:Generated_Source\PSoC4/RTC.c **** #endif/* (0u != RTC_INITIAL_ALARM_STATUS) */
 888:Generated_Source\PSoC4/RTC.c **** 
 889:Generated_Source\PSoC4/RTC.c **** 
 890:Generated_Source\PSoC4/RTC.c **** /*******************************************************************************
ARM GAS  C:\Users\Jerry\AppData\Local\Temp\cc7m5IHi.s 			page 44


 891:Generated_Source\PSoC4/RTC.c **** * Function Name: RTC_ReadStatus
 892:Generated_Source\PSoC4/RTC.c **** ****************************************************************************//**
 893:Generated_Source\PSoC4/RTC.c **** *
 894:Generated_Source\PSoC4/RTC.c **** * \brief
 895:Generated_Source\PSoC4/RTC.c **** * Reads the Status software register, which has flags for DST (DST),
 896:Generated_Source\PSoC4/RTC.c **** * Leap Year (LY), AM/PM (AM_PM).
 897:Generated_Source\PSoC4/RTC.c **** *
 898:Generated_Source\PSoC4/RTC.c **** * \return
 899:Generated_Source\PSoC4/RTC.c **** * The values shown below are OR'ed and returned if more than one status
 900:Generated_Source\PSoC4/RTC.c **** * bits are set.
 901:Generated_Source\PSoC4/RTC.c **** *
 902:Generated_Source\PSoC4/RTC.c **** * \return
 903:Generated_Source\PSoC4/RTC.c **** * RTC_STATUS_DST - Status of Daylight Saving Time. This bit
 904:Generated_Source\PSoC4/RTC.c **** * goes high when the current time and date match the DST time and date and the 
 905:Generated_Source\PSoC4/RTC.c **** * time is incremented. This bit goes low after the DST interval and the time is 
 906:Generated_Source\PSoC4/RTC.c **** * decremented.
 907:Generated_Source\PSoC4/RTC.c **** *
 908:Generated_Source\PSoC4/RTC.c **** * \return
 909:Generated_Source\PSoC4/RTC.c **** * RTC_STATUS_LY - Status of Leap Year. This bit goes high when the 
 910:Generated_Source\PSoC4/RTC.c **** * current year is a leap year.
 911:Generated_Source\PSoC4/RTC.c **** *
 912:Generated_Source\PSoC4/RTC.c **** * \return
 913:Generated_Source\PSoC4/RTC.c **** * RTC_STATUS_AM_PM - Status of Current Time. This bit is low from 
 914:Generated_Source\PSoC4/RTC.c **** * midnight to noon and high from noon to midnight.
 915:Generated_Source\PSoC4/RTC.c **** *
 916:Generated_Source\PSoC4/RTC.c **** * \note
 917:Generated_Source\PSoC4/RTC.c **** * Reading the status without sync with the date and time read may cause an
 918:Generated_Source\PSoC4/RTC.c **** * error due to a roll-over at AM/PM, the end of a year, the end of a day;
 919:Generated_Source\PSoC4/RTC.c **** * RTC_GetDateAndTime() API is used to obtain the status and
 920:Generated_Source\PSoC4/RTC.c **** * the status member of the returned structure can be checked with the masks.
 921:Generated_Source\PSoC4/RTC.c **** *
 922:Generated_Source\PSoC4/RTC.c **** *******************************************************************************/
 923:Generated_Source\PSoC4/RTC.c **** uint32 RTC_ReadStatus(void)
 924:Generated_Source\PSoC4/RTC.c **** {
 925:Generated_Source\PSoC4/RTC.c ****     uint32 tmpYear;
 926:Generated_Source\PSoC4/RTC.c ****     RTC_DATE_TIME tmpTimeDate;
 927:Generated_Source\PSoC4/RTC.c **** 
 928:Generated_Source\PSoC4/RTC.c ****     RTC_GetDateAndTime(&tmpTimeDate);
 929:Generated_Source\PSoC4/RTC.c ****     tmpYear = RTC_GetYear(tmpTimeDate.date);
 930:Generated_Source\PSoC4/RTC.c **** 
 931:Generated_Source\PSoC4/RTC.c ****     if(0uL != RTC_LeapYear(tmpYear))
 932:Generated_Source\PSoC4/RTC.c ****     {
 933:Generated_Source\PSoC4/RTC.c ****         RTC_currentTimeDate.status |= (1uL << RTC_STATUS_LY_OFFSET);
 934:Generated_Source\PSoC4/RTC.c ****     }
 935:Generated_Source\PSoC4/RTC.c ****     else
 936:Generated_Source\PSoC4/RTC.c ****     {
 937:Generated_Source\PSoC4/RTC.c ****         RTC_currentTimeDate.status &= ~(1uL << RTC_STATUS_LY_OFFSET);
 938:Generated_Source\PSoC4/RTC.c ****     }
 939:Generated_Source\PSoC4/RTC.c **** 
 940:Generated_Source\PSoC4/RTC.c **** 
 941:Generated_Source\PSoC4/RTC.c ****     if(0uL != RTC_GetAmPm(tmpTimeDate.time))
 942:Generated_Source\PSoC4/RTC.c ****     {
 943:Generated_Source\PSoC4/RTC.c ****         RTC_currentTimeDate.status |= (1uL << RTC_STATUS_AM_PM_OFFSET);
 944:Generated_Source\PSoC4/RTC.c ****     }
 945:Generated_Source\PSoC4/RTC.c ****     else
 946:Generated_Source\PSoC4/RTC.c ****     {
 947:Generated_Source\PSoC4/RTC.c ****         RTC_currentTimeDate.status &= ~(1uL << RTC_STATUS_AM_PM_OFFSET);
ARM GAS  C:\Users\Jerry\AppData\Local\Temp\cc7m5IHi.s 			page 45


 948:Generated_Source\PSoC4/RTC.c ****     }
 949:Generated_Source\PSoC4/RTC.c **** 
 950:Generated_Source\PSoC4/RTC.c ****     return(RTC_currentTimeDate.status);
 951:Generated_Source\PSoC4/RTC.c **** }
 952:Generated_Source\PSoC4/RTC.c **** 
 953:Generated_Source\PSoC4/RTC.c **** 
 954:Generated_Source\PSoC4/RTC.c **** #if(0u != RTC_INITIAL_DST_STATUS)
 955:Generated_Source\PSoC4/RTC.c ****     /*******************************************************************************
 956:Generated_Source\PSoC4/RTC.c ****     * Function Name: RTC_SetDSTStartTime
 957:Generated_Source\PSoC4/RTC.c ****     ****************************************************************************//**
 958:Generated_Source\PSoC4/RTC.c ****     *
 959:Generated_Source\PSoC4/RTC.c ****     * \brief
 960:Generated_Source\PSoC4/RTC.c ****     *  Stores the DST Start time.
 961:Generated_Source\PSoC4/RTC.c ****     *
 962:Generated_Source\PSoC4/RTC.c ****     *  Only generated if DST is enabled. The date passed can be relative or fixed. 
 963:Generated_Source\PSoC4/RTC.c ****     *  For a relative date, the user needs to provide a valid day of a week, a 
 964:Generated_Source\PSoC4/RTC.c ****     *  week of a month and a month in the dstStartTime structure.
 965:Generated_Source\PSoC4/RTC.c ****     *  For a fixed date, the user needs to enter a valid day of a month and a month in
 966:Generated_Source\PSoC4/RTC.c ****     *  the dstStartTime structure. The hour value is optional and if invalid
 967:Generated_Source\PSoC4/RTC.c ****     *  taken as 00 hrs. Invalid entries are not stored and the DST start date
 968:Generated_Source\PSoC4/RTC.c ****     *  retains a previous value or no value at all.
 969:Generated_Source\PSoC4/RTC.c ****     *
 970:Generated_Source\PSoC4/RTC.c ****     * \param
 971:Generated_Source\PSoC4/RTC.c ****     *  dstStartTime The DST Start time register value.
 972:Generated_Source\PSoC4/RTC.c ****     *
 973:Generated_Source\PSoC4/RTC.c ****     * \param
 974:Generated_Source\PSoC4/RTC.c ****     *  type Defines the DST operation mode <br>
 975:Generated_Source\PSoC4/RTC.c ****     *  DST_DATE_RELATIVE - The DST start time is relative. <br>
 976:Generated_Source\PSoC4/RTC.c ****     *  DST_DATE_FIXED - The DST start time is fixed.
 977:Generated_Source\PSoC4/RTC.c ****     *
 978:Generated_Source\PSoC4/RTC.c ****     *******************************************************************************/
 979:Generated_Source\PSoC4/RTC.c ****     void RTC_SetDSTStartTime(const RTC_DST_TIME* dstStartTime,
 980:Generated_Source\PSoC4/RTC.c ****                                                 RTC_DST_DATETYPE_ENUM type)
 981:Generated_Source\PSoC4/RTC.c ****     {
 982:Generated_Source\PSoC4/RTC.c ****         RTC_dstStartTime.timeFormat    = (uint8)type;
 983:Generated_Source\PSoC4/RTC.c ****         RTC_dstStartTime.hour          = dstStartTime->hour;
 984:Generated_Source\PSoC4/RTC.c ****         RTC_dstStartTime.dayOfWeek     = dstStartTime->dayOfWeek;
 985:Generated_Source\PSoC4/RTC.c ****         RTC_dstStartTime.weekOfMonth   = dstStartTime->weekOfMonth;
 986:Generated_Source\PSoC4/RTC.c ****         RTC_dstStartTime.dayOfMonth    = dstStartTime->dayOfMonth;
 987:Generated_Source\PSoC4/RTC.c ****         RTC_dstStartTime.month         = dstStartTime->month;
 988:Generated_Source\PSoC4/RTC.c **** 
 989:Generated_Source\PSoC4/RTC.c ****         RTC_unixTimeDstStart = RTC_GetDstUnixTime(&RTC_dstStartTime);
 990:Generated_Source\PSoC4/RTC.c **** 
 991:Generated_Source\PSoC4/RTC.c ****         if((RTC_unixTime >= RTC_unixTimeDstStart) &&
 992:Generated_Source\PSoC4/RTC.c ****            (RTC_unixTime <= RTC_unixTimeDstStop))
 993:Generated_Source\PSoC4/RTC.c ****         {
 994:Generated_Source\PSoC4/RTC.c ****             RTC_dstStatus = 1u;
 995:Generated_Source\PSoC4/RTC.c ****             RTC_dstTimeOffset = RTC_SECONDS_PER_HOUR;
 996:Generated_Source\PSoC4/RTC.c ****         }
 997:Generated_Source\PSoC4/RTC.c ****         else
 998:Generated_Source\PSoC4/RTC.c ****         {
 999:Generated_Source\PSoC4/RTC.c ****             RTC_dstStatus = 0u;
1000:Generated_Source\PSoC4/RTC.c ****             RTC_dstTimeOffset = 0uL;
1001:Generated_Source\PSoC4/RTC.c ****         }
1002:Generated_Source\PSoC4/RTC.c ****     }
1003:Generated_Source\PSoC4/RTC.c **** 
1004:Generated_Source\PSoC4/RTC.c **** 
ARM GAS  C:\Users\Jerry\AppData\Local\Temp\cc7m5IHi.s 			page 46


1005:Generated_Source\PSoC4/RTC.c ****     /*******************************************************************************
1006:Generated_Source\PSoC4/RTC.c ****     * Function Name: RTC_SetDSTStopTime
1007:Generated_Source\PSoC4/RTC.c ****     ****************************************************************************//**
1008:Generated_Source\PSoC4/RTC.c ****     *
1009:Generated_Source\PSoC4/RTC.c ****     * \brief
1010:Generated_Source\PSoC4/RTC.c ****     *  Stores the DST Stop time.
1011:Generated_Source\PSoC4/RTC.c ****     * 
1012:Generated_Source\PSoC4/RTC.c ****     *  Only generated if DST is enabled. The date passed can be relative or fixed. 
1013:Generated_Source\PSoC4/RTC.c ****     *  For a relative date, the user needs to provide a valid day of a week, a week 
1014:Generated_Source\PSoC4/RTC.c ****     *  of a month and a month in the dstStopTime structure.
1015:Generated_Source\PSoC4/RTC.c ****     *  For a fixed date, the user needs to enter a valid day of a month and a month in the
1016:Generated_Source\PSoC4/RTC.c ****     *  dstSoptTime structure. The hour value is optional and if invalid taken
1017:Generated_Source\PSoC4/RTC.c ****     *  as 00 hrs. Invalid entries are not stored and the DST start date retains
1018:Generated_Source\PSoC4/RTC.c ****     *  a previous value or no value at all.
1019:Generated_Source\PSoC4/RTC.c ****     *
1020:Generated_Source\PSoC4/RTC.c ****     * \param
1021:Generated_Source\PSoC4/RTC.c ****     *  dstStopTime DST Stop time register values.
1022:Generated_Source\PSoC4/RTC.c ****     *
1023:Generated_Source\PSoC4/RTC.c ****     * \param
1024:Generated_Source\PSoC4/RTC.c ****     *  type Defines the DST operation mode <br>
1025:Generated_Source\PSoC4/RTC.c ****     *  DST_DATE_RELATIVE - The DST start time is relative. <br>
1026:Generated_Source\PSoC4/RTC.c ****     *  DST_DATE_FIXED - The DST start time is fixed.
1027:Generated_Source\PSoC4/RTC.c ****     *
1028:Generated_Source\PSoC4/RTC.c ****     *******************************************************************************/
1029:Generated_Source\PSoC4/RTC.c ****     void RTC_SetDSTStopTime(const RTC_DST_TIME* dstStopTime,
1030:Generated_Source\PSoC4/RTC.c ****                                                RTC_DST_DATETYPE_ENUM type)
1031:Generated_Source\PSoC4/RTC.c ****     {
1032:Generated_Source\PSoC4/RTC.c **** 
1033:Generated_Source\PSoC4/RTC.c ****         RTC_dstStopTime.timeFormat  = (uint8)type;
1034:Generated_Source\PSoC4/RTC.c ****         RTC_dstStopTime.hour           = dstStopTime->hour;
1035:Generated_Source\PSoC4/RTC.c ****         RTC_dstStopTime.dayOfWeek      = dstStopTime->dayOfWeek;
1036:Generated_Source\PSoC4/RTC.c ****         RTC_dstStopTime.weekOfMonth = dstStopTime->weekOfMonth;
1037:Generated_Source\PSoC4/RTC.c ****         RTC_dstStopTime.dayOfMonth     = dstStopTime->dayOfMonth;
1038:Generated_Source\PSoC4/RTC.c ****         RTC_dstStopTime.month         = dstStopTime->month;
1039:Generated_Source\PSoC4/RTC.c **** 
1040:Generated_Source\PSoC4/RTC.c ****         RTC_unixTimeDstStop  = RTC_GetDstUnixTime(&RTC_dstStopTime);
1041:Generated_Source\PSoC4/RTC.c **** 
1042:Generated_Source\PSoC4/RTC.c ****         if((RTC_unixTime >= RTC_unixTimeDstStart) &&
1043:Generated_Source\PSoC4/RTC.c ****            (RTC_unixTime <= RTC_unixTimeDstStop))
1044:Generated_Source\PSoC4/RTC.c ****         {
1045:Generated_Source\PSoC4/RTC.c ****             RTC_dstStatus = 1u;
1046:Generated_Source\PSoC4/RTC.c ****             RTC_dstTimeOffset = RTC_SECONDS_PER_HOUR;
1047:Generated_Source\PSoC4/RTC.c ****         }
1048:Generated_Source\PSoC4/RTC.c ****         else
1049:Generated_Source\PSoC4/RTC.c ****         {
1050:Generated_Source\PSoC4/RTC.c ****             RTC_dstStatus = 0u;
1051:Generated_Source\PSoC4/RTC.c ****             RTC_dstTimeOffset = 0uL;
1052:Generated_Source\PSoC4/RTC.c ****         }
1053:Generated_Source\PSoC4/RTC.c ****     }
1054:Generated_Source\PSoC4/RTC.c **** 
1055:Generated_Source\PSoC4/RTC.c **** 
1056:Generated_Source\PSoC4/RTC.c ****     /*******************************************************************************
1057:Generated_Source\PSoC4/RTC.c ****     * Function Name: RTC_GetDstUnixTime
1058:Generated_Source\PSoC4/RTC.c ****     ****************************************************************************//**
1059:Generated_Source\PSoC4/RTC.c ****     *
1060:Generated_Source\PSoC4/RTC.c ****     * \brief
1061:Generated_Source\PSoC4/RTC.c ****     *  Calculates the DST Start/Stop time in the UNIX format.
ARM GAS  C:\Users\Jerry\AppData\Local\Temp\cc7m5IHi.s 			page 47


1062:Generated_Source\PSoC4/RTC.c ****     *
1063:Generated_Source\PSoC4/RTC.c ****     * \param
1064:Generated_Source\PSoC4/RTC.c ****     *  dstTime The DST Start/Stop time in the regular time format.
1065:Generated_Source\PSoC4/RTC.c ****     *
1066:Generated_Source\PSoC4/RTC.c ****     * \return
1067:Generated_Source\PSoC4/RTC.c ****     *  The DST Start/Stop time in the UNIX format.
1068:Generated_Source\PSoC4/RTC.c ****     *
1069:Generated_Source\PSoC4/RTC.c ****     *******************************************************************************/
1070:Generated_Source\PSoC4/RTC.c ****     uint64 RTC_GetDstUnixTime(const RTC_DST_TIME* dstTime)
1071:Generated_Source\PSoC4/RTC.c ****     {
1072:Generated_Source\PSoC4/RTC.c ****         uint32 tmpYear;
1073:Generated_Source\PSoC4/RTC.c ****         uint32 tmpDate;
1074:Generated_Source\PSoC4/RTC.c ****         uint64 dstUnixTime;
1075:Generated_Source\PSoC4/RTC.c **** 
1076:Generated_Source\PSoC4/RTC.c ****         RTC_DATE_TIME tmpTimeDate;
1077:Generated_Source\PSoC4/RTC.c **** 
1078:Generated_Source\PSoC4/RTC.c ****         RTC_UnixToDateTime(&tmpTimeDate, RTC_unixTime, RTC_INITIAL_TIME_FORMAT);
1079:Generated_Source\PSoC4/RTC.c ****         tmpYear = RTC_GetYear(tmpTimeDate.date);
1080:Generated_Source\PSoC4/RTC.c **** 
1081:Generated_Source\PSoC4/RTC.c ****         if(dstTime->timeFormat == (uint8)RTC_DST_DATE_FIXED)
1082:Generated_Source\PSoC4/RTC.c ****         {
1083:Generated_Source\PSoC4/RTC.c ****             tmpDate =     RTC_ConstructDate(dstTime->month, dstTime->dayOfMonth, tmpYear);
1084:Generated_Source\PSoC4/RTC.c ****         }
1085:Generated_Source\PSoC4/RTC.c ****         else
1086:Generated_Source\PSoC4/RTC.c ****         {
1087:Generated_Source\PSoC4/RTC.c ****             tmpDate = RTC_RelativeToFixed(dstTime->dayOfWeek, dstTime->weekOfMonth, dstTime->month,
1088:Generated_Source\PSoC4/RTC.c ****         }
1089:Generated_Source\PSoC4/RTC.c **** 
1090:Generated_Source\PSoC4/RTC.c ****         tmpTimeDate.time = RTC_ConstructTime((uint32)RTC_24_HOURS_FORMAT, 0u, dstTime->hour, 0u, 0u
1091:Generated_Source\PSoC4/RTC.c ****         dstUnixTime = RTC_DateTimeToUnix(tmpDate, tmpTimeDate.time);
1092:Generated_Source\PSoC4/RTC.c **** 
1093:Generated_Source\PSoC4/RTC.c ****         return(dstUnixTime);
1094:Generated_Source\PSoC4/RTC.c ****     }
1095:Generated_Source\PSoC4/RTC.c **** 
1096:Generated_Source\PSoC4/RTC.c **** 
1097:Generated_Source\PSoC4/RTC.c **** #endif /* (0u != RTC_INITIAL_DST_STATUS) */
1098:Generated_Source\PSoC4/RTC.c **** 
1099:Generated_Source\PSoC4/RTC.c **** 
1100:Generated_Source\PSoC4/RTC.c **** /*******************************************************************************
1101:Generated_Source\PSoC4/RTC.c **** * Function Name: RTC_ConvertBCDToDec
1102:Generated_Source\PSoC4/RTC.c **** ****************************************************************************//**
1103:Generated_Source\PSoC4/RTC.c **** *
1104:Generated_Source\PSoC4/RTC.c **** * \brief
1105:Generated_Source\PSoC4/RTC.c **** *  Converts a 4-byte BCD number into a 4-byte hexadecimal number. Each byte is
1106:Generated_Source\PSoC4/RTC.c **** *  converted individually and returned as an individual byte in the 32-bit
1107:Generated_Source\PSoC4/RTC.c **** *  variable.
1108:Generated_Source\PSoC4/RTC.c **** *
1109:Generated_Source\PSoC4/RTC.c **** * \param
1110:Generated_Source\PSoC4/RTC.c **** *  bcdNum A 4-byte BCD number. Each byte represents BCD.
1111:Generated_Source\PSoC4/RTC.c **** *  0x11223344 -> 4 bytes 0x11, 0x22, 0x33 and 0x44 the in BCD format.
1112:Generated_Source\PSoC4/RTC.c **** *
1113:Generated_Source\PSoC4/RTC.c **** * \return
1114:Generated_Source\PSoC4/RTC.c **** *  decNum A 4-byte hexadecimal equivalent number of the BCD number.
1115:Generated_Source\PSoC4/RTC.c **** *  BCD number 0x11223344 -> returned hexadecimal number 0x0B16212C.
1116:Generated_Source\PSoC4/RTC.c **** *
1117:Generated_Source\PSoC4/RTC.c **** *******************************************************************************/
1118:Generated_Source\PSoC4/RTC.c **** uint32 RTC_ConvertBCDToDec(uint32 bcdNum)
ARM GAS  C:\Users\Jerry\AppData\Local\Temp\cc7m5IHi.s 			page 48


1119:Generated_Source\PSoC4/RTC.c **** {
1120:Generated_Source\PSoC4/RTC.c ****     uint32 i;
1121:Generated_Source\PSoC4/RTC.c ****     uint32 mult;
1122:Generated_Source\PSoC4/RTC.c ****     uint32 retVal;
1123:Generated_Source\PSoC4/RTC.c **** 
1124:Generated_Source\PSoC4/RTC.c ****     mult   = 1u;
1125:Generated_Source\PSoC4/RTC.c ****     retVal = 0u;
1126:Generated_Source\PSoC4/RTC.c **** 
1127:Generated_Source\PSoC4/RTC.c ****     for(i = 0u; i < 16u; i++)
1128:Generated_Source\PSoC4/RTC.c ****     {
1129:Generated_Source\PSoC4/RTC.c ****         retVal += (bcdNum & RTC_BCD_ONE_DIGIT_MASK) * mult;
1130:Generated_Source\PSoC4/RTC.c ****         bcdNum >>= RTC_BCD_NUMBER_SIZE;
1131:Generated_Source\PSoC4/RTC.c ****         mult *= 10u;
1132:Generated_Source\PSoC4/RTC.c ****     }
1133:Generated_Source\PSoC4/RTC.c **** 
1134:Generated_Source\PSoC4/RTC.c ****     return(retVal);
1135:Generated_Source\PSoC4/RTC.c **** }
1136:Generated_Source\PSoC4/RTC.c **** 
1137:Generated_Source\PSoC4/RTC.c **** 
1138:Generated_Source\PSoC4/RTC.c **** /*******************************************************************************
1139:Generated_Source\PSoC4/RTC.c **** * Function Name: RTC_ConvertDecToBCD
1140:Generated_Source\PSoC4/RTC.c **** ****************************************************************************//**
1141:Generated_Source\PSoC4/RTC.c **** *
1142:Generated_Source\PSoC4/RTC.c **** * \brief
1143:Generated_Source\PSoC4/RTC.c **** *  Converts a 4-byte hexadecimal number into a 4-byte BCD number. Each byte
1144:Generated_Source\PSoC4/RTC.c **** *  is converted individually and returned as an individual byte in the 32-bit
1145:Generated_Source\PSoC4/RTC.c **** *  variable.
1146:Generated_Source\PSoC4/RTC.c **** *
1147:Generated_Source\PSoC4/RTC.c **** * \param 
1148:Generated_Source\PSoC4/RTC.c **** *  decNum A 4-byte hexadecimal number. Each byte is represented in hex.
1149:Generated_Source\PSoC4/RTC.c **** *  0x11223344 -> 4 bytes 0x11, 0x22, 0x33 and 0x44 in the hex format.
1150:Generated_Source\PSoC4/RTC.c **** *
1151:Generated_Source\PSoC4/RTC.c **** * \return
1152:Generated_Source\PSoC4/RTC.c **** *  bcdNum - A 4-byte BCD equivalent of the passed hexadecimal number. Hexadecimal
1153:Generated_Source\PSoC4/RTC.c **** *  number 0x11223344 -> returned BCD number 0x17345168.
1154:Generated_Source\PSoC4/RTC.c **** *
1155:Generated_Source\PSoC4/RTC.c **** *******************************************************************************/
1156:Generated_Source\PSoC4/RTC.c **** uint32 RTC_ConvertDecToBCD(uint32 decNum)
1157:Generated_Source\PSoC4/RTC.c **** {
1158:Generated_Source\PSoC4/RTC.c ****     uint32 shift;
1159:Generated_Source\PSoC4/RTC.c ****     uint32 tmpVal;
1160:Generated_Source\PSoC4/RTC.c ****     uint32 retVal;
1161:Generated_Source\PSoC4/RTC.c **** 
1162:Generated_Source\PSoC4/RTC.c ****     shift  = 0u;
1163:Generated_Source\PSoC4/RTC.c ****     retVal = 0u;
1164:Generated_Source\PSoC4/RTC.c ****     tmpVal = decNum;
1165:Generated_Source\PSoC4/RTC.c **** 
1166:Generated_Source\PSoC4/RTC.c ****     do
1167:Generated_Source\PSoC4/RTC.c ****     {
1168:Generated_Source\PSoC4/RTC.c ****         retVal |= ((tmpVal % 10u) << shift);
1169:Generated_Source\PSoC4/RTC.c ****         tmpVal /= 10u;
1170:Generated_Source\PSoC4/RTC.c ****         shift  += RTC_BCD_NUMBER_SIZE;
1171:Generated_Source\PSoC4/RTC.c ****     }
1172:Generated_Source\PSoC4/RTC.c ****     while(tmpVal >= 10u);
1173:Generated_Source\PSoC4/RTC.c **** 
1174:Generated_Source\PSoC4/RTC.c ****     retVal |= (tmpVal << shift);
1175:Generated_Source\PSoC4/RTC.c **** 
ARM GAS  C:\Users\Jerry\AppData\Local\Temp\cc7m5IHi.s 			page 49


1176:Generated_Source\PSoC4/RTC.c ****     return(retVal);
1177:Generated_Source\PSoC4/RTC.c **** }
1178:Generated_Source\PSoC4/RTC.c **** 
1179:Generated_Source\PSoC4/RTC.c **** 
1180:Generated_Source\PSoC4/RTC.c **** /*******************************************************************************
1181:Generated_Source\PSoC4/RTC.c **** * Function Name: RTC_Update
1182:Generated_Source\PSoC4/RTC.c **** ****************************************************************************//**
1183:Generated_Source\PSoC4/RTC.c **** *
1184:Generated_Source\PSoC4/RTC.c **** * \brief
1185:Generated_Source\PSoC4/RTC.c **** *  This API updates the time registers and performs alarm/DST check.
1186:Generated_Source\PSoC4/RTC.c **** *
1187:Generated_Source\PSoC4/RTC.c **** *  This function increments the time/date registers by an input clock period.
1188:Generated_Source\PSoC4/RTC.c **** *  The period is set by RTC_SetPeriod() API or WDT period selected for RTC
1189:Generated_Source\PSoC4/RTC.c **** *  in the clocks configuration window (low frequency clocks tab) interface
1190:Generated_Source\PSoC4/RTC.c **** *  every time it is called.
1191:Generated_Source\PSoC4/RTC.c **** *
1192:Generated_Source\PSoC4/RTC.c **** *  API is automatically mapped to the WDT's callback slot and period if the
1193:Generated_Source\PSoC4/RTC.c **** *  configuration is as follows: 1) Option "Implement RTC update manually" in
1194:Generated_Source\PSoC4/RTC.c **** *  the customizer is unchecked 2) One of WDTs is selected in the "Use for RTC"
1195:Generated_Source\PSoC4/RTC.c **** *  panel of the low frequency clocks tab 3) Option "Implementation by IDE" is
1196:Generated_Source\PSoC4/RTC.c **** *  selected in the "Timer (WDT) ISR" panel.
1197:Generated_Source\PSoC4/RTC.c **** *
1198:Generated_Source\PSoC4/RTC.c **** *  If option "Implement RTC update manually" is checked in the customizer or
1199:Generated_Source\PSoC4/RTC.c **** *  option "None" is selected in the "Use for RTC" panel,it is the user's
1200:Generated_Source\PSoC4/RTC.c **** *  responsibility: 1) to call this API from the clock ISR to be
1201:Generated_Source\PSoC4/RTC.c **** *  used as the RTC's input 2) set the period of the RTC through
1202:Generated_Source\PSoC4/RTC.c **** *  RTC_SetPeriod() API.
1203:Generated_Source\PSoC4/RTC.c **** *
1204:Generated_Source\PSoC4/RTC.c **** * \note Updates the Unix time register, updates the alarm and DST status.
1205:Generated_Source\PSoC4/RTC.c **** *
1206:Generated_Source\PSoC4/RTC.c **** *******************************************************************************/
1207:Generated_Source\PSoC4/RTC.c **** void RTC_Update(void)
1208:Generated_Source\PSoC4/RTC.c **** {
 327              		.loc 2 1208 0
 328              		.cfi_startproc
1209:Generated_Source\PSoC4/RTC.c ****     static volatile uint32 RTC_currentTickNumber;
1210:Generated_Source\PSoC4/RTC.c ****     RTC_currentTickNumber += RTC_updateTimePeriod;
 329              		.loc 2 1210 0
 330 0000 0A4B     		ldr	r3, .L13
1208:Generated_Source\PSoC4/RTC.c ****     static volatile uint32 RTC_currentTickNumber;
 331              		.loc 2 1208 0
 332 0002 30B5     		push	{r4, r5, lr}
 333              		.cfi_def_cfa_offset 12
 334              		.cfi_offset 4, -12
 335              		.cfi_offset 5, -8
 336              		.cfi_offset 14, -4
 337              		.loc 2 1210 0
 338 0004 1A68     		ldr	r2, [r3]
 339 0006 5968     		ldr	r1, [r3, #4]
 340 0008 5218     		add	r2, r2, r1
 341 000a 1A60     		str	r2, [r3]
1211:Generated_Source\PSoC4/RTC.c **** 
1212:Generated_Source\PSoC4/RTC.c ****     if(RTC_currentTickNumber >= RTC_tickRefOneSec)
 342              		.loc 2 1212 0
 343 000c 1A68     		ldr	r2, [r3]
 344 000e 9968     		ldr	r1, [r3, #8]
 345 0010 8A42     		cmp	r2, r1
ARM GAS  C:\Users\Jerry\AppData\Local\Temp\cc7m5IHi.s 			page 50


 346 0012 0AD3     		bcc	.L11
 347              	.LBB16:
1213:Generated_Source\PSoC4/RTC.c ****     {
1214:Generated_Source\PSoC4/RTC.c ****         RTC_unixTime++;
 348              		.loc 2 1214 0
 349 0014 0120     		mov	r0, #1
 350 0016 0021     		mov	r1, #0
 351 0018 054A     		ldr	r2, .L13+4
 352 001a 1468     		ldr	r4, [r2]
 353 001c 5568     		ldr	r5, [r2, #4]
 354 001e 0019     		add	r0, r0, r4
 355 0020 6941     		adc	r1, r1, r5
 356 0022 1060     		str	r0, [r2]
 357 0024 5160     		str	r1, [r2, #4]
1215:Generated_Source\PSoC4/RTC.c ****         RTC_currentTickNumber = 0u;
 358              		.loc 2 1215 0
 359 0026 0022     		mov	r2, #0
 360 0028 1A60     		str	r2, [r3]
 361              	.L11:
 362              	.LBE16:
1216:Generated_Source\PSoC4/RTC.c **** 
1217:Generated_Source\PSoC4/RTC.c ****     #if(0u != RTC_INITIAL_DST_STATUS)
1218:Generated_Source\PSoC4/RTC.c ****         if(RTC_unixTime == RTC_unixTimeDstStart)
1219:Generated_Source\PSoC4/RTC.c ****         {
1220:Generated_Source\PSoC4/RTC.c ****             RTC_dstStatus = 1u;
1221:Generated_Source\PSoC4/RTC.c ****             RTC_dstTimeOffset = RTC_SECONDS_PER_HOUR;
1222:Generated_Source\PSoC4/RTC.c ****         }
1223:Generated_Source\PSoC4/RTC.c **** 
1224:Generated_Source\PSoC4/RTC.c ****         if(RTC_unixTime == (RTC_unixTimeDstStop  - RTC_dstTimeOffset))
1225:Generated_Source\PSoC4/RTC.c ****         {
1226:Generated_Source\PSoC4/RTC.c ****             RTC_dstStatus = 0u;
1227:Generated_Source\PSoC4/RTC.c ****             RTC_dstTimeOffset = 0u;
1228:Generated_Source\PSoC4/RTC.c ****             RTC_unixTimeDstStart = RTC_GetDstUnixTime(&RTC_dstStartTime);
1229:Generated_Source\PSoC4/RTC.c ****             RTC_unixTimeDstStop  = RTC_GetDstUnixTime(&RTC_dstStopTime);
1230:Generated_Source\PSoC4/RTC.c ****         }
1231:Generated_Source\PSoC4/RTC.c ****     #endif /* (0u != RTC_INITIAL_DST_STATUS) */
1232:Generated_Source\PSoC4/RTC.c **** 
1233:Generated_Source\PSoC4/RTC.c ****     #if(0u != RTC_INITIAL_ALARM_STATUS)
1234:Generated_Source\PSoC4/RTC.c ****         if((RTC_unixTime + RTC_dstTimeOffset) == RTC_unixTimeAlarm)
1235:Generated_Source\PSoC4/RTC.c ****         {
1236:Generated_Source\PSoC4/RTC.c ****             RTC_currentTimeDate.status |= (1uL << RTC_STATUS_ALARM_OFFSET);
1237:Generated_Source\PSoC4/RTC.c ****             RTC_alarmCurStatus = RTC_alarmCfgMask;
1238:Generated_Source\PSoC4/RTC.c ****             if (RTC_alarmCallbackPtr != (void *) 0)
1239:Generated_Source\PSoC4/RTC.c ****             {
1240:Generated_Source\PSoC4/RTC.c ****                 RTC_alarmCallbackPtr();
1241:Generated_Source\PSoC4/RTC.c ****             }
1242:Generated_Source\PSoC4/RTC.c ****             RTC_unixTimeAlarm = RTC_GetNexAlarmTime(RTC_unixTime + RTC_dstTimeOffset,
1243:Generated_Source\PSoC4/RTC.c ****                                                                                                   (
1244:Generated_Source\PSoC4/RTC.c ****         }
1245:Generated_Source\PSoC4/RTC.c ****     #endif/* (0u != RTC_INITIAL_ALARM_STATUS) */
1246:Generated_Source\PSoC4/RTC.c ****     }
1247:Generated_Source\PSoC4/RTC.c **** }
 363              		.loc 2 1247 0
 364              		@ sp needed
 365 002a 30BD     		pop	{r4, r5, pc}
 366              	.L14:
 367              		.align	2
ARM GAS  C:\Users\Jerry\AppData\Local\Temp\cc7m5IHi.s 			page 51


 368              	.L13:
 369 002c 00000000 		.word	.LANCHOR0
 370 0030 00000000 		.word	RTC_unixTime
 371              		.cfi_endproc
 372              	.LFE44:
 373              		.size	RTC_Update, .-RTC_Update
 374              		.section	.text.RTC_Stop,"ax",%progbits
 375              		.align	1
 376              		.global	RTC_Stop
 377              		.code	16
 378              		.thumb_func
 379              		.type	RTC_Stop, %function
 380              	RTC_Stop:
 381              	.LFB30:
 114:Generated_Source\PSoC4/RTC.c ****     #if defined(CYDEV_RTC_SOURCE_WDT)
 382              		.loc 2 114 0
 383              		.cfi_startproc
 384              	.LVL45:
 385              	.LBB19:
 386              	.LBB20:
1215:Generated_Source\PSoC4/RTC.h **** 
1216:Generated_Source\PSoC4/RTC.h **** 
1217:Generated_Source\PSoC4/RTC.h **** #if defined(CYDEV_RTC_SOURCE_WDT)
1218:Generated_Source\PSoC4/RTC.h ****     #if((0u != CYDEV_WDT_GENERATE_ISR) && (0u == RTC_INITIAL_UPDATE_MODE))
1219:Generated_Source\PSoC4/RTC.h **** 
1220:Generated_Source\PSoC4/RTC.h ****         /*******************************************************************************
1221:Generated_Source\PSoC4/RTC.h ****         * Function Name: RTC_CySysRtcSetCallback
1222:Generated_Source\PSoC4/RTC.h ****         ****************************************************************************//**
1223:Generated_Source\PSoC4/RTC.h ****         * \internal
1224:Generated_Source\PSoC4/RTC.h ****         * \brief
1225:Generated_Source\PSoC4/RTC.h ****         *  This is an internal function that registers a callback for the
1226:Generated_Source\PSoC4/RTC.h ****         *  RTC_Update() function by address "0".
1227:Generated_Source\PSoC4/RTC.h ****         *
1228:Generated_Source\PSoC4/RTC.h ****         * \param
1229:Generated_Source\PSoC4/RTC.h ****         *  wdtNumber The number of the WDT or WCO timer to be used to pull the
1230:Generated_Source\PSoC4/RTC.h ****         *  RTC_Update() function.
1231:Generated_Source\PSoC4/RTC.h ****         *
1232:Generated_Source\PSoC4/RTC.h ****         *  The callback registered before by address "0" is replaced
1233:Generated_Source\PSoC4/RTC.h ****         *  by the RTC_Update() function.
1234:Generated_Source\PSoC4/RTC.h ****         * \endinternal
1235:Generated_Source\PSoC4/RTC.h ****         *******************************************************************************/
1236:Generated_Source\PSoC4/RTC.h ****         static CY_INLINE void RTC_CySysRtcSetCallback(uint32 wdtNumber)
1237:Generated_Source\PSoC4/RTC.h ****         {
1238:Generated_Source\PSoC4/RTC.h ****             #if((0u != CY_IP_WCO_WDT_EN) && (0u != CY_IP_SRSSLT))
1239:Generated_Source\PSoC4/RTC.h ****                 (void)CySysTimerSetInterruptCallback(wdtNumber, RTC_Update);
1240:Generated_Source\PSoC4/RTC.h ****             #else
1241:Generated_Source\PSoC4/RTC.h ****                 (void)CySysWdtSetIsrCallback(wdtNumber, RTC_Update);
1242:Generated_Source\PSoC4/RTC.h ****             #endif /* ((0u != CY_IP_WCO_WDT_EN) && (0u != CY_IP_SRSSLT)) */
1243:Generated_Source\PSoC4/RTC.h ****         }
1244:Generated_Source\PSoC4/RTC.h **** 
1245:Generated_Source\PSoC4/RTC.h **** 
1246:Generated_Source\PSoC4/RTC.h ****         /*******************************************************************************
1247:Generated_Source\PSoC4/RTC.h ****         * Function Name: RTC_CySysRtcResetCallback
1248:Generated_Source\PSoC4/RTC.h ****         ****************************************************************************//**
1249:Generated_Source\PSoC4/RTC.h ****         * \internal
1250:Generated_Source\PSoC4/RTC.h ****         * \brief
1251:Generated_Source\PSoC4/RTC.h ****         *  This is an internal function that clears a callback by address "0".
ARM GAS  C:\Users\Jerry\AppData\Local\Temp\cc7m5IHi.s 			page 52


1252:Generated_Source\PSoC4/RTC.h ****         *
1253:Generated_Source\PSoC4/RTC.h ****         * \param
1254:Generated_Source\PSoC4/RTC.h ****         *  wdtNumber The number of the WDT or WCO timer to be cleared callback for.
1255:Generated_Source\PSoC4/RTC.h ****         *
1256:Generated_Source\PSoC4/RTC.h ****         *  The callback registered before by address "0" is replaced
1257:Generated_Source\PSoC4/RTC.h ****         *  by the NULL pointer.
1258:Generated_Source\PSoC4/RTC.h ****         * \endinternal
1259:Generated_Source\PSoC4/RTC.h ****         *******************************************************************************/
1260:Generated_Source\PSoC4/RTC.h ****         static CY_INLINE void RTC_CySysRtcResetCallback(uint32 wdtNumber)
1261:Generated_Source\PSoC4/RTC.h ****         {
1262:Generated_Source\PSoC4/RTC.h ****             #if((0u != CY_IP_WCO_WDT_EN) && (0u != CY_IP_SRSSLT))
1263:Generated_Source\PSoC4/RTC.h ****                 (void)CySysTimerSetInterruptCallback(wdtNumber, (void *)0);
 387              		.loc 1 1263 0
 388 0000 0020     		mov	r0, #0
 389              	.LBE20:
 390              	.LBE19:
 114:Generated_Source\PSoC4/RTC.c ****     #if defined(CYDEV_RTC_SOURCE_WDT)
 391              		.loc 2 114 0
 392 0002 08B5     		push	{r3, lr}
 393              		.cfi_def_cfa_offset 8
 394              		.cfi_offset 3, -8
 395              		.cfi_offset 14, -4
 396              	.LBB22:
 397              	.LBB21:
 398              		.loc 1 1263 0
 399 0004 011C     		mov	r1, r0
 400 0006 FFF7FEFF 		bl	CySysTimerSetInterruptCallback
 401              	.LVL46:
 402              	.LBE21:
 403              	.LBE22:
 120:Generated_Source\PSoC4/RTC.c **** 
 404              		.loc 2 120 0
 405              		@ sp needed
 406 000a 08BD     		pop	{r3, pc}
 407              		.cfi_endproc
 408              	.LFE30:
 409              		.size	RTC_Stop, .-RTC_Stop
 410              		.section	.text.RTC_GetUnixTime,"ax",%progbits
 411              		.align	1
 412              		.global	RTC_GetUnixTime
 413              		.code	16
 414              		.thumb_func
 415              		.type	RTC_GetUnixTime, %function
 416              	RTC_GetUnixTime:
 417              	.LFB34:
 319:Generated_Source\PSoC4/RTC.c ****     return (RTC_unixTime);
 418              		.loc 2 319 0
 419              		.cfi_startproc
 320:Generated_Source\PSoC4/RTC.c **** }
 420              		.loc 2 320 0
 421 0000 014B     		ldr	r3, .L17
 321:Generated_Source\PSoC4/RTC.c **** 
 422              		.loc 2 321 0
 423              		@ sp needed
 320:Generated_Source\PSoC4/RTC.c **** }
 424              		.loc 2 320 0
 425 0002 1868     		ldr	r0, [r3]
ARM GAS  C:\Users\Jerry\AppData\Local\Temp\cc7m5IHi.s 			page 53


 426 0004 5968     		ldr	r1, [r3, #4]
 321:Generated_Source\PSoC4/RTC.c **** 
 427              		.loc 2 321 0
 428 0006 7047     		bx	lr
 429              	.L18:
 430              		.align	2
 431              	.L17:
 432 0008 00000000 		.word	RTC_unixTime
 433              		.cfi_endproc
 434              	.LFE34:
 435              		.size	RTC_GetUnixTime, .-RTC_GetUnixTime
 436              		.section	.text.RTC_SetPeriod,"ax",%progbits
 437              		.align	1
 438              		.global	RTC_SetPeriod
 439              		.code	16
 440              		.thumb_func
 441              		.type	RTC_SetPeriod, %function
 442              	RTC_SetPeriod:
 443              	.LFB35:
 347:Generated_Source\PSoC4/RTC.c ****     RTC_updateTimePeriod = ticks;
 444              		.loc 2 347 0
 445              		.cfi_startproc
 446              	.LVL47:
 348:Generated_Source\PSoC4/RTC.c ****     RTC_tickRefOneSec    = refOneSecTicks;
 447              		.loc 2 348 0
 448 0000 014B     		ldr	r3, .L20
 350:Generated_Source\PSoC4/RTC.c **** 
 449              		.loc 2 350 0
 450              		@ sp needed
 348:Generated_Source\PSoC4/RTC.c ****     RTC_tickRefOneSec    = refOneSecTicks;
 451              		.loc 2 348 0
 452 0002 5860     		str	r0, [r3, #4]
 349:Generated_Source\PSoC4/RTC.c **** }
 453              		.loc 2 349 0
 454 0004 9960     		str	r1, [r3, #8]
 350:Generated_Source\PSoC4/RTC.c **** 
 455              		.loc 2 350 0
 456 0006 7047     		bx	lr
 457              	.L21:
 458              		.align	2
 459              	.L20:
 460 0008 00000000 		.word	.LANCHOR0
 461              		.cfi_endproc
 462              	.LFE35:
 463              		.size	RTC_SetPeriod, .-RTC_SetPeriod
 464              		.section	.text.RTC_GetPeriod,"ax",%progbits
 465              		.align	1
 466              		.global	RTC_GetPeriod
 467              		.code	16
 468              		.thumb_func
 469              		.type	RTC_GetPeriod, %function
 470              	RTC_GetPeriod:
 471              	.LFB36:
 364:Generated_Source\PSoC4/RTC.c ****     return(RTC_updateTimePeriod);
 472              		.loc 2 364 0
 473              		.cfi_startproc
 365:Generated_Source\PSoC4/RTC.c **** }
ARM GAS  C:\Users\Jerry\AppData\Local\Temp\cc7m5IHi.s 			page 54


 474              		.loc 2 365 0
 475 0000 014B     		ldr	r3, .L23
 366:Generated_Source\PSoC4/RTC.c **** 
 476              		.loc 2 366 0
 477              		@ sp needed
 365:Generated_Source\PSoC4/RTC.c **** }
 478              		.loc 2 365 0
 479 0002 5868     		ldr	r0, [r3, #4]
 366:Generated_Source\PSoC4/RTC.c **** 
 480              		.loc 2 366 0
 481 0004 7047     		bx	lr
 482              	.L24:
 483 0006 C046     		.align	2
 484              	.L23:
 485 0008 00000000 		.word	.LANCHOR0
 486              		.cfi_endproc
 487              	.LFE36:
 488              		.size	RTC_GetPeriod, .-RTC_GetPeriod
 489              		.section	.text.RTC_GetRefOneSec,"ax",%progbits
 490              		.align	1
 491              		.global	RTC_GetRefOneSec
 492              		.code	16
 493              		.thumb_func
 494              		.type	RTC_GetRefOneSec, %function
 495              	RTC_GetRefOneSec:
 496              	.LFB37:
 381:Generated_Source\PSoC4/RTC.c ****     return(RTC_tickRefOneSec);
 497              		.loc 2 381 0
 498              		.cfi_startproc
 382:Generated_Source\PSoC4/RTC.c **** }
 499              		.loc 2 382 0
 500 0000 014B     		ldr	r3, .L26
 383:Generated_Source\PSoC4/RTC.c **** 
 501              		.loc 2 383 0
 502              		@ sp needed
 382:Generated_Source\PSoC4/RTC.c **** }
 503              		.loc 2 382 0
 504 0002 9868     		ldr	r0, [r3, #8]
 383:Generated_Source\PSoC4/RTC.c **** 
 505              		.loc 2 383 0
 506 0004 7047     		bx	lr
 507              	.L27:
 508 0006 C046     		.align	2
 509              	.L26:
 510 0008 00000000 		.word	.LANCHOR0
 511              		.cfi_endproc
 512              	.LFE37:
 513              		.size	RTC_GetRefOneSec, .-RTC_GetRefOneSec
 514              		.section	.text.RTC_ConvertBCDToDec,"ax",%progbits
 515              		.align	1
 516              		.global	RTC_ConvertBCDToDec
 517              		.code	16
 518              		.thumb_func
 519              		.type	RTC_ConvertBCDToDec, %function
 520              	RTC_ConvertBCDToDec:
 521              	.LFB42:
1119:Generated_Source\PSoC4/RTC.c ****     uint32 i;
ARM GAS  C:\Users\Jerry\AppData\Local\Temp\cc7m5IHi.s 			page 55


 522              		.loc 2 1119 0
 523              		.cfi_startproc
 524              	.LVL48:
 525 0000 10B5     		push	{r4, lr}
 526              		.cfi_def_cfa_offset 8
 527              		.cfi_offset 4, -8
 528              		.cfi_offset 14, -4
1119:Generated_Source\PSoC4/RTC.c ****     uint32 i;
 529              		.loc 2 1119 0
 530 0002 1021     		mov	r1, #16
1125:Generated_Source\PSoC4/RTC.c **** 
 531              		.loc 2 1125 0
 532 0004 0022     		mov	r2, #0
1124:Generated_Source\PSoC4/RTC.c ****     retVal = 0u;
 533              		.loc 2 1124 0
 534 0006 0124     		mov	r4, #1
 535              	.LVL49:
 536              	.L29:
1129:Generated_Source\PSoC4/RTC.c ****         bcdNum >>= RTC_BCD_NUMBER_SIZE;
 537              		.loc 2 1129 0 discriminator 3
 538 0008 0F23     		mov	r3, #15
 539 000a 0340     		and	r3, r0
 540 000c 6343     		mul	r3, r4
 541 000e D218     		add	r2, r2, r3
 542              	.LVL50:
1131:Generated_Source\PSoC4/RTC.c ****     }
 543              		.loc 2 1131 0 discriminator 3
 544 0010 0A23     		mov	r3, #10
 545 0012 0139     		sub	r1, r1, #1
 546              	.LVL51:
1130:Generated_Source\PSoC4/RTC.c ****         mult *= 10u;
 547              		.loc 2 1130 0 discriminator 3
 548 0014 0009     		lsr	r0, r0, #4
 549              	.LVL52:
1131:Generated_Source\PSoC4/RTC.c ****     }
 550              		.loc 2 1131 0 discriminator 3
 551 0016 5C43     		mul	r4, r3
 552              	.LVL53:
1127:Generated_Source\PSoC4/RTC.c ****     {
 553              		.loc 2 1127 0 discriminator 3
 554 0018 0029     		cmp	r1, #0
 555 001a F5D1     		bne	.L29
1135:Generated_Source\PSoC4/RTC.c **** 
 556              		.loc 2 1135 0
 557 001c 101C     		mov	r0, r2
 558              	.LVL54:
 559              		@ sp needed
 560              	.LVL55:
 561 001e 10BD     		pop	{r4, pc}
 562              		.cfi_endproc
 563              	.LFE42:
 564              		.size	RTC_ConvertBCDToDec, .-RTC_ConvertBCDToDec
 565              		.section	.text.RTC_ConvertDecToBCD,"ax",%progbits
 566              		.align	1
 567              		.global	RTC_ConvertDecToBCD
 568              		.code	16
 569              		.thumb_func
ARM GAS  C:\Users\Jerry\AppData\Local\Temp\cc7m5IHi.s 			page 56


 570              		.type	RTC_ConvertDecToBCD, %function
 571              	RTC_ConvertDecToBCD:
 572              	.LFB43:
1157:Generated_Source\PSoC4/RTC.c ****     uint32 shift;
 573              		.loc 2 1157 0
 574              		.cfi_startproc
 575              	.LVL56:
 576 0000 70B5     		push	{r4, r5, r6, lr}
 577              		.cfi_def_cfa_offset 16
 578              		.cfi_offset 4, -16
 579              		.cfi_offset 5, -12
 580              		.cfi_offset 6, -8
 581              		.cfi_offset 14, -4
1163:Generated_Source\PSoC4/RTC.c ****     tmpVal = decNum;
 582              		.loc 2 1163 0
 583 0002 0025     		mov	r5, #0
1157:Generated_Source\PSoC4/RTC.c ****     uint32 shift;
 584              		.loc 2 1157 0
 585 0004 041C     		mov	r4, r0
 586              	.LVL57:
1162:Generated_Source\PSoC4/RTC.c ****     retVal = 0u;
 587              		.loc 2 1162 0
 588 0006 2E1C     		mov	r6, r5
 589              	.LVL58:
 590              	.L31:
1168:Generated_Source\PSoC4/RTC.c ****         tmpVal /= 10u;
 591              		.loc 2 1168 0 discriminator 1
 592 0008 201C     		mov	r0, r4
 593 000a 0A21     		mov	r1, #10
 594 000c FFF7FEFF 		bl	__aeabi_uidivmod
 595              	.LVL59:
 596 0010 B140     		lsl	r1, r1, r6
1169:Generated_Source\PSoC4/RTC.c ****         shift  += RTC_BCD_NUMBER_SIZE;
 597              		.loc 2 1169 0 discriminator 1
 598 0012 201C     		mov	r0, r4
1168:Generated_Source\PSoC4/RTC.c ****         tmpVal /= 10u;
 599              		.loc 2 1168 0 discriminator 1
 600 0014 0D43     		orr	r5, r1
 601              	.LVL60:
1169:Generated_Source\PSoC4/RTC.c ****         shift  += RTC_BCD_NUMBER_SIZE;
 602              		.loc 2 1169 0 discriminator 1
 603 0016 0A21     		mov	r1, #10
 604 0018 FFF7FEFF 		bl	__aeabi_uidiv
 605              	.LVL61:
1170:Generated_Source\PSoC4/RTC.c ****     }
 606              		.loc 2 1170 0 discriminator 1
 607 001c 0436     		add	r6, r6, #4
 608              	.LVL62:
1169:Generated_Source\PSoC4/RTC.c ****         shift  += RTC_BCD_NUMBER_SIZE;
 609              		.loc 2 1169 0 discriminator 1
 610 001e 041E     		sub	r4, r0, #0
 611              	.LVL63:
1172:Generated_Source\PSoC4/RTC.c **** 
 612              		.loc 2 1172 0 discriminator 1
 613 0020 092C     		cmp	r4, #9
 614 0022 F1D8     		bhi	.L31
 615              	.LVL64:
ARM GAS  C:\Users\Jerry\AppData\Local\Temp\cc7m5IHi.s 			page 57


1174:Generated_Source\PSoC4/RTC.c **** 
 616              		.loc 2 1174 0
 617 0024 B040     		lsl	r0, r0, r6
 618              	.LVL65:
1177:Generated_Source\PSoC4/RTC.c **** 
 619              		.loc 2 1177 0
 620              		@ sp needed
1174:Generated_Source\PSoC4/RTC.c **** 
 621              		.loc 2 1174 0
 622 0026 2843     		orr	r0, r5
 623              	.LVL66:
 624              	.LVL67:
 625              	.LVL68:
1177:Generated_Source\PSoC4/RTC.c **** 
 626              		.loc 2 1177 0
 627 0028 70BD     		pop	{r4, r5, r6, pc}
 628              		.cfi_endproc
 629              	.LFE43:
 630              		.size	RTC_ConvertDecToBCD, .-RTC_ConvertDecToBCD
 631              		.section	.text.RTC_DateTimeToUnix,"ax",%progbits
 632              		.align	1
 633              		.global	RTC_DateTimeToUnix
 634              		.code	16
 635              		.thumb_func
 636              		.type	RTC_DateTimeToUnix, %function
 637              	RTC_DateTimeToUnix:
 638              	.LFB45:
1248:Generated_Source\PSoC4/RTC.c **** 
1249:Generated_Source\PSoC4/RTC.c **** 
1250:Generated_Source\PSoC4/RTC.c **** /*******************************************************************************
1251:Generated_Source\PSoC4/RTC.c **** * Function Name: RTC_DateTimeToUnix
1252:Generated_Source\PSoC4/RTC.c **** ****************************************************************************//**
1253:Generated_Source\PSoC4/RTC.c **** *
1254:Generated_Source\PSoC4/RTC.c **** * \brief
1255:Generated_Source\PSoC4/RTC.c **** *  This is an internal function to convert the date and time from
1256:Generated_Source\PSoC4/RTC.c **** *  the regular time format into the UNIX time format.
1257:Generated_Source\PSoC4/RTC.c **** *
1258:Generated_Source\PSoC4/RTC.c **** * \param
1259:Generated_Source\PSoC4/RTC.c **** *  inputDate The date in the selected in the customizer "date format".
1260:Generated_Source\PSoC4/RTC.c **** * \param
1261:Generated_Source\PSoC4/RTC.c **** *  inputTime The time in the defined "time format".
1262:Generated_Source\PSoC4/RTC.c **** *
1263:Generated_Source\PSoC4/RTC.c **** * \return Returns the date and time in the UNIX format.
1264:Generated_Source\PSoC4/RTC.c **** *
1265:Generated_Source\PSoC4/RTC.c **** *******************************************************************************/
1266:Generated_Source\PSoC4/RTC.c **** uint64 RTC_DateTimeToUnix(uint32 inputDate, uint32 inputTime)
1267:Generated_Source\PSoC4/RTC.c **** {
 639              		.loc 2 1267 0
 640              		.cfi_startproc
 641              	.LVL69:
 642 0000 F0B5     		push	{r4, r5, r6, r7, lr}
 643              		.cfi_def_cfa_offset 20
 644              		.cfi_offset 4, -20
 645              		.cfi_offset 5, -16
 646              		.cfi_offset 6, -12
 647              		.cfi_offset 7, -8
 648              		.cfi_offset 14, -4
ARM GAS  C:\Users\Jerry\AppData\Local\Temp\cc7m5IHi.s 			page 58


 649 0002 85B0     		sub	sp, sp, #20
 650              		.cfi_def_cfa_offset 40
 651              		.loc 2 1267 0
 652 0004 041C     		mov	r4, r0
 653 0006 0D1C     		mov	r5, r1
1268:Generated_Source\PSoC4/RTC.c ****     uint32 i;
1269:Generated_Source\PSoC4/RTC.c ****     uint32 tmpYear;
1270:Generated_Source\PSoC4/RTC.c ****     uint32 tmpMonth;
1271:Generated_Source\PSoC4/RTC.c ****     uint32 tmpVal;
1272:Generated_Source\PSoC4/RTC.c ****     uint64 unixTime;
1273:Generated_Source\PSoC4/RTC.c **** 
1274:Generated_Source\PSoC4/RTC.c ****     unixTime = 0u;
1275:Generated_Source\PSoC4/RTC.c ****     tmpYear = RTC_GetYear(inputDate);
 654              		.loc 2 1275 0
 655 0008 FFF7FEFF 		bl	RTC_GetYear
 656              	.LVL70:
1274:Generated_Source\PSoC4/RTC.c ****     tmpYear = RTC_GetYear(inputDate);
 657              		.loc 2 1274 0
 658 000c 0022     		mov	r2, #0
 659 000e 0023     		mov	r3, #0
 660              		.loc 2 1275 0
 661 0010 071C     		mov	r7, r0
 662              	.LVL71:
1274:Generated_Source\PSoC4/RTC.c ****     tmpYear = RTC_GetYear(inputDate);
 663              		.loc 2 1274 0
 664 0012 0092     		str	r2, [sp]
 665 0014 0193     		str	r3, [sp, #4]
1276:Generated_Source\PSoC4/RTC.c **** 
1277:Generated_Source\PSoC4/RTC.c ****     /* Calculate seconds from epoch start up to (but not including) current year. */
1278:Generated_Source\PSoC4/RTC.c ****     for(i = RTC_YEAR_0; i < tmpYear; i++)
 666              		.loc 2 1278 0
 667 0016 3B4E     		ldr	r6, .L46
 668              	.LVL72:
 669              	.L33:
 670              		.loc 2 1278 0 is_stmt 0 discriminator 1
 671 0018 BE42     		cmp	r6, r7
 672 001a 10D2     		bcs	.L45
1279:Generated_Source\PSoC4/RTC.c ****     {
1280:Generated_Source\PSoC4/RTC.c ****         if(0u != RTC_LeapYear(i))
 673              		.loc 2 1280 0 is_stmt 1
 674 001c 301C     		mov	r0, r6
 675 001e FFF7FEFF 		bl	RTC_LeapYear
 676              	.LVL73:
 677 0022 0028     		cmp	r0, #0
 678 0024 01D0     		beq	.L34
1281:Generated_Source\PSoC4/RTC.c ****         {
1282:Generated_Source\PSoC4/RTC.c ****             unixTime += RTC_SECONDS_PER_LEAP_YEAR;
 679              		.loc 2 1282 0
 680 0026 384A     		ldr	r2, .L46+4
 681 0028 00E0     		b	.L44
 682              	.L34:
1283:Generated_Source\PSoC4/RTC.c ****         }
1284:Generated_Source\PSoC4/RTC.c ****         else
1285:Generated_Source\PSoC4/RTC.c ****         {
1286:Generated_Source\PSoC4/RTC.c ****             unixTime += RTC_SECONDS_PER_NONLEAP_YEAR;
 683              		.loc 2 1286 0
 684 002a 384A     		ldr	r2, .L46+8
ARM GAS  C:\Users\Jerry\AppData\Local\Temp\cc7m5IHi.s 			page 59


 685              	.L44:
 686 002c 0023     		mov	r3, #0
 687 002e 0098     		ldr	r0, [sp]
 688 0030 0199     		ldr	r1, [sp, #4]
 689 0032 8018     		add	r0, r0, r2
 690 0034 5941     		adc	r1, r1, r3
1278:Generated_Source\PSoC4/RTC.c ****     {
 691              		.loc 2 1278 0
 692 0036 0136     		add	r6, r6, #1
 693              	.LVL74:
 694              		.loc 2 1286 0
 695 0038 0090     		str	r0, [sp]
 696 003a 0191     		str	r1, [sp, #4]
 697              	.LVL75:
 698 003c ECE7     		b	.L33
 699              	.LVL76:
 700              	.L45:
 701              	.LBB38:
 702              	.LBB39:
 624:Generated_Source\PSoC4/RTC.h ****     retVal += (date & RTC_MONTH_MASK) >> RTC_MONTH_OFFSET;
 703              		.loc 1 624 0
 704 003e 0A22     		mov	r2, #10
 705 0040 E300     		lsl	r3, r4, #3
 706 0042 DB0F     		lsr	r3, r3, #31
 707 0044 5A43     		mul	r2, r3
 708 0046 111C     		mov	r1, r2
 625:Generated_Source\PSoC4/RTC.h **** 
 709              		.loc 1 625 0
 710 0048 2301     		lsl	r3, r4, #4
 711 004a 1A0F     		lsr	r2, r3, #28
 712 004c 8B18     		add	r3, r1, r2
 713              	.LVL77:
 714              	.LBE39:
 715              	.LBE38:
1287:Generated_Source\PSoC4/RTC.c ****         }
1288:Generated_Source\PSoC4/RTC.c ****     }
1289:Generated_Source\PSoC4/RTC.c **** 
1290:Generated_Source\PSoC4/RTC.c ****     /* Calculates how many seconds had elapsed in this year prior to the current month. */
1291:Generated_Source\PSoC4/RTC.c ****     tmpMonth = RTC_GetMonth(inputDate);
1292:Generated_Source\PSoC4/RTC.c ****     tmpVal = RTC_daysBeforeMonthTbl[tmpMonth - 1u];
 716              		.loc 2 1292 0
 717 004e 5A1E     		sub	r2, r3, #1
 718 0050 2F49     		ldr	r1, .L46+12
 719 0052 5200     		lsl	r2, r2, #1
 720 0054 565A     		ldrh	r6, [r2, r1]
 721              	.LVL78:
1293:Generated_Source\PSoC4/RTC.c **** 
1294:Generated_Source\PSoC4/RTC.c ****     if((tmpMonth > 2u) && (0u != RTC_LeapYear(tmpYear)))
 722              		.loc 2 1294 0
 723 0056 022B     		cmp	r3, #2
 724 0058 05D9     		bls	.L37
 725              		.loc 2 1294 0 is_stmt 0 discriminator 1
 726 005a 381C     		mov	r0, r7
 727 005c FFF7FEFF 		bl	RTC_LeapYear
 728              	.LVL79:
1295:Generated_Source\PSoC4/RTC.c ****     {
1296:Generated_Source\PSoC4/RTC.c ****         tmpVal++;
ARM GAS  C:\Users\Jerry\AppData\Local\Temp\cc7m5IHi.s 			page 60


 729              		.loc 2 1296 0 is_stmt 1 discriminator 1
 730 0060 431E     		sub	r3, r0, #1
 731 0062 9841     		sbc	r0, r0, r3
 732 0064 3618     		add	r6, r6, r0
 733              	.LVL80:
 734              	.L37:
1297:Generated_Source\PSoC4/RTC.c ****     }
1298:Generated_Source\PSoC4/RTC.c **** 
1299:Generated_Source\PSoC4/RTC.c ****     /* Calculates how many seconds are in current month days prior to today. */
1300:Generated_Source\PSoC4/RTC.c ****     unixTime += tmpVal * RTC_SECONDS_PER_DAY;
 735              		.loc 2 1300 0
 736 0066 0023     		mov	r3, #0
 737 0068 2A48     		ldr	r0, .L46+16
 738 006a 0393     		str	r3, [sp, #12]
 739              	.LVL81:
 740 006c 4643     		mul	r6, r0
 741              	.LVL82:
 742              	.LBB40:
 743              	.LBB41:
 599:Generated_Source\PSoC4/RTC.h ****     retVal += (date & RTC_DAY_MASK) >> RTC_DAY_OFFSET;
 744              		.loc 1 599 0
 745 006e C023     		mov	r3, #192
 746              	.LBE41:
 747              	.LBE40:
 748              		.loc 2 1300 0
 749 0070 0296     		str	r6, [sp, #8]
 750              	.LVL83:
 751              	.LBB45:
 752              	.LBB42:
 599:Generated_Source\PSoC4/RTC.h ****     retVal += (date & RTC_DAY_MASK) >> RTC_DAY_OFFSET;
 753              		.loc 1 599 0
 754 0072 261C     		mov	r6, r4
 755 0074 0A21     		mov	r1, #10
 756              	.LVL84:
 600:Generated_Source\PSoC4/RTC.h **** 
 757              		.loc 1 600 0
 758 0076 F022     		mov	r2, #240
 599:Generated_Source\PSoC4/RTC.h ****     retVal += (date & RTC_DAY_MASK) >> RTC_DAY_OFFSET;
 759              		.loc 1 599 0
 760 0078 9B03     		lsl	r3, r3, #14
 761 007a 1E40     		and	r6, r3
 762 007c 360D     		lsr	r6, r6, #20
 763 007e 4E43     		mul	r6, r1
 764              	.LVL85:
 600:Generated_Source\PSoC4/RTC.h **** 
 765              		.loc 1 600 0
 766 0080 1203     		lsl	r2, r2, #12
 767 0082 1440     		and	r4, r2
 768              	.LVL86:
 769              	.LBE42:
 770              	.LBE45:
 771              	.LBB46:
 772              	.LBB47:
 552:Generated_Source\PSoC4/RTC.h ****     retVal += (inputTime & RTC_HOURS_MASK) >> RTC_HOURS_OFFSET;
 773              		.loc 1 552 0
 774 0084 2B40     		and	r3, r5
 775              	.LBE47:
ARM GAS  C:\Users\Jerry\AppData\Local\Temp\cc7m5IHi.s 			page 61


 776              	.LBE46:
 777              	.LBB53:
 778              	.LBB43:
 600:Generated_Source\PSoC4/RTC.h **** 
 779              		.loc 1 600 0
 780 0086 240C     		lsr	r4, r4, #16
 781              	.LBE43:
 782              	.LBE53:
 783              	.LBB54:
 784              	.LBB48:
 552:Generated_Source\PSoC4/RTC.h ****     retVal += (inputTime & RTC_HOURS_MASK) >> RTC_HOURS_OFFSET;
 785              		.loc 1 552 0
 786 0088 1B0D     		lsr	r3, r3, #20
 787              	.LBE48:
 788              	.LBE54:
 789              	.LBB55:
 790              	.LBB44:
 600:Generated_Source\PSoC4/RTC.h **** 
 791              		.loc 1 600 0
 792 008a 3419     		add	r4, r6, r4
 793              	.LBE44:
 794              	.LBE55:
 795              	.LBB56:
 796              	.LBB49:
 552:Generated_Source\PSoC4/RTC.h ****     retVal += (inputTime & RTC_HOURS_MASK) >> RTC_HOURS_OFFSET;
 797              		.loc 1 552 0
 798 008c 4B43     		mul	r3, r1
 799              	.LBE49:
 800              	.LBE56:
1301:Generated_Source\PSoC4/RTC.c ****     unixTime += (RTC_GetDay(inputDate) - 1u) * RTC_SECONDS_PER_DAY;
 801              		.loc 2 1301 0
 802 008e 4443     		mul	r4, r0
 803              	.LBB57:
 804              	.LBB50:
 553:Generated_Source\PSoC4/RTC.h **** 
 805              		.loc 1 553 0
 806 0090 2A40     		and	r2, r5
 807              	.LBE50:
 808              	.LBE57:
 809              		.loc 2 1301 0
 810 0092 2148     		ldr	r0, .L46+20
 811              	.LBB58:
 812              	.LBB51:
 553:Generated_Source\PSoC4/RTC.h **** 
 813              		.loc 1 553 0
 814 0094 120C     		lsr	r2, r2, #16
 815 0096 9B18     		add	r3, r3, r2
 816              	.LBE51:
 817              	.LBE58:
 818              		.loc 2 1301 0
 819 0098 2618     		add	r6, r4, r0
 820              	.LVL87:
 821 009a 0027     		mov	r7, #0
 822              	.LVL88:
 823              	.LBB59:
 824              	.LBB52:
 553:Generated_Source\PSoC4/RTC.h **** 
ARM GAS  C:\Users\Jerry\AppData\Local\Temp\cc7m5IHi.s 			page 62


 825              		.loc 1 553 0
 826 009c 9C46     		mov	ip, r3
 827              	.LVL89:
 828              	.LBE52:
 829              	.LBE59:
 830              	.LBB60:
 831              	.LBB61:
1029:Generated_Source\PSoC4/RTC.h ****                                                                                   (uint32)RTC_24_HO
 832              		.loc 1 1029 0
 833 009e 2B02     		lsl	r3, r5, #8
 834 00a0 06D5     		bpl	.L39
 835              	.LVL90:
 836              	.LBE61:
 837              	.LBE60:
 838              	.LBB62:
 839              	.LBB63:
 840              	.LBB64:
 444:Generated_Source\PSoC4/RTC.h **** }
 841              		.loc 1 444 0
 842 00a2 6B02     		lsl	r3, r5, #9
 843 00a4 04D5     		bpl	.L39
 844              	.LBE64:
 845              	.LBE63:
 846              	.LBE62:
1302:Generated_Source\PSoC4/RTC.c **** 
1303:Generated_Source\PSoC4/RTC.c ****     /* Calculates how many seconds have elapsed today up to the current hour. */
1304:Generated_Source\PSoC4/RTC.c ****     tmpVal = RTC_GetHours(inputTime);
1305:Generated_Source\PSoC4/RTC.c ****     if(((uint32)RTC_24_HOURS_FORMAT != RTC_GetTimeFormat(inputTime)) &&
1306:Generated_Source\PSoC4/RTC.c ****        ((uint32)RTC_AM != RTC_GetAmPm(inputTime)) && (tmpVal < 12u))
 847              		.loc 2 1306 0
 848 00a6 6346     		mov	r3, ip
 849 00a8 0B2B     		cmp	r3, #11
 850 00aa 01D8     		bhi	.L39
1307:Generated_Source\PSoC4/RTC.c ****     {
1308:Generated_Source\PSoC4/RTC.c ****         tmpVal += RTC_HOURS_PER_HALF_DAY;
 851              		.loc 2 1308 0
 852 00ac 0C23     		mov	r3, #12
 853 00ae 9C44     		add	ip, ip, r3
 854              	.LVL91:
 855              	.L39:
 856              	.LBB65:
 857              	.LBB66:
 527:Generated_Source\PSoC4/RTC.h ****     retVal += (inputTime & RTC_MINUTES_MASK) >> RTC_MINUTES_OFFSET;
 858              		.loc 1 527 0
 859 00b0 6904     		lsl	r1, r5, #17
 860              	.LVL92:
 861 00b2 490F     		lsr	r1, r1, #29
 862 00b4 0A22     		mov	r2, #10
 863              	.LVL93:
 864 00b6 0B1C     		mov	r3, r1
 865              	.LBE66:
 866              	.LBE65:
1309:Generated_Source\PSoC4/RTC.c ****     }
1310:Generated_Source\PSoC4/RTC.c ****     unixTime += tmpVal * RTC_SECONDS_PER_HOUR;
1311:Generated_Source\PSoC4/RTC.c **** 
1312:Generated_Source\PSoC4/RTC.c ****     /* Calculates how many seconds have elapsed today up to the current minute. */
1313:Generated_Source\PSoC4/RTC.c ****     unixTime += RTC_GetMinutes(inputTime) * RTC_SECONDS_PER_MINUTE;
ARM GAS  C:\Users\Jerry\AppData\Local\Temp\cc7m5IHi.s 			page 63


 867              		.loc 2 1313 0
 868 00b8 3C20     		mov	r0, #60
 869              	.LBB68:
 870              	.LBB67:
 527:Generated_Source\PSoC4/RTC.h ****     retVal += (inputTime & RTC_MINUTES_MASK) >> RTC_MINUTES_OFFSET;
 871              		.loc 1 527 0
 872 00ba 5343     		mul	r3, r2
 873              	.LVL94:
 528:Generated_Source\PSoC4/RTC.h **** 
 874              		.loc 1 528 0
 875 00bc 2905     		lsl	r1, r5, #20
 876 00be 090F     		lsr	r1, r1, #28
 877 00c0 5918     		add	r1, r3, r1
 878              	.LBE67:
 879              	.LBE68:
 880              		.loc 2 1313 0
 881 00c2 4843     		mul	r0, r1
 882 00c4 0023     		mov	r3, #0
 883              	.LVL95:
 884              	.LBB69:
 885              	.LBB70:
 502:Generated_Source\PSoC4/RTC.h **** 
 886              		.loc 1 502 0
 887 00c6 0F21     		mov	r1, #15
 501:Generated_Source\PSoC4/RTC.h ****     retVal += (inputTime & RTC_SECONDS_MASK) >> RTC_SECONDS_OFFSET;
 888              		.loc 1 501 0
 889 00c8 6C06     		lsl	r4, r5, #25
 890 00ca 640F     		lsr	r4, r4, #29
 891 00cc 5443     		mul	r4, r2
 892              	.LVL96:
 502:Generated_Source\PSoC4/RTC.h **** 
 893              		.loc 1 502 0
 894 00ce 0D40     		and	r5, r1
 895              	.LVL97:
 896              	.LBE70:
 897              	.LBE69:
 898              		.loc 2 1313 0
 899 00d0 021C     		mov	r2, r0
 900              	.LVL98:
1314:Generated_Source\PSoC4/RTC.c **** 
1315:Generated_Source\PSoC4/RTC.c ****     /* Add remaining seconds of current minute. */
1316:Generated_Source\PSoC4/RTC.c ****     unixTime += RTC_GetSecond(inputTime);
 901              		.loc 2 1316 0
 902 00d2 191C     		mov	r1, r3
 903 00d4 6019     		add	r0, r4, r5
 904              	.LVL99:
 905 00d6 8018     		add	r0, r0, r2
 906 00d8 5941     		adc	r1, r1, r3
 907              	.LVL100:
 908 00da 009C     		ldr	r4, [sp]
 909 00dc 019D     		ldr	r5, [sp, #4]
 910              	.LVL101:
 911 00de 8019     		add	r0, r0, r6
 912 00e0 7941     		adc	r1, r1, r7
1310:Generated_Source\PSoC4/RTC.c **** 
 913              		.loc 2 1310 0
 914 00e2 E122     		mov	r2, #225
ARM GAS  C:\Users\Jerry\AppData\Local\Temp\cc7m5IHi.s 			page 64


 915 00e4 6646     		mov	r6, ip
 916 00e6 0019     		add	r0, r0, r4
 917 00e8 6941     		adc	r1, r1, r5
 918 00ea 029C     		ldr	r4, [sp, #8]
 919 00ec 039D     		ldr	r5, [sp, #12]
 920 00ee 1201     		lsl	r2, r2, #4
 921 00f0 5643     		mul	r6, r2
 922 00f2 0019     		add	r0, r0, r4
 923 00f4 6941     		adc	r1, r1, r5
 924              	.LVL102:
 925 00f6 341C     		mov	r4, r6
 926 00f8 1D1C     		mov	r5, r3
 927              		.loc 2 1316 0
 928 00fa 0019     		add	r0, r0, r4
 929 00fc 6941     		adc	r1, r1, r5
 930              	.LVL103:
1317:Generated_Source\PSoC4/RTC.c **** 
1318:Generated_Source\PSoC4/RTC.c ****     return(unixTime);
1319:Generated_Source\PSoC4/RTC.c **** }
 931              		.loc 2 1319 0
 932 00fe 05B0     		add	sp, sp, #20
 933              		@ sp needed
 934 0100 F0BD     		pop	{r4, r5, r6, r7, pc}
 935              	.L47:
 936 0102 C046     		.align	2
 937              	.L46:
 938 0104 B2070000 		.word	1970
 939 0108 0085E201 		.word	31622400
 940 010c 8033E101 		.word	31536000
 941 0110 00000000 		.word	.LANCHOR1
 942 0114 80510100 		.word	86400
 943 0118 80AEFEFF 		.word	-86400
 944              		.cfi_endproc
 945              	.LFE45:
 946              		.size	RTC_DateTimeToUnix, .-RTC_DateTimeToUnix
 947              		.section	.text.RTC_SetDateAndTime,"ax",%progbits
 948              		.align	1
 949              		.global	RTC_SetDateAndTime
 950              		.code	16
 951              		.thumb_func
 952              		.type	RTC_SetDateAndTime, %function
 953              	RTC_SetDateAndTime:
 954              	.LFB32:
 230:Generated_Source\PSoC4/RTC.c ****     uint32 tmpDay;
 955              		.loc 2 230 0
 956              		.cfi_startproc
 957              	.LVL104:
 958 0000 F7B5     		push	{r0, r1, r2, r4, r5, r6, r7, lr}
 959              		.cfi_def_cfa_offset 32
 960              		.cfi_offset 0, -32
 961              		.cfi_offset 1, -28
 962              		.cfi_offset 2, -24
 963              		.cfi_offset 4, -20
 964              		.cfi_offset 5, -16
 965              		.cfi_offset 6, -12
 966              		.cfi_offset 7, -8
 967              		.cfi_offset 14, -4
ARM GAS  C:\Users\Jerry\AppData\Local\Temp\cc7m5IHi.s 			page 65


 968              	.LBB75:
 969              	.LBB76:
 599:Generated_Source\PSoC4/RTC.h ****     retVal += (date & RTC_DAY_MASK) >> RTC_DAY_OFFSET;
 970              		.loc 1 599 0
 971 0002 8D02     		lsl	r5, r1, #10
 972 0004 AD0F     		lsr	r5, r5, #30
 973 0006 0A22     		mov	r2, #10
 974 0008 2B1C     		mov	r3, r5
 975 000a 5343     		mul	r3, r2
 600:Generated_Source\PSoC4/RTC.h **** 
 976              		.loc 1 600 0
 977 000c 0D03     		lsl	r5, r1, #12
 978 000e 2D0F     		lsr	r5, r5, #28
 979 0010 5D19     		add	r5, r3, r5
 980              	.LVL105:
 981              	.LBE76:
 982              	.LBE75:
 983              	.LBB77:
 984              	.LBB78:
 624:Generated_Source\PSoC4/RTC.h ****     retVal += (date & RTC_MONTH_MASK) >> RTC_MONTH_OFFSET;
 985              		.loc 1 624 0
 986 0012 CB00     		lsl	r3, r1, #3
 987 0014 DB0F     		lsr	r3, r3, #31
 988 0016 5A43     		mul	r2, r3
 625:Generated_Source\PSoC4/RTC.h **** 
 989              		.loc 1 625 0
 990 0018 0B01     		lsl	r3, r1, #4
 991 001a 1B0F     		lsr	r3, r3, #28
 992              	.LBE78:
 993              	.LBE77:
 230:Generated_Source\PSoC4/RTC.c ****     uint32 tmpDay;
 994              		.loc 2 230 0
 995 001c 071C     		mov	r7, r0
 996              	.LBB81:
 997              	.LBB79:
 625:Generated_Source\PSoC4/RTC.h **** 
 998              		.loc 1 625 0
 999 001e D318     		add	r3, r2, r3
 1000              	.LBE79:
 1001              	.LBE81:
 237:Generated_Source\PSoC4/RTC.c **** 
 1002              		.loc 2 237 0
 1003 0020 081C     		mov	r0, r1
 1004              	.LVL106:
 230:Generated_Source\PSoC4/RTC.c ****     uint32 tmpDay;
 1005              		.loc 2 230 0
 1006 0022 0C1C     		mov	r4, r1
 1007              	.LBB82:
 1008              	.LBB80:
 625:Generated_Source\PSoC4/RTC.h **** 
 1009              		.loc 1 625 0
 1010 0024 0193     		str	r3, [sp, #4]
 1011              	.LVL107:
 1012              	.LBE80:
 1013              	.LBE82:
 237:Generated_Source\PSoC4/RTC.c **** 
 1014              		.loc 2 237 0
ARM GAS  C:\Users\Jerry\AppData\Local\Temp\cc7m5IHi.s 			page 66


 1015 0026 FFF7FEFF 		bl	RTC_GetYear
 1016              	.LVL108:
 239:Generated_Source\PSoC4/RTC.c ****     RTC_currentTimeDate.date = inputDate;
 1017              		.loc 2 239 0
 1018 002a 391C     		mov	r1, r7
 237:Generated_Source\PSoC4/RTC.c **** 
 1019              		.loc 2 237 0
 1020 002c 0090     		str	r0, [sp]
 1021              	.LVL109:
 239:Generated_Source\PSoC4/RTC.c ****     RTC_currentTimeDate.date = inputDate;
 1022              		.loc 2 239 0
 1023 002e 201C     		mov	r0, r4
 1024              	.LVL110:
 1025 0030 FFF7FEFF 		bl	RTC_DateTimeToUnix
 1026              	.LVL111:
 1027 0034 064B     		ldr	r3, .L49
 240:Generated_Source\PSoC4/RTC.c ****     RTC_currentTimeDate.time = inputTime;
 1028              		.loc 2 240 0
 1029 0036 074E     		ldr	r6, .L49+4
 239:Generated_Source\PSoC4/RTC.c ****     RTC_currentTimeDate.date = inputDate;
 1030              		.loc 2 239 0
 1031 0038 1860     		str	r0, [r3]
 1032 003a 5960     		str	r1, [r3, #4]
 242:Generated_Source\PSoC4/RTC.c **** 
 1033              		.loc 2 242 0
 1034 003c 009A     		ldr	r2, [sp]
 1035 003e 281C     		mov	r0, r5
 1036 0040 0199     		ldr	r1, [sp, #4]
 241:Generated_Source\PSoC4/RTC.c ****     RTC_currentTimeDate.dayOfWeek = RTC_GetDayOfWeek(tmpDay, tmpMonth, tmpYear);
 1037              		.loc 2 241 0
 1038 0042 3760     		str	r7, [r6]
 240:Generated_Source\PSoC4/RTC.c ****     RTC_currentTimeDate.time = inputTime;
 1039              		.loc 2 240 0
 1040 0044 7460     		str	r4, [r6, #4]
 242:Generated_Source\PSoC4/RTC.c **** 
 1041              		.loc 2 242 0
 1042 0046 FFF7FEFF 		bl	RTC_GetDayOfWeek
 1043              	.LVL112:
 266:Generated_Source\PSoC4/RTC.c **** 
 1044              		.loc 2 266 0
 1045              		@ sp needed
 242:Generated_Source\PSoC4/RTC.c **** 
 1046              		.loc 2 242 0
 1047 004a B060     		str	r0, [r6, #8]
 1048              	.LVL113:
 1049              	.LVL114:
 1050              	.LVL115:
 266:Generated_Source\PSoC4/RTC.c **** 
 1051              		.loc 2 266 0
 1052 004c F7BD     		pop	{r0, r1, r2, r4, r5, r6, r7, pc}
 1053              	.L50:
 1054 004e C046     		.align	2
 1055              	.L49:
 1056 0050 00000000 		.word	RTC_unixTime
 1057 0054 00000000 		.word	RTC_currentTimeDate
 1058              		.cfi_endproc
 1059              	.LFE32:
ARM GAS  C:\Users\Jerry\AppData\Local\Temp\cc7m5IHi.s 			page 67


 1060              		.size	RTC_SetDateAndTime, .-RTC_SetDateAndTime
 1061              		.section	.text.RTC_Init,"ax",%progbits
 1062              		.align	1
 1063              		.global	RTC_Init
 1064              		.code	16
 1065              		.thumb_func
 1066              		.type	RTC_Init, %function
 1067              	RTC_Init:
 1068              	.LFB31:
 141:Generated_Source\PSoC4/RTC.c ****     uint32 tmpDate;
 1069              		.loc 2 141 0
 1070              		.cfi_startproc
 149:Generated_Source\PSoC4/RTC.c ****     RTC_dstTimeOffset = 0uL;
 1071              		.loc 2 149 0
 1072 0000 0122     		mov	r2, #1
 141:Generated_Source\PSoC4/RTC.c ****     uint32 tmpDate;
 1073              		.loc 2 141 0
 1074 0002 08B5     		push	{r3, lr}
 1075              		.cfi_def_cfa_offset 8
 1076              		.cfi_offset 3, -8
 1077              		.cfi_offset 14, -4
 149:Generated_Source\PSoC4/RTC.c ****     RTC_dstTimeOffset = 0uL;
 1078              		.loc 2 149 0
 1079 0004 084B     		ldr	r3, .L52
 197:Generated_Source\PSoC4/RTC.c **** }
 1080              		.loc 2 197 0
 1081 0006 9420     		mov	r0, #148
 149:Generated_Source\PSoC4/RTC.c ****     RTC_dstTimeOffset = 0uL;
 1082              		.loc 2 149 0
 1083 0008 1A70     		strb	r2, [r3]
 150:Generated_Source\PSoC4/RTC.c ****     RTC_currentTimeDate.status = 0uL;
 1084              		.loc 2 150 0
 1085 000a 0023     		mov	r3, #0
 1086 000c 074A     		ldr	r2, .L52+4
 197:Generated_Source\PSoC4/RTC.c **** }
 1087              		.loc 2 197 0
 1088 000e 0004     		lsl	r0, r0, #16
 150:Generated_Source\PSoC4/RTC.c ****     RTC_currentTimeDate.status = 0uL;
 1089              		.loc 2 150 0
 1090 0010 D360     		str	r3, [r2, #12]
 151:Generated_Source\PSoC4/RTC.c **** 
 1091              		.loc 2 151 0
 1092 0012 074A     		ldr	r2, .L52+8
 197:Generated_Source\PSoC4/RTC.c **** }
 1093              		.loc 2 197 0
 1094 0014 0749     		ldr	r1, .L52+12
 151:Generated_Source\PSoC4/RTC.c **** 
 1095              		.loc 2 151 0
 1096 0016 D360     		str	r3, [r2, #12]
 153:Generated_Source\PSoC4/RTC.c ****     RTC_alarmCurStatus = RTC_INITIAL_ALARM_STATUS;
 1097              		.loc 2 153 0
 1098 0018 074A     		ldr	r2, .L52+16
 198:Generated_Source\PSoC4/RTC.c **** 
 1099              		.loc 2 198 0
 1100              		@ sp needed
 153:Generated_Source\PSoC4/RTC.c ****     RTC_alarmCurStatus = RTC_INITIAL_ALARM_STATUS;
 1101              		.loc 2 153 0
ARM GAS  C:\Users\Jerry\AppData\Local\Temp\cc7m5IHi.s 			page 68


 1102 001a 1370     		strb	r3, [r2]
 154:Generated_Source\PSoC4/RTC.c **** 
 1103              		.loc 2 154 0
 1104 001c 074A     		ldr	r2, .L52+20
 1105 001e 1360     		str	r3, [r2]
 1106              	.LVL116:
 197:Generated_Source\PSoC4/RTC.c **** }
 1107              		.loc 2 197 0
 1108 0020 FFF7FEFF 		bl	RTC_SetDateAndTime
 1109              	.LVL117:
 198:Generated_Source\PSoC4/RTC.c **** 
 1110              		.loc 2 198 0
 1111 0024 08BD     		pop	{r3, pc}
 1112              	.L53:
 1113 0026 C046     		.align	2
 1114              	.L52:
 1115 0028 00000000 		.word	RTC_initVar
 1116 002c 00000000 		.word	.LANCHOR0
 1117 0030 00000000 		.word	RTC_currentTimeDate
 1118 0034 17200102 		.word	33628183
 1119 0038 00000000 		.word	RTC_dstStatus
 1120 003c 00000000 		.word	RTC_alarmCurStatus
 1121              		.cfi_endproc
 1122              	.LFE31:
 1123              		.size	RTC_Init, .-RTC_Init
 1124              		.section	.text.RTC_Start,"ax",%progbits
 1125              		.align	1
 1126              		.global	RTC_Start
 1127              		.code	16
 1128              		.thumb_func
 1129              		.type	RTC_Start, %function
 1130              	RTC_Start:
 1131              	.LFB29:
  91:Generated_Source\PSoC4/RTC.c ****     if(0u == RTC_initVar)
 1132              		.loc 2 91 0
 1133              		.cfi_startproc
 1134 0000 08B5     		push	{r3, lr}
 1135              		.cfi_def_cfa_offset 8
 1136              		.cfi_offset 3, -8
 1137              		.cfi_offset 14, -4
  92:Generated_Source\PSoC4/RTC.c ****     {
 1138              		.loc 2 92 0
 1139 0002 054B     		ldr	r3, .L56
 1140 0004 1B78     		ldrb	r3, [r3]
 1141 0006 002B     		cmp	r3, #0
 1142 0008 01D1     		bne	.L55
  94:Generated_Source\PSoC4/RTC.c ****     }
 1143              		.loc 2 94 0
 1144 000a FFF7FEFF 		bl	RTC_Init
 1145              	.LVL118:
 1146              	.L55:
 1147              	.LBB89:
 1148              	.LBB90:
1239:Generated_Source\PSoC4/RTC.h ****             #else
 1149              		.loc 1 1239 0
 1150 000e 0020     		mov	r0, #0
 1151 0010 0249     		ldr	r1, .L56+4
ARM GAS  C:\Users\Jerry\AppData\Local\Temp\cc7m5IHi.s 			page 69


 1152 0012 FFF7FEFF 		bl	CySysTimerSetInterruptCallback
 1153              	.LVL119:
 1154              	.LBE90:
 1155              	.LBE89:
 102:Generated_Source\PSoC4/RTC.c **** 
 1156              		.loc 2 102 0
 1157              		@ sp needed
 1158 0016 08BD     		pop	{r3, pc}
 1159              	.L57:
 1160              		.align	2
 1161              	.L56:
 1162 0018 00000000 		.word	RTC_initVar
 1163 001c 00000000 		.word	RTC_Update
 1164              		.cfi_endproc
 1165              	.LFE29:
 1166              		.size	RTC_Start, .-RTC_Start
 1167              		.section	.text.RTC_DaysInMonth,"ax",%progbits
 1168              		.align	1
 1169              		.global	RTC_DaysInMonth
 1170              		.code	16
 1171              		.thumb_func
 1172              		.type	RTC_DaysInMonth, %function
 1173              	RTC_DaysInMonth:
 1174              	.LFB48:
1320:Generated_Source\PSoC4/RTC.c **** 
1321:Generated_Source\PSoC4/RTC.c **** 
1322:Generated_Source\PSoC4/RTC.c **** /*******************************************************************************
1323:Generated_Source\PSoC4/RTC.c **** * Function Name: RTC_UnixToDateTime
1324:Generated_Source\PSoC4/RTC.c **** ****************************************************************************//**
1325:Generated_Source\PSoC4/RTC.c **** *
1326:Generated_Source\PSoC4/RTC.c **** * \brief
1327:Generated_Source\PSoC4/RTC.c **** *  This is an internal function to convert the date and time from
1328:Generated_Source\PSoC4/RTC.c **** *  the UNIX time format into the regular time format.
1329:Generated_Source\PSoC4/RTC.c **** *
1330:Generated_Source\PSoC4/RTC.c **** * \param dayOfWeek A day of a week <br>
1331:Generated_Source\PSoC4/RTC.c **** *                 RTC_SUNDAY <br>
1332:Generated_Source\PSoC4/RTC.c **** *                 RTC_MONDAY <br>
1333:Generated_Source\PSoC4/RTC.c **** *                 RTC_TUESDAY <br>
1334:Generated_Source\PSoC4/RTC.c **** *                 RTC_WEDNESDAY <br>
1335:Generated_Source\PSoC4/RTC.c **** *                 RTC_THURSDAY <br>
1336:Generated_Source\PSoC4/RTC.c **** *                 RTC_FRIDAY <br>
1337:Generated_Source\PSoC4/RTC.c **** *                 RTC_SATURDAY <br>
1338:Generated_Source\PSoC4/RTC.c **** *
1339:Generated_Source\PSoC4/RTC.c **** * \param weekOfMonth A week of a month <br>
1340:Generated_Source\PSoC4/RTC.c **** *                 RTC_FIRST <br>
1341:Generated_Source\PSoC4/RTC.c **** *                 RTC_SECOND <br>
1342:Generated_Source\PSoC4/RTC.c **** *                 RTC_THIRD <br>
1343:Generated_Source\PSoC4/RTC.c **** *                 RTC_FOURTH <br>
1344:Generated_Source\PSoC4/RTC.c **** *                 RTC_LAST <br>
1345:Generated_Source\PSoC4/RTC.c **** *
1346:Generated_Source\PSoC4/RTC.c **** * \param month A month of a year <br>
1347:Generated_Source\PSoC4/RTC.c **** *                   RTC_JANUARY <br>
1348:Generated_Source\PSoC4/RTC.c **** *                  RTC_FEBRUARY <br>
1349:Generated_Source\PSoC4/RTC.c **** *                  RTC_MARCH <br>
1350:Generated_Source\PSoC4/RTC.c **** *                  RTC_APRIL <br>
1351:Generated_Source\PSoC4/RTC.c **** *                  RTC_MAY <br>
1352:Generated_Source\PSoC4/RTC.c **** *                  RTC_JUNE <br>
ARM GAS  C:\Users\Jerry\AppData\Local\Temp\cc7m5IHi.s 			page 70


1353:Generated_Source\PSoC4/RTC.c **** *                  RTC_JULY <br>
1354:Generated_Source\PSoC4/RTC.c **** *                  RTC_AUGUST <br>
1355:Generated_Source\PSoC4/RTC.c **** *                  RTC_SEPTEMBER <br>
1356:Generated_Source\PSoC4/RTC.c **** *                  RTC_OCTOBER <br>
1357:Generated_Source\PSoC4/RTC.c **** *                  RTC_NOVEMBER <br>
1358:Generated_Source\PSoC4/RTC.c **** *                  RTC_DECEMBER <br>
1359:Generated_Source\PSoC4/RTC.c **** *
1360:Generated_Source\PSoC4/RTC.c **** * \param year A year value.
1361:Generated_Source\PSoC4/RTC.c **** *
1362:Generated_Source\PSoC4/RTC.c **** * \return A date in the "date format".
1363:Generated_Source\PSoC4/RTC.c **** *
1364:Generated_Source\PSoC4/RTC.c **** *******************************************************************************/
1365:Generated_Source\PSoC4/RTC.c **** void RTC_UnixToDateTime(RTC_DATE_TIME* dateTime, uint64 unixTime, uint32 timeFormat)
1366:Generated_Source\PSoC4/RTC.c **** {
1367:Generated_Source\PSoC4/RTC.c ****     uint32 tmpMinute;
1368:Generated_Source\PSoC4/RTC.c ****     uint32 tmpHour;
1369:Generated_Source\PSoC4/RTC.c ****     uint32 tmpAmPmState;
1370:Generated_Source\PSoC4/RTC.c **** 
1371:Generated_Source\PSoC4/RTC.c ****     uint32 tmpDay;
1372:Generated_Source\PSoC4/RTC.c ****     uint32 tmpMonth;
1373:Generated_Source\PSoC4/RTC.c ****     uint32 tmpYear;
1374:Generated_Source\PSoC4/RTC.c **** 
1375:Generated_Source\PSoC4/RTC.c ****     uint32 tmpVar;
1376:Generated_Source\PSoC4/RTC.c **** 
1377:Generated_Source\PSoC4/RTC.c ****     tmpAmPmState = 0u;
1378:Generated_Source\PSoC4/RTC.c ****     tmpYear = RTC_YEAR_0;
1379:Generated_Source\PSoC4/RTC.c ****     tmpVar = RTC_SECONDS_PER_NONLEAP_YEAR;
1380:Generated_Source\PSoC4/RTC.c **** 
1381:Generated_Source\PSoC4/RTC.c ****     /* Calculates current year value. Variable tmpYear
1382:Generated_Source\PSoC4/RTC.c ****     *  increments while it contains value greater than number
1383:Generated_Source\PSoC4/RTC.c ****     *  of seconds in current year.
1384:Generated_Source\PSoC4/RTC.c ****     */
1385:Generated_Source\PSoC4/RTC.c ****     while(unixTime > tmpVar)
1386:Generated_Source\PSoC4/RTC.c ****     {
1387:Generated_Source\PSoC4/RTC.c ****         unixTime -= tmpVar;
1388:Generated_Source\PSoC4/RTC.c ****         tmpYear++;
1389:Generated_Source\PSoC4/RTC.c **** 
1390:Generated_Source\PSoC4/RTC.c ****         if(0u != RTC_LeapYear(tmpYear))
1391:Generated_Source\PSoC4/RTC.c ****         {
1392:Generated_Source\PSoC4/RTC.c ****             tmpVar = RTC_SECONDS_PER_LEAP_YEAR;
1393:Generated_Source\PSoC4/RTC.c ****         }
1394:Generated_Source\PSoC4/RTC.c ****         else
1395:Generated_Source\PSoC4/RTC.c ****         {
1396:Generated_Source\PSoC4/RTC.c ****             tmpVar = RTC_SECONDS_PER_NONLEAP_YEAR;
1397:Generated_Source\PSoC4/RTC.c ****         }
1398:Generated_Source\PSoC4/RTC.c **** 
1399:Generated_Source\PSoC4/RTC.c ****     }
1400:Generated_Source\PSoC4/RTC.c **** 
1401:Generated_Source\PSoC4/RTC.c ****     /* Calculates current month value. tmpMonth variable increments
1402:Generated_Source\PSoC4/RTC.c ****      * while unixTime variable value is greater than time
1403:Generated_Source\PSoC4/RTC.c ****      * interval from beginning of current year to beginning of
1404:Generated_Source\PSoC4/RTC.c ****      * current month
1405:Generated_Source\PSoC4/RTC.c ****     */
1406:Generated_Source\PSoC4/RTC.c ****     tmpMonth = (uint32)RTC_JANUARY;
1407:Generated_Source\PSoC4/RTC.c ****     tmpVar = RTC_DaysInMonth(tmpMonth, tmpYear) * RTC_SECONDS_PER_DAY;
1408:Generated_Source\PSoC4/RTC.c **** 
1409:Generated_Source\PSoC4/RTC.c ****     while(unixTime >= tmpVar)
ARM GAS  C:\Users\Jerry\AppData\Local\Temp\cc7m5IHi.s 			page 71


1410:Generated_Source\PSoC4/RTC.c ****     {
1411:Generated_Source\PSoC4/RTC.c ****         unixTime -= tmpVar;
1412:Generated_Source\PSoC4/RTC.c ****         tmpMonth++;
1413:Generated_Source\PSoC4/RTC.c ****         tmpVar = RTC_DaysInMonth(tmpMonth, tmpYear) * RTC_SECONDS_PER_DAY;
1414:Generated_Source\PSoC4/RTC.c ****     }
1415:Generated_Source\PSoC4/RTC.c **** 
1416:Generated_Source\PSoC4/RTC.c ****     /* Calculates current day value. */
1417:Generated_Source\PSoC4/RTC.c ****     tmpDay = (unixTime / RTC_SECONDS_PER_DAY);
