ARM GAS  C:\Users\Jerry\AppData\Local\Temp\ccjlWiHi.s 			page 1


   1              		.cpu cortex-m0plus
   2              		.fpu softvfp
   3              		.eabi_attribute 20, 1
   4              		.eabi_attribute 21, 1
   5              		.eabi_attribute 23, 3
   6              		.eabi_attribute 24, 1
   7              		.eabi_attribute 25, 1
   8              		.eabi_attribute 26, 1
   9              		.eabi_attribute 30, 4
  10              		.eabi_attribute 34, 0
  11              		.eabi_attribute 18, 4
  12              		.code	16
  13              		.file	"temperature.c"
  14              		.text
  15              	.Ltext0:
  16              		.cfi_sections	.debug_frame
  17              		.section	.text.temperature_hw_init,"ax",%progbits
  18              		.align	1
  19              		.global	temperature_hw_init
  20              		.code	16
  21              		.thumb_func
  22              		.type	temperature_hw_init, %function
  23              	temperature_hw_init:
  24              	.LFB95:
  25              		.file 1 "temperature.c"
   1:temperature.c **** /***************************************************************************//**
   2:temperature.c **** * @file    temperature.c
   3:temperature.c **** * @version 1.0.0
   4:temperature.c **** *
   5:temperature.c **** * @brief Thermal sensing implementation.
   6:temperature.c **** *
   7:temperature.c **** * @par Target device
   8:temperature.c **** *    CY8C4A45LQI-483
   9:temperature.c **** *
  10:temperature.c **** * @par Related hardware
  11:temperature.c **** *    CY8CKIT-048
  12:temperature.c **** *
  13:temperature.c **** * @par Code Tested With
  14:temperature.c **** *    1. Silicon: PSoC Analog Coprocessor
  15:temperature.c **** *    2. IDE: PSoC Creator 4.0 (4.0.0.432)
  16:temperature.c **** *    3. Compiler: GCC 4.9.3, ARM MDK 4.54.0.0 (armcc 4.1 b894)
  17:temperature.c **** *
  18:temperature.c **** * @par Source
  19:temperature.c **** *    Code Example CE211321 - Temperature Sensing
  20:temperature.c **** *
  21:temperature.c **** * @par Components
  22:temperature.c **** *    - Scan_ADC       [ADC]
  23:temperature.c **** *    - PVref_P4       [PVref]
  24:temperature.c **** *    - Opamp_P4       [VrefBuffer]
  25:temperature.c **** *    - ThermistorCalc [Thermistor]
  26:temperature.c **** *
  27:temperature.c **** *******************************************************************************/
  28:temperature.c **** #include "temperature.h"
  29:temperature.c **** 
  30:temperature.c **** /*******************************************************************************
  31:temperature.c **** * Function Name: temperature_hw_init
  32:temperature.c **** ****************************************************************************//**
ARM GAS  C:\Users\Jerry\AppData\Local\Temp\ccjlWiHi.s 			page 2


  33:temperature.c **** * @par Summary
  34:temperature.c **** *     
  35:temperature.c **** *******************************************************************************/
  36:temperature.c **** void 
  37:temperature.c **** temperature_hw_init(void)
  38:temperature.c **** {
  26              		.loc 1 38 0
  27              		.cfi_startproc
  28 0000 08B5     		push	{r3, lr}
  29              		.cfi_def_cfa_offset 8
  30              		.cfi_offset 3, -8
  31              		.cfi_offset 14, -4
  39:temperature.c ****     // Start the Scanning SAR ADC Component and start conversion
  40:temperature.c ****     ADC_Start();
  32              		.loc 1 40 0
  33 0002 FFF7FEFF 		bl	ADC_Start
  34              	.LVL0:
  41:temperature.c ****     ADC_StartConvert();
  42:temperature.c **** 
  43:temperature.c ****     // Start Reference buffer
  44:temperature.c ****     VrefBuffer_Start();
  45:temperature.c **** 
  46:temperature.c ****     // Start and enable Programmable Voltage Reference
  47:temperature.c ****     PVref_Start();
  48:temperature.c ****     PVref_Enable();
  49:temperature.c **** }
  35              		.loc 1 49 0
  36              		@ sp needed
  41:temperature.c ****     ADC_StartConvert();
  37              		.loc 1 41 0
  38 0006 FFF7FEFF 		bl	ADC_StartConvert
  39              	.LVL1:
  44:temperature.c **** 
  40              		.loc 1 44 0
  41 000a FFF7FEFF 		bl	VrefBuffer_Start
  42              	.LVL2:
  47:temperature.c ****     PVref_Enable();
  43              		.loc 1 47 0
  44 000e FFF7FEFF 		bl	PVref_Start
  45              	.LVL3:
  48:temperature.c **** }
  46              		.loc 1 48 0
  47 0012 FFF7FEFF 		bl	PVref_Enable
  48              	.LVL4:
  49              		.loc 1 49 0
  50 0016 08BD     		pop	{r3, pc}
  51              		.cfi_endproc
  52              	.LFE95:
  53              		.size	temperature_hw_init, .-temperature_hw_init
  54              		.section	.text.get_temperature,"ax",%progbits
  55              		.align	1
  56              		.global	get_temperature
  57              		.code	16
  58              		.thumb_func
  59              		.type	get_temperature, %function
  60              	get_temperature:
  61              	.LFB96:
ARM GAS  C:\Users\Jerry\AppData\Local\Temp\ccjlWiHi.s 			page 3


  50:temperature.c **** 
  51:temperature.c **** 
  52:temperature.c **** /*******************************************************************************
  53:temperature.c **** * Function Name: get_temperature
  54:temperature.c **** ****************************************************************************//**
  55:temperature.c **** * @par Summary
  56:temperature.c **** *     
  57:temperature.c **** *
  58:temperature.c **** *******************************************************************************/
  59:temperature.c **** int16_t 
  60:temperature.c **** get_temperature(void)
  61:temperature.c **** {
  62              		.loc 1 61 0
  63              		.cfi_startproc
  64 0000 38B5     		push	{r3, r4, r5, lr}
  65              		.cfi_def_cfa_offset 16
  66              		.cfi_offset 3, -16
  67              		.cfi_offset 4, -12
  68              		.cfi_offset 5, -8
  69              		.cfi_offset 14, -4
  62:temperature.c ****     static int16_t temperature = 0;
  63:temperature.c **** 
  64:temperature.c ****     // Filter input and output variables for Vref and Vth measurements
  65:temperature.c ****     static int16_t filter_vref = 0;
  66:temperature.c ****     static int16_t filter_vth = 0;
  67:temperature.c ****     
  68:temperature.c ****     if (ADC_IsEndConversion(ADC_RETURN_STATUS))
  70              		.loc 1 68 0
  71 0002 0120     		mov	r0, #1
  72 0004 FFF7FEFF 		bl	ADC_IsEndConversion
  73              	.LVL5:
  74 0008 114C     		ldr	r4, .L8
  75 000a 0028     		cmp	r0, #0
  76 000c 1DD0     		beq	.L3
  77              	.LBB2:
  69:temperature.c ****     {
  70:temperature.c ****         // Read the ADC result for reference and thermistor voltages
  71:temperature.c ****         int16_t adc_vref = ADC_GetResult16(TEMP_ADC_CH_VREF);
  78              		.loc 1 71 0
  79 000e 0020     		mov	r0, #0
  80 0010 FFF7FEFF 		bl	ADC_GetResult16
  81              	.LVL6:
  82 0014 051C     		mov	r5, r0
  83              	.LVL7:
  72:temperature.c ****         int16_t adc_vth  = ADC_GetResult16(TEMP_ADC_CH_VTH);
  84              		.loc 1 72 0
  85 0016 0120     		mov	r0, #1
  86 0018 FFF7FEFF 		bl	ADC_GetResult16
  87              	.LVL8:
  73:temperature.c **** 
  74:temperature.c ****         // Low pass filter the measured ADC counts of Vref
  75:temperature.c ****         filter_vref = (adc_vref + (TEMP_FILTER_COEF - 1) * filter_vref) 
  88              		.loc 1 75 0
  89 001c 0023     		mov	r3, #0
  90 001e E25E     		ldrsh	r2, [r4, r3]
  91 0020 1F23     		mov	r3, #31
  92 0022 5A43     		mul	r2, r3
ARM GAS  C:\Users\Jerry\AppData\Local\Temp\ccjlWiHi.s 			page 4


  93 0024 AA18     		add	r2, r5, r2
  76:temperature.c ****                             / TEMP_FILTER_COEF;
  77:temperature.c **** 
  78:temperature.c ****         // Low pass filter the measured ADC counts of Vth
  79:temperature.c ****         filter_vth = (adc_vth + (TEMP_FILTER_COEF - 1) * filter_vth) 
  94              		.loc 1 79 0
  95 0026 0225     		mov	r5, #2
  96 0028 615F     		ldrsh	r1, [r4, r5]
  97              	.LVL9:
  76:temperature.c ****                             / TEMP_FILTER_COEF;
  98              		.loc 1 76 0
  99 002a 5209     		lsr	r2, r2, #5
 100              		.loc 1 79 0
 101 002c 4B43     		mul	r3, r1
 102 002e C118     		add	r1, r0, r3
  80:temperature.c ****                             / TEMP_FILTER_COEF;
 103              		.loc 1 80 0
 104 0030 4909     		lsr	r1, r1, #5
  75:temperature.c ****                             / TEMP_FILTER_COEF;
 105              		.loc 1 75 0
 106 0032 92B2     		uxth	r2, r2
  79:temperature.c ****                             / TEMP_FILTER_COEF;
 107              		.loc 1 79 0
 108 0034 89B2     		uxth	r1, r1
 109 0036 6180     		strh	r1, [r4, #2]
  81:temperature.c **** 
  82:temperature.c ****         int16_t thermistor_resistance = 
  83:temperature.c ****             Thermistor_GetResistance(filter_vref, filter_vth);           
 110              		.loc 1 83 0
 111 0038 10B2     		sxth	r0, r2
 112              	.LVL10:
 113 003a 09B2     		sxth	r1, r1
  75:temperature.c ****                             / TEMP_FILTER_COEF;
 114              		.loc 1 75 0
 115 003c 2280     		strh	r2, [r4]
 116              		.loc 1 83 0
 117 003e FFF7FEFF 		bl	Thermistor_GetResistance
 118              	.LVL11:
  84:temperature.c **** 
  85:temperature.c ****         // Calculate temperature in degrees Celsius using the Component API
  86:temperature.c ****         temperature = Thermistor_GetTemperature(thermistor_resistance);
 119              		.loc 1 86 0
 120 0042 00B2     		sxth	r0, r0
 121 0044 FFF7FEFF 		bl	Thermistor_GetTemperature
 122              	.LVL12:
 123 0048 A080     		strh	r0, [r4, #4]
 124              	.L3:
 125              	.LBE2:
  87:temperature.c ****     }
  88:temperature.c ****     
  89:temperature.c ****     return temperature;
 126              		.loc 1 89 0
 127 004a 0423     		mov	r3, #4
 128 004c E05E     		ldrsh	r0, [r4, r3]
  90:temperature.c **** }
 129              		.loc 1 90 0
 130              		@ sp needed
ARM GAS  C:\Users\Jerry\AppData\Local\Temp\ccjlWiHi.s 			page 5


 131 004e 38BD     		pop	{r3, r4, r5, pc}
 132              	.L9:
 133              		.align	2
 134              	.L8:
 135 0050 00000000 		.word	.LANCHOR0
 136              		.cfi_endproc
 137              	.LFE96:
 138              		.size	get_temperature, .-get_temperature
 139              		.bss
 140              		.align	1
 141              		.set	.LANCHOR0,. + 0
 142              		.type	filter_vref.7440, %object
 143              		.size	filter_vref.7440, 2
 144              	filter_vref.7440:
 145 0000 0000     		.space	2
 146              		.type	filter_vth.7441, %object
 147              		.size	filter_vth.7441, 2
 148              	filter_vth.7441:
 149 0002 0000     		.space	2
 150              		.type	temperature.7439, %object
 151              		.size	temperature.7439, 2
 152              	temperature.7439:
 153 0004 0000     		.space	2
 154              		.text
 155              	.Letext0:
 156              		.file 2 "c:\\program files (x86)\\cypress\\psoc creator\\4.0\\psoc creator\\import\\gnu\\arm\\4.9.
 157              		.file 3 "c:\\program files (x86)\\cypress\\psoc creator\\4.0\\psoc creator\\import\\gnu\\arm\\4.9.
 158              		.file 4 "Generated_Source\\PSoC4/cytypes.h"
 159              		.file 5 "Generated_Source\\PSoC4/ADC.h"
 160              		.file 6 "Generated_Source\\PSoC4/VrefBuffer.h"
 161              		.file 7 "Generated_Source\\PSoC4/PVref.h"
 162              		.file 8 "Generated_Source\\PSoC4/Thermistor.h"