ARM GAS  C:\Users\Jerry\AppData\Local\Temp\cc1IKG0O.s 			page 1


   1              		.cpu cortex-m0plus
   2              		.fpu softvfp
   3              		.eabi_attribute 20, 1
   4              		.eabi_attribute 21, 1
   5              		.eabi_attribute 23, 3
   6              		.eabi_attribute 24, 1
   7              		.eabi_attribute 25, 1
   8              		.eabi_attribute 26, 1
   9              		.eabi_attribute 30, 4
  10              		.eabi_attribute 34, 0
  11              		.eabi_attribute 18, 4
  12              		.code	16
  13              		.file	"VDAC_Synth_UAB.c"
  14              		.text
  15              	.Ltext0:
  16              		.cfi_sections	.debug_frame
  17              		.section	.text.VDAC_Synth_UAB_WriteInitPairs,"ax",%progbits
  18              		.align	1
  19              		.global	VDAC_Synth_UAB_WriteInitPairs
  20              		.code	16
  21              		.thumb_func
  22              		.type	VDAC_Synth_UAB_WriteInitPairs, %function
  23              	VDAC_Synth_UAB_WriteInitPairs:
  24              	.LFB3:
  25              		.file 1 "Generated_Source\\PSoC4\\VDAC_Synth_UAB.c"
   1:Generated_Source\PSoC4/VDAC_Synth_UAB.c **** /*!*****************************************************************************
   2:Generated_Source\PSoC4/VDAC_Synth_UAB.c **** * \file VDAC_Synth_UAB.c
   3:Generated_Source\PSoC4/VDAC_Synth_UAB.c **** * \version 1.10
   4:Generated_Source\PSoC4/VDAC_Synth_UAB.c **** *
   5:Generated_Source\PSoC4/VDAC_Synth_UAB.c **** * \brief 
   6:Generated_Source\PSoC4/VDAC_Synth_UAB.c **** *   API for Universal Analog Block (UAB)
   7:Generated_Source\PSoC4/VDAC_Synth_UAB.c **** *
   8:Generated_Source\PSoC4/VDAC_Synth_UAB.c **** ********************************************************************************
   9:Generated_Source\PSoC4/VDAC_Synth_UAB.c **** * \copyright
  10:Generated_Source\PSoC4/VDAC_Synth_UAB.c **** * (c) 2014-2016, Cypress Semiconductor Corporation. All rights reserved.
  11:Generated_Source\PSoC4/VDAC_Synth_UAB.c **** * This software, including source code, documentation and related
  12:Generated_Source\PSoC4/VDAC_Synth_UAB.c **** * materials ("Software"), is owned by Cypress Semiconductor
  13:Generated_Source\PSoC4/VDAC_Synth_UAB.c **** * Corporation ("Cypress") and is protected by and subject to worldwide
  14:Generated_Source\PSoC4/VDAC_Synth_UAB.c **** * patent protection (United States and foreign), United States copyright
  15:Generated_Source\PSoC4/VDAC_Synth_UAB.c **** * laws and international treaty provisions. Therefore, you may use this
  16:Generated_Source\PSoC4/VDAC_Synth_UAB.c **** * Software only as provided in the license agreement accompanying the
  17:Generated_Source\PSoC4/VDAC_Synth_UAB.c **** * software package from which you obtained this Software ("EULA").
  18:Generated_Source\PSoC4/VDAC_Synth_UAB.c **** * If no EULA applies, Cypress hereby grants you a personal, nonexclusive,
  19:Generated_Source\PSoC4/VDAC_Synth_UAB.c **** * non-transferable license to copy, modify, and compile the
  20:Generated_Source\PSoC4/VDAC_Synth_UAB.c **** * Software source code solely for use in connection with Cypress's
  21:Generated_Source\PSoC4/VDAC_Synth_UAB.c **** * integrated circuit products. Any reproduction, modification, translation,
  22:Generated_Source\PSoC4/VDAC_Synth_UAB.c **** * compilation, or representation of this Software except as specified
  23:Generated_Source\PSoC4/VDAC_Synth_UAB.c **** * above is prohibited without the express written permission of Cypress.
  24:Generated_Source\PSoC4/VDAC_Synth_UAB.c **** * Disclaimer: THIS SOFTWARE IS PROVIDED AS-IS, WITH NO
  25:Generated_Source\PSoC4/VDAC_Synth_UAB.c **** * WARRANTY OF ANY KIND, EXPRESS OR IMPLIED, INCLUDING,
  26:Generated_Source\PSoC4/VDAC_Synth_UAB.c **** * BUT NOT LIMITED TO, NONINFRINGEMENT, IMPLIED
  27:Generated_Source\PSoC4/VDAC_Synth_UAB.c **** * WARRANTIES OF MERCHANTABILITY AND FITNESS FOR A
  28:Generated_Source\PSoC4/VDAC_Synth_UAB.c **** * PARTICULAR PURPOSE. Cypress reserves the right to make
  29:Generated_Source\PSoC4/VDAC_Synth_UAB.c **** * changes to the Software without notice. Cypress does not assume any
  30:Generated_Source\PSoC4/VDAC_Synth_UAB.c **** * liability arising out of the application or use of the Software or any
  31:Generated_Source\PSoC4/VDAC_Synth_UAB.c **** * product or circuit described in the Software. Cypress does not
  32:Generated_Source\PSoC4/VDAC_Synth_UAB.c **** * authorize its products for use in any products where a malfunction or
ARM GAS  C:\Users\Jerry\AppData\Local\Temp\cc1IKG0O.s 			page 2


  33:Generated_Source\PSoC4/VDAC_Synth_UAB.c **** * failure of the Cypress product may reasonably be expected to result in
  34:Generated_Source\PSoC4/VDAC_Synth_UAB.c **** * significant property damage, injury or death ("High Risk Product"). By
  35:Generated_Source\PSoC4/VDAC_Synth_UAB.c **** * including Cypress's product in a High Risk Product, the manufacturer
  36:Generated_Source\PSoC4/VDAC_Synth_UAB.c **** * of such system or application assumes all risk of such use and in doing
  37:Generated_Source\PSoC4/VDAC_Synth_UAB.c **** * so agrees to indemnify Cypress against all liability.
  38:Generated_Source\PSoC4/VDAC_Synth_UAB.c **** *******************************************************************************/
  39:Generated_Source\PSoC4/VDAC_Synth_UAB.c **** 
  40:Generated_Source\PSoC4/VDAC_Synth_UAB.c **** 
  41:Generated_Source\PSoC4/VDAC_Synth_UAB.c **** #include "cytypes.h"
  42:Generated_Source\PSoC4/VDAC_Synth_UAB.c **** #include "VDAC_Synth_UAB_CyUAB_types.h"
  43:Generated_Source\PSoC4/VDAC_Synth_UAB.c **** #include "VDAC_Synth_UAB_CyUAB.h"
  44:Generated_Source\PSoC4/VDAC_Synth_UAB.c **** #include "VDAC_Synth_UAB_param.h"
  45:Generated_Source\PSoC4/VDAC_Synth_UAB.c **** #include "VDAC_Synth_UAB_regs.h"
  46:Generated_Source\PSoC4/VDAC_Synth_UAB.c **** #include "VDAC_Synth_UAB.h"
  47:Generated_Source\PSoC4/VDAC_Synth_UAB.c **** 
  48:Generated_Source\PSoC4/VDAC_Synth_UAB.c **** 
  49:Generated_Source\PSoC4/VDAC_Synth_UAB.c **** /*General*/
  50:Generated_Source\PSoC4/VDAC_Synth_UAB.c **** 
  51:Generated_Source\PSoC4/VDAC_Synth_UAB.c **** uint32 VDAC_Synth_UAB_initVar = 0UL; /**< 0 if component is uninitialized. 1 otherwise. */
  52:Generated_Source\PSoC4/VDAC_Synth_UAB.c **** 
  53:Generated_Source\PSoC4/VDAC_Synth_UAB.c **** /*!
  54:Generated_Source\PSoC4/VDAC_Synth_UAB.c **** * \addtogroup group_init
  55:Generated_Source\PSoC4/VDAC_Synth_UAB.c **** * @{
  56:Generated_Source\PSoC4/VDAC_Synth_UAB.c **** */
  57:Generated_Source\PSoC4/VDAC_Synth_UAB.c **** 
  58:Generated_Source\PSoC4/VDAC_Synth_UAB.c **** /*! Part of default configuration used to initialize UAB in VDAC_Synth_UAB_Start() */
  59:Generated_Source\PSoC4/VDAC_Synth_UAB.c **** uint16 VDAC_Synth_UAB_waveConfig[VDAC_Synth_UAB_NUM_STEPS] = {
  60:Generated_Source\PSoC4/VDAC_Synth_UAB.c **** /*0<=last_step<=15 , so always at least one step*/
  61:Generated_Source\PSoC4/VDAC_Synth_UAB.c **** ((uint16)VDAC_Synth_UAB_PARAM_WAVE_STEP_0)
  62:Generated_Source\PSoC4/VDAC_Synth_UAB.c **** 
  63:Generated_Source\PSoC4/VDAC_Synth_UAB.c **** #if VDAC_Synth_UAB_INC_STEP_1
  64:Generated_Source\PSoC4/VDAC_Synth_UAB.c **** ,((uint16)VDAC_Synth_UAB_PARAM_WAVE_STEP_1)
  65:Generated_Source\PSoC4/VDAC_Synth_UAB.c **** #endif
  66:Generated_Source\PSoC4/VDAC_Synth_UAB.c **** #if VDAC_Synth_UAB_INC_STEP_2
  67:Generated_Source\PSoC4/VDAC_Synth_UAB.c **** ,((uint16)VDAC_Synth_UAB_PARAM_WAVE_STEP_2)
  68:Generated_Source\PSoC4/VDAC_Synth_UAB.c **** #endif
  69:Generated_Source\PSoC4/VDAC_Synth_UAB.c **** #if VDAC_Synth_UAB_INC_STEP_3
  70:Generated_Source\PSoC4/VDAC_Synth_UAB.c **** ,((uint16)VDAC_Synth_UAB_PARAM_WAVE_STEP_3)
  71:Generated_Source\PSoC4/VDAC_Synth_UAB.c **** #endif
  72:Generated_Source\PSoC4/VDAC_Synth_UAB.c **** #if VDAC_Synth_UAB_INC_STEP_4
  73:Generated_Source\PSoC4/VDAC_Synth_UAB.c **** ,((uint16)VDAC_Synth_UAB_PARAM_WAVE_STEP_4)
  74:Generated_Source\PSoC4/VDAC_Synth_UAB.c **** #endif
  75:Generated_Source\PSoC4/VDAC_Synth_UAB.c **** #if VDAC_Synth_UAB_INC_STEP_5
  76:Generated_Source\PSoC4/VDAC_Synth_UAB.c **** ,((uint16)VDAC_Synth_UAB_PARAM_WAVE_STEP_5)
  77:Generated_Source\PSoC4/VDAC_Synth_UAB.c **** #endif
  78:Generated_Source\PSoC4/VDAC_Synth_UAB.c **** #if VDAC_Synth_UAB_INC_STEP_6
  79:Generated_Source\PSoC4/VDAC_Synth_UAB.c **** ,((uint16)VDAC_Synth_UAB_PARAM_WAVE_STEP_6)
  80:Generated_Source\PSoC4/VDAC_Synth_UAB.c **** #endif
  81:Generated_Source\PSoC4/VDAC_Synth_UAB.c **** #if VDAC_Synth_UAB_INC_STEP_7
  82:Generated_Source\PSoC4/VDAC_Synth_UAB.c **** ,((uint16)VDAC_Synth_UAB_PARAM_WAVE_STEP_7)
  83:Generated_Source\PSoC4/VDAC_Synth_UAB.c **** #endif
  84:Generated_Source\PSoC4/VDAC_Synth_UAB.c **** #if VDAC_Synth_UAB_INC_STEP_8
  85:Generated_Source\PSoC4/VDAC_Synth_UAB.c **** ,((uint16)VDAC_Synth_UAB_PARAM_WAVE_STEP_8)
  86:Generated_Source\PSoC4/VDAC_Synth_UAB.c **** #endif
  87:Generated_Source\PSoC4/VDAC_Synth_UAB.c **** #if VDAC_Synth_UAB_INC_STEP_9
  88:Generated_Source\PSoC4/VDAC_Synth_UAB.c **** ,((uint16)VDAC_Synth_UAB_PARAM_WAVE_STEP_9)
  89:Generated_Source\PSoC4/VDAC_Synth_UAB.c **** #endif
ARM GAS  C:\Users\Jerry\AppData\Local\Temp\cc1IKG0O.s 			page 3


  90:Generated_Source\PSoC4/VDAC_Synth_UAB.c **** #if VDAC_Synth_UAB_INC_STEP_10
  91:Generated_Source\PSoC4/VDAC_Synth_UAB.c **** ,((uint16)VDAC_Synth_UAB_PARAM_WAVE_STEP_10)
  92:Generated_Source\PSoC4/VDAC_Synth_UAB.c **** #endif
  93:Generated_Source\PSoC4/VDAC_Synth_UAB.c **** #if VDAC_Synth_UAB_INC_STEP_11
  94:Generated_Source\PSoC4/VDAC_Synth_UAB.c **** ,((uint16)VDAC_Synth_UAB_PARAM_WAVE_STEP_11)
  95:Generated_Source\PSoC4/VDAC_Synth_UAB.c **** #endif
  96:Generated_Source\PSoC4/VDAC_Synth_UAB.c **** #if VDAC_Synth_UAB_INC_STEP_12
  97:Generated_Source\PSoC4/VDAC_Synth_UAB.c **** ,((uint16)VDAC_Synth_UAB_PARAM_WAVE_STEP_12)
  98:Generated_Source\PSoC4/VDAC_Synth_UAB.c **** #endif
  99:Generated_Source\PSoC4/VDAC_Synth_UAB.c **** #if VDAC_Synth_UAB_INC_STEP_13
 100:Generated_Source\PSoC4/VDAC_Synth_UAB.c **** ,((uint16)VDAC_Synth_UAB_PARAM_WAVE_STEP_13)
 101:Generated_Source\PSoC4/VDAC_Synth_UAB.c **** #endif
 102:Generated_Source\PSoC4/VDAC_Synth_UAB.c **** #if VDAC_Synth_UAB_INC_STEP_14
 103:Generated_Source\PSoC4/VDAC_Synth_UAB.c **** ,((uint16)VDAC_Synth_UAB_PARAM_WAVE_STEP_14)
 104:Generated_Source\PSoC4/VDAC_Synth_UAB.c **** #endif
 105:Generated_Source\PSoC4/VDAC_Synth_UAB.c **** #if VDAC_Synth_UAB_INC_STEP_15
 106:Generated_Source\PSoC4/VDAC_Synth_UAB.c **** ,((uint16)VDAC_Synth_UAB_PARAM_WAVE_STEP_15)
 107:Generated_Source\PSoC4/VDAC_Synth_UAB.c **** #endif
 108:Generated_Source\PSoC4/VDAC_Synth_UAB.c **** };
 109:Generated_Source\PSoC4/VDAC_Synth_UAB.c **** 
 110:Generated_Source\PSoC4/VDAC_Synth_UAB.c **** /*! Part of default configuration used to initialize UAB in VDAC_Synth_UAB_Start() */
 111:Generated_Source\PSoC4/VDAC_Synth_UAB.c **** CyUAB_reg_pair VDAC_Synth_UAB_initPairs[VDAC_Synth_UAB_INIT_PAIRS_COUNT] = {
 112:Generated_Source\PSoC4/VDAC_Synth_UAB.c **** 
 113:Generated_Source\PSoC4/VDAC_Synth_UAB.c **** 	/*OA_CTRL default always first element in initPairs*/
 114:Generated_Source\PSoC4/VDAC_Synth_UAB.c **** #if VDAC_Synth_UAB_NONZERO_OA_CTRL
 115:Generated_Source\PSoC4/VDAC_Synth_UAB.c ****     {VDAC_Synth_UAB_OA_CTRL_PTR         , ((uint32)VDAC_Synth_UAB_DEFAULT_OA_CTRL)}
 116:Generated_Source\PSoC4/VDAC_Synth_UAB.c **** #endif
 117:Generated_Source\PSoC4/VDAC_Synth_UAB.c **** #if VDAC_Synth_UAB_NONZERO_SW_STATIC
 118:Generated_Source\PSoC4/VDAC_Synth_UAB.c ****     ,{VDAC_Synth_UAB_SW_STATIC_PTR      , ((uint32)VDAC_Synth_UAB_DEFAULT_SW_STATIC)}
 119:Generated_Source\PSoC4/VDAC_Synth_UAB.c **** #endif
 120:Generated_Source\PSoC4/VDAC_Synth_UAB.c **** #if VDAC_Synth_UAB_NONZERO_SW_MODBIT_SRC
 121:Generated_Source\PSoC4/VDAC_Synth_UAB.c ****     ,{VDAC_Synth_UAB_SW_MODBIT_SRC_PTR  , ((uint32)VDAC_Synth_UAB_DEFAULT_SW_MODBIT_SRC)}
 122:Generated_Source\PSoC4/VDAC_Synth_UAB.c **** #endif
 123:Generated_Source\PSoC4/VDAC_Synth_UAB.c **** #if VDAC_Synth_UAB_NONZERO_SRAM_CTRL
 124:Generated_Source\PSoC4/VDAC_Synth_UAB.c ****     ,{VDAC_Synth_UAB_SRAM_CTRL_PTR      , ((uint32)VDAC_Synth_UAB_DEFAULT_SRAM_CTRL)} 
 125:Generated_Source\PSoC4/VDAC_Synth_UAB.c **** #endif
 126:Generated_Source\PSoC4/VDAC_Synth_UAB.c **** 
 127:Generated_Source\PSoC4/VDAC_Synth_UAB.c **** 
 128:Generated_Source\PSoC4/VDAC_Synth_UAB.c **** 
 129:Generated_Source\PSoC4/VDAC_Synth_UAB.c **** 
 130:Generated_Source\PSoC4/VDAC_Synth_UAB.c **** 
 131:Generated_Source\PSoC4/VDAC_Synth_UAB.c **** #if VDAC_Synth_UAB_NONZERO_INTR_MASK	
 132:Generated_Source\PSoC4/VDAC_Synth_UAB.c ****     ,{VDAC_Synth_UAB_INTR_MASK_PTR      , ((uint32)VDAC_Synth_UAB_DEFAULT_INTR_MASK)}
 133:Generated_Source\PSoC4/VDAC_Synth_UAB.c **** #endif
 134:Generated_Source\PSoC4/VDAC_Synth_UAB.c **** #if VDAC_Synth_UAB_NONZERO_CAP_CTRL
 135:Generated_Source\PSoC4/VDAC_Synth_UAB.c ****     ,{VDAC_Synth_UAB_CAP_CTRL_PTR       , ((uint32)VDAC_Synth_UAB_DEFAULT_CAP_CTRL)}
 136:Generated_Source\PSoC4/VDAC_Synth_UAB.c **** #endif
 137:Generated_Source\PSoC4/VDAC_Synth_UAB.c **** #if VDAC_Synth_UAB_NONZERO_CAP_ABCF_VAL
 138:Generated_Source\PSoC4/VDAC_Synth_UAB.c ****     ,{VDAC_Synth_UAB_CAP_ABCF_VAL_PTR   , ((uint32)VDAC_Synth_UAB_DEFAULT_CAP_ABCF_VAL)}
 139:Generated_Source\PSoC4/VDAC_Synth_UAB.c **** #endif
 140:Generated_Source\PSoC4/VDAC_Synth_UAB.c **** #if VDAC_Synth_UAB_NONZERO_CAP_AB_VAL_NXT
 141:Generated_Source\PSoC4/VDAC_Synth_UAB.c ****     ,{VDAC_Synth_UAB_CAP_AB_VAL_NXT_PTR , ((uint32)VDAC_Synth_UAB_DEFAULT_CAP_AB_VAL_NXT)}
 142:Generated_Source\PSoC4/VDAC_Synth_UAB.c **** #endif
 143:Generated_Source\PSoC4/VDAC_Synth_UAB.c **** #if VDAC_Synth_UAB_NONZERO_CAP_CF_VAL_NXT
 144:Generated_Source\PSoC4/VDAC_Synth_UAB.c ****     ,{VDAC_Synth_UAB_CAP_CF_VAL_NXT_PTR , ((uint32)VDAC_Synth_UAB_DEFAULT_CAP_CF_VAL_NXT)}
 145:Generated_Source\PSoC4/VDAC_Synth_UAB.c **** #endif
 146:Generated_Source\PSoC4/VDAC_Synth_UAB.c **** #if VDAC_Synth_UAB_NONZERO_STARTUP_DELAY
ARM GAS  C:\Users\Jerry\AppData\Local\Temp\cc1IKG0O.s 			page 4


 147:Generated_Source\PSoC4/VDAC_Synth_UAB.c ****     ,{VDAC_Synth_UAB_STARTUP_DELAY_PTR  , ((uint32)VDAC_Synth_UAB_DEFAULT_STARTUP_DELAY)}
 148:Generated_Source\PSoC4/VDAC_Synth_UAB.c **** #endif
 149:Generated_Source\PSoC4/VDAC_Synth_UAB.c **** #if VDAC_Synth_UAB_NONZERO_SUBSAMPLE_CTRL
 150:Generated_Source\PSoC4/VDAC_Synth_UAB.c ****     ,{VDAC_Synth_UAB_SUBSAMPLE_CTRL_PTR , ((uint32)VDAC_Synth_UAB_DEFAULT_SUBSAMPLE_CTRL)}
 151:Generated_Source\PSoC4/VDAC_Synth_UAB.c **** #endif
 152:Generated_Source\PSoC4/VDAC_Synth_UAB.c **** #if VDAC_Synth_UAB_NONZERO_SW_CA_IN0
 153:Generated_Source\PSoC4/VDAC_Synth_UAB.c ****     ,{VDAC_Synth_UAB_SW_CA_IN0_PTR      , ((uint32)VDAC_Synth_UAB_DEFAULT_SW_CA_IN0)}
 154:Generated_Source\PSoC4/VDAC_Synth_UAB.c **** #endif
 155:Generated_Source\PSoC4/VDAC_Synth_UAB.c **** #if VDAC_Synth_UAB_NONZERO_SW_CA_IN1
 156:Generated_Source\PSoC4/VDAC_Synth_UAB.c ****     ,{VDAC_Synth_UAB_SW_CA_IN1_PTR      , ((uint32)VDAC_Synth_UAB_DEFAULT_SW_CA_IN1)}
 157:Generated_Source\PSoC4/VDAC_Synth_UAB.c **** #endif
 158:Generated_Source\PSoC4/VDAC_Synth_UAB.c **** #if VDAC_Synth_UAB_NONZERO_SW_CA_TOP
 159:Generated_Source\PSoC4/VDAC_Synth_UAB.c ****     ,{VDAC_Synth_UAB_SW_CA_TOP_PTR      , ((uint32)VDAC_Synth_UAB_DEFAULT_SW_CA_TOP)}
 160:Generated_Source\PSoC4/VDAC_Synth_UAB.c **** #endif
 161:Generated_Source\PSoC4/VDAC_Synth_UAB.c **** #if VDAC_Synth_UAB_NONZERO_SW_CB_IN0
 162:Generated_Source\PSoC4/VDAC_Synth_UAB.c ****     ,{VDAC_Synth_UAB_SW_CB_IN0_PTR      , ((uint32)VDAC_Synth_UAB_DEFAULT_SW_CB_IN0)}
 163:Generated_Source\PSoC4/VDAC_Synth_UAB.c **** #endif
 164:Generated_Source\PSoC4/VDAC_Synth_UAB.c **** #if VDAC_Synth_UAB_NONZERO_SW_CB_IN1
 165:Generated_Source\PSoC4/VDAC_Synth_UAB.c ****     ,{VDAC_Synth_UAB_SW_CB_IN1_PTR      , ((uint32)VDAC_Synth_UAB_DEFAULT_SW_CB_IN1)}
 166:Generated_Source\PSoC4/VDAC_Synth_UAB.c **** #endif
 167:Generated_Source\PSoC4/VDAC_Synth_UAB.c **** #if VDAC_Synth_UAB_NONZERO_SW_CB_TOP
 168:Generated_Source\PSoC4/VDAC_Synth_UAB.c ****     ,{VDAC_Synth_UAB_SW_CB_TOP_PTR      , ((uint32)VDAC_Synth_UAB_DEFAULT_SW_CB_TOP)}
 169:Generated_Source\PSoC4/VDAC_Synth_UAB.c **** #endif
 170:Generated_Source\PSoC4/VDAC_Synth_UAB.c **** #if VDAC_Synth_UAB_NONZERO_SW_CC_IN0
 171:Generated_Source\PSoC4/VDAC_Synth_UAB.c ****     ,{VDAC_Synth_UAB_SW_CC_IN0_PTR      , ((uint32)VDAC_Synth_UAB_DEFAULT_SW_CC_IN0)}
 172:Generated_Source\PSoC4/VDAC_Synth_UAB.c **** #endif
 173:Generated_Source\PSoC4/VDAC_Synth_UAB.c **** #if VDAC_Synth_UAB_NONZERO_SW_CC_IN1
 174:Generated_Source\PSoC4/VDAC_Synth_UAB.c ****     ,{VDAC_Synth_UAB_SW_CC_IN1_PTR      , ((uint32)VDAC_Synth_UAB_DEFAULT_SW_CC_IN1)}
 175:Generated_Source\PSoC4/VDAC_Synth_UAB.c **** #endif
 176:Generated_Source\PSoC4/VDAC_Synth_UAB.c **** #if VDAC_Synth_UAB_NONZERO_SW_CC_TOP
 177:Generated_Source\PSoC4/VDAC_Synth_UAB.c ****     ,{VDAC_Synth_UAB_SW_CC_TOP_PTR      , ((uint32)VDAC_Synth_UAB_DEFAULT_SW_CC_TOP)}
 178:Generated_Source\PSoC4/VDAC_Synth_UAB.c **** #endif
 179:Generated_Source\PSoC4/VDAC_Synth_UAB.c **** #if VDAC_Synth_UAB_NONZERO_SW_CF_BOT
 180:Generated_Source\PSoC4/VDAC_Synth_UAB.c ****     ,{VDAC_Synth_UAB_SW_CF_BOT_PTR      , ((uint32)VDAC_Synth_UAB_DEFAULT_SW_CF_BOT)}
 181:Generated_Source\PSoC4/VDAC_Synth_UAB.c **** #endif
 182:Generated_Source\PSoC4/VDAC_Synth_UAB.c **** #if VDAC_Synth_UAB_NONZERO_SW_OTHER
 183:Generated_Source\PSoC4/VDAC_Synth_UAB.c ****     ,{VDAC_Synth_UAB_SW_OTHER_PTR       , ((uint32)VDAC_Synth_UAB_DEFAULT_SW_OTHER)}
 184:Generated_Source\PSoC4/VDAC_Synth_UAB.c **** #endif
 185:Generated_Source\PSoC4/VDAC_Synth_UAB.c **** #if VDAC_Synth_UAB_NONZERO_SW_BOOST_CTRL
 186:Generated_Source\PSoC4/VDAC_Synth_UAB.c ****     ,{VDAC_Synth_UAB_SW_BOOST_CTRL_PTR  , ((uint32)VDAC_Synth_UAB_DEFAULT_SW_BOOST_CTRL)}
 187:Generated_Source\PSoC4/VDAC_Synth_UAB.c **** #endif
 188:Generated_Source\PSoC4/VDAC_Synth_UAB.c **** 
 189:Generated_Source\PSoC4/VDAC_Synth_UAB.c **** 
 190:Generated_Source\PSoC4/VDAC_Synth_UAB.c **** };
 191:Generated_Source\PSoC4/VDAC_Synth_UAB.c **** 
 192:Generated_Source\PSoC4/VDAC_Synth_UAB.c **** /*! Default configuration used to initialize UAB in VDAC_Synth_UAB_Start() */
 193:Generated_Source\PSoC4/VDAC_Synth_UAB.c **** CyUAB_config VDAC_Synth_UAB_config = {
 194:Generated_Source\PSoC4/VDAC_Synth_UAB.c ****     VDAC_Synth_UAB_waveConfig,
 195:Generated_Source\PSoC4/VDAC_Synth_UAB.c ****     VDAC_Synth_UAB_initPairs,
 196:Generated_Source\PSoC4/VDAC_Synth_UAB.c ****     CyUAB_SHARED_SW_CFG(VDAC_Synth_UAB_PARAM_REF_TIED,VDAC_Synth_UAB_PARAM_AGND_TIED,
 197:Generated_Source\PSoC4/VDAC_Synth_UAB.c ****         VDAC_Synth_UAB_PARAM_SW_CC,VDAC_Synth_UAB_PARAM_SW_BB,VDAC_Synth_UAB_PARAM_SW_AA),
 198:Generated_Source\PSoC4/VDAC_Synth_UAB.c ****     VDAC_Synth_UAB_NUM_STEPS,
 199:Generated_Source\PSoC4/VDAC_Synth_UAB.c ****     (uint8)(VDAC_Synth_UAB_ELEMENT_COUNT(VDAC_Synth_UAB_initPairs))
 200:Generated_Source\PSoC4/VDAC_Synth_UAB.c **** };
 201:Generated_Source\PSoC4/VDAC_Synth_UAB.c **** 
 202:Generated_Source\PSoC4/VDAC_Synth_UAB.c **** /*! @} group_init */
 203:Generated_Source\PSoC4/VDAC_Synth_UAB.c **** 
ARM GAS  C:\Users\Jerry\AppData\Local\Temp\cc1IKG0O.s 			page 5


 204:Generated_Source\PSoC4/VDAC_Synth_UAB.c **** 
 205:Generated_Source\PSoC4/VDAC_Synth_UAB.c **** /************** VDAC_Synth_UAB_Start() **************************************/
 206:Generated_Source\PSoC4/VDAC_Synth_UAB.c **** /*!
 207:Generated_Source\PSoC4/VDAC_Synth_UAB.c **** * @brief Initializes and enables the component.
 208:Generated_Source\PSoC4/VDAC_Synth_UAB.c **** * 
 209:Generated_Source\PSoC4/VDAC_Synth_UAB.c **** * @details This function is equivalent to calling 
 210:Generated_Source\PSoC4/VDAC_Synth_UAB.c **** * VDAC_Synth_UAB_Enable(), VDAC_Synth_UAB_Init(&VDAC_Synth_UAB_config), and VDAC_Synth_UAB_Run(1UL)
 211:Generated_Source\PSoC4/VDAC_Synth_UAB.c **** * Takes no parameters.  Returns @c void.
 212:Generated_Source\PSoC4/VDAC_Synth_UAB.c **** * 
 213:Generated_Source\PSoC4/VDAC_Synth_UAB.c **** * @internal
 214:Generated_Source\PSoC4/VDAC_Synth_UAB.c **** * @reglist
 215:Generated_Source\PSoC4/VDAC_Synth_UAB.c **** * @image html SetTopSwitch.png
 216:Generated_Source\PSoC4/VDAC_Synth_UAB.c **** * @endinternal
 217:Generated_Source\PSoC4/VDAC_Synth_UAB.c **** * 
 218:Generated_Source\PSoC4/VDAC_Synth_UAB.c **** * @see VDAC_Synth_UAB_Enable()
 219:Generated_Source\PSoC4/VDAC_Synth_UAB.c **** * @see VDAC_Synth_UAB_Init()
 220:Generated_Source\PSoC4/VDAC_Synth_UAB.c **** * @see VDAC_Synth_UAB_Run()
 221:Generated_Source\PSoC4/VDAC_Synth_UAB.c **** * @see VDAC_Synth_UAB_Stop()
 222:Generated_Source\PSoC4/VDAC_Synth_UAB.c **** *
 223:Generated_Source\PSoC4/VDAC_Synth_UAB.c **** * @sideeffect Sets ENABLED bit for whole UAB - both half0 and half1.
 224:Generated_Source\PSoC4/VDAC_Synth_UAB.c **** *
 225:Generated_Source\PSoC4/VDAC_Synth_UAB.c **** * \globalvars
 226:Generated_Source\PSoC4/VDAC_Synth_UAB.c **** *  \ref VDAC_Synth_UAB_initVar (RW)
 227:Generated_Source\PSoC4/VDAC_Synth_UAB.c **** *
 228:Generated_Source\PSoC4/VDAC_Synth_UAB.c **** *******************************************************************************/
 229:Generated_Source\PSoC4/VDAC_Synth_UAB.c **** void VDAC_Synth_UAB_Start(void)
 230:Generated_Source\PSoC4/VDAC_Synth_UAB.c **** {
 231:Generated_Source\PSoC4/VDAC_Synth_UAB.c ****     if (VDAC_Synth_UAB_initVar != 1UL)
 232:Generated_Source\PSoC4/VDAC_Synth_UAB.c ****     {
 233:Generated_Source\PSoC4/VDAC_Synth_UAB.c ****         VDAC_Synth_UAB_Init(&VDAC_Synth_UAB_config);
 234:Generated_Source\PSoC4/VDAC_Synth_UAB.c ****         VDAC_Synth_UAB_initVar = 1UL;
 235:Generated_Source\PSoC4/VDAC_Synth_UAB.c ****     }
 236:Generated_Source\PSoC4/VDAC_Synth_UAB.c ****     else 
 237:Generated_Source\PSoC4/VDAC_Synth_UAB.c ****     {
 238:Generated_Source\PSoC4/VDAC_Synth_UAB.c ****         /* Already initialized - empty */
 239:Generated_Source\PSoC4/VDAC_Synth_UAB.c ****     }
 240:Generated_Source\PSoC4/VDAC_Synth_UAB.c ****     
 241:Generated_Source\PSoC4/VDAC_Synth_UAB.c ****     /*no delay required between Enable() and Run(1) - run bit control logic handles UAB ramp up*/
 242:Generated_Source\PSoC4/VDAC_Synth_UAB.c ****     VDAC_Synth_UAB_Run(1UL); /*set the run bit*/
 243:Generated_Source\PSoC4/VDAC_Synth_UAB.c **** }
 244:Generated_Source\PSoC4/VDAC_Synth_UAB.c **** 
 245:Generated_Source\PSoC4/VDAC_Synth_UAB.c **** /************* VDAC_Synth_UAB_Stop() ****************************************/
 246:Generated_Source\PSoC4/VDAC_Synth_UAB.c **** /*!
 247:Generated_Source\PSoC4/VDAC_Synth_UAB.c **** * @brief Stops component functionality.
 248:Generated_Source\PSoC4/VDAC_Synth_UAB.c **** * 
 249:Generated_Source\PSoC4/VDAC_Synth_UAB.c **** * @details Disables the clocks.  Call this before modifying the UAB configuration.
 250:Generated_Source\PSoC4/VDAC_Synth_UAB.c **** * Takes no parameters.  Returns @c void.
 251:Generated_Source\PSoC4/VDAC_Synth_UAB.c **** * 
 252:Generated_Source\PSoC4/VDAC_Synth_UAB.c **** * @internal
 253:Generated_Source\PSoC4/VDAC_Synth_UAB.c **** * @reglist
 254:Generated_Source\PSoC4/VDAC_Synth_UAB.c **** * @endinternal
 255:Generated_Source\PSoC4/VDAC_Synth_UAB.c **** * 
 256:Generated_Source\PSoC4/VDAC_Synth_UAB.c **** * @see VDAC_Synth_UAB_Start()
 257:Generated_Source\PSoC4/VDAC_Synth_UAB.c **** * @see VDAC_Synth_UAB_Run()
 258:Generated_Source\PSoC4/VDAC_Synth_UAB.c **** * 
 259:Generated_Source\PSoC4/VDAC_Synth_UAB.c **** * @sideeffect None
 260:Generated_Source\PSoC4/VDAC_Synth_UAB.c **** *******************************************************************************/
ARM GAS  C:\Users\Jerry\AppData\Local\Temp\cc1IKG0O.s 			page 6


 261:Generated_Source\PSoC4/VDAC_Synth_UAB.c **** void VDAC_Synth_UAB_Stop(void)
 262:Generated_Source\PSoC4/VDAC_Synth_UAB.c **** {
 263:Generated_Source\PSoC4/VDAC_Synth_UAB.c ****     VDAC_Synth_UAB_Run(0UL); /*Clear run bit*/
 264:Generated_Source\PSoC4/VDAC_Synth_UAB.c ****     /*Intentionally not clearing the enable bit because it has a side-effect - 
 265:Generated_Source\PSoC4/VDAC_Synth_UAB.c **** 	the enable bit is shared with another UAB half*/
 266:Generated_Source\PSoC4/VDAC_Synth_UAB.c **** }
 267:Generated_Source\PSoC4/VDAC_Synth_UAB.c **** 
 268:Generated_Source\PSoC4/VDAC_Synth_UAB.c **** 
 269:Generated_Source\PSoC4/VDAC_Synth_UAB.c **** /* Support function for VDAC_Synth_UAB_Init() */
 270:Generated_Source\PSoC4/VDAC_Synth_UAB.c **** void VDAC_Synth_UAB_WriteInitPairs(const CyUAB_reg_pair pairs[], size_t n)
 271:Generated_Source\PSoC4/VDAC_Synth_UAB.c **** {
  26              		.loc 1 271 0
  27              		.cfi_startproc
  28              	.LVL0:
 272:Generated_Source\PSoC4/VDAC_Synth_UAB.c ****     uint32 i;
 273:Generated_Source\PSoC4/VDAC_Synth_UAB.c ****     for( i = 0UL; i < n; i++ )
  29              		.loc 1 273 0
  30 0000 0023     		mov	r3, #0
 271:Generated_Source\PSoC4/VDAC_Synth_UAB.c ****     uint32 i;
  31              		.loc 1 271 0
  32 0002 10B5     		push	{r4, lr}
  33              		.cfi_def_cfa_offset 8
  34              		.cfi_offset 4, -8
  35              		.cfi_offset 14, -4
  36              	.LVL1:
  37              	.L2:
  38              		.loc 1 273 0 discriminator 1
  39 0004 8B42     		cmp	r3, r1
  40 0006 05D0     		beq	.L5
 274:Generated_Source\PSoC4/VDAC_Synth_UAB.c ****     {
 275:Generated_Source\PSoC4/VDAC_Synth_UAB.c ****         CY_SET_REG32( pairs[i].addr, pairs[i].value );
  41              		.loc 1 275 0 discriminator 3
  42 0008 0268     		ldr	r2, [r0]
  43 000a 4468     		ldr	r4, [r0, #4]
 273:Generated_Source\PSoC4/VDAC_Synth_UAB.c ****     {
  44              		.loc 1 273 0 discriminator 3
  45 000c 0133     		add	r3, r3, #1
  46              	.LVL2:
  47              		.loc 1 275 0 discriminator 3
  48 000e 1460     		str	r4, [r2]
  49 0010 0830     		add	r0, r0, #8
  50 0012 F7E7     		b	.L2
  51              	.L5:
 276:Generated_Source\PSoC4/VDAC_Synth_UAB.c ****     }    
 277:Generated_Source\PSoC4/VDAC_Synth_UAB.c **** }
  52              		.loc 1 277 0
  53              		@ sp needed
  54 0014 10BD     		pop	{r4, pc}
  55              		.cfi_endproc
  56              	.LFE3:
  57              		.size	VDAC_Synth_UAB_WriteInitPairs, .-VDAC_Synth_UAB_WriteInitPairs
  58              		.section	.text.VDAC_Synth_UAB_Enable,"ax",%progbits
  59              		.align	1
  60              		.global	VDAC_Synth_UAB_Enable
  61              		.code	16
  62              		.thumb_func
  63              		.type	VDAC_Synth_UAB_Enable, %function
ARM GAS  C:\Users\Jerry\AppData\Local\Temp\cc1IKG0O.s 			page 7


  64              	VDAC_Synth_UAB_Enable:
  65              	.LFB5:
 278:Generated_Source\PSoC4/VDAC_Synth_UAB.c **** 
 279:Generated_Source\PSoC4/VDAC_Synth_UAB.c **** 
 280:Generated_Source\PSoC4/VDAC_Synth_UAB.c **** 
 281:Generated_Source\PSoC4/VDAC_Synth_UAB.c **** 
 282:Generated_Source\PSoC4/VDAC_Synth_UAB.c ****     
 283:Generated_Source\PSoC4/VDAC_Synth_UAB.c **** 
 284:Generated_Source\PSoC4/VDAC_Synth_UAB.c **** 
 285:Generated_Source\PSoC4/VDAC_Synth_UAB.c **** /*************** VDAC_Synth_UAB_Init() **************************************/
 286:Generated_Source\PSoC4/VDAC_Synth_UAB.c **** /*!
 287:Generated_Source\PSoC4/VDAC_Synth_UAB.c **** * @brief Initializes component settings.
 288:Generated_Source\PSoC4/VDAC_Synth_UAB.c **** * 
 289:Generated_Source\PSoC4/VDAC_Synth_UAB.c **** * @details Enables UAB and sets initial configurations, but does not start clocking.
 290:Generated_Source\PSoC4/VDAC_Synth_UAB.c **** *
 291:Generated_Source\PSoC4/VDAC_Synth_UAB.c **** * @param cfg pointer to a UAB configuration
 292:Generated_Source\PSoC4/VDAC_Synth_UAB.c **** * Returns @c void.
 293:Generated_Source\PSoC4/VDAC_Synth_UAB.c **** *
 294:Generated_Source\PSoC4/VDAC_Synth_UAB.c **** * Start() is the preferred way to enable the UAB.
 295:Generated_Source\PSoC4/VDAC_Synth_UAB.c **** *
 296:Generated_Source\PSoC4/VDAC_Synth_UAB.c **** * Can be used for dynamic reconfiguration - must create configurations that handle
 297:Generated_Source\PSoC4/VDAC_Synth_UAB.c **** * the deltas between them including clearing registers.
 298:Generated_Source\PSoC4/VDAC_Synth_UAB.c **** * 
 299:Generated_Source\PSoC4/VDAC_Synth_UAB.c **** * @internal
 300:Generated_Source\PSoC4/VDAC_Synth_UAB.c **** * @reglist all
 301:Generated_Source\PSoC4/VDAC_Synth_UAB.c **** * @endinternal
 302:Generated_Source\PSoC4/VDAC_Synth_UAB.c **** * 
 303:Generated_Source\PSoC4/VDAC_Synth_UAB.c **** * @see VDAC_Synth_UAB_Start()
 304:Generated_Source\PSoC4/VDAC_Synth_UAB.c **** * @see VDAC_Synth_UAB_Enable()
 305:Generated_Source\PSoC4/VDAC_Synth_UAB.c **** * 
 306:Generated_Source\PSoC4/VDAC_Synth_UAB.c **** * @sideeffect Sets ENABLED bit for whole UAB - both half0 and half1.
 307:Generated_Source\PSoC4/VDAC_Synth_UAB.c **** *******************************************************************************/
 308:Generated_Source\PSoC4/VDAC_Synth_UAB.c **** void VDAC_Synth_UAB_Init(const CyUAB_config * cfg)
 309:Generated_Source\PSoC4/VDAC_Synth_UAB.c **** {
 310:Generated_Source\PSoC4/VDAC_Synth_UAB.c **** #if VDAC_Synth_UAB_ISPAIRED 
 311:Generated_Source\PSoC4/VDAC_Synth_UAB.c ****     CyUAB_agnd_tied_enum agndTied;
 312:Generated_Source\PSoC4/VDAC_Synth_UAB.c ****     CyUAB_ref_tied_enum refTied;
 313:Generated_Source\PSoC4/VDAC_Synth_UAB.c ****     CyUAB_clk_enum clk_AA;
 314:Generated_Source\PSoC4/VDAC_Synth_UAB.c ****     CyUAB_clk_enum clk_BB;
 315:Generated_Source\PSoC4/VDAC_Synth_UAB.c ****     CyUAB_clk_enum clk_CC;
 316:Generated_Source\PSoC4/VDAC_Synth_UAB.c **** #endif
 317:Generated_Source\PSoC4/VDAC_Synth_UAB.c **** 
 318:Generated_Source\PSoC4/VDAC_Synth_UAB.c ****     VDAC_Synth_UAB_Enable();
 319:Generated_Source\PSoC4/VDAC_Synth_UAB.c ****     
 320:Generated_Source\PSoC4/VDAC_Synth_UAB.c ****     CyUAB_SetNSteps( VDAC_Synth_UAB_SRAM0_PTR, ((size_t)(cfg->stepCount)), (cfg->waveSteps) );
 321:Generated_Source\PSoC4/VDAC_Synth_UAB.c ****     
 322:Generated_Source\PSoC4/VDAC_Synth_UAB.c ****     /* Optimized version of ClearAllClocks() -- 
 323:Generated_Source\PSoC4/VDAC_Synth_UAB.c ****     Clear remaining wavesteps, so clock editing with SetClock() works
 324:Generated_Source\PSoC4/VDAC_Synth_UAB.c ****     */
 325:Generated_Source\PSoC4/VDAC_Synth_UAB.c ****     (void)CyUAB_wordset( 
 326:Generated_Source\PSoC4/VDAC_Synth_UAB.c ****         ((reg32*)( ((uint32)(VDAC_Synth_UAB_SRAM0_PTR)) + (((uint32)(cfg->stepCount))*sizeof(uint32
 327:Generated_Source\PSoC4/VDAC_Synth_UAB.c ****         0UL, 
 328:Generated_Source\PSoC4/VDAC_Synth_UAB.c ****         ( ( CyUAB_STEPS_LEN_MAX - ((uint32)(cfg->stepCount)) ) * sizeof(uint32) )
 329:Generated_Source\PSoC4/VDAC_Synth_UAB.c ****     );
 330:Generated_Source\PSoC4/VDAC_Synth_UAB.c ****     
 331:Generated_Source\PSoC4/VDAC_Synth_UAB.c ****     VDAC_Synth_UAB_WriteInitPairs( cfg->pairs, ((size_t)(cfg->pairCount)) );
 332:Generated_Source\PSoC4/VDAC_Synth_UAB.c ****     /* ^ 
ARM GAS  C:\Users\Jerry\AppData\Local\Temp\cc1IKG0O.s 			page 8


 333:Generated_Source\PSoC4/VDAC_Synth_UAB.c ****     *  | 
 334:Generated_Source\PSoC4/VDAC_Synth_UAB.c ****     *  | 
 335:Generated_Source\PSoC4/VDAC_Synth_UAB.c ****     *  Direct writes must happen before writing shared switch fields*/
 336:Generated_Source\PSoC4/VDAC_Synth_UAB.c ****     
 337:Generated_Source\PSoC4/VDAC_Synth_UAB.c ****     
 338:Generated_Source\PSoC4/VDAC_Synth_UAB.c **** #if VDAC_Synth_UAB_ISPAIRED
 339:Generated_Source\PSoC4/VDAC_Synth_UAB.c ****     /*Handle shared switches - switches that connect paired UABPRIM instances*/
 340:Generated_Source\PSoC4/VDAC_Synth_UAB.c ****     agndTied = CyUAB_SHARED_SW_CFG_AGNDTIED( cfg->shared_sw );
 341:Generated_Source\PSoC4/VDAC_Synth_UAB.c ****     VDAC_Synth_UAB_SetAgndTied( agndTied );
 342:Generated_Source\PSoC4/VDAC_Synth_UAB.c ****     refTied = CyUAB_SHARED_SW_CFG_REFTIED(  cfg->shared_sw );
 343:Generated_Source\PSoC4/VDAC_Synth_UAB.c ****     VDAC_Synth_UAB_SetRefTied( refTied );
 344:Generated_Source\PSoC4/VDAC_Synth_UAB.c ****     clk_AA = CyUAB_SHARED_SW_CFG_AA(  cfg->shared_sw );
 345:Generated_Source\PSoC4/VDAC_Synth_UAB.c ****     VDAC_Synth_UAB_SetSwitch( CyUAB_SW_AA, clk_AA );
 346:Generated_Source\PSoC4/VDAC_Synth_UAB.c ****     clk_BB = CyUAB_SHARED_SW_CFG_BB(  cfg->shared_sw );
 347:Generated_Source\PSoC4/VDAC_Synth_UAB.c ****     VDAC_Synth_UAB_SetSwitch( CyUAB_SW_BB, clk_BB );
 348:Generated_Source\PSoC4/VDAC_Synth_UAB.c ****     clk_CC = CyUAB_SHARED_SW_CFG_CC(  cfg->shared_sw );
 349:Generated_Source\PSoC4/VDAC_Synth_UAB.c ****     VDAC_Synth_UAB_SetSwitch( CyUAB_SW_CC, clk_CC );
 350:Generated_Source\PSoC4/VDAC_Synth_UAB.c **** #endif
 351:Generated_Source\PSoC4/VDAC_Synth_UAB.c ****     
 352:Generated_Source\PSoC4/VDAC_Synth_UAB.c **** }
 353:Generated_Source\PSoC4/VDAC_Synth_UAB.c **** 
 354:Generated_Source\PSoC4/VDAC_Synth_UAB.c **** /************** VDAC_Synth_UAB_Enable() *************************************/
 355:Generated_Source\PSoC4/VDAC_Synth_UAB.c **** /*!
 356:Generated_Source\PSoC4/VDAC_Synth_UAB.c **** * @brief Enables the component.
 357:Generated_Source\PSoC4/VDAC_Synth_UAB.c **** * 
 358:Generated_Source\PSoC4/VDAC_Synth_UAB.c **** * @details Provides power to the op-amp, charge pump, comparator, and reference 
 359:Generated_Source\PSoC4/VDAC_Synth_UAB.c **** * buffers.  Enable() does not enable the clocking.  Call Run(1UL) to enable clocking.
 360:Generated_Source\PSoC4/VDAC_Synth_UAB.c **** * Takes no parameters.  Returns @c void.
 361:Generated_Source\PSoC4/VDAC_Synth_UAB.c **** *
 362:Generated_Source\PSoC4/VDAC_Synth_UAB.c **** * Start() is the preferred way to enable the UAB if all of your configuration is 
 363:Generated_Source\PSoC4/VDAC_Synth_UAB.c **** * captured in symbol parameters.
 364:Generated_Source\PSoC4/VDAC_Synth_UAB.c **** *
 365:Generated_Source\PSoC4/VDAC_Synth_UAB.c **** * NOTE: The ENABLED bit controls both half0 and half1 within a UAB pair.
 366:Generated_Source\PSoC4/VDAC_Synth_UAB.c **** *
 367:Generated_Source\PSoC4/VDAC_Synth_UAB.c **** * Disable() is not implemented.
 368:Generated_Source\PSoC4/VDAC_Synth_UAB.c **** * Clearing the ENABLED bit has the side effect of disabling both halves.
 369:Generated_Source\PSoC4/VDAC_Synth_UAB.c **** * How to disable:
 370:Generated_Source\PSoC4/VDAC_Synth_UAB.c **** * VDAC_Synth_UAB_UAB_CTRL_REG &= ~VDAC_Synth_UAB_ENABLED_MASK;
 371:Generated_Source\PSoC4/VDAC_Synth_UAB.c **** *
 372:Generated_Source\PSoC4/VDAC_Synth_UAB.c **** * The actual power settings are Controlled by the power setting functions.
 373:Generated_Source\PSoC4/VDAC_Synth_UAB.c **** * 
 374:Generated_Source\PSoC4/VDAC_Synth_UAB.c **** * @internal
 375:Generated_Source\PSoC4/VDAC_Synth_UAB.c **** * @reglist
 376:Generated_Source\PSoC4/VDAC_Synth_UAB.c **** * @endinternal
 377:Generated_Source\PSoC4/VDAC_Synth_UAB.c **** * 
 378:Generated_Source\PSoC4/VDAC_Synth_UAB.c **** * @see VDAC_Synth_UAB_Start()
 379:Generated_Source\PSoC4/VDAC_Synth_UAB.c **** * @see VDAC_Synth_UAB_Init()
 380:Generated_Source\PSoC4/VDAC_Synth_UAB.c **** * @see VDAC_Synth_UAB_SetUABPower()
 381:Generated_Source\PSoC4/VDAC_Synth_UAB.c **** * @see VDAC_Synth_UAB_SetOAPower()
 382:Generated_Source\PSoC4/VDAC_Synth_UAB.c **** * @see VDAC_Synth_UAB_SetCompPower()
 383:Generated_Source\PSoC4/VDAC_Synth_UAB.c **** * @see VDAC_Synth_UAB_SetRefPower()
 384:Generated_Source\PSoC4/VDAC_Synth_UAB.c **** * @see VDAC_Synth_UAB_SetAgndPower()
 385:Generated_Source\PSoC4/VDAC_Synth_UAB.c **** * 
 386:Generated_Source\PSoC4/VDAC_Synth_UAB.c **** * @sideeffect Sets ENABLED bit for whole UAB - both half0 and half1.
 387:Generated_Source\PSoC4/VDAC_Synth_UAB.c **** *******************************************************************************/
 388:Generated_Source\PSoC4/VDAC_Synth_UAB.c **** void VDAC_Synth_UAB_Enable(void)
 389:Generated_Source\PSoC4/VDAC_Synth_UAB.c **** {
ARM GAS  C:\Users\Jerry\AppData\Local\Temp\cc1IKG0O.s 			page 9


  66              		.loc 1 389 0
  67              		.cfi_startproc
 390:Generated_Source\PSoC4/VDAC_Synth_UAB.c ****     VDAC_Synth_UAB_UAB_CTRL_REG |= VDAC_Synth_UAB_ENABLED_MASK; /*Side effect: also enables other U
  68              		.loc 1 390 0
  69 0000 8021     		mov	r1, #128
  70 0002 034A     		ldr	r2, .L7
  71 0004 0906     		lsl	r1, r1, #24
  72 0006 1368     		ldr	r3, [r2]
 391:Generated_Source\PSoC4/VDAC_Synth_UAB.c **** }
  73              		.loc 1 391 0
  74              		@ sp needed
 390:Generated_Source\PSoC4/VDAC_Synth_UAB.c ****     VDAC_Synth_UAB_UAB_CTRL_REG |= VDAC_Synth_UAB_ENABLED_MASK; /*Side effect: also enables other U
  75              		.loc 1 390 0
  76 0008 0B43     		orr	r3, r1
  77 000a 1360     		str	r3, [r2]
  78              		.loc 1 391 0
  79 000c 7047     		bx	lr
  80              	.L8:
  81 000e C046     		.align	2
  82              	.L7:
  83 0010 00003440 		.word	1077149696
  84              		.cfi_endproc
  85              	.LFE5:
  86              		.size	VDAC_Synth_UAB_Enable, .-VDAC_Synth_UAB_Enable
  87              		.section	.text.VDAC_Synth_UAB_Init,"ax",%progbits
  88              		.align	1
  89              		.global	VDAC_Synth_UAB_Init
  90              		.code	16
  91              		.thumb_func
  92              		.type	VDAC_Synth_UAB_Init, %function
  93              	VDAC_Synth_UAB_Init:
  94              	.LFB4:
 309:Generated_Source\PSoC4/VDAC_Synth_UAB.c **** #if VDAC_Synth_UAB_ISPAIRED 
  95              		.loc 1 309 0
  96              		.cfi_startproc
  97              	.LVL3:
  98 0000 10B5     		push	{r4, lr}
  99              		.cfi_def_cfa_offset 8
 100              		.cfi_offset 4, -8
 101              		.cfi_offset 14, -4
 309:Generated_Source\PSoC4/VDAC_Synth_UAB.c **** #if VDAC_Synth_UAB_ISPAIRED 
 102              		.loc 1 309 0
 103 0002 041C     		mov	r4, r0
 318:Generated_Source\PSoC4/VDAC_Synth_UAB.c ****     
 104              		.loc 1 318 0
 105 0004 FFF7FEFF 		bl	VDAC_Synth_UAB_Enable
 106              	.LVL4:
 320:Generated_Source\PSoC4/VDAC_Synth_UAB.c ****     
 107              		.loc 1 320 0
 108 0008 A17A     		ldrb	r1, [r4, #10]
 109 000a 2268     		ldr	r2, [r4]
 110 000c 0848     		ldr	r0, .L10
 111 000e FFF7FEFF 		bl	CyUAB_SetNSteps
 112              	.LVL5:
 326:Generated_Source\PSoC4/VDAC_Synth_UAB.c ****         0UL, 
 113              		.loc 1 326 0
 114 0012 A27A     		ldrb	r2, [r4, #10]
ARM GAS  C:\Users\Jerry\AppData\Local\Temp\cc1IKG0O.s 			page 10


 115 0014 074B     		ldr	r3, .L10+4
 325:Generated_Source\PSoC4/VDAC_Synth_UAB.c ****         ((reg32*)( ((uint32)(VDAC_Synth_UAB_SRAM0_PTR)) + (((uint32)(cfg->stepCount))*sizeof(uint32
 116              		.loc 1 325 0
 117 0016 0021     		mov	r1, #0
 326:Generated_Source\PSoC4/VDAC_Synth_UAB.c ****         0UL, 
 118              		.loc 1 326 0
 119 0018 D018     		add	r0, r2, r3
 325:Generated_Source\PSoC4/VDAC_Synth_UAB.c ****         ((reg32*)( ((uint32)(VDAC_Synth_UAB_SRAM0_PTR)) + (((uint32)(cfg->stepCount))*sizeof(uint32
 120              		.loc 1 325 0
 121 001a 9200     		lsl	r2, r2, #2
 122 001c 5242     		neg	r2, r2
 328:Generated_Source\PSoC4/VDAC_Synth_UAB.c ****     );
 123              		.loc 1 328 0
 124 001e 4032     		add	r2, r2, #64
 326:Generated_Source\PSoC4/VDAC_Synth_UAB.c ****         0UL, 
 125              		.loc 1 326 0
 126 0020 8000     		lsl	r0, r0, #2
 325:Generated_Source\PSoC4/VDAC_Synth_UAB.c ****         ((reg32*)( ((uint32)(VDAC_Synth_UAB_SRAM0_PTR)) + (((uint32)(cfg->stepCount))*sizeof(uint32
 127              		.loc 1 325 0
 128 0022 FFF7FEFF 		bl	CyUAB_wordset
 129              	.LVL6:
 331:Generated_Source\PSoC4/VDAC_Synth_UAB.c ****     /* ^ 
 130              		.loc 1 331 0
 131 0026 E17A     		ldrb	r1, [r4, #11]
 132 0028 6068     		ldr	r0, [r4, #4]
 133 002a FFF7FEFF 		bl	VDAC_Synth_UAB_WriteInitPairs
 134              	.LVL7:
 352:Generated_Source\PSoC4/VDAC_Synth_UAB.c **** 
 135              		.loc 1 352 0
 136              		@ sp needed
 137              	.LVL8:
 138 002e 10BD     		pop	{r4, pc}
 139              	.L11:
 140              		.align	2
 141              	.L10:
 142 0030 80033440 		.word	1077150592
 143 0034 E0000D10 		.word	269287648
 144              		.cfi_endproc
 145              	.LFE4:
 146              		.size	VDAC_Synth_UAB_Init, .-VDAC_Synth_UAB_Init
 147              		.section	.text.VDAC_Synth_UAB_ClearInterrupt,"ax",%progbits
 148              		.align	1
 149              		.global	VDAC_Synth_UAB_ClearInterrupt
 150              		.code	16
 151              		.thumb_func
 152              		.type	VDAC_Synth_UAB_ClearInterrupt, %function
 153              	VDAC_Synth_UAB_ClearInterrupt:
 154              	.LFB6:
 392:Generated_Source\PSoC4/VDAC_Synth_UAB.c **** 
 393:Generated_Source\PSoC4/VDAC_Synth_UAB.c **** 
 394:Generated_Source\PSoC4/VDAC_Synth_UAB.c **** /*Interrupts*/
 395:Generated_Source\PSoC4/VDAC_Synth_UAB.c **** 
 396:Generated_Source\PSoC4/VDAC_Synth_UAB.c **** 
 397:Generated_Source\PSoC4/VDAC_Synth_UAB.c **** /*********** VDAC_Synth_UAB_ClearInterrupt() ********************************/
 398:Generated_Source\PSoC4/VDAC_Synth_UAB.c **** /*!
 399:Generated_Source\PSoC4/VDAC_Synth_UAB.c **** * @brief Reset an interrupt request bit. 
 400:Generated_Source\PSoC4/VDAC_Synth_UAB.c **** * 
ARM GAS  C:\Users\Jerry\AppData\Local\Temp\cc1IKG0O.s 			page 11


 401:Generated_Source\PSoC4/VDAC_Synth_UAB.c **** * @details After an interrupt has been fired, this function resets the interrupt 
 402:Generated_Source\PSoC4/VDAC_Synth_UAB.c **** * so it can fire again. Returns @c void.
 403:Generated_Source\PSoC4/VDAC_Synth_UAB.c **** * 
 404:Generated_Source\PSoC4/VDAC_Synth_UAB.c **** * @param intr 
 405:Generated_Source\PSoC4/VDAC_Synth_UAB.c **** * @arg CyUAB_INTR_COMP select comparator interrupt
 406:Generated_Source\PSoC4/VDAC_Synth_UAB.c **** * @arg CyUAB_INTR_VDAC_EMPTY select VDAC empty interrupt
 407:Generated_Source\PSoC4/VDAC_Synth_UAB.c **** *
 408:Generated_Source\PSoC4/VDAC_Synth_UAB.c **** * @internal
 409:Generated_Source\PSoC4/VDAC_Synth_UAB.c **** * @reglist @reg VDAC_Synth_UAB_INTR_REG
 410:Generated_Source\PSoC4/VDAC_Synth_UAB.c **** * @endinternal
 411:Generated_Source\PSoC4/VDAC_Synth_UAB.c **** * 
 412:Generated_Source\PSoC4/VDAC_Synth_UAB.c **** * @see VDAC_Synth_UAB_SetInterrupt()
 413:Generated_Source\PSoC4/VDAC_Synth_UAB.c **** * 
 414:Generated_Source\PSoC4/VDAC_Synth_UAB.c **** * @see VDAC_Synth_UAB_SetInterruptMask()
 415:Generated_Source\PSoC4/VDAC_Synth_UAB.c **** * @see VDAC_Synth_UAB_ClearInterruptMask()
 416:Generated_Source\PSoC4/VDAC_Synth_UAB.c **** * @see VDAC_Synth_UAB_GetInterruptIsMasked()
 417:Generated_Source\PSoC4/VDAC_Synth_UAB.c **** * 
 418:Generated_Source\PSoC4/VDAC_Synth_UAB.c **** * @sideeffect None
 419:Generated_Source\PSoC4/VDAC_Synth_UAB.c **** *******************************************************************************/
 420:Generated_Source\PSoC4/VDAC_Synth_UAB.c **** void VDAC_Synth_UAB_ClearInterrupt(CyUAB_intr_enum intr)
 421:Generated_Source\PSoC4/VDAC_Synth_UAB.c **** {
 155              		.loc 1 421 0
 156              		.cfi_startproc
 157              	.LVL9:
 422:Generated_Source\PSoC4/VDAC_Synth_UAB.c ****     /* Write '1' to the register bit field to clear the interrupt bit. */
 423:Generated_Source\PSoC4/VDAC_Synth_UAB.c ****     /*intentionally omitting decimator interrupt - handled in decimator component*/    
 424:Generated_Source\PSoC4/VDAC_Synth_UAB.c **** 
 425:Generated_Source\PSoC4/VDAC_Synth_UAB.c ****     uint32 mask = ( (CyUAB_INTR_COMP==intr)      ? ((uint32)VDAC_Synth_UAB_INTR_COMP_MASK) : 
 158              		.loc 1 425 0
 159 0000 2528     		cmp	r0, #37
 160 0002 04D0     		beq	.L15
 426:Generated_Source\PSoC4/VDAC_Synth_UAB.c ****                   ( (CyUAB_INTR_VDAC_EMPTY==intr)? ((uint32)VDAC_Synth_UAB_INTR_VDAC_EMPTY_MASK) : 
 161              		.loc 1 426 0
 162 0004 4328     		cmp	r0, #67
 163 0006 08D1     		bne	.L12
 164 0008 8021     		mov	r1, #128
 165 000a 8902     		lsl	r1, r1, #10
 166 000c 01E0     		b	.L13
 167              	.L15:
 425:Generated_Source\PSoC4/VDAC_Synth_UAB.c ****                   ( (CyUAB_INTR_VDAC_EMPTY==intr)? ((uint32)VDAC_Synth_UAB_INTR_VDAC_EMPTY_MASK) : 
 168              		.loc 1 425 0
 169 000e 8021     		mov	r1, #128
 170 0010 4902     		lsl	r1, r1, #9
 171              	.L13:
 172              	.LVL10:
 427:Generated_Source\PSoC4/VDAC_Synth_UAB.c ****                   0UL ) );
 428:Generated_Source\PSoC4/VDAC_Synth_UAB.c ****     if(0UL!=mask)
 429:Generated_Source\PSoC4/VDAC_Synth_UAB.c ****     {
 430:Generated_Source\PSoC4/VDAC_Synth_UAB.c ****         *(VDAC_Synth_UAB_INTR_PTR) |= mask;    
 173              		.loc 1 430 0
 174 0012 024A     		ldr	r2, .L17
 175 0014 1368     		ldr	r3, [r2]
 176 0016 0B43     		orr	r3, r1
 177 0018 1360     		str	r3, [r2]
 178              	.LVL11:
 179              	.L12:
 431:Generated_Source\PSoC4/VDAC_Synth_UAB.c ****     }
ARM GAS  C:\Users\Jerry\AppData\Local\Temp\cc1IKG0O.s 			page 12


 432:Generated_Source\PSoC4/VDAC_Synth_UAB.c **** }
 180              		.loc 1 432 0
 181              		@ sp needed
 182 001a 7047     		bx	lr
 183              	.L18:
 184              		.align	2
 185              	.L17:
 186 001c 20003440 		.word	1077149728
 187              		.cfi_endproc
 188              	.LFE6:
 189              		.size	VDAC_Synth_UAB_ClearInterrupt, .-VDAC_Synth_UAB_ClearInterrupt
 190              		.section	.text.VDAC_Synth_UAB_SetInterrupt,"ax",%progbits
 191              		.align	1
 192              		.global	VDAC_Synth_UAB_SetInterrupt
 193              		.code	16
 194              		.thumb_func
 195              		.type	VDAC_Synth_UAB_SetInterrupt, %function
 196              	VDAC_Synth_UAB_SetInterrupt:
 197              	.LFB7:
 433:Generated_Source\PSoC4/VDAC_Synth_UAB.c **** 
 434:Generated_Source\PSoC4/VDAC_Synth_UAB.c **** /************* VDAC_Synth_UAB_SetInterrupt() ********************************/
 435:Generated_Source\PSoC4/VDAC_Synth_UAB.c **** /*!
 436:Generated_Source\PSoC4/VDAC_Synth_UAB.c **** * @brief Sets the bit in the interrupt request register.
 437:Generated_Source\PSoC4/VDAC_Synth_UAB.c **** * 
 438:Generated_Source\PSoC4/VDAC_Synth_UAB.c **** * @details Set the bit to activate a certain interrupt request. Returns @c void.
 439:Generated_Source\PSoC4/VDAC_Synth_UAB.c **** * 
 440:Generated_Source\PSoC4/VDAC_Synth_UAB.c **** * @param intr 
 441:Generated_Source\PSoC4/VDAC_Synth_UAB.c **** * @arg CyUAB_INTR_COMP select comparator interrupt
 442:Generated_Source\PSoC4/VDAC_Synth_UAB.c **** * @arg CyUAB_INTR_VDAC_EMPTY select VDAC empty interrupt
 443:Generated_Source\PSoC4/VDAC_Synth_UAB.c **** *
 444:Generated_Source\PSoC4/VDAC_Synth_UAB.c **** * @internal
 445:Generated_Source\PSoC4/VDAC_Synth_UAB.c **** * @reglist @reg VDAC_Synth_UAB_INTR_SET_REG
 446:Generated_Source\PSoC4/VDAC_Synth_UAB.c **** * @endinternal
 447:Generated_Source\PSoC4/VDAC_Synth_UAB.c **** *
 448:Generated_Source\PSoC4/VDAC_Synth_UAB.c **** * 
 449:Generated_Source\PSoC4/VDAC_Synth_UAB.c **** * @see VDAC_Synth_UAB_ClearInterrupt()
 450:Generated_Source\PSoC4/VDAC_Synth_UAB.c **** * @see VDAC_Synth_UAB_SetInterruptMask()
 451:Generated_Source\PSoC4/VDAC_Synth_UAB.c **** * @see VDAC_Synth_UAB_ClearInterruptMask()
 452:Generated_Source\PSoC4/VDAC_Synth_UAB.c **** * @see VDAC_Synth_UAB_GetInterruptIsMasked()
 453:Generated_Source\PSoC4/VDAC_Synth_UAB.c **** * 
 454:Generated_Source\PSoC4/VDAC_Synth_UAB.c **** * @sideeffect None
 455:Generated_Source\PSoC4/VDAC_Synth_UAB.c **** *******************************************************************************/
 456:Generated_Source\PSoC4/VDAC_Synth_UAB.c **** void VDAC_Synth_UAB_SetInterrupt(CyUAB_intr_enum intr)
 457:Generated_Source\PSoC4/VDAC_Synth_UAB.c **** {
 198              		.loc 1 457 0
 199              		.cfi_startproc
 200              	.LVL12:
 458:Generated_Source\PSoC4/VDAC_Synth_UAB.c ****     /* Write with '1' to set corresponding bit in interrupt request register. */
 459:Generated_Source\PSoC4/VDAC_Synth_UAB.c ****     /*intentionally omitting decimator interrupt - handled in decimator component*/
 460:Generated_Source\PSoC4/VDAC_Synth_UAB.c ****     
 461:Generated_Source\PSoC4/VDAC_Synth_UAB.c ****     uint32 mask = ( (CyUAB_INTR_COMP==intr)      ? ((uint32)VDAC_Synth_UAB_INTR_COMP_MASK) : 
 201              		.loc 1 461 0
 202 0000 2528     		cmp	r0, #37
 203 0002 04D0     		beq	.L22
 462:Generated_Source\PSoC4/VDAC_Synth_UAB.c ****                   ( (CyUAB_INTR_VDAC_EMPTY==intr)? ((uint32)VDAC_Synth_UAB_INTR_VDAC_EMPTY_MASK) : 
 204              		.loc 1 462 0
 205 0004 4328     		cmp	r0, #67
ARM GAS  C:\Users\Jerry\AppData\Local\Temp\cc1IKG0O.s 			page 13


 206 0006 08D1     		bne	.L19
 207 0008 8021     		mov	r1, #128
 208 000a 8902     		lsl	r1, r1, #10
 209 000c 01E0     		b	.L20
 210              	.L22:
 461:Generated_Source\PSoC4/VDAC_Synth_UAB.c ****                   ( (CyUAB_INTR_VDAC_EMPTY==intr)? ((uint32)VDAC_Synth_UAB_INTR_VDAC_EMPTY_MASK) : 
 211              		.loc 1 461 0
 212 000e 8021     		mov	r1, #128
 213 0010 4902     		lsl	r1, r1, #9
 214              	.L20:
 215              	.LVL13:
 463:Generated_Source\PSoC4/VDAC_Synth_UAB.c ****                   0UL ) );
 464:Generated_Source\PSoC4/VDAC_Synth_UAB.c ****     if(0UL!=mask)
 465:Generated_Source\PSoC4/VDAC_Synth_UAB.c ****     {
 466:Generated_Source\PSoC4/VDAC_Synth_UAB.c ****         *(VDAC_Synth_UAB_INTR_SET_PTR) |= mask;
 216              		.loc 1 466 0
 217 0012 024A     		ldr	r2, .L24
 218 0014 1368     		ldr	r3, [r2]
 219 0016 0B43     		orr	r3, r1
 220 0018 1360     		str	r3, [r2]
 221              	.LVL14:
 222              	.L19:
 467:Generated_Source\PSoC4/VDAC_Synth_UAB.c ****     }
 468:Generated_Source\PSoC4/VDAC_Synth_UAB.c **** }
 223              		.loc 1 468 0
 224              		@ sp needed
 225 001a 7047     		bx	lr
 226              	.L25:
 227              		.align	2
 228              	.L24:
 229 001c 24003440 		.word	1077149732
 230              		.cfi_endproc
 231              	.LFE7:
 232              		.size	VDAC_Synth_UAB_SetInterrupt, .-VDAC_Synth_UAB_SetInterrupt
 233              		.section	.text.VDAC_Synth_UAB_SetInterruptMask,"ax",%progbits
 234              		.align	1
 235              		.global	VDAC_Synth_UAB_SetInterruptMask
 236              		.code	16
 237              		.thumb_func
 238              		.type	VDAC_Synth_UAB_SetInterruptMask, %function
 239              	VDAC_Synth_UAB_SetInterruptMask:
 240              	.LFB8:
 469:Generated_Source\PSoC4/VDAC_Synth_UAB.c **** 
 470:Generated_Source\PSoC4/VDAC_Synth_UAB.c **** /************** VDAC_Synth_UAB_SetInterruptMask() ***************************/
 471:Generated_Source\PSoC4/VDAC_Synth_UAB.c **** /*!
 472:Generated_Source\PSoC4/VDAC_Synth_UAB.c **** * @brief Sets the mask bit for the passed interrupt.
 473:Generated_Source\PSoC4/VDAC_Synth_UAB.c **** * 
 474:Generated_Source\PSoC4/VDAC_Synth_UAB.c **** * @details Set the mask bit for setting an interrupt request. Returns @c void.
 475:Generated_Source\PSoC4/VDAC_Synth_UAB.c **** * 
 476:Generated_Source\PSoC4/VDAC_Synth_UAB.c **** * @param intr 
 477:Generated_Source\PSoC4/VDAC_Synth_UAB.c **** * @arg CyUAB_INTR_COMP select comparator interrupt
 478:Generated_Source\PSoC4/VDAC_Synth_UAB.c **** * @arg CyUAB_INTR_VDAC_EMPTY select VDAC empty interrupt
 479:Generated_Source\PSoC4/VDAC_Synth_UAB.c **** *
 480:Generated_Source\PSoC4/VDAC_Synth_UAB.c **** * @internal
 481:Generated_Source\PSoC4/VDAC_Synth_UAB.c **** * @reglist @reg VDAC_Synth_UAB_INTR_MASK_REG
 482:Generated_Source\PSoC4/VDAC_Synth_UAB.c **** * @endinternal
 483:Generated_Source\PSoC4/VDAC_Synth_UAB.c **** * 
ARM GAS  C:\Users\Jerry\AppData\Local\Temp\cc1IKG0O.s 			page 14


 484:Generated_Source\PSoC4/VDAC_Synth_UAB.c **** * @see VDAC_Synth_UAB_SetInterrupt()
 485:Generated_Source\PSoC4/VDAC_Synth_UAB.c **** * @see VDAC_Synth_UAB_ClearInterrupt()
 486:Generated_Source\PSoC4/VDAC_Synth_UAB.c **** * 
 487:Generated_Source\PSoC4/VDAC_Synth_UAB.c **** * @see VDAC_Synth_UAB_ClearInterruptMask()
 488:Generated_Source\PSoC4/VDAC_Synth_UAB.c **** * @see VDAC_Synth_UAB_GetInterruptIsMasked()
 489:Generated_Source\PSoC4/VDAC_Synth_UAB.c **** *
 490:Generated_Source\PSoC4/VDAC_Synth_UAB.c **** * @sideeffect None
 491:Generated_Source\PSoC4/VDAC_Synth_UAB.c **** *******************************************************************************/
 492:Generated_Source\PSoC4/VDAC_Synth_UAB.c **** void VDAC_Synth_UAB_SetInterruptMask(CyUAB_intr_enum intr)
 493:Generated_Source\PSoC4/VDAC_Synth_UAB.c **** {
 241              		.loc 1 493 0
 242              		.cfi_startproc
 243              	.LVL15:
 494:Generated_Source\PSoC4/VDAC_Synth_UAB.c ****     /* Write with '1' to set interrupt mask*/
 495:Generated_Source\PSoC4/VDAC_Synth_UAB.c ****     /*intentionally omitting decimator interrupt - handled in decimator component*/
 496:Generated_Source\PSoC4/VDAC_Synth_UAB.c ****     
 497:Generated_Source\PSoC4/VDAC_Synth_UAB.c ****     uint32 mask = ( (CyUAB_INTR_COMP==intr)      ? ((uint32)VDAC_Synth_UAB_INTR_COMP_MASK) : 
 244              		.loc 1 497 0
 245 0000 2528     		cmp	r0, #37
 246 0002 04D0     		beq	.L29
 498:Generated_Source\PSoC4/VDAC_Synth_UAB.c ****                   ( (CyUAB_INTR_VDAC_EMPTY==intr)? ((uint32)VDAC_Synth_UAB_INTR_VDAC_EMPTY_MASK) : 
 247              		.loc 1 498 0
 248 0004 4328     		cmp	r0, #67
 249 0006 08D1     		bne	.L26
 250 0008 8021     		mov	r1, #128
 251 000a 8902     		lsl	r1, r1, #10
 252 000c 01E0     		b	.L27
 253              	.L29:
 497:Generated_Source\PSoC4/VDAC_Synth_UAB.c ****                   ( (CyUAB_INTR_VDAC_EMPTY==intr)? ((uint32)VDAC_Synth_UAB_INTR_VDAC_EMPTY_MASK) : 
 254              		.loc 1 497 0
 255 000e 8021     		mov	r1, #128
 256 0010 4902     		lsl	r1, r1, #9
 257              	.L27:
 258              	.LVL16:
 499:Generated_Source\PSoC4/VDAC_Synth_UAB.c ****                   0UL ) );
 500:Generated_Source\PSoC4/VDAC_Synth_UAB.c ****     if(0UL!=mask)
 501:Generated_Source\PSoC4/VDAC_Synth_UAB.c ****     {
 502:Generated_Source\PSoC4/VDAC_Synth_UAB.c ****         *(VDAC_Synth_UAB_INTR_MASK_PTR) |= mask;    
 259              		.loc 1 502 0
 260 0012 024A     		ldr	r2, .L31
 261 0014 1368     		ldr	r3, [r2]
 262 0016 0B43     		orr	r3, r1
 263 0018 1360     		str	r3, [r2]
 264              	.LVL17:
 265              	.L26:
 503:Generated_Source\PSoC4/VDAC_Synth_UAB.c ****     }
 504:Generated_Source\PSoC4/VDAC_Synth_UAB.c **** }
 266              		.loc 1 504 0
 267              		@ sp needed
 268 001a 7047     		bx	lr
 269              	.L32:
 270              		.align	2
 271              	.L31:
 272 001c 28003440 		.word	1077149736
 273              		.cfi_endproc
 274              	.LFE8:
 275              		.size	VDAC_Synth_UAB_SetInterruptMask, .-VDAC_Synth_UAB_SetInterruptMask
ARM GAS  C:\Users\Jerry\AppData\Local\Temp\cc1IKG0O.s 			page 15


 276              		.section	.text.VDAC_Synth_UAB_ClearInterruptMask,"ax",%progbits
 277              		.align	1
 278              		.global	VDAC_Synth_UAB_ClearInterruptMask
 279              		.code	16
 280              		.thumb_func
 281              		.type	VDAC_Synth_UAB_ClearInterruptMask, %function
 282              	VDAC_Synth_UAB_ClearInterruptMask:
 283              	.LFB9:
 505:Generated_Source\PSoC4/VDAC_Synth_UAB.c **** 
 506:Generated_Source\PSoC4/VDAC_Synth_UAB.c **** /************* VDAC_Synth_UAB_ClearInterruptMask() **************************/
 507:Generated_Source\PSoC4/VDAC_Synth_UAB.c **** /*!
 508:Generated_Source\PSoC4/VDAC_Synth_UAB.c **** * @brief Clears the mask bit for the passed interrupt.
 509:Generated_Source\PSoC4/VDAC_Synth_UAB.c **** * 
 510:Generated_Source\PSoC4/VDAC_Synth_UAB.c **** * @details Clear the mask bit for setting an interrupt request. Returns @c void.
 511:Generated_Source\PSoC4/VDAC_Synth_UAB.c **** * 
 512:Generated_Source\PSoC4/VDAC_Synth_UAB.c **** * @param intr 
 513:Generated_Source\PSoC4/VDAC_Synth_UAB.c **** * @arg CyUAB_INTR_COMP select comparator interrupt
 514:Generated_Source\PSoC4/VDAC_Synth_UAB.c **** * @arg CyUAB_INTR_VDAC_EMPTY select VDAC empty interrupt
 515:Generated_Source\PSoC4/VDAC_Synth_UAB.c **** *
 516:Generated_Source\PSoC4/VDAC_Synth_UAB.c **** * @internal
 517:Generated_Source\PSoC4/VDAC_Synth_UAB.c **** * @reglist @reg VDAC_Synth_UAB_INTR_MASK_REG
 518:Generated_Source\PSoC4/VDAC_Synth_UAB.c **** * @endinternal
 519:Generated_Source\PSoC4/VDAC_Synth_UAB.c **** * 
 520:Generated_Source\PSoC4/VDAC_Synth_UAB.c **** * @see VDAC_Synth_UAB_SetInterrupt()
 521:Generated_Source\PSoC4/VDAC_Synth_UAB.c **** * @see VDAC_Synth_UAB_ClearInterrupt()
 522:Generated_Source\PSoC4/VDAC_Synth_UAB.c **** * @see VDAC_Synth_UAB_SetInterruptMask()
 523:Generated_Source\PSoC4/VDAC_Synth_UAB.c **** * 
 524:Generated_Source\PSoC4/VDAC_Synth_UAB.c **** * @see VDAC_Synth_UAB_GetInterruptIsMasked()
 525:Generated_Source\PSoC4/VDAC_Synth_UAB.c **** * 
 526:Generated_Source\PSoC4/VDAC_Synth_UAB.c **** * @sideeffect None
 527:Generated_Source\PSoC4/VDAC_Synth_UAB.c **** ******************************************************************************/
 528:Generated_Source\PSoC4/VDAC_Synth_UAB.c **** void VDAC_Synth_UAB_ClearInterruptMask(CyUAB_intr_enum intr)
 529:Generated_Source\PSoC4/VDAC_Synth_UAB.c **** {
 284              		.loc 1 529 0
 285              		.cfi_startproc
 286              	.LVL18:
 530:Generated_Source\PSoC4/VDAC_Synth_UAB.c ****     /* Write with '0' to clear interrupt mask*/
 531:Generated_Source\PSoC4/VDAC_Synth_UAB.c ****     /*intentionally omitting decimator interrupt - handled in decimator component*/
 532:Generated_Source\PSoC4/VDAC_Synth_UAB.c ****     
 533:Generated_Source\PSoC4/VDAC_Synth_UAB.c ****     uint32 mask = ( (CyUAB_INTR_COMP==intr)      ? ~((uint32)VDAC_Synth_UAB_INTR_COMP_MASK) : 
 287              		.loc 1 533 0
 288 0000 2528     		cmp	r0, #37
 289 0002 03D0     		beq	.L36
 534:Generated_Source\PSoC4/VDAC_Synth_UAB.c ****                   ( (CyUAB_INTR_VDAC_EMPTY==intr)? ~((uint32)VDAC_Synth_UAB_INTR_VDAC_EMPTY_MASK) :
 290              		.loc 1 534 0
 291 0004 4328     		cmp	r0, #67
 292 0006 06D1     		bne	.L33
 293 0008 034B     		ldr	r3, .L38
 294 000a 00E0     		b	.L34
 295              	.L36:
 533:Generated_Source\PSoC4/VDAC_Synth_UAB.c ****                   ( (CyUAB_INTR_VDAC_EMPTY==intr)? ~((uint32)VDAC_Synth_UAB_INTR_VDAC_EMPTY_MASK) :
 296              		.loc 1 533 0
 297 000c 034B     		ldr	r3, .L38+4
 298              	.L34:
 299              	.LVL19:
 535:Generated_Source\PSoC4/VDAC_Synth_UAB.c ****                   0xFFFFFFFFUL ) );
 536:Generated_Source\PSoC4/VDAC_Synth_UAB.c ****     if(0xFFFFFFFFUL!=mask)
ARM GAS  C:\Users\Jerry\AppData\Local\Temp\cc1IKG0O.s 			page 16


 537:Generated_Source\PSoC4/VDAC_Synth_UAB.c ****     {
 538:Generated_Source\PSoC4/VDAC_Synth_UAB.c ****         *(VDAC_Synth_UAB_INTR_MASK_PTR) &= mask;    
 300              		.loc 1 538 0
 301 000e 044A     		ldr	r2, .L38+8
 302 0010 1168     		ldr	r1, [r2]
 303 0012 0B40     		and	r3, r1
 304              	.LVL20:
 305 0014 1360     		str	r3, [r2]
 306              	.L33:
 539:Generated_Source\PSoC4/VDAC_Synth_UAB.c ****     }
 540:Generated_Source\PSoC4/VDAC_Synth_UAB.c **** }
 307              		.loc 1 540 0
 308              		@ sp needed
 309 0016 7047     		bx	lr
 310              	.L39:
 311              		.align	2
 312              	.L38:
 313 0018 FFFFFDFF 		.word	-131073
 314 001c FFFFFEFF 		.word	-65537
 315 0020 28003440 		.word	1077149736
 316              		.cfi_endproc
 317              	.LFE9:
 318              		.size	VDAC_Synth_UAB_ClearInterruptMask, .-VDAC_Synth_UAB_ClearInterruptMask
 319              		.section	.text.VDAC_Synth_UAB_GetInterruptIsMasked,"ax",%progbits
 320              		.align	1
 321              		.global	VDAC_Synth_UAB_GetInterruptIsMasked
 322              		.code	16
 323              		.thumb_func
 324              		.type	VDAC_Synth_UAB_GetInterruptIsMasked, %function
 325              	VDAC_Synth_UAB_GetInterruptIsMasked:
 326              	.LFB10:
 541:Generated_Source\PSoC4/VDAC_Synth_UAB.c **** 
 542:Generated_Source\PSoC4/VDAC_Synth_UAB.c **** /********** VDAC_Synth_UAB_GetInterruptIsMasked() ***************************/
 543:Generated_Source\PSoC4/VDAC_Synth_UAB.c **** /*!
 544:Generated_Source\PSoC4/VDAC_Synth_UAB.c **** * @brief Check for interrupt masked.
 545:Generated_Source\PSoC4/VDAC_Synth_UAB.c **** * 
 546:Generated_Source\PSoC4/VDAC_Synth_UAB.c **** * @details Return type is @c uint32 32-bit unsigned integer. Returns 1 if the passed 
 547:Generated_Source\PSoC4/VDAC_Synth_UAB.c **** interrupt is both masked and requested. Returns 0 otherwise.
 548:Generated_Source\PSoC4/VDAC_Synth_UAB.c **** * 
 549:Generated_Source\PSoC4/VDAC_Synth_UAB.c **** * @param intr 
 550:Generated_Source\PSoC4/VDAC_Synth_UAB.c **** * @arg CyUAB_INTR_COMP select comparator interrupt
 551:Generated_Source\PSoC4/VDAC_Synth_UAB.c **** * @arg CyUAB_INTR_VDAC_EMPTY select VDAC empty interrupt
 552:Generated_Source\PSoC4/VDAC_Synth_UAB.c **** *
 553:Generated_Source\PSoC4/VDAC_Synth_UAB.c **** * @internal
 554:Generated_Source\PSoC4/VDAC_Synth_UAB.c **** * @reglist VDAC_Synth_UAB_INTR_MASKED_REG
 555:Generated_Source\PSoC4/VDAC_Synth_UAB.c **** * @endinternal
 556:Generated_Source\PSoC4/VDAC_Synth_UAB.c **** *
 557:Generated_Source\PSoC4/VDAC_Synth_UAB.c **** * @see VDAC_Synth_UAB_SetInterrupt()
 558:Generated_Source\PSoC4/VDAC_Synth_UAB.c **** * @see VDAC_Synth_UAB_ClearInterrupt()
 559:Generated_Source\PSoC4/VDAC_Synth_UAB.c **** * @see VDAC_Synth_UAB_SetInterruptMask()
 560:Generated_Source\PSoC4/VDAC_Synth_UAB.c **** * @see VDAC_Synth_UAB_ClearInterruptMask()
 561:Generated_Source\PSoC4/VDAC_Synth_UAB.c **** * 
 562:Generated_Source\PSoC4/VDAC_Synth_UAB.c **** *
 563:Generated_Source\PSoC4/VDAC_Synth_UAB.c **** * @sideeffect None
 564:Generated_Source\PSoC4/VDAC_Synth_UAB.c **** *******************************************************************************/
 565:Generated_Source\PSoC4/VDAC_Synth_UAB.c **** uint32 VDAC_Synth_UAB_GetInterruptIsMasked(CyUAB_intr_enum intr)
 566:Generated_Source\PSoC4/VDAC_Synth_UAB.c **** {
ARM GAS  C:\Users\Jerry\AppData\Local\Temp\cc1IKG0O.s 			page 17


 327              		.loc 1 566 0
 328              		.cfi_startproc
 329              	.LVL21:
 567:Generated_Source\PSoC4/VDAC_Synth_UAB.c ****     uint32 r; /*return value*/
 568:Generated_Source\PSoC4/VDAC_Synth_UAB.c ****     
 569:Generated_Source\PSoC4/VDAC_Synth_UAB.c ****     /*intentionally omitting decimator interrupt - handled in decimator component*/
 570:Generated_Source\PSoC4/VDAC_Synth_UAB.c ****     
 571:Generated_Source\PSoC4/VDAC_Synth_UAB.c ****     uint32 mask = ( (CyUAB_INTR_COMP==intr)      ? ((uint32)VDAC_Synth_UAB_INTR_COMP_MASK) : 
 330              		.loc 1 571 0
 331 0000 2528     		cmp	r0, #37
 332 0002 04D0     		beq	.L42
 572:Generated_Source\PSoC4/VDAC_Synth_UAB.c ****                   ( (CyUAB_INTR_VDAC_EMPTY==intr)? ((uint32)VDAC_Synth_UAB_INTR_VDAC_EMPTY_MASK) : 
 333              		.loc 1 572 0
 334 0004 4338     		sub	r0, r0, #67
 335              	.LVL22:
 336 0006 4342     		neg	r3, r0
 337 0008 5841     		adc	r0, r0, r3
 338 000a 4004     		lsl	r0, r0, #17
 339 000c 01E0     		b	.L41
 340              	.LVL23:
 341              	.L42:
 571:Generated_Source\PSoC4/VDAC_Synth_UAB.c ****                   ( (CyUAB_INTR_VDAC_EMPTY==intr)? ((uint32)VDAC_Synth_UAB_INTR_VDAC_EMPTY_MASK) : 
 342              		.loc 1 571 0
 343 000e 8020     		mov	r0, #128
 344              	.LVL24:
 345 0010 4002     		lsl	r0, r0, #9
 346              	.L41:
 347              	.LVL25:
 573:Generated_Source\PSoC4/VDAC_Synth_UAB.c ****                   0UL ) );
 574:Generated_Source\PSoC4/VDAC_Synth_UAB.c ****     
 575:Generated_Source\PSoC4/VDAC_Synth_UAB.c ****     r = ( 0UL != ( (*(VDAC_Synth_UAB_INTR_MASKED_PTR)) & mask ) ) ? 1UL : 0UL;
 348              		.loc 1 575 0 discriminator 3
 349 0012 034B     		ldr	r3, .L44
 576:Generated_Source\PSoC4/VDAC_Synth_UAB.c ****     return r;
 577:Generated_Source\PSoC4/VDAC_Synth_UAB.c **** }
 350              		.loc 1 577 0 discriminator 3
 351              		@ sp needed
 575:Generated_Source\PSoC4/VDAC_Synth_UAB.c ****     return r;
 352              		.loc 1 575 0 discriminator 3
 353 0014 1B68     		ldr	r3, [r3]
 354              	.LVL26:
 355 0016 1840     		and	r0, r3
 356              	.LVL27:
 357 0018 431E     		sub	r3, r0, #1
 358 001a 9841     		sbc	r0, r0, r3
 359              		.loc 1 577 0 discriminator 3
 360 001c 7047     		bx	lr
 361              	.L45:
 362 001e C046     		.align	2
 363              	.L44:
 364 0020 2C003440 		.word	1077149740
 365              		.cfi_endproc
 366              	.LFE10:
 367              		.size	VDAC_Synth_UAB_GetInterruptIsMasked, .-VDAC_Synth_UAB_GetInterruptIsMasked
 368              		.section	.text.VDAC_Synth_UAB_SetUABPower,"ax",%progbits
 369              		.align	1
 370              		.global	VDAC_Synth_UAB_SetUABPower
ARM GAS  C:\Users\Jerry\AppData\Local\Temp\cc1IKG0O.s 			page 18


 371              		.code	16
 372              		.thumb_func
 373              		.type	VDAC_Synth_UAB_SetUABPower, %function
 374              	VDAC_Synth_UAB_SetUABPower:
 375              	.LFB11:
 578:Generated_Source\PSoC4/VDAC_Synth_UAB.c **** 
 579:Generated_Source\PSoC4/VDAC_Synth_UAB.c **** /*Power*/
 580:Generated_Source\PSoC4/VDAC_Synth_UAB.c **** 
 581:Generated_Source\PSoC4/VDAC_Synth_UAB.c **** /***************** VDAC_Synth_UAB_SetUABPower() *****************************/
 582:Generated_Source\PSoC4/VDAC_Synth_UAB.c **** /*!
 583:Generated_Source\PSoC4/VDAC_Synth_UAB.c **** * @brief Sets the UAB half's power mode.
 584:Generated_Source\PSoC4/VDAC_Synth_UAB.c **** * 
 585:Generated_Source\PSoC4/VDAC_Synth_UAB.c **** * @details The UAB half has several power modes available.  This sets the power
 586:Generated_Source\PSoC4/VDAC_Synth_UAB.c **** * reference that is used for the active components as well, that is, the op-amp
 587:Generated_Source\PSoC4/VDAC_Synth_UAB.c **** * and comparator have settings that are HI, MED, and LOW relative to the entire
 588:Generated_Source\PSoC4/VDAC_Synth_UAB.c **** * UAB half's power.
 589:Generated_Source\PSoC4/VDAC_Synth_UAB.c **** * 
 590:Generated_Source\PSoC4/VDAC_Synth_UAB.c **** * @internal
 591:Generated_Source\PSoC4/VDAC_Synth_UAB.c **** * @reglist @reg VDAC_Synth_UAB_OA0_CTRL @reg VDAC_Synth_UAB_OA1_CTRL
 592:Generated_Source\PSoC4/VDAC_Synth_UAB.c **** * @endinternal
 593:Generated_Source\PSoC4/VDAC_Synth_UAB.c **** * 
 594:Generated_Source\PSoC4/VDAC_Synth_UAB.c **** * @see VDAC_Synth_UAB_Stop()
 595:Generated_Source\PSoC4/VDAC_Synth_UAB.c **** * @see VDAC_Synth_UAB_SetOAPower()
 596:Generated_Source\PSoC4/VDAC_Synth_UAB.c **** * @see VDAC_Synth_UAB_SetCompPower()
 597:Generated_Source\PSoC4/VDAC_Synth_UAB.c **** * @see VDAC_Synth_UAB_SetRefPower()
 598:Generated_Source\PSoC4/VDAC_Synth_UAB.c **** * @see VDAC_Synth_UAB_SetAgndPower()
 599:Generated_Source\PSoC4/VDAC_Synth_UAB.c **** * 
 600:Generated_Source\PSoC4/VDAC_Synth_UAB.c **** * @sideeffect None
 601:Generated_Source\PSoC4/VDAC_Synth_UAB.c **** *******************************************************************************/
 602:Generated_Source\PSoC4/VDAC_Synth_UAB.c **** void VDAC_Synth_UAB_SetUABPower(CyUAB_coarse_pwr_enum powerLevel)
 603:Generated_Source\PSoC4/VDAC_Synth_UAB.c **** {
 376              		.loc 1 603 0
 377              		.cfi_startproc
 378              	.LVL28:
 604:Generated_Source\PSoC4/VDAC_Synth_UAB.c ****     VDAC_Synth_UAB_SET_FIELD(
 379              		.loc 1 604 0
 380 0000 034A     		ldr	r2, .L47
 381 0002 8007     		lsl	r0, r0, #30
 382              	.LVL29:
 383 0004 1368     		ldr	r3, [r2]
 605:Generated_Source\PSoC4/VDAC_Synth_UAB.c ****       VDAC_Synth_UAB_OA_CTRL_PTR, 
 606:Generated_Source\PSoC4/VDAC_Synth_UAB.c ****       VDAC_Synth_UAB_UAB_PWR_MASK, 
 607:Generated_Source\PSoC4/VDAC_Synth_UAB.c ****       ((uint32)powerLevel), 
 608:Generated_Source\PSoC4/VDAC_Synth_UAB.c ****       VDAC_Synth_UAB_UAB_PWR_SHIFT
 609:Generated_Source\PSoC4/VDAC_Synth_UAB.c ****     );
 610:Generated_Source\PSoC4/VDAC_Synth_UAB.c **** }
 384              		.loc 1 610 0
 385              		@ sp needed
 604:Generated_Source\PSoC4/VDAC_Synth_UAB.c ****     VDAC_Synth_UAB_SET_FIELD(
 386              		.loc 1 604 0
 387 0006 9B00     		lsl	r3, r3, #2
 388 0008 9B08     		lsr	r3, r3, #2
 389 000a 1843     		orr	r0, r3
 390 000c 1060     		str	r0, [r2]
 391              		.loc 1 610 0
 392 000e 7047     		bx	lr
 393              	.L48:
ARM GAS  C:\Users\Jerry\AppData\Local\Temp\cc1IKG0O.s 			page 19


 394              		.align	2
 395              	.L47:
 396 0010 00033440 		.word	1077150464
 397              		.cfi_endproc
 398              	.LFE11:
 399              		.size	VDAC_Synth_UAB_SetUABPower, .-VDAC_Synth_UAB_SetUABPower
 400              		.section	.text.VDAC_Synth_UAB_SetOAPower,"ax",%progbits
 401              		.align	1
 402              		.global	VDAC_Synth_UAB_SetOAPower
 403              		.code	16
 404              		.thumb_func
 405              		.type	VDAC_Synth_UAB_SetOAPower, %function
 406              	VDAC_Synth_UAB_SetOAPower:
 407              	.LFB12:
 611:Generated_Source\PSoC4/VDAC_Synth_UAB.c **** 
 612:Generated_Source\PSoC4/VDAC_Synth_UAB.c **** 
 613:Generated_Source\PSoC4/VDAC_Synth_UAB.c **** /************* VDAC_Synth_UAB_SetOAPower() **********************************/
 614:Generated_Source\PSoC4/VDAC_Synth_UAB.c **** /*!
 615:Generated_Source\PSoC4/VDAC_Synth_UAB.c **** * @brief Set the op-amp power level.
 616:Generated_Source\PSoC4/VDAC_Synth_UAB.c **** * 
 617:Generated_Source\PSoC4/VDAC_Synth_UAB.c **** * @details The power of the op-amp is relative to the power mode of the UAB. 
 618:Generated_Source\PSoC4/VDAC_Synth_UAB.c **** * This function sets that relative setting.  Returns @c void.
 619:Generated_Source\PSoC4/VDAC_Synth_UAB.c **** * 
 620:Generated_Source\PSoC4/VDAC_Synth_UAB.c **** * @internal
 621:Generated_Source\PSoC4/VDAC_Synth_UAB.c **** * @reglist @reg VDAC_Synth_UAB_OA0_CTRL @reg VDAC_Synth_UAB_OA1_CTRL
 622:Generated_Source\PSoC4/VDAC_Synth_UAB.c **** * @image html _.png 
 623:Generated_Source\PSoC4/VDAC_Synth_UAB.c **** * @endinternal
 624:Generated_Source\PSoC4/VDAC_Synth_UAB.c **** * 
 625:Generated_Source\PSoC4/VDAC_Synth_UAB.c **** * @see VDAC_Synth_UAB_SetUABPower()
 626:Generated_Source\PSoC4/VDAC_Synth_UAB.c **** * @sideeffect None
 627:Generated_Source\PSoC4/VDAC_Synth_UAB.c **** *******************************************************************************/
 628:Generated_Source\PSoC4/VDAC_Synth_UAB.c **** void VDAC_Synth_UAB_SetOAPower(CyUAB_fine_pwr_enum powerLevel)
 629:Generated_Source\PSoC4/VDAC_Synth_UAB.c **** {
 408              		.loc 1 629 0
 409              		.cfi_startproc
 410              	.LVL30:
 630:Generated_Source\PSoC4/VDAC_Synth_UAB.c ****     VDAC_Synth_UAB_SET_FIELD(
 411              		.loc 1 630 0
 412 0000 0721     		mov	r1, #7
 413 0002 034A     		ldr	r2, .L50
 414 0004 0840     		and	r0, r1
 415              	.LVL31:
 416 0006 1368     		ldr	r3, [r2]
 631:Generated_Source\PSoC4/VDAC_Synth_UAB.c ****       VDAC_Synth_UAB_OA_CTRL_PTR, 
 632:Generated_Source\PSoC4/VDAC_Synth_UAB.c ****       VDAC_Synth_UAB_OA_PWR_MASK, 
 633:Generated_Source\PSoC4/VDAC_Synth_UAB.c ****       ((uint32)powerLevel), 
 634:Generated_Source\PSoC4/VDAC_Synth_UAB.c ****       VDAC_Synth_UAB_OA_PWR_SHIFT
 635:Generated_Source\PSoC4/VDAC_Synth_UAB.c ****     );
 636:Generated_Source\PSoC4/VDAC_Synth_UAB.c **** }
 417              		.loc 1 636 0
 418              		@ sp needed
 630:Generated_Source\PSoC4/VDAC_Synth_UAB.c ****     VDAC_Synth_UAB_SET_FIELD(
 419              		.loc 1 630 0
 420 0008 8B43     		bic	r3, r1
 421 000a 1843     		orr	r0, r3
 422 000c 1060     		str	r0, [r2]
 423              		.loc 1 636 0
ARM GAS  C:\Users\Jerry\AppData\Local\Temp\cc1IKG0O.s 			page 20


 424 000e 7047     		bx	lr
 425              	.L51:
 426              		.align	2
 427              	.L50:
 428 0010 00033440 		.word	1077150464
 429              		.cfi_endproc
 430              	.LFE12:
 431              		.size	VDAC_Synth_UAB_SetOAPower, .-VDAC_Synth_UAB_SetOAPower
 432              		.section	.text.VDAC_Synth_UAB_SetCompPower,"ax",%progbits
 433              		.align	1
 434              		.global	VDAC_Synth_UAB_SetCompPower
 435              		.code	16
 436              		.thumb_func
 437              		.type	VDAC_Synth_UAB_SetCompPower, %function
 438              	VDAC_Synth_UAB_SetCompPower:
 439              	.LFB13:
 637:Generated_Source\PSoC4/VDAC_Synth_UAB.c **** 
 638:Generated_Source\PSoC4/VDAC_Synth_UAB.c **** 
 639:Generated_Source\PSoC4/VDAC_Synth_UAB.c **** /******************** VDAC_Synth_UAB_SetCompPower() *************************/
 640:Generated_Source\PSoC4/VDAC_Synth_UAB.c **** /*!
 641:Generated_Source\PSoC4/VDAC_Synth_UAB.c **** * @brief Set the comparator power level.
 642:Generated_Source\PSoC4/VDAC_Synth_UAB.c **** * 
 643:Generated_Source\PSoC4/VDAC_Synth_UAB.c **** * @details The power of the comparator is relative to the power mode of the UAB.
 644:Generated_Source\PSoC4/VDAC_Synth_UAB.c **** * This function sets that relative setting.  Returns @c void.
 645:Generated_Source\PSoC4/VDAC_Synth_UAB.c **** * 
 646:Generated_Source\PSoC4/VDAC_Synth_UAB.c **** * @internal
 647:Generated_Source\PSoC4/VDAC_Synth_UAB.c **** * @reglist @reg VDAC_Synth_UAB_OA0_CTRL @reg VDAC_Synth_UAB_OA1_CTRL
 648:Generated_Source\PSoC4/VDAC_Synth_UAB.c **** * @image html SetCompPower.png 
 649:Generated_Source\PSoC4/VDAC_Synth_UAB.c **** * @endinternal
 650:Generated_Source\PSoC4/VDAC_Synth_UAB.c **** *
 651:Generated_Source\PSoC4/VDAC_Synth_UAB.c **** * @see VDAC_Synth_UAB_SetUABPower()
 652:Generated_Source\PSoC4/VDAC_Synth_UAB.c **** *
 653:Generated_Source\PSoC4/VDAC_Synth_UAB.c **** * @sideeffect None
 654:Generated_Source\PSoC4/VDAC_Synth_UAB.c **** *******************************************************************************/
 655:Generated_Source\PSoC4/VDAC_Synth_UAB.c **** void VDAC_Synth_UAB_SetCompPower(CyUAB_fine_pwr_enum powerLevel)
 656:Generated_Source\PSoC4/VDAC_Synth_UAB.c **** {  
 440              		.loc 1 656 0
 441              		.cfi_startproc
 442              	.LVL32:
 443 0000 021C     		mov	r2, r0
 657:Generated_Source\PSoC4/VDAC_Synth_UAB.c ****     VDAC_Synth_UAB_SET_FIELD(
 444              		.loc 1 657 0
 445 0002 E021     		mov	r1, #224
 656:Generated_Source\PSoC4/VDAC_Synth_UAB.c ****     VDAC_Synth_UAB_SET_FIELD(
 446              		.loc 1 656 0
 447 0004 10B5     		push	{r4, lr}
 448              		.cfi_def_cfa_offset 8
 449              		.cfi_offset 4, -8
 450              		.cfi_offset 14, -4
 451              		.loc 1 657 0
 452 0006 054C     		ldr	r4, .L53
 453 0008 054B     		ldr	r3, .L53+4
 454 000a 2068     		ldr	r0, [r4]
 455              	.LVL33:
 456 000c C900     		lsl	r1, r1, #3
 457 000e 1202     		lsl	r2, r2, #8
 458 0010 0A40     		and	r2, r1
ARM GAS  C:\Users\Jerry\AppData\Local\Temp\cc1IKG0O.s 			page 21


 459 0012 0340     		and	r3, r0
 460 0014 1A43     		orr	r2, r3
 461 0016 2260     		str	r2, [r4]
 658:Generated_Source\PSoC4/VDAC_Synth_UAB.c ****       VDAC_Synth_UAB_OA_CTRL_PTR, 
 659:Generated_Source\PSoC4/VDAC_Synth_UAB.c ****       VDAC_Synth_UAB_CMP_PWR_MASK, 
 660:Generated_Source\PSoC4/VDAC_Synth_UAB.c ****       ((uint32)powerLevel), 
 661:Generated_Source\PSoC4/VDAC_Synth_UAB.c ****       VDAC_Synth_UAB_CMP_PWR_SHIFT
 662:Generated_Source\PSoC4/VDAC_Synth_UAB.c ****     );
 663:Generated_Source\PSoC4/VDAC_Synth_UAB.c **** }
 462              		.loc 1 663 0
 463              		@ sp needed
 464 0018 10BD     		pop	{r4, pc}
 465              	.L54:
 466 001a C046     		.align	2
 467              	.L53:
 468 001c 00033440 		.word	1077150464
 469 0020 FFF8FFFF 		.word	-1793
 470              		.cfi_endproc
 471              	.LFE13:
 472              		.size	VDAC_Synth_UAB_SetCompPower, .-VDAC_Synth_UAB_SetCompPower
 473              		.section	.text.VDAC_Synth_UAB_SetRefPower,"ax",%progbits
 474              		.align	1
 475              		.global	VDAC_Synth_UAB_SetRefPower
 476              		.code	16
 477              		.thumb_func
 478              		.type	VDAC_Synth_UAB_SetRefPower, %function
 479              	VDAC_Synth_UAB_SetRefPower:
 480              	.LFB14:
 664:Generated_Source\PSoC4/VDAC_Synth_UAB.c **** 
 665:Generated_Source\PSoC4/VDAC_Synth_UAB.c **** 
 666:Generated_Source\PSoC4/VDAC_Synth_UAB.c **** /***************** VDAC_Synth_UAB_SetRefPower *******************************/
 667:Generated_Source\PSoC4/VDAC_Synth_UAB.c **** /*!
 668:Generated_Source\PSoC4/VDAC_Synth_UAB.c **** * @brief Set the power level of the buffer for the reference voltage.
 669:Generated_Source\PSoC4/VDAC_Synth_UAB.c **** * 
 670:Generated_Source\PSoC4/VDAC_Synth_UAB.c **** * @details There are two buffered inputs: reference and analog-ground.  This 
 671:Generated_Source\PSoC4/VDAC_Synth_UAB.c **** * function sets the power of the reference buffer--which connects to the 
 672:Generated_Source\PSoC4/VDAC_Synth_UAB.c **** * VDAC_Synth_UAB_NET_REF signal--relative to the power mode of the UAB. Returns @c void.
 673:Generated_Source\PSoC4/VDAC_Synth_UAB.c **** * 
 674:Generated_Source\PSoC4/VDAC_Synth_UAB.c **** * @internal
 675:Generated_Source\PSoC4/VDAC_Synth_UAB.c **** * @reglist @reg VDAC_Synth_UAB_OA0_CTRL @reg VDAC_Synth_UAB_OA1_CTRL
 676:Generated_Source\PSoC4/VDAC_Synth_UAB.c **** * @image html SetRefPower.png 
 677:Generated_Source\PSoC4/VDAC_Synth_UAB.c **** * @endinternal
 678:Generated_Source\PSoC4/VDAC_Synth_UAB.c **** * 
 679:Generated_Source\PSoC4/VDAC_Synth_UAB.c **** * @see VDAC_Synth_UAB_SetUABPower()
 680:Generated_Source\PSoC4/VDAC_Synth_UAB.c **** * 
 681:Generated_Source\PSoC4/VDAC_Synth_UAB.c **** * @sideeffect None
 682:Generated_Source\PSoC4/VDAC_Synth_UAB.c **** *******************************************************************************/
 683:Generated_Source\PSoC4/VDAC_Synth_UAB.c **** void VDAC_Synth_UAB_SetRefPower(CyUAB_fine_pwr_enum powerLevel)
 684:Generated_Source\PSoC4/VDAC_Synth_UAB.c **** {
 481              		.loc 1 684 0
 482              		.cfi_startproc
 483              	.LVL34:
 484 0000 021C     		mov	r2, r0
 685:Generated_Source\PSoC4/VDAC_Synth_UAB.c ****     VDAC_Synth_UAB_SET_FIELD(
 485              		.loc 1 685 0
 486 0002 E021     		mov	r1, #224
 684:Generated_Source\PSoC4/VDAC_Synth_UAB.c ****     VDAC_Synth_UAB_SET_FIELD(
ARM GAS  C:\Users\Jerry\AppData\Local\Temp\cc1IKG0O.s 			page 22


 487              		.loc 1 684 0
 488 0004 10B5     		push	{r4, lr}
 489              		.cfi_def_cfa_offset 8
 490              		.cfi_offset 4, -8
 491              		.cfi_offset 14, -4
 492              		.loc 1 685 0
 493 0006 054C     		ldr	r4, .L56
 494 0008 054B     		ldr	r3, .L56+4
 495 000a 2068     		ldr	r0, [r4]
 496              	.LVL35:
 497 000c C902     		lsl	r1, r1, #11
 498 000e 1204     		lsl	r2, r2, #16
 499 0010 0A40     		and	r2, r1
 500 0012 0340     		and	r3, r0
 501 0014 1A43     		orr	r2, r3
 502 0016 2260     		str	r2, [r4]
 686:Generated_Source\PSoC4/VDAC_Synth_UAB.c ****       VDAC_Synth_UAB_OA_CTRL_PTR, 
 687:Generated_Source\PSoC4/VDAC_Synth_UAB.c ****       VDAC_Synth_UAB_REF_PWR_MASK, 
 688:Generated_Source\PSoC4/VDAC_Synth_UAB.c ****       ((uint32)powerLevel), 
 689:Generated_Source\PSoC4/VDAC_Synth_UAB.c ****       VDAC_Synth_UAB_REF_PWR_SHIFT
 690:Generated_Source\PSoC4/VDAC_Synth_UAB.c ****     );
 691:Generated_Source\PSoC4/VDAC_Synth_UAB.c **** }
 503              		.loc 1 691 0
 504              		@ sp needed
 505 0018 10BD     		pop	{r4, pc}
 506              	.L57:
 507 001a C046     		.align	2
 508              	.L56:
 509 001c 00033440 		.word	1077150464
 510 0020 FFFFF8FF 		.word	-458753
 511              		.cfi_endproc
 512              	.LFE14:
 513              		.size	VDAC_Synth_UAB_SetRefPower, .-VDAC_Synth_UAB_SetRefPower
 514              		.section	.text.VDAC_Synth_UAB_SetAgndPower,"ax",%progbits
 515              		.align	1
 516              		.global	VDAC_Synth_UAB_SetAgndPower
 517              		.code	16
 518              		.thumb_func
 519              		.type	VDAC_Synth_UAB_SetAgndPower, %function
 520              	VDAC_Synth_UAB_SetAgndPower:
 521              	.LFB15:
 692:Generated_Source\PSoC4/VDAC_Synth_UAB.c **** 
 693:Generated_Source\PSoC4/VDAC_Synth_UAB.c **** 
 694:Generated_Source\PSoC4/VDAC_Synth_UAB.c **** /**************** VDAC_Synth_UAB_SetAgndPower() *****************************/
 695:Generated_Source\PSoC4/VDAC_Synth_UAB.c **** /*!
 696:Generated_Source\PSoC4/VDAC_Synth_UAB.c **** * @brief Set the power level of the buffer for the analog-ground voltage.
 697:Generated_Source\PSoC4/VDAC_Synth_UAB.c **** * 
 698:Generated_Source\PSoC4/VDAC_Synth_UAB.c **** * @details There are two buffered inputs: reference and analog-ground.  This 
 699:Generated_Source\PSoC4/VDAC_Synth_UAB.c **** * function sets the power of the analog-ground buffer--which connects to the 
 700:Generated_Source\PSoC4/VDAC_Synth_UAB.c **** * VDAC_Synth_UAB_NET_REF signal--relative to the power mode of the UAB. Returns @c void.
 701:Generated_Source\PSoC4/VDAC_Synth_UAB.c **** * 
 702:Generated_Source\PSoC4/VDAC_Synth_UAB.c **** * @internal
 703:Generated_Source\PSoC4/VDAC_Synth_UAB.c **** * @reglist @reg VDAC_Synth_UAB_OA0_CTRL @reg VDAC_Synth_UAB_OA1_CTRL
 704:Generated_Source\PSoC4/VDAC_Synth_UAB.c **** * @image html SetAgndPower.png 
 705:Generated_Source\PSoC4/VDAC_Synth_UAB.c **** * @endinternal
 706:Generated_Source\PSoC4/VDAC_Synth_UAB.c **** * 
 707:Generated_Source\PSoC4/VDAC_Synth_UAB.c **** * @see VDAC_Synth_UAB_SetUABPower()
ARM GAS  C:\Users\Jerry\AppData\Local\Temp\cc1IKG0O.s 			page 23


 708:Generated_Source\PSoC4/VDAC_Synth_UAB.c **** * 
 709:Generated_Source\PSoC4/VDAC_Synth_UAB.c **** * @sideeffect None
 710:Generated_Source\PSoC4/VDAC_Synth_UAB.c **** *******************************************************************************/
 711:Generated_Source\PSoC4/VDAC_Synth_UAB.c **** void VDAC_Synth_UAB_SetAgndPower(CyUAB_fine_pwr_enum powerLevel)
 712:Generated_Source\PSoC4/VDAC_Synth_UAB.c **** {
 522              		.loc 1 712 0
 523              		.cfi_startproc
 524              	.LVL36:
 525 0000 021C     		mov	r2, r0
 713:Generated_Source\PSoC4/VDAC_Synth_UAB.c ****     VDAC_Synth_UAB_SET_FIELD(
 526              		.loc 1 713 0
 527 0002 E021     		mov	r1, #224
 712:Generated_Source\PSoC4/VDAC_Synth_UAB.c ****     VDAC_Synth_UAB_SET_FIELD(
 528              		.loc 1 712 0
 529 0004 10B5     		push	{r4, lr}
 530              		.cfi_def_cfa_offset 8
 531              		.cfi_offset 4, -8
 532              		.cfi_offset 14, -4
 533              		.loc 1 713 0
 534 0006 054C     		ldr	r4, .L59
 535 0008 054B     		ldr	r3, .L59+4
 536 000a 2068     		ldr	r0, [r4]
 537              	.LVL37:
 538 000c C903     		lsl	r1, r1, #15
 539 000e 1205     		lsl	r2, r2, #20
 540 0010 0A40     		and	r2, r1
 541 0012 0340     		and	r3, r0
 542 0014 1A43     		orr	r2, r3
 543 0016 2260     		str	r2, [r4]
 714:Generated_Source\PSoC4/VDAC_Synth_UAB.c ****       VDAC_Synth_UAB_OA_CTRL_PTR, 
 715:Generated_Source\PSoC4/VDAC_Synth_UAB.c ****       VDAC_Synth_UAB_AGND_PWR_MASK, 
 716:Generated_Source\PSoC4/VDAC_Synth_UAB.c ****       ((uint32)powerLevel), 
 717:Generated_Source\PSoC4/VDAC_Synth_UAB.c ****       VDAC_Synth_UAB_AGND_PWR_SHIFT
 718:Generated_Source\PSoC4/VDAC_Synth_UAB.c ****     );
 719:Generated_Source\PSoC4/VDAC_Synth_UAB.c **** }
 544              		.loc 1 719 0
 545              		@ sp needed
 546 0018 10BD     		pop	{r4, pc}
 547              	.L60:
 548 001a C046     		.align	2
 549              	.L59:
 550 001c 00033440 		.word	1077150464
 551 0020 FFFF8FFF 		.word	-7340033
 552              		.cfi_endproc
 553              	.LFE15:
 554              		.size	VDAC_Synth_UAB_SetAgndPower, .-VDAC_Synth_UAB_SetAgndPower
 555              		.section	.text.VDAC_Synth_UAB_SetRefVdda,"ax",%progbits
 556              		.align	1
 557              		.global	VDAC_Synth_UAB_SetRefVdda
 558              		.code	16
 559              		.thumb_func
 560              		.type	VDAC_Synth_UAB_SetRefVdda, %function
 561              	VDAC_Synth_UAB_SetRefVdda:
 562              	.LFB16:
 720:Generated_Source\PSoC4/VDAC_Synth_UAB.c **** 
 721:Generated_Source\PSoC4/VDAC_Synth_UAB.c **** 
 722:Generated_Source\PSoC4/VDAC_Synth_UAB.c **** /**************** VDAC_Synth_UAB_SetRefVdda() *******************************/
ARM GAS  C:\Users\Jerry\AppData\Local\Temp\cc1IKG0O.s 			page 24


 723:Generated_Source\PSoC4/VDAC_Synth_UAB.c **** /*!
 724:Generated_Source\PSoC4/VDAC_Synth_UAB.c **** * @brief Force buffered ref to VDDA.
 725:Generated_Source\PSoC4/VDAC_Synth_UAB.c **** * 
 726:Generated_Source\PSoC4/VDAC_Synth_UAB.c **** * @details Replace ref buffer output with VDDA (REFx_PTS). Returns @c void.
 727:Generated_Source\PSoC4/VDAC_Synth_UAB.c **** *
 728:Generated_Source\PSoC4/VDAC_Synth_UAB.c **** * @param forceVdda
 729:Generated_Source\PSoC4/VDAC_Synth_UAB.c **** * @arg 0 use routed reference
 730:Generated_Source\PSoC4/VDAC_Synth_UAB.c **** * @arg 1 use vdda for reference 
 731:Generated_Source\PSoC4/VDAC_Synth_UAB.c **** *
 732:Generated_Source\PSoC4/VDAC_Synth_UAB.c **** * @internal
 733:Generated_Source\PSoC4/VDAC_Synth_UAB.c **** * @reglist @reg VDAC_Synth_UAB_OA0_CTRL @reg VDAC_Synth_UAB_OA1_CTRL
 734:Generated_Source\PSoC4/VDAC_Synth_UAB.c **** * @image html _.png 
 735:Generated_Source\PSoC4/VDAC_Synth_UAB.c **** * @endinternal
 736:Generated_Source\PSoC4/VDAC_Synth_UAB.c **** * 
 737:Generated_Source\PSoC4/VDAC_Synth_UAB.c **** * @sideeffect None
 738:Generated_Source\PSoC4/VDAC_Synth_UAB.c **** *******************************************************************************/
 739:Generated_Source\PSoC4/VDAC_Synth_UAB.c **** void VDAC_Synth_UAB_SetRefVdda(CyUAB_ref_force_vdda_enum forceVdda)
 740:Generated_Source\PSoC4/VDAC_Synth_UAB.c **** {
 563              		.loc 1 740 0
 564              		.cfi_startproc
 565              	.LVL38:
 566 0000 021C     		mov	r2, r0
 741:Generated_Source\PSoC4/VDAC_Synth_UAB.c ****     VDAC_Synth_UAB_SET_FIELD(
 567              		.loc 1 741 0
 568 0002 8021     		mov	r1, #128
 740:Generated_Source\PSoC4/VDAC_Synth_UAB.c ****     VDAC_Synth_UAB_SET_FIELD(
 569              		.loc 1 740 0
 570 0004 10B5     		push	{r4, lr}
 571              		.cfi_def_cfa_offset 8
 572              		.cfi_offset 4, -8
 573              		.cfi_offset 14, -4
 574              		.loc 1 741 0
 575 0006 054C     		ldr	r4, .L62
 576 0008 054B     		ldr	r3, .L62+4
 577 000a 2068     		ldr	r0, [r4]
 578              	.LVL39:
 579 000c 0903     		lsl	r1, r1, #12
 580 000e D204     		lsl	r2, r2, #19
 581 0010 0A40     		and	r2, r1
 582 0012 0340     		and	r3, r0
 583 0014 1A43     		orr	r2, r3
 584 0016 2260     		str	r2, [r4]
 742:Generated_Source\PSoC4/VDAC_Synth_UAB.c ****       VDAC_Synth_UAB_OA_CTRL_PTR, 
 743:Generated_Source\PSoC4/VDAC_Synth_UAB.c ****       VDAC_Synth_UAB_REF_PTS_MASK, 
 744:Generated_Source\PSoC4/VDAC_Synth_UAB.c ****       ((uint32)forceVdda), 
 745:Generated_Source\PSoC4/VDAC_Synth_UAB.c ****       VDAC_Synth_UAB_REF_PTS_SHIFT
 746:Generated_Source\PSoC4/VDAC_Synth_UAB.c ****     );
 747:Generated_Source\PSoC4/VDAC_Synth_UAB.c **** }
 585              		.loc 1 747 0
 586              		@ sp needed
 587 0018 10BD     		pop	{r4, pc}
 588              	.L63:
 589 001a C046     		.align	2
 590              	.L62:
 591 001c 00033440 		.word	1077150464
 592 0020 FFFFF7FF 		.word	-524289
 593              		.cfi_endproc
ARM GAS  C:\Users\Jerry\AppData\Local\Temp\cc1IKG0O.s 			page 25


 594              	.LFE16:
 595              		.size	VDAC_Synth_UAB_SetRefVdda, .-VDAC_Synth_UAB_SetRefVdda
 596              		.section	.text.VDAC_Synth_UAB_SetAgndVdda,"ax",%progbits
 597              		.align	1
 598              		.global	VDAC_Synth_UAB_SetAgndVdda
 599              		.code	16
 600              		.thumb_func
 601              		.type	VDAC_Synth_UAB_SetAgndVdda, %function
 602              	VDAC_Synth_UAB_SetAgndVdda:
 603              	.LFB17:
 748:Generated_Source\PSoC4/VDAC_Synth_UAB.c **** 
 749:Generated_Source\PSoC4/VDAC_Synth_UAB.c **** 
 750:Generated_Source\PSoC4/VDAC_Synth_UAB.c **** /*************** VDAC_Synth_UAB_SetAgndVdda() *******************************/
 751:Generated_Source\PSoC4/VDAC_Synth_UAB.c **** /*!
 752:Generated_Source\PSoC4/VDAC_Synth_UAB.c **** * @brief Force buffered agnd to VDDA.
 753:Generated_Source\PSoC4/VDAC_Synth_UAB.c **** * 
 754:Generated_Source\PSoC4/VDAC_Synth_UAB.c **** * @details Replace analog ground buffer output with VDDA. (AGNDx_PTS). Returns @c void.
 755:Generated_Source\PSoC4/VDAC_Synth_UAB.c **** * 
 756:Generated_Source\PSoC4/VDAC_Synth_UAB.c **** * @param forceVdda
 757:Generated_Source\PSoC4/VDAC_Synth_UAB.c **** * @arg 0 use routed reference
 758:Generated_Source\PSoC4/VDAC_Synth_UAB.c **** * @arg 1 use vdda for reference
 759:Generated_Source\PSoC4/VDAC_Synth_UAB.c **** *
 760:Generated_Source\PSoC4/VDAC_Synth_UAB.c **** * @internal
 761:Generated_Source\PSoC4/VDAC_Synth_UAB.c **** * @reglist @reg VDAC_Synth_UAB_OA0_CTRL @reg VDAC_Synth_UAB_OA1_CTRL
 762:Generated_Source\PSoC4/VDAC_Synth_UAB.c **** * @image html _.png 
 763:Generated_Source\PSoC4/VDAC_Synth_UAB.c **** * @endinternal
 764:Generated_Source\PSoC4/VDAC_Synth_UAB.c **** * 
 765:Generated_Source\PSoC4/VDAC_Synth_UAB.c **** * @sideeffect None
 766:Generated_Source\PSoC4/VDAC_Synth_UAB.c **** *******************************************************************************/
 767:Generated_Source\PSoC4/VDAC_Synth_UAB.c **** void VDAC_Synth_UAB_SetAgndVdda(CyUAB_agnd_force_vdda_enum forceVdda)
 768:Generated_Source\PSoC4/VDAC_Synth_UAB.c **** {
 604              		.loc 1 768 0
 605              		.cfi_startproc
 606              	.LVL40:
 607 0000 021C     		mov	r2, r0
 769:Generated_Source\PSoC4/VDAC_Synth_UAB.c ****     VDAC_Synth_UAB_SET_FIELD(
 608              		.loc 1 769 0
 609 0002 8021     		mov	r1, #128
 768:Generated_Source\PSoC4/VDAC_Synth_UAB.c ****     VDAC_Synth_UAB_SET_FIELD(
 610              		.loc 1 768 0
 611 0004 10B5     		push	{r4, lr}
 612              		.cfi_def_cfa_offset 8
 613              		.cfi_offset 4, -8
 614              		.cfi_offset 14, -4
 615              		.loc 1 769 0
 616 0006 054C     		ldr	r4, .L65
 617 0008 054B     		ldr	r3, .L65+4
 618 000a 2068     		ldr	r0, [r4]
 619              	.LVL41:
 620 000c 0904     		lsl	r1, r1, #16
 621 000e D205     		lsl	r2, r2, #23
 622 0010 0A40     		and	r2, r1
 623 0012 0340     		and	r3, r0
 624 0014 1A43     		orr	r2, r3
 625 0016 2260     		str	r2, [r4]
 770:Generated_Source\PSoC4/VDAC_Synth_UAB.c ****       VDAC_Synth_UAB_OA_CTRL_PTR, 
 771:Generated_Source\PSoC4/VDAC_Synth_UAB.c ****       VDAC_Synth_UAB_AGND_PTS_MASK, 
ARM GAS  C:\Users\Jerry\AppData\Local\Temp\cc1IKG0O.s 			page 26


 772:Generated_Source\PSoC4/VDAC_Synth_UAB.c ****       ((uint32)forceVdda), 
 773:Generated_Source\PSoC4/VDAC_Synth_UAB.c ****       VDAC_Synth_UAB_AGND_PTS_SHIFT
 774:Generated_Source\PSoC4/VDAC_Synth_UAB.c ****     );
 775:Generated_Source\PSoC4/VDAC_Synth_UAB.c **** }
 626              		.loc 1 775 0
 627              		@ sp needed
 628 0018 10BD     		pop	{r4, pc}
 629              	.L66:
 630 001a C046     		.align	2
 631              	.L65:
 632 001c 00033440 		.word	1077150464
 633 0020 FFFF7FFF 		.word	-8388609
 634              		.cfi_endproc
 635              	.LFE17:
 636              		.size	VDAC_Synth_UAB_SetAgndVdda, .-VDAC_Synth_UAB_SetAgndVdda
 637              		.section	.text.VDAC_Synth_UAB_SetRefTied,"ax",%progbits
 638              		.align	1
 639              		.global	VDAC_Synth_UAB_SetRefTied
 640              		.code	16
 641              		.thumb_func
 642              		.type	VDAC_Synth_UAB_SetRefTied, %function
 643              	VDAC_Synth_UAB_SetRefTied:
 644              	.LFB18:
 776:Generated_Source\PSoC4/VDAC_Synth_UAB.c **** 
 777:Generated_Source\PSoC4/VDAC_Synth_UAB.c **** 
 778:Generated_Source\PSoC4/VDAC_Synth_UAB.c **** /************* VDAC_Synth_UAB_SetRefTied() **********************************/
 779:Generated_Source\PSoC4/VDAC_Synth_UAB.c **** /*!
 780:Generated_Source\PSoC4/VDAC_Synth_UAB.c **** * @brief Ties the outputs of the reference buffers of the two UAB-halves together.
 781:Generated_Source\PSoC4/VDAC_Synth_UAB.c **** * 
 782:Generated_Source\PSoC4/VDAC_Synth_UAB.c **** * @details The reference buffers of this half-UAB and its sibling half-UAB can be
 783:Generated_Source\PSoC4/VDAC_Synth_UAB.c **** * tied together.
 784:Generated_Source\PSoC4/VDAC_Synth_UAB.c **** * 
 785:Generated_Source\PSoC4/VDAC_Synth_UAB.c **** * @param refTied
 786:Generated_Source\PSoC4/VDAC_Synth_UAB.c **** * @arg 0 references not shared
 787:Generated_Source\PSoC4/VDAC_Synth_UAB.c **** * @arg 1 references shared
 788:Generated_Source\PSoC4/VDAC_Synth_UAB.c **** *
 789:Generated_Source\PSoC4/VDAC_Synth_UAB.c **** * @note Make sure that one of the reference buffers is disabled before tying them
 790:Generated_Source\PSoC4/VDAC_Synth_UAB.c **** * together.
 791:Generated_Source\PSoC4/VDAC_Synth_UAB.c **** *
 792:Generated_Source\PSoC4/VDAC_Synth_UAB.c **** * @internal
 793:Generated_Source\PSoC4/VDAC_Synth_UAB.c **** * @reglist @reg VDAC_Synth_UAB_OA1_CTRL
 794:Generated_Source\PSoC4/VDAC_Synth_UAB.c **** * @image html _.png 
 795:Generated_Source\PSoC4/VDAC_Synth_UAB.c **** * @endinternal
 796:Generated_Source\PSoC4/VDAC_Synth_UAB.c **** * 
 797:Generated_Source\PSoC4/VDAC_Synth_UAB.c **** * 
 798:Generated_Source\PSoC4/VDAC_Synth_UAB.c **** * @see VDAC_Synth_UAB_SetAgndTied()
 799:Generated_Source\PSoC4/VDAC_Synth_UAB.c **** * 
 800:Generated_Source\PSoC4/VDAC_Synth_UAB.c **** * @sideeffect None
 801:Generated_Source\PSoC4/VDAC_Synth_UAB.c **** *******************************************************************************/
 802:Generated_Source\PSoC4/VDAC_Synth_UAB.c **** void VDAC_Synth_UAB_SetRefTied( CyUAB_ref_tied_enum refTied)
 803:Generated_Source\PSoC4/VDAC_Synth_UAB.c **** {
 645              		.loc 1 803 0
 646              		.cfi_startproc
 647              	.LVL42:
 648 0000 021C     		mov	r2, r0
 804:Generated_Source\PSoC4/VDAC_Synth_UAB.c ****     VDAC_Synth_UAB_SET_FIELD(
 649              		.loc 1 804 0
ARM GAS  C:\Users\Jerry\AppData\Local\Temp\cc1IKG0O.s 			page 27


 650 0002 8021     		mov	r1, #128
 803:Generated_Source\PSoC4/VDAC_Synth_UAB.c ****     VDAC_Synth_UAB_SET_FIELD(
 651              		.loc 1 803 0
 652 0004 10B5     		push	{r4, lr}
 653              		.cfi_def_cfa_offset 8
 654              		.cfi_offset 4, -8
 655              		.cfi_offset 14, -4
 656              		.loc 1 804 0
 657 0006 054C     		ldr	r4, .L68
 658 0008 054B     		ldr	r3, .L68+4
 659 000a 2068     		ldr	r0, [r4]
 660              	.LVL43:
 661 000c 4904     		lsl	r1, r1, #17
 662 000e 1206     		lsl	r2, r2, #24
 663 0010 0A40     		and	r2, r1
 664 0012 0340     		and	r3, r0
 665 0014 1A43     		orr	r2, r3
 666 0016 2260     		str	r2, [r4]
 805:Generated_Source\PSoC4/VDAC_Synth_UAB.c ****       VDAC_Synth_UAB_REF_TIED_PTR, 
 806:Generated_Source\PSoC4/VDAC_Synth_UAB.c ****       VDAC_Synth_UAB_REF_TIED_MASK, 
 807:Generated_Source\PSoC4/VDAC_Synth_UAB.c ****       ((uint32)refTied), 
 808:Generated_Source\PSoC4/VDAC_Synth_UAB.c ****       VDAC_Synth_UAB_REF_TIED_SHIFT
 809:Generated_Source\PSoC4/VDAC_Synth_UAB.c ****     );
 810:Generated_Source\PSoC4/VDAC_Synth_UAB.c **** }
 667              		.loc 1 810 0
 668              		@ sp needed
 669 0018 10BD     		pop	{r4, pc}
 670              	.L69:
 671 001a C046     		.align	2
 672              	.L68:
 673 001c 00033440 		.word	1077150464
 674 0020 FFFFFFFE 		.word	-16777217
 675              		.cfi_endproc
 676              	.LFE18:
 677              		.size	VDAC_Synth_UAB_SetRefTied, .-VDAC_Synth_UAB_SetRefTied
 678              		.section	.text.VDAC_Synth_UAB_SetAgndTied,"ax",%progbits
 679              		.align	1
 680              		.global	VDAC_Synth_UAB_SetAgndTied
 681              		.code	16
 682              		.thumb_func
 683              		.type	VDAC_Synth_UAB_SetAgndTied, %function
 684              	VDAC_Synth_UAB_SetAgndTied:
 685              	.LFB19:
 811:Generated_Source\PSoC4/VDAC_Synth_UAB.c **** 
 812:Generated_Source\PSoC4/VDAC_Synth_UAB.c **** /*********** VDAC_Synth_UAB_SetAgndTied() ***********************************/
 813:Generated_Source\PSoC4/VDAC_Synth_UAB.c **** /*!
 814:Generated_Source\PSoC4/VDAC_Synth_UAB.c **** * @brief Ties the outputs of the analog-ground buffers of the two UAB-halves
 815:Generated_Source\PSoC4/VDAC_Synth_UAB.c **** * together.
 816:Generated_Source\PSoC4/VDAC_Synth_UAB.c **** * 
 817:Generated_Source\PSoC4/VDAC_Synth_UAB.c **** * @details The analog-ground buffers of this half-UAB and its sibling half-UAB can
 818:Generated_Source\PSoC4/VDAC_Synth_UAB.c **** * be tied together.
 819:Generated_Source\PSoC4/VDAC_Synth_UAB.c **** *
 820:Generated_Source\PSoC4/VDAC_Synth_UAB.c **** * @param agndTied
 821:Generated_Source\PSoC4/VDAC_Synth_UAB.c **** * @arg 0 references not shared
 822:Generated_Source\PSoC4/VDAC_Synth_UAB.c **** * @arg 1 references shared
 823:Generated_Source\PSoC4/VDAC_Synth_UAB.c **** *
 824:Generated_Source\PSoC4/VDAC_Synth_UAB.c **** * @note Make sure that one of the analog-ground buffers is disabled before tying
ARM GAS  C:\Users\Jerry\AppData\Local\Temp\cc1IKG0O.s 			page 28


 825:Generated_Source\PSoC4/VDAC_Synth_UAB.c **** * them together.
 826:Generated_Source\PSoC4/VDAC_Synth_UAB.c **** * 
 827:Generated_Source\PSoC4/VDAC_Synth_UAB.c **** * @internal
 828:Generated_Source\PSoC4/VDAC_Synth_UAB.c **** * @reglist @reg VDAC_Synth_UAB_OA0_CTRL
 829:Generated_Source\PSoC4/VDAC_Synth_UAB.c **** * @image html _.png 
 830:Generated_Source\PSoC4/VDAC_Synth_UAB.c **** * @endinternal
 831:Generated_Source\PSoC4/VDAC_Synth_UAB.c **** * 
 832:Generated_Source\PSoC4/VDAC_Synth_UAB.c **** * @see VDAC_Synth_UAB_SetRefTied()
 833:Generated_Source\PSoC4/VDAC_Synth_UAB.c **** * 
 834:Generated_Source\PSoC4/VDAC_Synth_UAB.c **** * @sideeffect None
 835:Generated_Source\PSoC4/VDAC_Synth_UAB.c **** *******************************************************************************/
 836:Generated_Source\PSoC4/VDAC_Synth_UAB.c **** void VDAC_Synth_UAB_SetAgndTied(CyUAB_agnd_tied_enum agndTied)
 837:Generated_Source\PSoC4/VDAC_Synth_UAB.c **** {
 686              		.loc 1 837 0
 687              		.cfi_startproc
 688              	.LVL44:
 689 0000 021C     		mov	r2, r0
 838:Generated_Source\PSoC4/VDAC_Synth_UAB.c ****     VDAC_Synth_UAB_SET_FIELD(
 690              		.loc 1 838 0
 691 0002 8021     		mov	r1, #128
 837:Generated_Source\PSoC4/VDAC_Synth_UAB.c ****     VDAC_Synth_UAB_SET_FIELD(
 692              		.loc 1 837 0
 693 0004 10B5     		push	{r4, lr}
 694              		.cfi_def_cfa_offset 8
 695              		.cfi_offset 4, -8
 696              		.cfi_offset 14, -4
 697              		.loc 1 838 0
 698 0006 054C     		ldr	r4, .L71
 699 0008 054B     		ldr	r3, .L71+4
 700 000a 2068     		ldr	r0, [r4]
 701              	.LVL45:
 702 000c 4904     		lsl	r1, r1, #17
 703 000e 1206     		lsl	r2, r2, #24
 704 0010 0A40     		and	r2, r1
 705 0012 0340     		and	r3, r0
 706 0014 1A43     		orr	r2, r3
 707 0016 2260     		str	r2, [r4]
 839:Generated_Source\PSoC4/VDAC_Synth_UAB.c ****       VDAC_Synth_UAB_AGND_TIED_PTR, 
 840:Generated_Source\PSoC4/VDAC_Synth_UAB.c ****       VDAC_Synth_UAB_AGND_TIED_MASK, 
 841:Generated_Source\PSoC4/VDAC_Synth_UAB.c ****       ((uint32)agndTied), 
 842:Generated_Source\PSoC4/VDAC_Synth_UAB.c ****       VDAC_Synth_UAB_AGND_TIED_SHIFT
 843:Generated_Source\PSoC4/VDAC_Synth_UAB.c ****     );
 844:Generated_Source\PSoC4/VDAC_Synth_UAB.c **** }
 708              		.loc 1 844 0
 709              		@ sp needed
 710 0018 10BD     		pop	{r4, pc}
 711              	.L72:
 712 001a C046     		.align	2
 713              	.L71:
 714 001c 00023440 		.word	1077150208
 715 0020 FFFFFFFE 		.word	-16777217
 716              		.cfi_endproc
 717              	.LFE19:
 718              		.size	VDAC_Synth_UAB_SetAgndTied, .-VDAC_Synth_UAB_SetAgndTied
 719              		.section	.text.VDAC_Synth_UAB_SetCapA,"ax",%progbits
 720              		.align	1
 721              		.global	VDAC_Synth_UAB_SetCapA
ARM GAS  C:\Users\Jerry\AppData\Local\Temp\cc1IKG0O.s 			page 29


 722              		.code	16
 723              		.thumb_func
 724              		.type	VDAC_Synth_UAB_SetCapA, %function
 725              	VDAC_Synth_UAB_SetCapA:
 726              	.LFB20:
 845:Generated_Source\PSoC4/VDAC_Synth_UAB.c **** 
 846:Generated_Source\PSoC4/VDAC_Synth_UAB.c **** 
 847:Generated_Source\PSoC4/VDAC_Synth_UAB.c **** /*Caps*/
 848:Generated_Source\PSoC4/VDAC_Synth_UAB.c **** 
 849:Generated_Source\PSoC4/VDAC_Synth_UAB.c **** /***************** VDAC_Synth_UAB_SetCapA() *********************************/
 850:Generated_Source\PSoC4/VDAC_Synth_UAB.c **** /*!
 851:Generated_Source\PSoC4/VDAC_Synth_UAB.c **** * @brief Set the capacitance for branch A
 852:Generated_Source\PSoC4/VDAC_Synth_UAB.c **** * 
 853:Generated_Source\PSoC4/VDAC_Synth_UAB.c **** * @details There are three input branches (A, B, C) and a single feedback branch (F).  
 854:Generated_Source\PSoC4/VDAC_Synth_UAB.c **** * Each branch can have its capacitance configured independently.
 855:Generated_Source\PSoC4/VDAC_Synth_UAB.c **** * 
 856:Generated_Source\PSoC4/VDAC_Synth_UAB.c **** * The A, B, and C branches have capacitance range of 0-63 units (0-3150fF) in increments of 50fF.  
 857:Generated_Source\PSoC4/VDAC_Synth_UAB.c **** * The F branch has a capacitance range of 0-64 units (0-3200fF) in increments of 100fF.
 858:Generated_Source\PSoC4/VDAC_Synth_UAB.c **** *
 859:Generated_Source\PSoC4/VDAC_Synth_UAB.c **** * @note In branches B and C, there are attenuation capacitors in the signal path.
 860:Generated_Source\PSoC4/VDAC_Synth_UAB.c **** * This function does not configure those capacitors.
 861:Generated_Source\PSoC4/VDAC_Synth_UAB.c **** * @see VDAC_Synth_UAB_SetAttenBypassSwitchB()
 862:Generated_Source\PSoC4/VDAC_Synth_UAB.c **** * @see VDAC_Synth_UAB_SetAttenBypassSwitchC()
 863:Generated_Source\PSoC4/VDAC_Synth_UAB.c **** *
 864:Generated_Source\PSoC4/VDAC_Synth_UAB.c **** * @see VDAC_Synth_UAB_SetCaps()
 865:Generated_Source\PSoC4/VDAC_Synth_UAB.c **** * @see VDAC_Synth_UAB_SetCapB()
 866:Generated_Source\PSoC4/VDAC_Synth_UAB.c **** * @see VDAC_Synth_UAB_SetCapC()
 867:Generated_Source\PSoC4/VDAC_Synth_UAB.c **** * @see VDAC_Synth_UAB_SetCapF()
 868:Generated_Source\PSoC4/VDAC_Synth_UAB.c **** *
 869:Generated_Source\PSoC4/VDAC_Synth_UAB.c **** * @internal
 870:Generated_Source\PSoC4/VDAC_Synth_UAB.c **** * @reglist @reg VDAC_Synth_UAB_CAP_ABCF0_VAL @reg VDAC_Synth_UAB_CAP_ABCF1_VAL
 871:Generated_Source\PSoC4/VDAC_Synth_UAB.c **** * @image html SetCapacitors.png 
 872:Generated_Source\PSoC4/VDAC_Synth_UAB.c **** * @endinternal
 873:Generated_Source\PSoC4/VDAC_Synth_UAB.c **** *
 874:Generated_Source\PSoC4/VDAC_Synth_UAB.c **** * @sideeffect None
 875:Generated_Source\PSoC4/VDAC_Synth_UAB.c **** *******************************************************************************/
 876:Generated_Source\PSoC4/VDAC_Synth_UAB.c **** void VDAC_Synth_UAB_SetCapA(CyUAB_cap_enum capA)
 877:Generated_Source\PSoC4/VDAC_Synth_UAB.c **** {
 727              		.loc 1 877 0
 728              		.cfi_startproc
 729              	.LVL46:
 878:Generated_Source\PSoC4/VDAC_Synth_UAB.c ****     VDAC_Synth_UAB_SET_FIELD(
 730              		.loc 1 878 0
 731 0000 FC21     		mov	r1, #252
 877:Generated_Source\PSoC4/VDAC_Synth_UAB.c ****     VDAC_Synth_UAB_SET_FIELD(
 732              		.loc 1 877 0
 733 0002 10B5     		push	{r4, lr}
 734              		.cfi_def_cfa_offset 8
 735              		.cfi_offset 4, -8
 736              		.cfi_offset 14, -4
 737              		.loc 1 878 0
 738 0004 074C     		ldr	r4, .L74
 739 0006 084B     		ldr	r3, .L74+4
 740 0008 2268     		ldr	r2, [r4]
 741 000a 0901     		lsl	r1, r1, #4
 742 000c 8001     		lsl	r0, r0, #6
 743              	.LVL47:
ARM GAS  C:\Users\Jerry\AppData\Local\Temp\cc1IKG0O.s 			page 30


 744 000e 0840     		and	r0, r1
 745 0010 1A40     		and	r2, r3
 746 0012 0243     		orr	r2, r0
 747 0014 2260     		str	r2, [r4]
 879:Generated_Source\PSoC4/VDAC_Synth_UAB.c ****       VDAC_Synth_UAB_CAP_ABCF_VAL_PTR,
 880:Generated_Source\PSoC4/VDAC_Synth_UAB.c ****       VDAC_Synth_UAB_CA_VAL_MASK, 
 881:Generated_Source\PSoC4/VDAC_Synth_UAB.c ****       ((uint32)capA), 
 882:Generated_Source\PSoC4/VDAC_Synth_UAB.c ****       VDAC_Synth_UAB_CA_VAL_SHIFT
 883:Generated_Source\PSoC4/VDAC_Synth_UAB.c ****     );
 884:Generated_Source\PSoC4/VDAC_Synth_UAB.c ****     VDAC_Synth_UAB_SET_FIELD(
 748              		.loc 1 884 0
 749 0016 054A     		ldr	r2, .L74+8
 885:Generated_Source\PSoC4/VDAC_Synth_UAB.c ****       VDAC_Synth_UAB_CAP_AB_VAL_NXT_PTR, 
 886:Generated_Source\PSoC4/VDAC_Synth_UAB.c ****       VDAC_Synth_UAB_CA_VAL_MASK, 
 887:Generated_Source\PSoC4/VDAC_Synth_UAB.c ****       ((uint32)capA), 
 888:Generated_Source\PSoC4/VDAC_Synth_UAB.c ****       VDAC_Synth_UAB_CA_VAL_SHIFT
 889:Generated_Source\PSoC4/VDAC_Synth_UAB.c ****     ); 
 890:Generated_Source\PSoC4/VDAC_Synth_UAB.c **** }
 750              		.loc 1 890 0
 751              		@ sp needed
 884:Generated_Source\PSoC4/VDAC_Synth_UAB.c ****       VDAC_Synth_UAB_CAP_AB_VAL_NXT_PTR, 
 752              		.loc 1 884 0
 753 0018 1168     		ldr	r1, [r2]
 754 001a 0B40     		and	r3, r1
 755 001c 0343     		orr	r3, r0
 756 001e 1360     		str	r3, [r2]
 757              		.loc 1 890 0
 758 0020 10BD     		pop	{r4, pc}
 759              	.L75:
 760 0022 C046     		.align	2
 761              	.L74:
 762 0024 08033440 		.word	1077150472
 763 0028 3FF0FFFF 		.word	-4033
 764 002c 0C033440 		.word	1077150476
 765              		.cfi_endproc
 766              	.LFE20:
 767              		.size	VDAC_Synth_UAB_SetCapA, .-VDAC_Synth_UAB_SetCapA
 768              		.section	.text.VDAC_Synth_UAB_SetCapB,"ax",%progbits
 769              		.align	1
 770              		.global	VDAC_Synth_UAB_SetCapB
 771              		.code	16
 772              		.thumb_func
 773              		.type	VDAC_Synth_UAB_SetCapB, %function
 774              	VDAC_Synth_UAB_SetCapB:
 775              	.LFB21:
 891:Generated_Source\PSoC4/VDAC_Synth_UAB.c **** 
 892:Generated_Source\PSoC4/VDAC_Synth_UAB.c **** /***************** VDAC_Synth_UAB_SetCapB() *********************************/
 893:Generated_Source\PSoC4/VDAC_Synth_UAB.c **** /*!
 894:Generated_Source\PSoC4/VDAC_Synth_UAB.c **** * @brief Set the capacitance for branch B
 895:Generated_Source\PSoC4/VDAC_Synth_UAB.c **** * 
 896:Generated_Source\PSoC4/VDAC_Synth_UAB.c **** * @details There are three input branches (A, B, C) and a single feedback branch (F).  
 897:Generated_Source\PSoC4/VDAC_Synth_UAB.c **** * Each branch can have its capacitance configured independently.
 898:Generated_Source\PSoC4/VDAC_Synth_UAB.c **** * 
 899:Generated_Source\PSoC4/VDAC_Synth_UAB.c **** * The A, B, and C branches have capacitance range of 0-63 units (0-3150fF) in increments of 50fF.  
 900:Generated_Source\PSoC4/VDAC_Synth_UAB.c **** * The F branch has a capacitance range of 0-64 units (0-3200fF) in increments of 100fF.
 901:Generated_Source\PSoC4/VDAC_Synth_UAB.c **** *
 902:Generated_Source\PSoC4/VDAC_Synth_UAB.c **** * @note In branches B and C, there are attenuation capacitors in the signal path.
ARM GAS  C:\Users\Jerry\AppData\Local\Temp\cc1IKG0O.s 			page 31


 903:Generated_Source\PSoC4/VDAC_Synth_UAB.c **** * This function does not configure those capacitors.
 904:Generated_Source\PSoC4/VDAC_Synth_UAB.c **** * @see VDAC_Synth_UAB_SetAttenBypassSwitchB()
 905:Generated_Source\PSoC4/VDAC_Synth_UAB.c **** * @see VDAC_Synth_UAB_SetAttenBypassSwitchC()
 906:Generated_Source\PSoC4/VDAC_Synth_UAB.c **** *
 907:Generated_Source\PSoC4/VDAC_Synth_UAB.c **** * @see VDAC_Synth_UAB_SetCaps()
 908:Generated_Source\PSoC4/VDAC_Synth_UAB.c **** * @see VDAC_Synth_UAB_SetCapA()
 909:Generated_Source\PSoC4/VDAC_Synth_UAB.c **** * @see VDAC_Synth_UAB_SetCapC()
 910:Generated_Source\PSoC4/VDAC_Synth_UAB.c **** * @see VDAC_Synth_UAB_SetCapF()
 911:Generated_Source\PSoC4/VDAC_Synth_UAB.c **** * @see VDAC_Synth_UAB_SetGroundUnused()
 912:Generated_Source\PSoC4/VDAC_Synth_UAB.c **** *
 913:Generated_Source\PSoC4/VDAC_Synth_UAB.c **** * @internal
 914:Generated_Source\PSoC4/VDAC_Synth_UAB.c **** * @reglist @reg VDAC_Synth_UAB_CAP_ABCF0_VAL @reg VDAC_Synth_UAB_CAP_ABCF1_VAL
 915:Generated_Source\PSoC4/VDAC_Synth_UAB.c **** * @image html SetCapacitors.png 
 916:Generated_Source\PSoC4/VDAC_Synth_UAB.c **** * @endinternal
 917:Generated_Source\PSoC4/VDAC_Synth_UAB.c **** * 
 918:Generated_Source\PSoC4/VDAC_Synth_UAB.c **** * @sideeffect capB[5:0] = capB[6] ? 0x3F : capB[5:0]
 919:Generated_Source\PSoC4/VDAC_Synth_UAB.c **** *******************************************************************************/
 920:Generated_Source\PSoC4/VDAC_Synth_UAB.c **** void VDAC_Synth_UAB_SetCapB(CyUAB_b_cap_enum capB)
 921:Generated_Source\PSoC4/VDAC_Synth_UAB.c **** {
 776              		.loc 1 921 0
 777              		.cfi_startproc
 778              	.LVL48:
 779 0000 10B5     		push	{r4, lr}
 780              		.cfi_def_cfa_offset 8
 781              		.cfi_offset 4, -8
 782              		.cfi_offset 14, -4
 783 0002 0A4A     		ldr	r2, .L79
 922:Generated_Source\PSoC4/VDAC_Synth_UAB.c ****     const uint32 threshold64 = 64UL; /*capB>=64 are treated the same (set CB_64 and CB_VAL[5:0]==0x
 923:Generated_Source\PSoC4/VDAC_Synth_UAB.c ****     const uint32 b64 = VDAC_Synth_UAB_CB_64_MASK | VDAC_Synth_UAB_CB_VAL_MASK;
 924:Generated_Source\PSoC4/VDAC_Synth_UAB.c ****     uint32 bval = (((uint32)capB)>=threshold64) ? b64 : ((uint32)capB);
 784              		.loc 1 924 0
 785 0004 3F28     		cmp	r0, #63
 786 0006 00D9     		bls	.L77
 787 0008 101C     		mov	r0, r2
 788              	.LVL49:
 789              	.L77:
 925:Generated_Source\PSoC4/VDAC_Synth_UAB.c ****     VDAC_Synth_UAB_SET_VARIOUS_FIELDS(
 790              		.loc 1 925 0 discriminator 4
 791 000a 0240     		and	r2, r0
 792 000c 111C     		mov	r1, r2
 793 000e 084C     		ldr	r4, .L79+4
 794 0010 084A     		ldr	r2, .L79+8
 795 0012 2368     		ldr	r3, [r4]
 926:Generated_Source\PSoC4/VDAC_Synth_UAB.c ****       VDAC_Synth_UAB_CAP_ABCF_VAL_PTR,
 927:Generated_Source\PSoC4/VDAC_Synth_UAB.c ****       VDAC_Synth_UAB_CB_64_MASK | VDAC_Synth_UAB_CB_VAL_MASK, 
 928:Generated_Source\PSoC4/VDAC_Synth_UAB.c ****        bval
 929:Generated_Source\PSoC4/VDAC_Synth_UAB.c ****     );
 930:Generated_Source\PSoC4/VDAC_Synth_UAB.c ****     
 931:Generated_Source\PSoC4/VDAC_Synth_UAB.c ****     /*No CB_64 in CAP_AB_VAL_NXT register*/
 932:Generated_Source\PSoC4/VDAC_Synth_UAB.c ****     VDAC_Synth_UAB_SET_FIELD(
 933:Generated_Source\PSoC4/VDAC_Synth_UAB.c ****       VDAC_Synth_UAB_CAP_AB_VAL_NXT_PTR, 
 934:Generated_Source\PSoC4/VDAC_Synth_UAB.c ****       VDAC_Synth_UAB_CB_VAL_MASK, 
 935:Generated_Source\PSoC4/VDAC_Synth_UAB.c ****       bval,
 936:Generated_Source\PSoC4/VDAC_Synth_UAB.c ****       VDAC_Synth_UAB_CB_VAL_SHIFT
 937:Generated_Source\PSoC4/VDAC_Synth_UAB.c ****     );
 938:Generated_Source\PSoC4/VDAC_Synth_UAB.c **** }
 796              		.loc 1 938 0 discriminator 4
ARM GAS  C:\Users\Jerry\AppData\Local\Temp\cc1IKG0O.s 			page 32


 797              		@ sp needed
 925:Generated_Source\PSoC4/VDAC_Synth_UAB.c ****     VDAC_Synth_UAB_SET_VARIOUS_FIELDS(
 798              		.loc 1 925 0 discriminator 4
 799 0014 1340     		and	r3, r2
 800 0016 0B43     		orr	r3, r1
 932:Generated_Source\PSoC4/VDAC_Synth_UAB.c ****       VDAC_Synth_UAB_CAP_AB_VAL_NXT_PTR, 
 801              		.loc 1 932 0 discriminator 4
 802 0018 3F21     		mov	r1, #63
 803 001a 074A     		ldr	r2, .L79+12
 925:Generated_Source\PSoC4/VDAC_Synth_UAB.c ****     VDAC_Synth_UAB_SET_VARIOUS_FIELDS(
 804              		.loc 1 925 0 discriminator 4
 805 001c 2360     		str	r3, [r4]
 932:Generated_Source\PSoC4/VDAC_Synth_UAB.c ****       VDAC_Synth_UAB_CAP_AB_VAL_NXT_PTR, 
 806              		.loc 1 932 0 discriminator 4
 807 001e 1368     		ldr	r3, [r2]
 808 0020 0840     		and	r0, r1
 809              	.LVL50:
 810 0022 8B43     		bic	r3, r1
 811 0024 1843     		orr	r0, r3
 812 0026 1060     		str	r0, [r2]
 813              		.loc 1 938 0 discriminator 4
 814 0028 10BD     		pop	{r4, pc}
 815              	.L80:
 816 002a C046     		.align	2
 817              	.L79:
 818 002c 3F200000 		.word	8255
 819 0030 08033440 		.word	1077150472
 820 0034 C0DFFFFF 		.word	-8256
 821 0038 0C033440 		.word	1077150476
 822              		.cfi_endproc
 823              	.LFE21:
 824              		.size	VDAC_Synth_UAB_SetCapB, .-VDAC_Synth_UAB_SetCapB
 825              		.section	.text.VDAC_Synth_UAB_SetCapC,"ax",%progbits
 826              		.align	1
 827              		.global	VDAC_Synth_UAB_SetCapC
 828              		.code	16
 829              		.thumb_func
 830              		.type	VDAC_Synth_UAB_SetCapC, %function
 831              	VDAC_Synth_UAB_SetCapC:
 832              	.LFB22:
 939:Generated_Source\PSoC4/VDAC_Synth_UAB.c **** 
 940:Generated_Source\PSoC4/VDAC_Synth_UAB.c **** /***************** VDAC_Synth_UAB_SetCapC() *********************************/
 941:Generated_Source\PSoC4/VDAC_Synth_UAB.c **** /*!
 942:Generated_Source\PSoC4/VDAC_Synth_UAB.c **** * @brief Set the capacitance for branch C
 943:Generated_Source\PSoC4/VDAC_Synth_UAB.c **** * 
 944:Generated_Source\PSoC4/VDAC_Synth_UAB.c **** * @details There are three input branches (A, B, C) and a single feedback branch (F).  
 945:Generated_Source\PSoC4/VDAC_Synth_UAB.c **** * Each branch can have its capacitance configured independently.
 946:Generated_Source\PSoC4/VDAC_Synth_UAB.c **** * 
 947:Generated_Source\PSoC4/VDAC_Synth_UAB.c **** * The A, B, and C branches have capacitance range of 0-63 units (0-3150fF) in increments of 50fF.  
 948:Generated_Source\PSoC4/VDAC_Synth_UAB.c **** * The F branch has a capacitance range of 0-64 units (0-3200fF) in increments of 100fF.
 949:Generated_Source\PSoC4/VDAC_Synth_UAB.c **** *
 950:Generated_Source\PSoC4/VDAC_Synth_UAB.c **** * @note In branches B and C, there are attenuation capacitors in the signal path.
 951:Generated_Source\PSoC4/VDAC_Synth_UAB.c **** * This function does not configure those capacitors.
 952:Generated_Source\PSoC4/VDAC_Synth_UAB.c **** * @see VDAC_Synth_UAB_SetAttenBypassSwitchB()
 953:Generated_Source\PSoC4/VDAC_Synth_UAB.c **** * @see VDAC_Synth_UAB_SetAttenBypassSwitchC()
 954:Generated_Source\PSoC4/VDAC_Synth_UAB.c **** * 
 955:Generated_Source\PSoC4/VDAC_Synth_UAB.c **** * @see VDAC_Synth_UAB_SetCaps()
ARM GAS  C:\Users\Jerry\AppData\Local\Temp\cc1IKG0O.s 			page 33


 956:Generated_Source\PSoC4/VDAC_Synth_UAB.c **** * @see VDAC_Synth_UAB_SetCapA()
 957:Generated_Source\PSoC4/VDAC_Synth_UAB.c **** * @see VDAC_Synth_UAB_SetCapB()
 958:Generated_Source\PSoC4/VDAC_Synth_UAB.c **** * @see VDAC_Synth_UAB_SetCapF()
 959:Generated_Source\PSoC4/VDAC_Synth_UAB.c **** * @see VDAC_Synth_UAB_SetGroundUnused()
 960:Generated_Source\PSoC4/VDAC_Synth_UAB.c **** *
 961:Generated_Source\PSoC4/VDAC_Synth_UAB.c **** * @internal
 962:Generated_Source\PSoC4/VDAC_Synth_UAB.c **** * @reglist @reg VDAC_Synth_UAB_CAP_ABCF0_VAL @reg VDAC_Synth_UAB_CAP_ABCF1_VAL
 963:Generated_Source\PSoC4/VDAC_Synth_UAB.c **** * @image html SetCapacitors.png 
 964:Generated_Source\PSoC4/VDAC_Synth_UAB.c **** * @endinternal
 965:Generated_Source\PSoC4/VDAC_Synth_UAB.c **** *
 966:Generated_Source\PSoC4/VDAC_Synth_UAB.c **** * @sideeffect None
 967:Generated_Source\PSoC4/VDAC_Synth_UAB.c **** *******************************************************************************/
 968:Generated_Source\PSoC4/VDAC_Synth_UAB.c **** void VDAC_Synth_UAB_SetCapC(CyUAB_cap_enum capC)
 969:Generated_Source\PSoC4/VDAC_Synth_UAB.c **** {
 833              		.loc 1 969 0
 834              		.cfi_startproc
 835              	.LVL51:
 970:Generated_Source\PSoC4/VDAC_Synth_UAB.c ****     VDAC_Synth_UAB_SET_FIELD(
 836              		.loc 1 970 0
 837 0000 FC21     		mov	r1, #252
 969:Generated_Source\PSoC4/VDAC_Synth_UAB.c ****     VDAC_Synth_UAB_SET_FIELD(
 838              		.loc 1 969 0
 839 0002 10B5     		push	{r4, lr}
 840              		.cfi_def_cfa_offset 8
 841              		.cfi_offset 4, -8
 842              		.cfi_offset 14, -4
 843              		.loc 1 970 0
 844 0004 074C     		ldr	r4, .L82
 845 0006 084B     		ldr	r3, .L82+4
 846 0008 2268     		ldr	r2, [r4]
 847 000a 8903     		lsl	r1, r1, #14
 848 000c 0004     		lsl	r0, r0, #16
 849              	.LVL52:
 850 000e 0840     		and	r0, r1
 851 0010 1A40     		and	r2, r3
 852 0012 0243     		orr	r2, r0
 853 0014 2260     		str	r2, [r4]
 971:Generated_Source\PSoC4/VDAC_Synth_UAB.c ****       VDAC_Synth_UAB_CAP_ABCF_VAL_PTR,
 972:Generated_Source\PSoC4/VDAC_Synth_UAB.c ****       VDAC_Synth_UAB_CC_VAL_MASK, 
 973:Generated_Source\PSoC4/VDAC_Synth_UAB.c ****       ((uint32)capC), 
 974:Generated_Source\PSoC4/VDAC_Synth_UAB.c ****       VDAC_Synth_UAB_CC_VAL_SHIFT
 975:Generated_Source\PSoC4/VDAC_Synth_UAB.c ****     );
 976:Generated_Source\PSoC4/VDAC_Synth_UAB.c ****     /*Not setting CC_VAL_UPDATE bit*/
 977:Generated_Source\PSoC4/VDAC_Synth_UAB.c ****     VDAC_Synth_UAB_SET_FIELD(
 854              		.loc 1 977 0
 855 0016 054A     		ldr	r2, .L82+8
 978:Generated_Source\PSoC4/VDAC_Synth_UAB.c ****       VDAC_Synth_UAB_CAP_CF_VAL_NXT_PTR, 
 979:Generated_Source\PSoC4/VDAC_Synth_UAB.c ****       VDAC_Synth_UAB_CC_VAL_MASK, 
 980:Generated_Source\PSoC4/VDAC_Synth_UAB.c ****       ((uint32)capC), 
 981:Generated_Source\PSoC4/VDAC_Synth_UAB.c ****       VDAC_Synth_UAB_CC_VAL_SHIFT
 982:Generated_Source\PSoC4/VDAC_Synth_UAB.c ****     );
 983:Generated_Source\PSoC4/VDAC_Synth_UAB.c **** }
 856              		.loc 1 983 0
 857              		@ sp needed
 977:Generated_Source\PSoC4/VDAC_Synth_UAB.c ****       VDAC_Synth_UAB_CAP_CF_VAL_NXT_PTR, 
 858              		.loc 1 977 0
 859 0018 1168     		ldr	r1, [r2]
ARM GAS  C:\Users\Jerry\AppData\Local\Temp\cc1IKG0O.s 			page 34


 860 001a 0B40     		and	r3, r1
 861 001c 0343     		orr	r3, r0
 862 001e 1360     		str	r3, [r2]
 863              		.loc 1 983 0
 864 0020 10BD     		pop	{r4, pc}
 865              	.L83:
 866 0022 C046     		.align	2
 867              	.L82:
 868 0024 08033440 		.word	1077150472
 869 0028 FFFFC0FF 		.word	-4128769
 870 002c 10033440 		.word	1077150480
 871              		.cfi_endproc
 872              	.LFE22:
 873              		.size	VDAC_Synth_UAB_SetCapC, .-VDAC_Synth_UAB_SetCapC
 874              		.section	.text.VDAC_Synth_UAB_SetCapF,"ax",%progbits
 875              		.align	1
 876              		.global	VDAC_Synth_UAB_SetCapF
 877              		.code	16
 878              		.thumb_func
 879              		.type	VDAC_Synth_UAB_SetCapF, %function
 880              	VDAC_Synth_UAB_SetCapF:
 881              	.LFB23:
 984:Generated_Source\PSoC4/VDAC_Synth_UAB.c **** 
 985:Generated_Source\PSoC4/VDAC_Synth_UAB.c **** /***************** VDAC_Synth_UAB_SetCapF() *********************************/
 986:Generated_Source\PSoC4/VDAC_Synth_UAB.c **** /*!
 987:Generated_Source\PSoC4/VDAC_Synth_UAB.c **** * @brief Set the capacitance for branch F
 988:Generated_Source\PSoC4/VDAC_Synth_UAB.c **** * 
 989:Generated_Source\PSoC4/VDAC_Synth_UAB.c **** * @details There are three input branches (A, B, C) and a single feedback branch (F).  
 990:Generated_Source\PSoC4/VDAC_Synth_UAB.c **** * Each branch can have its capacitance configured independently.
 991:Generated_Source\PSoC4/VDAC_Synth_UAB.c **** * 
 992:Generated_Source\PSoC4/VDAC_Synth_UAB.c **** * The A, B, and C branches have capacitance range of 0-63 units (0-3150fF) in increments of 50fF.  
 993:Generated_Source\PSoC4/VDAC_Synth_UAB.c **** * The F branch has a capacitance range of 0-64 units (0-3200fF) in increments of 100fF.
 994:Generated_Source\PSoC4/VDAC_Synth_UAB.c **** *
 995:Generated_Source\PSoC4/VDAC_Synth_UAB.c **** * @note In branches B and C, there are attenuation capacitors in the signal path.
 996:Generated_Source\PSoC4/VDAC_Synth_UAB.c **** * This function does not configure those capacitors.
 997:Generated_Source\PSoC4/VDAC_Synth_UAB.c **** * @see VDAC_Synth_UAB_SetAttenBypassSwitchB()
 998:Generated_Source\PSoC4/VDAC_Synth_UAB.c **** * @see VDAC_Synth_UAB_SetAttenBypassSwitchC()
 999:Generated_Source\PSoC4/VDAC_Synth_UAB.c **** *
1000:Generated_Source\PSoC4/VDAC_Synth_UAB.c **** * @see VDAC_Synth_UAB_SetCaps()
1001:Generated_Source\PSoC4/VDAC_Synth_UAB.c **** * @see VDAC_Synth_UAB_SetCapA()
1002:Generated_Source\PSoC4/VDAC_Synth_UAB.c **** * @see VDAC_Synth_UAB_SetCapB()
1003:Generated_Source\PSoC4/VDAC_Synth_UAB.c **** * @see VDAC_Synth_UAB_SetCapC()
1004:Generated_Source\PSoC4/VDAC_Synth_UAB.c **** *
1005:Generated_Source\PSoC4/VDAC_Synth_UAB.c **** * @internal
1006:Generated_Source\PSoC4/VDAC_Synth_UAB.c **** * @reglist @reg VDAC_Synth_UAB_CAP_ABCF0_VAL @reg VDAC_Synth_UAB_CAP_ABCF1_VAL
1007:Generated_Source\PSoC4/VDAC_Synth_UAB.c **** * @image html SetCapacitors.png 
1008:Generated_Source\PSoC4/VDAC_Synth_UAB.c **** * @endinternal
1009:Generated_Source\PSoC4/VDAC_Synth_UAB.c **** *
1010:Generated_Source\PSoC4/VDAC_Synth_UAB.c **** * @sideeffect None
1011:Generated_Source\PSoC4/VDAC_Synth_UAB.c **** *******************************************************************************/
1012:Generated_Source\PSoC4/VDAC_Synth_UAB.c **** void VDAC_Synth_UAB_SetCapF(CyUAB_f_cap_enum capF)
1013:Generated_Source\PSoC4/VDAC_Synth_UAB.c **** {
 882              		.loc 1 1013 0
 883              		.cfi_startproc
 884              	.LVL53:
1014:Generated_Source\PSoC4/VDAC_Synth_UAB.c ****     VDAC_Synth_UAB_SET_FIELD(
 885              		.loc 1 1014 0
ARM GAS  C:\Users\Jerry\AppData\Local\Temp\cc1IKG0O.s 			page 35


 886 0000 F821     		mov	r1, #248
1013:Generated_Source\PSoC4/VDAC_Synth_UAB.c ****     VDAC_Synth_UAB_SET_FIELD(
 887              		.loc 1 1013 0
 888 0002 10B5     		push	{r4, lr}
 889              		.cfi_def_cfa_offset 8
 890              		.cfi_offset 4, -8
 891              		.cfi_offset 14, -4
 892              		.loc 1 1014 0
 893 0004 074C     		ldr	r4, .L85
 894 0006 084B     		ldr	r3, .L85+4
 895 0008 2268     		ldr	r2, [r4]
 896 000a 4905     		lsl	r1, r1, #21
 897 000c 0006     		lsl	r0, r0, #24
 898              	.LVL54:
 899 000e 0840     		and	r0, r1
 900 0010 1A40     		and	r2, r3
 901 0012 0243     		orr	r2, r0
 902 0014 2260     		str	r2, [r4]
1015:Generated_Source\PSoC4/VDAC_Synth_UAB.c ****       VDAC_Synth_UAB_CAP_ABCF_VAL_PTR,
1016:Generated_Source\PSoC4/VDAC_Synth_UAB.c ****       VDAC_Synth_UAB_CF_VAL_MASK, 
1017:Generated_Source\PSoC4/VDAC_Synth_UAB.c ****       ((uint32)capF), 
1018:Generated_Source\PSoC4/VDAC_Synth_UAB.c ****       VDAC_Synth_UAB_CF_VAL_SHIFT
1019:Generated_Source\PSoC4/VDAC_Synth_UAB.c ****     );
1020:Generated_Source\PSoC4/VDAC_Synth_UAB.c ****     /*Not setting CF_VAL_UPDATE bit*/
1021:Generated_Source\PSoC4/VDAC_Synth_UAB.c ****     VDAC_Synth_UAB_SET_FIELD(
 903              		.loc 1 1021 0
 904 0016 054A     		ldr	r2, .L85+8
1022:Generated_Source\PSoC4/VDAC_Synth_UAB.c ****       VDAC_Synth_UAB_CAP_CF_VAL_NXT_PTR, 
1023:Generated_Source\PSoC4/VDAC_Synth_UAB.c ****       VDAC_Synth_UAB_CF_VAL_MASK, 
1024:Generated_Source\PSoC4/VDAC_Synth_UAB.c ****       ((uint32)capF), 
1025:Generated_Source\PSoC4/VDAC_Synth_UAB.c ****       VDAC_Synth_UAB_CF_VAL_SHIFT
1026:Generated_Source\PSoC4/VDAC_Synth_UAB.c ****     );    
1027:Generated_Source\PSoC4/VDAC_Synth_UAB.c **** }
 905              		.loc 1 1027 0
 906              		@ sp needed
1021:Generated_Source\PSoC4/VDAC_Synth_UAB.c ****       VDAC_Synth_UAB_CAP_CF_VAL_NXT_PTR, 
 907              		.loc 1 1021 0
 908 0018 1168     		ldr	r1, [r2]
 909 001a 0B40     		and	r3, r1
 910 001c 0343     		orr	r3, r0
 911 001e 1360     		str	r3, [r2]
 912              		.loc 1 1027 0
 913 0020 10BD     		pop	{r4, pc}
 914              	.L86:
 915 0022 C046     		.align	2
 916              	.L85:
 917 0024 08033440 		.word	1077150472
 918 0028 FFFFFFE0 		.word	-520093697
 919 002c 10033440 		.word	1077150480
 920              		.cfi_endproc
 921              	.LFE23:
 922              		.size	VDAC_Synth_UAB_SetCapF, .-VDAC_Synth_UAB_SetCapF
 923              		.section	.text.VDAC_Synth_UAB_SetCaps,"ax",%progbits
 924              		.align	1
 925              		.global	VDAC_Synth_UAB_SetCaps
 926              		.code	16
 927              		.thumb_func
ARM GAS  C:\Users\Jerry\AppData\Local\Temp\cc1IKG0O.s 			page 36


 928              		.type	VDAC_Synth_UAB_SetCaps, %function
 929              	VDAC_Synth_UAB_SetCaps:
 930              	.LFB24:
1028:Generated_Source\PSoC4/VDAC_Synth_UAB.c **** 
1029:Generated_Source\PSoC4/VDAC_Synth_UAB.c **** /***************** VDAC_Synth_UAB_SetCaps() *********************************/
1030:Generated_Source\PSoC4/VDAC_Synth_UAB.c **** /*!
1031:Generated_Source\PSoC4/VDAC_Synth_UAB.c **** * @brief Set the capacitances individually for all branches (A,B,C,F)
1032:Generated_Source\PSoC4/VDAC_Synth_UAB.c **** * 
1033:Generated_Source\PSoC4/VDAC_Synth_UAB.c **** * @details There are three input branches (A, B, C) and a single feedback branch (F).  
1034:Generated_Source\PSoC4/VDAC_Synth_UAB.c **** * Each branch can have its capacitance configured independently.
1035:Generated_Source\PSoC4/VDAC_Synth_UAB.c **** * 
1036:Generated_Source\PSoC4/VDAC_Synth_UAB.c **** * The A, B, and C branches have capacitance range of 0-63 units (0-3150fF) in increments of 50fF.  
1037:Generated_Source\PSoC4/VDAC_Synth_UAB.c **** * The F branch has a capacitance range of 0-64 units (0-3200fF) in increments of 100fF.
1038:Generated_Source\PSoC4/VDAC_Synth_UAB.c **** 
1039:Generated_Source\PSoC4/VDAC_Synth_UAB.c **** * @note In branches B and C, there are attenuation capacitors in the signal path.
1040:Generated_Source\PSoC4/VDAC_Synth_UAB.c **** * This function does not configure those capacitors.  See VDAC_Synth_UAB_SetAttenuationTrim() 
1041:Generated_Source\PSoC4/VDAC_Synth_UAB.c **** * and VDAC_Synth_UAB_SetAttenBypassSwitch().
1042:Generated_Source\PSoC4/VDAC_Synth_UAB.c **** * 
1043:Generated_Source\PSoC4/VDAC_Synth_UAB.c **** * @param capA Use the CyUAB_cap_enum enumerated values.
1044:Generated_Source\PSoC4/VDAC_Synth_UAB.c **** * @param capB Use the CyUAB_b_cap_enum enumerated values.
1045:Generated_Source\PSoC4/VDAC_Synth_UAB.c **** * @param capC Use the CyUAB_cap_enum enumerated values.
1046:Generated_Source\PSoC4/VDAC_Synth_UAB.c **** * @param capF Use the CyUAB_f_cap_enum enumerated values.
1047:Generated_Source\PSoC4/VDAC_Synth_UAB.c **** *
1048:Generated_Source\PSoC4/VDAC_Synth_UAB.c **** * @see VDAC_Synth_UAB_SetCapA()
1049:Generated_Source\PSoC4/VDAC_Synth_UAB.c **** * @see VDAC_Synth_UAB_SetCapC()
1050:Generated_Source\PSoC4/VDAC_Synth_UAB.c **** * @see VDAC_Synth_UAB_SetCapF()
1051:Generated_Source\PSoC4/VDAC_Synth_UAB.c **** * @see VDAC_Synth_UAB_SetGroundUnused()
1052:Generated_Source\PSoC4/VDAC_Synth_UAB.c **** * @see VDAC_Synth_UAB_SetSwitch(CyUAB_SW_TB,clk)
1053:Generated_Source\PSoC4/VDAC_Synth_UAB.c **** * @see VDAC_Synth_UAB_SetSwitch(CyUAB_SW_TC,clk)
1054:Generated_Source\PSoC4/VDAC_Synth_UAB.c **** * 
1055:Generated_Source\PSoC4/VDAC_Synth_UAB.c **** * @internal
1056:Generated_Source\PSoC4/VDAC_Synth_UAB.c **** * @reglist @reg VDAC_Synth_UAB_CAP_ABCF0_VAL @reg VDAC_Synth_UAB_CAP_ABCF1_VAL
1057:Generated_Source\PSoC4/VDAC_Synth_UAB.c **** * @image html _.png 
1058:Generated_Source\PSoC4/VDAC_Synth_UAB.c **** * @endinternal
1059:Generated_Source\PSoC4/VDAC_Synth_UAB.c **** *
1060:Generated_Source\PSoC4/VDAC_Synth_UAB.c **** * @sideeffect None
1061:Generated_Source\PSoC4/VDAC_Synth_UAB.c **** *******************************************************************************/
1062:Generated_Source\PSoC4/VDAC_Synth_UAB.c **** void VDAC_Synth_UAB_SetCaps(CyUAB_cap_enum capA, CyUAB_b_cap_enum capB, 
1063:Generated_Source\PSoC4/VDAC_Synth_UAB.c ****     CyUAB_cap_enum capC, CyUAB_f_cap_enum capF)
1064:Generated_Source\PSoC4/VDAC_Synth_UAB.c **** {
 931              		.loc 1 1064 0
 932              		.cfi_startproc
 933              	.LVL55:
 934 0000 70B5     		push	{r4, r5, r6, lr}
 935              		.cfi_def_cfa_offset 16
 936              		.cfi_offset 4, -16
 937              		.cfi_offset 5, -12
 938              		.cfi_offset 6, -8
 939              		.cfi_offset 14, -4
 940              		.loc 1 1064 0
 941 0002 0E1C     		mov	r6, r1
 942 0004 151C     		mov	r5, r2
 943 0006 1C1C     		mov	r4, r3
1065:Generated_Source\PSoC4/VDAC_Synth_UAB.c ****     VDAC_Synth_UAB_SetCapA(capA);
 944              		.loc 1 1065 0
 945 0008 FFF7FEFF 		bl	VDAC_Synth_UAB_SetCapA
 946              	.LVL56:
ARM GAS  C:\Users\Jerry\AppData\Local\Temp\cc1IKG0O.s 			page 37


1066:Generated_Source\PSoC4/VDAC_Synth_UAB.c ****     VDAC_Synth_UAB_SetCapB(capB);
 947              		.loc 1 1066 0
 948 000c 301C     		mov	r0, r6
 949 000e FFF7FEFF 		bl	VDAC_Synth_UAB_SetCapB
 950              	.LVL57:
1067:Generated_Source\PSoC4/VDAC_Synth_UAB.c ****     VDAC_Synth_UAB_SetCapC(capC);
 951              		.loc 1 1067 0
 952 0012 281C     		mov	r0, r5
 953 0014 FFF7FEFF 		bl	VDAC_Synth_UAB_SetCapC
 954              	.LVL58:
1068:Generated_Source\PSoC4/VDAC_Synth_UAB.c ****     VDAC_Synth_UAB_SetCapF(capF);
 955              		.loc 1 1068 0
 956 0018 201C     		mov	r0, r4
 957 001a FFF7FEFF 		bl	VDAC_Synth_UAB_SetCapF
 958              	.LVL59:
1069:Generated_Source\PSoC4/VDAC_Synth_UAB.c **** }
 959              		.loc 1 1069 0
 960              		@ sp needed
 961 001e 70BD     		pop	{r4, r5, r6, pc}
 962              		.cfi_endproc
 963              	.LFE24:
 964              		.size	VDAC_Synth_UAB_SetCaps, .-VDAC_Synth_UAB_SetCaps
 965              		.section	.text.VDAC_Synth_UAB_SetGroundUnused,"ax",%progbits
 966              		.align	1
 967              		.global	VDAC_Synth_UAB_SetGroundUnused
 968              		.code	16
 969              		.thumb_func
 970              		.type	VDAC_Synth_UAB_SetGroundUnused, %function
 971              	VDAC_Synth_UAB_SetGroundUnused:
 972              	.LFB25:
1070:Generated_Source\PSoC4/VDAC_Synth_UAB.c **** 
1071:Generated_Source\PSoC4/VDAC_Synth_UAB.c **** /********* VDAC_Synth_UAB_SetGroundUnused() *********************************/
1072:Generated_Source\PSoC4/VDAC_Synth_UAB.c **** /*!
1073:Generated_Source\PSoC4/VDAC_Synth_UAB.c **** * @brief Sets whether unused capacitors are grounded or floating.
1074:Generated_Source\PSoC4/VDAC_Synth_UAB.c **** * 
1075:Generated_Source\PSoC4/VDAC_Synth_UAB.c **** * @details By default unused caps in the cap array are left floating.  
1076:Generated_Source\PSoC4/VDAC_Synth_UAB.c **** * Unused caps in branch B and C can be grounded when not in use.  
1077:Generated_Source\PSoC4/VDAC_Synth_UAB.c **** *
1078:Generated_Source\PSoC4/VDAC_Synth_UAB.c **** * When used as a DAC, the UAB uses two branches, one for MSBs, one for LSBs.
1079:Generated_Source\PSoC4/VDAC_Synth_UAB.c **** * The MSB cap array unit cells have their bottom plate floated when the
1080:Generated_Source\PSoC4/VDAC_Synth_UAB.c **** * CAP is not being used. For the LSB array, the unused caps must be shorted to the
1081:Generated_Source\PSoC4/VDAC_Synth_UAB.c **** * Analog Ground. Most common case will be using Branch A as MSB, with one of
1082:Generated_Source\PSoC4/VDAC_Synth_UAB.c **** * either B/C as the LSB.  Returns @c void.
1083:Generated_Source\PSoC4/VDAC_Synth_UAB.c **** *
1084:Generated_Source\PSoC4/VDAC_Synth_UAB.c **** * @param gndUnusedB ground unused caps in branch B
1085:Generated_Source\PSoC4/VDAC_Synth_UAB.c **** * @param gndUnusedC gournd unused caps in branch C
1086:Generated_Source\PSoC4/VDAC_Synth_UAB.c **** *
1087:Generated_Source\PSoC4/VDAC_Synth_UAB.c **** * @internal
1088:Generated_Source\PSoC4/VDAC_Synth_UAB.c **** * @reglist @reg VDAC_Synth_UAB_CAP_CTRL0 VDAC_Synth_UAB_CAP_CTRL1
1089:Generated_Source\PSoC4/VDAC_Synth_UAB.c **** * @image html SetCapacitors.png 
1090:Generated_Source\PSoC4/VDAC_Synth_UAB.c **** * @endinternal
1091:Generated_Source\PSoC4/VDAC_Synth_UAB.c **** *
1092:Generated_Source\PSoC4/VDAC_Synth_UAB.c **** * @sideeffect None
1093:Generated_Source\PSoC4/VDAC_Synth_UAB.c **** *******************************************************************************/
1094:Generated_Source\PSoC4/VDAC_Synth_UAB.c **** void VDAC_Synth_UAB_SetGroundUnused(CyUAB_gnd_unused_enum gndUnusedB, CyUAB_gnd_unused_enum gndUnus
1095:Generated_Source\PSoC4/VDAC_Synth_UAB.c **** {
 973              		.loc 1 1095 0
ARM GAS  C:\Users\Jerry\AppData\Local\Temp\cc1IKG0O.s 			page 38


 974              		.cfi_startproc
 975              	.LVL60:
1096:Generated_Source\PSoC4/VDAC_Synth_UAB.c ****     
1097:Generated_Source\PSoC4/VDAC_Synth_UAB.c ****     /*mask input values before shifting to prevent overlap*/
1098:Generated_Source\PSoC4/VDAC_Synth_UAB.c ****     const uint32 CB_GND_PRESHIFT_MASK = VDAC_Synth_UAB_CB_GND_MASK>>VDAC_Synth_UAB_CB_GND_SHIFT;
1099:Generated_Source\PSoC4/VDAC_Synth_UAB.c ****     const uint32 CC_GND_PRESHIFT_MASK = VDAC_Synth_UAB_CC_GND_MASK>>VDAC_Synth_UAB_CC_GND_SHIFT;
1100:Generated_Source\PSoC4/VDAC_Synth_UAB.c ****     const uint32 mask = VDAC_Synth_UAB_CC_GND_MASK | VDAC_Synth_UAB_CB_GND_MASK;
1101:Generated_Source\PSoC4/VDAC_Synth_UAB.c ****     VDAC_Synth_UAB_SET_VARIOUS_FIELDS(
 976              		.loc 1 1101 0
 977 0000 0123     		mov	r3, #1
 978 0002 1940     		and	r1, r3
 979              	.LVL61:
 980 0004 0340     		and	r3, r0
 981 0006 8901     		lsl	r1, r1, #6
 982 0008 5B01     		lsl	r3, r3, #5
 983 000a 0B43     		orr	r3, r1
 984 000c 6021     		mov	r1, #96
1095:Generated_Source\PSoC4/VDAC_Synth_UAB.c ****     
 985              		.loc 1 1095 0
 986 000e 10B5     		push	{r4, lr}
 987              		.cfi_def_cfa_offset 8
 988              		.cfi_offset 4, -8
 989              		.cfi_offset 14, -4
 990              		.loc 1 1101 0
 991 0010 024C     		ldr	r4, .L89
1102:Generated_Source\PSoC4/VDAC_Synth_UAB.c ****       VDAC_Synth_UAB_CAP_CTRL_PTR,
1103:Generated_Source\PSoC4/VDAC_Synth_UAB.c ****       mask,
1104:Generated_Source\PSoC4/VDAC_Synth_UAB.c ****       ((uint32)( 
1105:Generated_Source\PSoC4/VDAC_Synth_UAB.c ****         ( ( ((uint32)gndUnusedC) & CC_GND_PRESHIFT_MASK) <<VDAC_Synth_UAB_CC_GND_SHIFT ) |
1106:Generated_Source\PSoC4/VDAC_Synth_UAB.c ****         ( ( ((uint32)gndUnusedB) & CB_GND_PRESHIFT_MASK) <<VDAC_Synth_UAB_CB_GND_SHIFT )
1107:Generated_Source\PSoC4/VDAC_Synth_UAB.c ****       ))
1108:Generated_Source\PSoC4/VDAC_Synth_UAB.c ****     );
1109:Generated_Source\PSoC4/VDAC_Synth_UAB.c **** }
 992              		.loc 1 1109 0
 993              		@ sp needed
1101:Generated_Source\PSoC4/VDAC_Synth_UAB.c ****       VDAC_Synth_UAB_CAP_CTRL_PTR,
 994              		.loc 1 1101 0
 995 0012 2268     		ldr	r2, [r4]
 996 0014 8A43     		bic	r2, r1
 997 0016 1343     		orr	r3, r2
 998 0018 2360     		str	r3, [r4]
 999              		.loc 1 1109 0
 1000 001a 10BD     		pop	{r4, pc}
 1001              	.L90:
 1002              		.align	2
 1003              	.L89:
 1004 001c 04033440 		.word	1077150468
 1005              		.cfi_endproc
 1006              	.LFE25:
 1007              		.size	VDAC_Synth_UAB_SetGroundUnused, .-VDAC_Synth_UAB_SetGroundUnused
 1008              		.section	.text.VDAC_Synth_UAB_SetDacModeEn,"ax",%progbits
 1009              		.align	1
 1010              		.global	VDAC_Synth_UAB_SetDacModeEn
 1011              		.code	16
 1012              		.thumb_func
 1013              		.type	VDAC_Synth_UAB_SetDacModeEn, %function
 1014              	VDAC_Synth_UAB_SetDacModeEn:
ARM GAS  C:\Users\Jerry\AppData\Local\Temp\cc1IKG0O.s 			page 39


 1015              	.LFB26:
1110:Generated_Source\PSoC4/VDAC_Synth_UAB.c **** 
1111:Generated_Source\PSoC4/VDAC_Synth_UAB.c **** 
1112:Generated_Source\PSoC4/VDAC_Synth_UAB.c **** 
1113:Generated_Source\PSoC4/VDAC_Synth_UAB.c **** /*DAC*/
1114:Generated_Source\PSoC4/VDAC_Synth_UAB.c **** 
1115:Generated_Source\PSoC4/VDAC_Synth_UAB.c **** /******************* VDAC_Synth_UAB_SetDacModeEn() **************************/
1116:Generated_Source\PSoC4/VDAC_Synth_UAB.c **** /*!
1117:Generated_Source\PSoC4/VDAC_Synth_UAB.c **** * @brief DACMODE_EN effects how the sign bit of DAC data is used as modbit.
1118:Generated_Source\PSoC4/VDAC_Synth_UAB.c **** * 
1119:Generated_Source\PSoC4/VDAC_Synth_UAB.c **** * @details If the UAB is set to a DAC_MODE, then the SIGN_VAL bit is used as part
1120:Generated_Source\PSoC4/VDAC_Synth_UAB.c **** * of the DAC number.  The entire data word is decoded according to the DAC_MODE.
1121:Generated_Source\PSoC4/VDAC_Synth_UAB.c **** * If the UAB is not in a DAC_MODE, the SIGN_VAL bit is not computed when determining
1122:Generated_Source\PSoC4/VDAC_Synth_UAB.c **** * how to decode the data in the capacitor registers.  In either case, the modbit_src
1123:Generated_Source\PSoC4/VDAC_Synth_UAB.c **** * must be set to the firmware choice.
1124:Generated_Source\PSoC4/VDAC_Synth_UAB.c **** *
1125:Generated_Source\PSoC4/VDAC_Synth_UAB.c **** * @param isEnabled enable DAC mode
1126:Generated_Source\PSoC4/VDAC_Synth_UAB.c **** *
1127:Generated_Source\PSoC4/VDAC_Synth_UAB.c **** * @see VDAC_Synth_UAB_SetDacMode()
1128:Generated_Source\PSoC4/VDAC_Synth_UAB.c **** * @see VDAC_Synth_UAB_SetModbitSource()
1129:Generated_Source\PSoC4/VDAC_Synth_UAB.c **** *
1130:Generated_Source\PSoC4/VDAC_Synth_UAB.c **** * @internal
1131:Generated_Source\PSoC4/VDAC_Synth_UAB.c **** * @reglist @reg VDAC_Synth_UAB_CAP_CTRL_REG
1132:Generated_Source\PSoC4/VDAC_Synth_UAB.c **** * @endinternal
1133:Generated_Source\PSoC4/VDAC_Synth_UAB.c **** * 
1134:Generated_Source\PSoC4/VDAC_Synth_UAB.c **** * @sideeffect None
1135:Generated_Source\PSoC4/VDAC_Synth_UAB.c **** *******************************************************************************/
1136:Generated_Source\PSoC4/VDAC_Synth_UAB.c **** void VDAC_Synth_UAB_SetDacModeEn(CyUAB_dac_mode_en_enum isEnabled)
1137:Generated_Source\PSoC4/VDAC_Synth_UAB.c **** {
 1016              		.loc 1 1137 0
 1017              		.cfi_startproc
 1018              	.LVL62:
 1019 0000 021C     		mov	r2, r0
1138:Generated_Source\PSoC4/VDAC_Synth_UAB.c ****     VDAC_Synth_UAB_SET_FIELD(
 1020              		.loc 1 1138 0
 1021 0002 8021     		mov	r1, #128
1137:Generated_Source\PSoC4/VDAC_Synth_UAB.c ****     VDAC_Synth_UAB_SET_FIELD(
 1022              		.loc 1 1137 0
 1023 0004 10B5     		push	{r4, lr}
 1024              		.cfi_def_cfa_offset 8
 1025              		.cfi_offset 4, -8
 1026              		.cfi_offset 14, -4
 1027              		.loc 1 1138 0
 1028 0006 054C     		ldr	r4, .L92
 1029 0008 054B     		ldr	r3, .L92+4
 1030 000a 2068     		ldr	r0, [r4]
 1031              	.LVL63:
 1032 000c 8905     		lsl	r1, r1, #22
 1033 000e 5207     		lsl	r2, r2, #29
 1034 0010 0A40     		and	r2, r1
 1035 0012 0340     		and	r3, r0
 1036 0014 1A43     		orr	r2, r3
 1037 0016 2260     		str	r2, [r4]
1139:Generated_Source\PSoC4/VDAC_Synth_UAB.c ****       VDAC_Synth_UAB_CAP_CTRL_PTR, 
1140:Generated_Source\PSoC4/VDAC_Synth_UAB.c ****       VDAC_Synth_UAB_DAC_MODE_EN_MASK, 
1141:Generated_Source\PSoC4/VDAC_Synth_UAB.c ****       ((uint32)isEnabled), 
1142:Generated_Source\PSoC4/VDAC_Synth_UAB.c ****       VDAC_Synth_UAB_DAC_MODE_EN_SHIFT
ARM GAS  C:\Users\Jerry\AppData\Local\Temp\cc1IKG0O.s 			page 40


1143:Generated_Source\PSoC4/VDAC_Synth_UAB.c ****     );
1144:Generated_Source\PSoC4/VDAC_Synth_UAB.c **** }
 1038              		.loc 1 1144 0
 1039              		@ sp needed
 1040 0018 10BD     		pop	{r4, pc}
 1041              	.L93:
 1042 001a C046     		.align	2
 1043              	.L92:
 1044 001c 04033440 		.word	1077150468
 1045 0020 FFFFFFDF 		.word	-536870913
 1046              		.cfi_endproc
 1047              	.LFE26:
 1048              		.size	VDAC_Synth_UAB_SetDacModeEn, .-VDAC_Synth_UAB_SetDacModeEn
 1049              		.section	.text.VDAC_Synth_UAB_SetDacMode,"ax",%progbits
 1050              		.align	1
 1051              		.global	VDAC_Synth_UAB_SetDacMode
 1052              		.code	16
 1053              		.thumb_func
 1054              		.type	VDAC_Synth_UAB_SetDacMode, %function
 1055              	VDAC_Synth_UAB_SetDacMode:
 1056              	.LFB27:
1145:Generated_Source\PSoC4/VDAC_Synth_UAB.c **** 
1146:Generated_Source\PSoC4/VDAC_Synth_UAB.c **** /*************** VDAC_Synth_UAB_SetDacMode() ********************************/
1147:Generated_Source\PSoC4/VDAC_Synth_UAB.c **** /*!
1148:Generated_Source\PSoC4/VDAC_Synth_UAB.c **** * @brief Sets the DAC mode.
1149:Generated_Source\PSoC4/VDAC_Synth_UAB.c **** * 
1150:Generated_Source\PSoC4/VDAC_Synth_UAB.c **** * @details The DAC can be operated as a 12-bit unsigned, 12-bit virtual signed, 
1151:Generated_Source\PSoC4/VDAC_Synth_UAB.c **** * or 13-bit unsigned DAC.  This function sets that mode.
1152:Generated_Source\PSoC4/VDAC_Synth_UAB.c **** * 
1153:Generated_Source\PSoC4/VDAC_Synth_UAB.c **** * @param dacMode DAC mode selection
1154:Generated_Source\PSoC4/VDAC_Synth_UAB.c **** *
1155:Generated_Source\PSoC4/VDAC_Synth_UAB.c **** * @see VDAC_Synth_UAB_SetDacModeEn()
1156:Generated_Source\PSoC4/VDAC_Synth_UAB.c **** * @see VDAC_Synth_UAB_SetModbitSource()
1157:Generated_Source\PSoC4/VDAC_Synth_UAB.c **** *
1158:Generated_Source\PSoC4/VDAC_Synth_UAB.c **** * @internal
1159:Generated_Source\PSoC4/VDAC_Synth_UAB.c **** * @reglist @reg VDAC_Synth_UAB_CAP_CTRL_REG
1160:Generated_Source\PSoC4/VDAC_Synth_UAB.c **** * @endinternal
1161:Generated_Source\PSoC4/VDAC_Synth_UAB.c **** * 
1162:Generated_Source\PSoC4/VDAC_Synth_UAB.c **** * @sideeffect None
1163:Generated_Source\PSoC4/VDAC_Synth_UAB.c **** *******************************************************************************/
1164:Generated_Source\PSoC4/VDAC_Synth_UAB.c **** void VDAC_Synth_UAB_SetDacMode(CyUAB_dac_mode_enum dacMode)
1165:Generated_Source\PSoC4/VDAC_Synth_UAB.c **** {
 1057              		.loc 1 1165 0
 1058              		.cfi_startproc
 1059              	.LVL64:
1166:Generated_Source\PSoC4/VDAC_Synth_UAB.c ****     VDAC_Synth_UAB_SET_FIELD(
 1060              		.loc 1 1166 0
 1061 0000 034A     		ldr	r2, .L95
 1062 0002 8007     		lsl	r0, r0, #30
 1063              	.LVL65:
 1064 0004 1368     		ldr	r3, [r2]
1167:Generated_Source\PSoC4/VDAC_Synth_UAB.c ****       VDAC_Synth_UAB_CAP_CTRL_PTR, 
1168:Generated_Source\PSoC4/VDAC_Synth_UAB.c ****       VDAC_Synth_UAB_DAC_MODE_MASK, 
1169:Generated_Source\PSoC4/VDAC_Synth_UAB.c ****       ((uint32)dacMode), 
1170:Generated_Source\PSoC4/VDAC_Synth_UAB.c ****       VDAC_Synth_UAB_DAC_MODE_SHIFT
1171:Generated_Source\PSoC4/VDAC_Synth_UAB.c ****     );    
1172:Generated_Source\PSoC4/VDAC_Synth_UAB.c **** }
ARM GAS  C:\Users\Jerry\AppData\Local\Temp\cc1IKG0O.s 			page 41


 1065              		.loc 1 1172 0
 1066              		@ sp needed
1166:Generated_Source\PSoC4/VDAC_Synth_UAB.c ****     VDAC_Synth_UAB_SET_FIELD(
 1067              		.loc 1 1166 0
 1068 0006 9B00     		lsl	r3, r3, #2
 1069 0008 9B08     		lsr	r3, r3, #2
 1070 000a 1843     		orr	r0, r3
 1071 000c 1060     		str	r0, [r2]
 1072              		.loc 1 1172 0
 1073 000e 7047     		bx	lr
 1074              	.L96:
 1075              		.align	2
 1076              	.L95:
 1077 0010 04033440 		.word	1077150468
 1078              		.cfi_endproc
 1079              	.LFE27:
 1080              		.size	VDAC_Synth_UAB_SetDacMode, .-VDAC_Synth_UAB_SetDacMode
 1081              		.section	.text.VDAC_Synth_UAB_SetDacNext,"ax",%progbits
 1082              		.align	1
 1083              		.global	VDAC_Synth_UAB_SetDacNext
 1084              		.code	16
 1085              		.thumb_func
 1086              		.type	VDAC_Synth_UAB_SetDacNext, %function
 1087              	VDAC_Synth_UAB_SetDacNext:
 1088              	.LFB28:
1173:Generated_Source\PSoC4/VDAC_Synth_UAB.c **** 
1174:Generated_Source\PSoC4/VDAC_Synth_UAB.c **** /*************** VDAC_Synth_UAB_SetDacNext() ********************************/
1175:Generated_Source\PSoC4/VDAC_Synth_UAB.c **** /*!
1176:Generated_Source\PSoC4/VDAC_Synth_UAB.c **** * @brief Set the next value to be converted by the DAC.
1177:Generated_Source\PSoC4/VDAC_Synth_UAB.c **** * 
1178:Generated_Source\PSoC4/VDAC_Synth_UAB.c **** * @details To make sure that the DAC loads its values at the right time, there
1179:Generated_Source\PSoC4/VDAC_Synth_UAB.c **** * is a register used as a digital buffer.  This function loads that buffer,
1180:Generated_Source\PSoC4/VDAC_Synth_UAB.c **** * which gets transferred to the capacitors during the next @c strobe signal.
1181:Generated_Source\PSoC4/VDAC_Synth_UAB.c **** * 
1182:Generated_Source\PSoC4/VDAC_Synth_UAB.c **** * @param nextDACVal buffered DAC value
1183:Generated_Source\PSoC4/VDAC_Synth_UAB.c **** *
1184:Generated_Source\PSoC4/VDAC_Synth_UAB.c **** * @see VDAC_Synth_UAB_SetDacModeEn()
1185:Generated_Source\PSoC4/VDAC_Synth_UAB.c **** * @see VDAC_Synth_UAB_SetDacMode()
1186:Generated_Source\PSoC4/VDAC_Synth_UAB.c **** * @see VDAC_Synth_UAB_SetModbitSource()
1187:Generated_Source\PSoC4/VDAC_Synth_UAB.c **** *
1188:Generated_Source\PSoC4/VDAC_Synth_UAB.c **** * @internal
1189:Generated_Source\PSoC4/VDAC_Synth_UAB.c **** * @reglist @reg VDAC_Synth_UAB_CAP_AB_VAL_NXT_REG.
1190:Generated_Source\PSoC4/VDAC_Synth_UAB.c **** * This function is @b NOT generalized.  It depends on the 'next' values all
1191:Generated_Source\PSoC4/VDAC_Synth_UAB.c **** * being contiguous within a single register.
1192:Generated_Source\PSoC4/VDAC_Synth_UAB.c **** * @endinternal
1193:Generated_Source\PSoC4/VDAC_Synth_UAB.c **** * 
1194:Generated_Source\PSoC4/VDAC_Synth_UAB.c **** * @sideeffect None
1195:Generated_Source\PSoC4/VDAC_Synth_UAB.c **** *******************************************************************************/
1196:Generated_Source\PSoC4/VDAC_Synth_UAB.c **** void VDAC_Synth_UAB_SetDacNext(int16 nextDACVal)
1197:Generated_Source\PSoC4/VDAC_Synth_UAB.c **** {
 1089              		.loc 1 1197 0
 1090              		.cfi_startproc
 1091              	.LVL66:
1198:Generated_Source\PSoC4/VDAC_Synth_UAB.c ****     /*Uses a custom mask because the operation writes over three bitfields. 
1199:Generated_Source\PSoC4/VDAC_Synth_UAB.c ****     The shift amount is the shift amount for the field that represents the LSBs*/
1200:Generated_Source\PSoC4/VDAC_Synth_UAB.c ****     
1201:Generated_Source\PSoC4/VDAC_Synth_UAB.c ****     uint32 val = ( ((uint32)nextDACVal) & ((uint32)VDAC_Synth_UAB_DAC_NEXT_MASK) );
ARM GAS  C:\Users\Jerry\AppData\Local\Temp\cc1IKG0O.s 			page 42


1202:Generated_Source\PSoC4/VDAC_Synth_UAB.c ****     VDAC_Synth_UAB_SET_FIELD(
 1092              		.loc 1 1202 0
 1093 0000 044A     		ldr	r2, .L98
1201:Generated_Source\PSoC4/VDAC_Synth_UAB.c ****     VDAC_Synth_UAB_SET_FIELD(
 1094              		.loc 1 1201 0
 1095 0002 C004     		lsl	r0, r0, #19
 1096              	.LVL67:
 1097              		.loc 1 1202 0
 1098 0004 1368     		ldr	r3, [r2]
 1099 0006 C00C     		lsr	r0, r0, #19
 1100 0008 5B0B     		lsr	r3, r3, #13
 1101 000a 5B03     		lsl	r3, r3, #13
 1102 000c 1843     		orr	r0, r3
 1103 000e 1060     		str	r0, [r2]
1203:Generated_Source\PSoC4/VDAC_Synth_UAB.c ****       VDAC_Synth_UAB_CAP_AB_VAL_NXT_PTR, 
1204:Generated_Source\PSoC4/VDAC_Synth_UAB.c ****       VDAC_Synth_UAB_DAC_NEXT_MASK, 
1205:Generated_Source\PSoC4/VDAC_Synth_UAB.c ****       val, 
1206:Generated_Source\PSoC4/VDAC_Synth_UAB.c ****       VDAC_Synth_UAB_CB_VAL_SHIFT
1207:Generated_Source\PSoC4/VDAC_Synth_UAB.c ****     );
1208:Generated_Source\PSoC4/VDAC_Synth_UAB.c **** }
 1104              		.loc 1 1208 0
 1105              		@ sp needed
 1106 0010 7047     		bx	lr
 1107              	.L99:
 1108 0012 C046     		.align	2
 1109              	.L98:
 1110 0014 0C033440 		.word	1077150476
 1111              		.cfi_endproc
 1112              	.LFE28:
 1113              		.size	VDAC_Synth_UAB_SetDacNext, .-VDAC_Synth_UAB_SetDacNext
 1114              		.section	.text.VDAC_Synth_UAB_SetCapCFNext,"ax",%progbits
 1115              		.align	1
 1116              		.global	VDAC_Synth_UAB_SetCapCFNext
 1117              		.code	16
 1118              		.thumb_func
 1119              		.type	VDAC_Synth_UAB_SetCapCFNext, %function
 1120              	VDAC_Synth_UAB_SetCapCFNext:
 1121              	.LFB29:
1209:Generated_Source\PSoC4/VDAC_Synth_UAB.c **** 
1210:Generated_Source\PSoC4/VDAC_Synth_UAB.c **** /*PGA*/
1211:Generated_Source\PSoC4/VDAC_Synth_UAB.c **** 
1212:Generated_Source\PSoC4/VDAC_Synth_UAB.c **** /************** VDAC_Synth_UAB_SetCapCFNext() *******************************/
1213:Generated_Source\PSoC4/VDAC_Synth_UAB.c **** /*!
1214:Generated_Source\PSoC4/VDAC_Synth_UAB.c **** * @brief Set the next value to be loaded into branch C and branch F capacitors.
1215:Generated_Source\PSoC4/VDAC_Synth_UAB.c **** * 
1216:Generated_Source\PSoC4/VDAC_Synth_UAB.c **** * @details To make sure that the C/F cap arrays are double-buffered, there
1217:Generated_Source\PSoC4/VDAC_Synth_UAB.c **** * is a register used as a digital buffer.  This function loads that buffer,
1218:Generated_Source\PSoC4/VDAC_Synth_UAB.c **** * which gets transferred to the capacitors during the next @c strobe signal.
1219:Generated_Source\PSoC4/VDAC_Synth_UAB.c **** * 
1220:Generated_Source\PSoC4/VDAC_Synth_UAB.c **** * @param nextCapC buffered C capacitance
1221:Generated_Source\PSoC4/VDAC_Synth_UAB.c **** * @param nextCapF buffered F capacitance
1222:Generated_Source\PSoC4/VDAC_Synth_UAB.c **** *
1223:Generated_Source\PSoC4/VDAC_Synth_UAB.c **** * @internal
1224:Generated_Source\PSoC4/VDAC_Synth_UAB.c **** * @reglist @reg VDAC_Synth_UAB_CAP_CF_VAL_NXT_REG.
1225:Generated_Source\PSoC4/VDAC_Synth_UAB.c **** * This function is @b NOT generalized.  It depends on the 'next' values all
1226:Generated_Source\PSoC4/VDAC_Synth_UAB.c **** * being contiguous within a single register.
1227:Generated_Source\PSoC4/VDAC_Synth_UAB.c **** * @endinternal
ARM GAS  C:\Users\Jerry\AppData\Local\Temp\cc1IKG0O.s 			page 43


1228:Generated_Source\PSoC4/VDAC_Synth_UAB.c **** * 
1229:Generated_Source\PSoC4/VDAC_Synth_UAB.c **** * @sideeffect None
1230:Generated_Source\PSoC4/VDAC_Synth_UAB.c **** *******************************************************************************/
1231:Generated_Source\PSoC4/VDAC_Synth_UAB.c **** void VDAC_Synth_UAB_SetCapCFNext(CyUAB_cap_enum nextCapC,CyUAB_f_cap_enum nextCapF)
1232:Generated_Source\PSoC4/VDAC_Synth_UAB.c **** {
 1122              		.loc 1 1232 0
 1123              		.cfi_startproc
 1124              	.LVL68:
 1125 0000 10B5     		push	{r4, lr}
 1126              		.cfi_def_cfa_offset 8
 1127              		.cfi_offset 4, -8
 1128              		.cfi_offset 14, -4
1233:Generated_Source\PSoC4/VDAC_Synth_UAB.c ****     const uint32 CF_VAL_PRESHIFT_MASK = ((uint32)(VDAC_Synth_UAB_CF_VAL_MASK>>VDAC_Synth_UAB_CF_VAL
1234:Generated_Source\PSoC4/VDAC_Synth_UAB.c ****     const uint32 CC_VAL_PRESHIFT_MASK = ((uint32)(VDAC_Synth_UAB_CC_VAL_MASK>>VDAC_Synth_UAB_CC_VAL
1235:Generated_Source\PSoC4/VDAC_Synth_UAB.c ****     const uint32 mask = ((uint32)VDAC_Synth_UAB_CF_VAL_UPDATE_MASK) | ((uint32)VDAC_Synth_UAB_CC_VA
1236:Generated_Source\PSoC4/VDAC_Synth_UAB.c ****       ((uint32)VDAC_Synth_UAB_CF_VAL_MASK) | ((uint32)VDAC_Synth_UAB_CC_VAL_MASK);
1237:Generated_Source\PSoC4/VDAC_Synth_UAB.c ****     
1238:Generated_Source\PSoC4/VDAC_Synth_UAB.c ****     /* Also setting CF_VAL_UPDATE and CC_VAL_UPDATE bits */
1239:Generated_Source\PSoC4/VDAC_Synth_UAB.c ****     VDAC_Synth_UAB_SET_VARIOUS_FIELDS(
 1129              		.loc 1 1239 0
 1130 0002 084C     		ldr	r4, .L101
 1131 0004 084B     		ldr	r3, .L101+4
 1132 0006 2268     		ldr	r2, [r4]
1240:Generated_Source\PSoC4/VDAC_Synth_UAB.c ****       VDAC_Synth_UAB_CAP_CF_VAL_NXT_PTR,
1241:Generated_Source\PSoC4/VDAC_Synth_UAB.c ****       mask,
1242:Generated_Source\PSoC4/VDAC_Synth_UAB.c ****       ((uint32)VDAC_Synth_UAB_CF_VAL_UPDATE_MASK) | ((uint32)VDAC_Synth_UAB_CC_VAL_UPDATE_MASK) |
1243:Generated_Source\PSoC4/VDAC_Synth_UAB.c ****         ( ( ((uint32)nextCapF) & CF_VAL_PRESHIFT_MASK)<<VDAC_Synth_UAB_CF_VAL_SHIFT ) |
1244:Generated_Source\PSoC4/VDAC_Synth_UAB.c ****         ( ( ((uint32)nextCapC) & CC_VAL_PRESHIFT_MASK)<<VDAC_Synth_UAB_CC_VAL_SHIFT ) 
1245:Generated_Source\PSoC4/VDAC_Synth_UAB.c **** 	);
1246:Generated_Source\PSoC4/VDAC_Synth_UAB.c **** }
 1133              		.loc 1 1246 0
 1134              		@ sp needed
1239:Generated_Source\PSoC4/VDAC_Synth_UAB.c ****       VDAC_Synth_UAB_CAP_CF_VAL_NXT_PTR,
 1135              		.loc 1 1239 0
 1136 0008 1A40     		and	r2, r3
 1137 000a C023     		mov	r3, #192
 1138 000c 1B06     		lsl	r3, r3, #24
 1139 000e 1A43     		orr	r2, r3
 1140 0010 1F23     		mov	r3, #31
 1141 0012 1940     		and	r1, r3
 1142              	.LVL69:
 1143 0014 2033     		add	r3, r3, #32
 1144 0016 1840     		and	r0, r3
 1145              	.LVL70:
 1146 0018 0004     		lsl	r0, r0, #16
 1147 001a 0906     		lsl	r1, r1, #24
 1148 001c 0143     		orr	r1, r0
 1149 001e 1143     		orr	r1, r2
 1150 0020 2160     		str	r1, [r4]
 1151              		.loc 1 1246 0
 1152 0022 10BD     		pop	{r4, pc}
 1153              	.L102:
 1154              		.align	2
 1155              	.L101:
 1156 0024 10033440 		.word	1077150480
 1157 0028 FFFFC020 		.word	549519359
 1158              		.cfi_endproc
ARM GAS  C:\Users\Jerry\AppData\Local\Temp\cc1IKG0O.s 			page 44


 1159              	.LFE29:
 1160              		.size	VDAC_Synth_UAB_SetCapCFNext, .-VDAC_Synth_UAB_SetCapCFNext
 1161              		.section	.text.VDAC_Synth_UAB_SetCompEdgeDetect,"ax",%progbits
 1162              		.align	1
 1163              		.global	VDAC_Synth_UAB_SetCompEdgeDetect
 1164              		.code	16
 1165              		.thumb_func
 1166              		.type	VDAC_Synth_UAB_SetCompEdgeDetect, %function
 1167              	VDAC_Synth_UAB_SetCompEdgeDetect:
 1168              	.LFB30:
1247:Generated_Source\PSoC4/VDAC_Synth_UAB.c **** 
1248:Generated_Source\PSoC4/VDAC_Synth_UAB.c **** 
1249:Generated_Source\PSoC4/VDAC_Synth_UAB.c **** /* Comparator */
1250:Generated_Source\PSoC4/VDAC_Synth_UAB.c **** 
1251:Generated_Source\PSoC4/VDAC_Synth_UAB.c **** /*************** VDAC_Synth_UAB_SetCompEdgeDetect() *************************/
1252:Generated_Source\PSoC4/VDAC_Synth_UAB.c **** /*!
1253:Generated_Source\PSoC4/VDAC_Synth_UAB.c **** * @brief Set what level of comparator activity to use to generate interrupt and
1254:Generated_Source\PSoC4/VDAC_Synth_UAB.c **** * trigger-output.
1255:Generated_Source\PSoC4/VDAC_Synth_UAB.c **** * 
1256:Generated_Source\PSoC4/VDAC_Synth_UAB.c **** * @details The comparator can be used as the source for an interrupt and/or a 
1257:Generated_Source\PSoC4/VDAC_Synth_UAB.c **** * trigger-output.  This function configures whether an interrupt is triggered, 
1258:Generated_Source\PSoC4/VDAC_Synth_UAB.c **** * and if so, whether to trigger on the comparator's rising edge, falling edge, 
1259:Generated_Source\PSoC4/VDAC_Synth_UAB.c **** * or both.  Returns @c void.
1260:Generated_Source\PSoC4/VDAC_Synth_UAB.c **** * 
1261:Generated_Source\PSoC4/VDAC_Synth_UAB.c **** * @param detectMode interrupt and trigger output comparator edge selection
1262:Generated_Source\PSoC4/VDAC_Synth_UAB.c **** *
1263:Generated_Source\PSoC4/VDAC_Synth_UAB.c **** * @internal
1264:Generated_Source\PSoC4/VDAC_Synth_UAB.c **** * @reglist @reg VDAC_Synth_UAB_OA0_CTRL_REG VDAC_Synth_UAB_OA1_CTRL_REG
1265:Generated_Source\PSoC4/VDAC_Synth_UAB.c **** * @endinternal
1266:Generated_Source\PSoC4/VDAC_Synth_UAB.c **** * 
1267:Generated_Source\PSoC4/VDAC_Synth_UAB.c **** * 
1268:Generated_Source\PSoC4/VDAC_Synth_UAB.c **** * @see VDAC_Synth_UAB_SetCompOutLevel()
1269:Generated_Source\PSoC4/VDAC_Synth_UAB.c **** * @see VDAC_Synth_UAB_GetCompStatus()
1270:Generated_Source\PSoC4/VDAC_Synth_UAB.c **** * 
1271:Generated_Source\PSoC4/VDAC_Synth_UAB.c **** * @sideeffect None
1272:Generated_Source\PSoC4/VDAC_Synth_UAB.c **** *******************************************************************************/
1273:Generated_Source\PSoC4/VDAC_Synth_UAB.c **** void VDAC_Synth_UAB_SetCompEdgeDetect(CyUAB_cmp_edge_enum detectMode)
1274:Generated_Source\PSoC4/VDAC_Synth_UAB.c **** {
 1169              		.loc 1 1274 0
 1170              		.cfi_startproc
 1171              	.LVL71:
 1172 0000 021C     		mov	r2, r0
1275:Generated_Source\PSoC4/VDAC_Synth_UAB.c ****     VDAC_Synth_UAB_SET_FIELD(
 1173              		.loc 1 1275 0
 1174 0002 C021     		mov	r1, #192
1274:Generated_Source\PSoC4/VDAC_Synth_UAB.c ****     VDAC_Synth_UAB_SET_FIELD(
 1175              		.loc 1 1274 0
 1176 0004 10B5     		push	{r4, lr}
 1177              		.cfi_def_cfa_offset 8
 1178              		.cfi_offset 4, -8
 1179              		.cfi_offset 14, -4
 1180              		.loc 1 1275 0
 1181 0006 054C     		ldr	r4, .L104
 1182 0008 054B     		ldr	r3, .L104+4
 1183 000a 2068     		ldr	r0, [r4]
 1184              	.LVL72:
 1185 000c 8901     		lsl	r1, r1, #6
ARM GAS  C:\Users\Jerry\AppData\Local\Temp\cc1IKG0O.s 			page 45


 1186 000e 1203     		lsl	r2, r2, #12
 1187 0010 0A40     		and	r2, r1
 1188 0012 0340     		and	r3, r0
 1189 0014 1A43     		orr	r2, r3
 1190 0016 2260     		str	r2, [r4]
1276:Generated_Source\PSoC4/VDAC_Synth_UAB.c ****       VDAC_Synth_UAB_OA_CTRL_PTR, 
1277:Generated_Source\PSoC4/VDAC_Synth_UAB.c ****       VDAC_Synth_UAB_CMP_EDGE_MASK, 
1278:Generated_Source\PSoC4/VDAC_Synth_UAB.c ****       ((uint32)detectMode), 
1279:Generated_Source\PSoC4/VDAC_Synth_UAB.c ****       VDAC_Synth_UAB_CMP_EDGE_SHIFT
1280:Generated_Source\PSoC4/VDAC_Synth_UAB.c ****     );
1281:Generated_Source\PSoC4/VDAC_Synth_UAB.c **** }
 1191              		.loc 1 1281 0
 1192              		@ sp needed
 1193 0018 10BD     		pop	{r4, pc}
 1194              	.L105:
 1195 001a C046     		.align	2
 1196              	.L104:
 1197 001c 00033440 		.word	1077150464
 1198 0020 FFCFFFFF 		.word	-12289
 1199              		.cfi_endproc
 1200              	.LFE30:
 1201              		.size	VDAC_Synth_UAB_SetCompEdgeDetect, .-VDAC_Synth_UAB_SetCompEdgeDetect
 1202              		.section	.text.VDAC_Synth_UAB_SetCompOutLevel,"ax",%progbits
 1203              		.align	1
 1204              		.global	VDAC_Synth_UAB_SetCompOutLevel
 1205              		.code	16
 1206              		.thumb_func
 1207              		.type	VDAC_Synth_UAB_SetCompOutLevel, %function
 1208              	VDAC_Synth_UAB_SetCompOutLevel:
 1209              	.LFB31:
1282:Generated_Source\PSoC4/VDAC_Synth_UAB.c **** 
1283:Generated_Source\PSoC4/VDAC_Synth_UAB.c **** /************ VDAC_Synth_UAB_SetCompOutLevel ********************************/
1284:Generated_Source\PSoC4/VDAC_Synth_UAB.c **** /*!
1285:Generated_Source\PSoC4/VDAC_Synth_UAB.c **** * @brief Sets the comparator output trigger level.
1286:Generated_Source\PSoC4/VDAC_Synth_UAB.c **** * 
1287:Generated_Source\PSoC4/VDAC_Synth_UAB.c **** * @details
1288:Generated_Source\PSoC4/VDAC_Synth_UAB.c **** * 
1289:Generated_Source\PSoC4/VDAC_Synth_UAB.c **** * @internal
1290:Generated_Source\PSoC4/VDAC_Synth_UAB.c **** * @reglist @reg VDAC_Synth_UAB_OA0_CTRL_REG
1291:Generated_Source\PSoC4/VDAC_Synth_UAB.c **** * @endinternal
1292:Generated_Source\PSoC4/VDAC_Synth_UAB.c **** * 
1293:Generated_Source\PSoC4/VDAC_Synth_UAB.c **** * @param isLevel
1294:Generated_Source\PSoC4/VDAC_Synth_UAB.c **** *   @arg @c 0 - Output trigger will be a pulse.
1295:Generated_Source\PSoC4/VDAC_Synth_UAB.c **** *   @arg @c 1 - Output trigger will be level.
1296:Generated_Source\PSoC4/VDAC_Synth_UAB.c **** *
1297:Generated_Source\PSoC4/VDAC_Synth_UAB.c **** * @see VDAC_Synth_UAB_SetCompEdgeDetect()
1298:Generated_Source\PSoC4/VDAC_Synth_UAB.c **** * 
1299:Generated_Source\PSoC4/VDAC_Synth_UAB.c **** * @see VDAC_Synth_UAB_GetCompStatus()
1300:Generated_Source\PSoC4/VDAC_Synth_UAB.c **** * 
1301:Generated_Source\PSoC4/VDAC_Synth_UAB.c **** * @sideeffect None
1302:Generated_Source\PSoC4/VDAC_Synth_UAB.c **** *******************************************************************************/
1303:Generated_Source\PSoC4/VDAC_Synth_UAB.c **** void VDAC_Synth_UAB_SetCompOutLevel(CyUAB_cmp_level_enum isLevel)
1304:Generated_Source\PSoC4/VDAC_Synth_UAB.c **** {
 1210              		.loc 1 1304 0
 1211              		.cfi_startproc
 1212              	.LVL73:
 1213 0000 021C     		mov	r2, r0
ARM GAS  C:\Users\Jerry\AppData\Local\Temp\cc1IKG0O.s 			page 46


1305:Generated_Source\PSoC4/VDAC_Synth_UAB.c ****     VDAC_Synth_UAB_SET_FIELD(
 1214              		.loc 1 1305 0
 1215 0002 8021     		mov	r1, #128
1304:Generated_Source\PSoC4/VDAC_Synth_UAB.c ****     VDAC_Synth_UAB_SET_FIELD(
 1216              		.loc 1 1304 0
 1217 0004 10B5     		push	{r4, lr}
 1218              		.cfi_def_cfa_offset 8
 1219              		.cfi_offset 4, -8
 1220              		.cfi_offset 14, -4
 1221              		.loc 1 1305 0
 1222 0006 054C     		ldr	r4, .L107
 1223 0008 054B     		ldr	r3, .L107+4
 1224 000a 2068     		ldr	r0, [r4]
 1225              	.LVL74:
 1226 000c C901     		lsl	r1, r1, #7
 1227 000e 9203     		lsl	r2, r2, #14
 1228 0010 0A40     		and	r2, r1
 1229 0012 0340     		and	r3, r0
 1230 0014 1A43     		orr	r2, r3
 1231 0016 2260     		str	r2, [r4]
1306:Generated_Source\PSoC4/VDAC_Synth_UAB.c ****       VDAC_Synth_UAB_OA_CTRL_PTR, 
1307:Generated_Source\PSoC4/VDAC_Synth_UAB.c ****       VDAC_Synth_UAB_CMP_DSI_LEVEL_MASK, 
1308:Generated_Source\PSoC4/VDAC_Synth_UAB.c ****       ((uint32)isLevel), 
1309:Generated_Source\PSoC4/VDAC_Synth_UAB.c ****       VDAC_Synth_UAB_CMP_DSI_LEVEL_SHIFT
1310:Generated_Source\PSoC4/VDAC_Synth_UAB.c ****     );
1311:Generated_Source\PSoC4/VDAC_Synth_UAB.c **** }
 1232              		.loc 1 1311 0
 1233              		@ sp needed
 1234 0018 10BD     		pop	{r4, pc}
 1235              	.L108:
 1236 001a C046     		.align	2
 1237              	.L107:
 1238 001c 00033440 		.word	1077150464
 1239 0020 FFBFFFFF 		.word	-16385
 1240              		.cfi_endproc
 1241              	.LFE31:
 1242              		.size	VDAC_Synth_UAB_SetCompOutLevel, .-VDAC_Synth_UAB_SetCompOutLevel
 1243              		.section	.text.VDAC_Synth_UAB_GetCompStatus,"ax",%progbits
 1244              		.align	1
 1245              		.global	VDAC_Synth_UAB_GetCompStatus
 1246              		.code	16
 1247              		.thumb_func
 1248              		.type	VDAC_Synth_UAB_GetCompStatus, %function
 1249              	VDAC_Synth_UAB_GetCompStatus:
 1250              	.LFB32:
1312:Generated_Source\PSoC4/VDAC_Synth_UAB.c **** 
1313:Generated_Source\PSoC4/VDAC_Synth_UAB.c **** 
1314:Generated_Source\PSoC4/VDAC_Synth_UAB.c **** /************  VDAC_Synth_UAB_GetCompStatus() *******************************/
1315:Generated_Source\PSoC4/VDAC_Synth_UAB.c **** /*!
1316:Generated_Source\PSoC4/VDAC_Synth_UAB.c **** * @brief Get the output status of the Comparator.
1317:Generated_Source\PSoC4/VDAC_Synth_UAB.c **** * 
1318:Generated_Source\PSoC4/VDAC_Synth_UAB.c **** * @details Show the current comparator status output. Return type is @c uint8 an 
1319:Generated_Source\PSoC4/VDAC_Synth_UAB.c **** * unsigned 8-bit integer. It returns 1 if the current comp output is HIGH, and 
1320:Generated_Source\PSoC4/VDAC_Synth_UAB.c **** * returns 0 if current comp output is LOW
1321:Generated_Source\PSoC4/VDAC_Synth_UAB.c **** * 
1322:Generated_Source\PSoC4/VDAC_Synth_UAB.c **** * @internal
1323:Generated_Source\PSoC4/VDAC_Synth_UAB.c **** * @reglist @reg STAT0 STAT1
ARM GAS  C:\Users\Jerry\AppData\Local\Temp\cc1IKG0O.s 			page 47


1324:Generated_Source\PSoC4/VDAC_Synth_UAB.c **** * @endinternal
1325:Generated_Source\PSoC4/VDAC_Synth_UAB.c **** * 
1326:Generated_Source\PSoC4/VDAC_Synth_UAB.c **** * @see VDAC_Synth_UAB_SetCompEdgeDetect()
1327:Generated_Source\PSoC4/VDAC_Synth_UAB.c **** * @see VDAC_Synth_UAB_SetCompOutLevel()
1328:Generated_Source\PSoC4/VDAC_Synth_UAB.c **** * 
1329:Generated_Source\PSoC4/VDAC_Synth_UAB.c **** * 
1330:Generated_Source\PSoC4/VDAC_Synth_UAB.c **** * @sideeffect None
1331:Generated_Source\PSoC4/VDAC_Synth_UAB.c **** *******************************************************************************/
1332:Generated_Source\PSoC4/VDAC_Synth_UAB.c **** uint32 VDAC_Synth_UAB_GetCompStatus(void)
1333:Generated_Source\PSoC4/VDAC_Synth_UAB.c **** {
 1251              		.loc 1 1333 0
 1252              		.cfi_startproc
1334:Generated_Source\PSoC4/VDAC_Synth_UAB.c ****     /*GET_FIELD() has an addional shift*/
1335:Generated_Source\PSoC4/VDAC_Synth_UAB.c ****     uint32 r = (0UL != ((*(VDAC_Synth_UAB_STAT_PTR)) & VDAC_Synth_UAB_COMP_MASK)) ? 1UL : 0UL;
 1253              		.loc 1 1335 0
 1254 0000 024B     		ldr	r3, .L110
1336:Generated_Source\PSoC4/VDAC_Synth_UAB.c ****     return r;    
1337:Generated_Source\PSoC4/VDAC_Synth_UAB.c **** }
 1255              		.loc 1 1337 0
 1256              		@ sp needed
1335:Generated_Source\PSoC4/VDAC_Synth_UAB.c ****     return r;    
 1257              		.loc 1 1335 0
 1258 0002 1868     		ldr	r0, [r3]
 1259              	.LVL75:
 1260 0004 C006     		lsl	r0, r0, #27
 1261              	.LVL76:
 1262 0006 C00F     		lsr	r0, r0, #31
 1263              		.loc 1 1337 0
 1264 0008 7047     		bx	lr
 1265              	.L111:
 1266 000a C046     		.align	2
 1267              	.L110:
 1268 000c 7C033440 		.word	1077150588
 1269              		.cfi_endproc
 1270              	.LFE32:
 1271              		.size	VDAC_Synth_UAB_GetCompStatus, .-VDAC_Synth_UAB_GetCompStatus
 1272              		.section	.text.VDAC_Synth_UAB_SetEarly,"ax",%progbits
 1273              		.align	1
 1274              		.global	VDAC_Synth_UAB_SetEarly
 1275              		.code	16
 1276              		.thumb_func
 1277              		.type	VDAC_Synth_UAB_SetEarly, %function
 1278              	VDAC_Synth_UAB_SetEarly:
 1279              	.LFB33:
1338:Generated_Source\PSoC4/VDAC_Synth_UAB.c **** 
1339:Generated_Source\PSoC4/VDAC_Synth_UAB.c **** 
1340:Generated_Source\PSoC4/VDAC_Synth_UAB.c **** /* Switches */
1341:Generated_Source\PSoC4/VDAC_Synth_UAB.c **** 
1342:Generated_Source\PSoC4/VDAC_Synth_UAB.c **** 
1343:Generated_Source\PSoC4/VDAC_Synth_UAB.c **** /************** VDAC_Synth_UAB_SetEarly() ***********************************/
1344:Generated_Source\PSoC4/VDAC_Synth_UAB.c **** /*!
1345:Generated_Source\PSoC4/VDAC_Synth_UAB.c **** * @brief Set early clock timing for specific switches
1346:Generated_Source\PSoC4/VDAC_Synth_UAB.c **** * 
1347:Generated_Source\PSoC4/VDAC_Synth_UAB.c **** * @details Applies to PS (OUT<->SUM) and PO (VOUT->OUT) switches only.
1348:Generated_Source\PSoC4/VDAC_Synth_UAB.c **** *
1349:Generated_Source\PSoC4/VDAC_Synth_UAB.c **** * @param sw_id CyUAB_SW_PS or CyUAB_SW_PO - ignores all other values of id
1350:Generated_Source\PSoC4/VDAC_Synth_UAB.c **** * @param isEarly 
ARM GAS  C:\Users\Jerry\AppData\Local\Temp\cc1IKG0O.s 			page 48


1351:Generated_Source\PSoC4/VDAC_Synth_UAB.c **** * @arg CyUAB_CLK_ADJ_NOEARLY normal timing
1352:Generated_Source\PSoC4/VDAC_Synth_UAB.c **** * @arg CyUAB_CLK_ADJ_EARLY   early timing
1353:Generated_Source\PSoC4/VDAC_Synth_UAB.c **** *
1354:Generated_Source\PSoC4/VDAC_Synth_UAB.c **** * @internal
1355:Generated_Source\PSoC4/VDAC_Synth_UAB.c **** * @reglist @reg VDAC_Synth_UAB_SW_STATIC0_REG or VDAC_Synth_UAB_SW_STATIC1_REG
1356:Generated_Source\PSoC4/VDAC_Synth_UAB.c **** * @image html _.png 
1357:Generated_Source\PSoC4/VDAC_Synth_UAB.c **** * @endinternal
1358:Generated_Source\PSoC4/VDAC_Synth_UAB.c **** * 
1359:Generated_Source\PSoC4/VDAC_Synth_UAB.c **** * @sideeffect None
1360:Generated_Source\PSoC4/VDAC_Synth_UAB.c **** *******************************************************************************/
1361:Generated_Source\PSoC4/VDAC_Synth_UAB.c **** void VDAC_Synth_UAB_SetEarly(CyUAB_sw_id_enum sw_id, CyUAB_clk_adj_enum isEarly)
1362:Generated_Source\PSoC4/VDAC_Synth_UAB.c **** {
 1280              		.loc 1 1362 0
 1281              		.cfi_startproc
 1282              	.LVL77:
1363:Generated_Source\PSoC4/VDAC_Synth_UAB.c ****     if( CyUAB_SW_PS==sw_id )
 1283              		.loc 1 1363 0
 1284 0000 0C4B     		ldr	r3, .L116
1362:Generated_Source\PSoC4/VDAC_Synth_UAB.c ****     if( CyUAB_SW_PS==sw_id )
 1285              		.loc 1 1362 0
 1286 0002 10B5     		push	{r4, lr}
 1287              		.cfi_def_cfa_offset 8
 1288              		.cfi_offset 4, -8
 1289              		.cfi_offset 14, -4
 1290              		.loc 1 1363 0
 1291 0004 9842     		cmp	r0, r3
 1292 0006 07D1     		bne	.L113
1364:Generated_Source\PSoC4/VDAC_Synth_UAB.c ****     {
1365:Generated_Source\PSoC4/VDAC_Synth_UAB.c ****         VDAC_Synth_UAB_SET_FIELD(
 1293              		.loc 1 1365 0
 1294 0008 8022     		mov	r2, #128
 1295 000a 0B48     		ldr	r0, .L116+4
 1296              	.LVL78:
 1297 000c 0903     		lsl	r1, r1, #12
 1298              	.LVL79:
 1299 000e 5201     		lsl	r2, r2, #5
 1300 0010 0468     		ldr	r4, [r0]
 1301 0012 1140     		and	r1, r2
 1302 0014 094B     		ldr	r3, .L116+8
 1303 0016 09E0     		b	.L115
 1304              	.LVL80:
 1305              	.L113:
1366:Generated_Source\PSoC4/VDAC_Synth_UAB.c ****           VDAC_Synth_UAB_SW_STATIC_PTR, 
1367:Generated_Source\PSoC4/VDAC_Synth_UAB.c ****           VDAC_Synth_UAB_EARLY_PS_MASK, 
1368:Generated_Source\PSoC4/VDAC_Synth_UAB.c ****           ((uint32)isEarly), 
1369:Generated_Source\PSoC4/VDAC_Synth_UAB.c ****           VDAC_Synth_UAB_EARLY_PS_SHIFT
1370:Generated_Source\PSoC4/VDAC_Synth_UAB.c ****         ); 
1371:Generated_Source\PSoC4/VDAC_Synth_UAB.c ****     }
1372:Generated_Source\PSoC4/VDAC_Synth_UAB.c ****     else if( CyUAB_SW_PO==sw_id )
 1306              		.loc 1 1372 0
 1307 0018 094B     		ldr	r3, .L116+12
 1308 001a 9842     		cmp	r0, r3
 1309 001c 09D1     		bne	.L112
1373:Generated_Source\PSoC4/VDAC_Synth_UAB.c ****     {
1374:Generated_Source\PSoC4/VDAC_Synth_UAB.c ****         VDAC_Synth_UAB_SET_FIELD(
 1310              		.loc 1 1374 0
 1311 001e 8022     		mov	r2, #128
ARM GAS  C:\Users\Jerry\AppData\Local\Temp\cc1IKG0O.s 			page 49


 1312 0020 0548     		ldr	r0, .L116+4
 1313              	.LVL81:
 1314 0022 4903     		lsl	r1, r1, #13
 1315              	.LVL82:
 1316 0024 9201     		lsl	r2, r2, #6
 1317 0026 0468     		ldr	r4, [r0]
 1318 0028 064B     		ldr	r3, .L116+16
 1319 002a 1140     		and	r1, r2
 1320              	.L115:
 1321 002c 2340     		and	r3, r4
 1322 002e 1943     		orr	r1, r3
 1323 0030 0160     		str	r1, [r0]
 1324              	.L112:
1375:Generated_Source\PSoC4/VDAC_Synth_UAB.c ****           VDAC_Synth_UAB_SW_STATIC_PTR, 
1376:Generated_Source\PSoC4/VDAC_Synth_UAB.c ****           VDAC_Synth_UAB_EARLY_PO_MASK, 
1377:Generated_Source\PSoC4/VDAC_Synth_UAB.c ****           ((uint32)isEarly), 
1378:Generated_Source\PSoC4/VDAC_Synth_UAB.c ****           VDAC_Synth_UAB_EARLY_PO_SHIFT
1379:Generated_Source\PSoC4/VDAC_Synth_UAB.c ****         );
1380:Generated_Source\PSoC4/VDAC_Synth_UAB.c ****     }
1381:Generated_Source\PSoC4/VDAC_Synth_UAB.c ****     else
1382:Generated_Source\PSoC4/VDAC_Synth_UAB.c ****     {
1383:Generated_Source\PSoC4/VDAC_Synth_UAB.c ****         /* do nothing - only 2 switches have early option */   
1384:Generated_Source\PSoC4/VDAC_Synth_UAB.c ****     }
1385:Generated_Source\PSoC4/VDAC_Synth_UAB.c **** }
 1325              		.loc 1 1385 0
 1326              		@ sp needed
 1327 0032 10BD     		pop	{r4, pc}
 1328              	.L117:
 1329              		.align	2
 1330              	.L116:
 1331 0034 6C000800 		.word	524396
 1332 0038 30033440 		.word	1077150512
 1333 003c FFEFFFFF 		.word	-4097
 1334 0040 6C000C00 		.word	786540
 1335 0044 FFDFFFFF 		.word	-8193
 1336              		.cfi_endproc
 1337              	.LFE33:
 1338              		.size	VDAC_Synth_UAB_SetEarly, .-VDAC_Synth_UAB_SetEarly
 1339              		.section	.text.VDAC_Synth_UAB_Run,"ax",%progbits
 1340              		.align	1
 1341              		.global	VDAC_Synth_UAB_Run
 1342              		.code	16
 1343              		.thumb_func
 1344              		.type	VDAC_Synth_UAB_Run, %function
 1345              	VDAC_Synth_UAB_Run:
 1346              	.LFB34:
1386:Generated_Source\PSoC4/VDAC_Synth_UAB.c **** 
1387:Generated_Source\PSoC4/VDAC_Synth_UAB.c **** 
1388:Generated_Source\PSoC4/VDAC_Synth_UAB.c **** 
1389:Generated_Source\PSoC4/VDAC_Synth_UAB.c **** /* Clocking */
1390:Generated_Source\PSoC4/VDAC_Synth_UAB.c **** 
1391:Generated_Source\PSoC4/VDAC_Synth_UAB.c **** 
1392:Generated_Source\PSoC4/VDAC_Synth_UAB.c **** 
1393:Generated_Source\PSoC4/VDAC_Synth_UAB.c **** 
1394:Generated_Source\PSoC4/VDAC_Synth_UAB.c **** /************** VDAC_Synth_UAB_Run() ****************************************/
1395:Generated_Source\PSoC4/VDAC_Synth_UAB.c **** /*!
1396:Generated_Source\PSoC4/VDAC_Synth_UAB.c **** * @brief UAB clock enabling
ARM GAS  C:\Users\Jerry\AppData\Local\Temp\cc1IKG0O.s 			page 50


1397:Generated_Source\PSoC4/VDAC_Synth_UAB.c **** * 
1398:Generated_Source\PSoC4/VDAC_Synth_UAB.c **** * @details sets and clears RUN bit
1399:Generated_Source\PSoC4/VDAC_Synth_UAB.c **** * The UAB clocks are not enabled by default.  Once they are enabled,
1400:Generated_Source\PSoC4/VDAC_Synth_UAB.c **** * they will either wait for a trigger (see VDAC_Synth_UAB_SetInputTrigger()),
1401:Generated_Source\PSoC4/VDAC_Synth_UAB.c **** * or start immediately.
1402:Generated_Source\PSoC4/VDAC_Synth_UAB.c **** *
1403:Generated_Source\PSoC4/VDAC_Synth_UAB.c **** * Can call this immediately after calling Enable() (setting ENABLED bit) - 
1404:Generated_Source\PSoC4/VDAC_Synth_UAB.c **** * no delay required - run bit control logic handles UAB ramp up
1405:Generated_Source\PSoC4/VDAC_Synth_UAB.c **** *
1406:Generated_Source\PSoC4/VDAC_Synth_UAB.c **** * @param flag
1407:Generated_Source\PSoC4/VDAC_Synth_UAB.c **** * @arg 0 clear run bit
1408:Generated_Source\PSoC4/VDAC_Synth_UAB.c **** * @arg 1 set run bit
1409:Generated_Source\PSoC4/VDAC_Synth_UAB.c **** *
1410:Generated_Source\PSoC4/VDAC_Synth_UAB.c **** * @internal
1411:Generated_Source\PSoC4/VDAC_Synth_UAB.c **** * @reglist @reg SRAM0_CTRL @reg SRAM1_CTRL
1412:Generated_Source\PSoC4/VDAC_Synth_UAB.c **** * @image html _.png 
1413:Generated_Source\PSoC4/VDAC_Synth_UAB.c **** * @endinternal
1414:Generated_Source\PSoC4/VDAC_Synth_UAB.c **** * 
1415:Generated_Source\PSoC4/VDAC_Synth_UAB.c **** * @sideeffect None
1416:Generated_Source\PSoC4/VDAC_Synth_UAB.c **** *******************************************************************************/
1417:Generated_Source\PSoC4/VDAC_Synth_UAB.c **** void VDAC_Synth_UAB_Run(uint32 flag)
1418:Generated_Source\PSoC4/VDAC_Synth_UAB.c **** {
 1347              		.loc 1 1418 0
 1348              		.cfi_startproc
 1349              	.LVL83:
1419:Generated_Source\PSoC4/VDAC_Synth_UAB.c ****     VDAC_Synth_UAB_SET_FIELD(
 1350              		.loc 1 1419 0
 1351 0000 034A     		ldr	r2, .L119
 1352 0002 C007     		lsl	r0, r0, #31
 1353              	.LVL84:
 1354 0004 1368     		ldr	r3, [r2]
1420:Generated_Source\PSoC4/VDAC_Synth_UAB.c ****       VDAC_Synth_UAB_SRAM_CTRL_PTR,
1421:Generated_Source\PSoC4/VDAC_Synth_UAB.c ****       VDAC_Synth_UAB_RUN_MASK, 
1422:Generated_Source\PSoC4/VDAC_Synth_UAB.c ****       flag, 
1423:Generated_Source\PSoC4/VDAC_Synth_UAB.c ****       VDAC_Synth_UAB_RUN_SHIFT
1424:Generated_Source\PSoC4/VDAC_Synth_UAB.c ****     );    
1425:Generated_Source\PSoC4/VDAC_Synth_UAB.c **** }
 1355              		.loc 1 1425 0
 1356              		@ sp needed
1419:Generated_Source\PSoC4/VDAC_Synth_UAB.c ****     VDAC_Synth_UAB_SET_FIELD(
 1357              		.loc 1 1419 0
 1358 0006 5B00     		lsl	r3, r3, #1
 1359 0008 5B08     		lsr	r3, r3, #1
 1360 000a 1843     		orr	r0, r3
 1361 000c 1060     		str	r0, [r2]
 1362              		.loc 1 1425 0
 1363 000e 7047     		bx	lr
 1364              	.L120:
 1365              		.align	2
 1366              	.L119:
 1367 0010 78033440 		.word	1077150584
 1368              		.cfi_endproc
 1369              	.LFE34:
 1370              		.size	VDAC_Synth_UAB_Run, .-VDAC_Synth_UAB_Run
 1371              		.section	.text.VDAC_Synth_UAB_Start,"ax",%progbits
 1372              		.align	1
 1373              		.global	VDAC_Synth_UAB_Start
ARM GAS  C:\Users\Jerry\AppData\Local\Temp\cc1IKG0O.s 			page 51


 1374              		.code	16
 1375              		.thumb_func
 1376              		.type	VDAC_Synth_UAB_Start, %function
 1377              	VDAC_Synth_UAB_Start:
 1378              	.LFB1:
 230:Generated_Source\PSoC4/VDAC_Synth_UAB.c ****     if (VDAC_Synth_UAB_initVar != 1UL)
 1379              		.loc 1 230 0
 1380              		.cfi_startproc
 1381 0000 10B5     		push	{r4, lr}
 1382              		.cfi_def_cfa_offset 8
 1383              		.cfi_offset 4, -8
 1384              		.cfi_offset 14, -4
 231:Generated_Source\PSoC4/VDAC_Synth_UAB.c ****     {
 1385              		.loc 1 231 0
 1386 0002 064C     		ldr	r4, .L126
 1387 0004 2368     		ldr	r3, [r4]
 1388 0006 012B     		cmp	r3, #1
 1389 0008 04D0     		beq	.L122
 233:Generated_Source\PSoC4/VDAC_Synth_UAB.c ****         VDAC_Synth_UAB_initVar = 1UL;
 1390              		.loc 1 233 0
 1391 000a 0548     		ldr	r0, .L126+4
 1392 000c FFF7FEFF 		bl	VDAC_Synth_UAB_Init
 1393              	.LVL85:
 234:Generated_Source\PSoC4/VDAC_Synth_UAB.c ****     }
 1394              		.loc 1 234 0
 1395 0010 0123     		mov	r3, #1
 1396 0012 2360     		str	r3, [r4]
 1397              	.L122:
 242:Generated_Source\PSoC4/VDAC_Synth_UAB.c **** }
 1398              		.loc 1 242 0
 1399 0014 0120     		mov	r0, #1
 1400 0016 FFF7FEFF 		bl	VDAC_Synth_UAB_Run
 1401              	.LVL86:
 243:Generated_Source\PSoC4/VDAC_Synth_UAB.c **** 
 1402              		.loc 1 243 0
 1403              		@ sp needed
 1404 001a 10BD     		pop	{r4, pc}
 1405              	.L127:
 1406              		.align	2
 1407              	.L126:
 1408 001c 00000000 		.word	.LANCHOR0
 1409 0020 00000000 		.word	.LANCHOR1
 1410              		.cfi_endproc
 1411              	.LFE1:
 1412              		.size	VDAC_Synth_UAB_Start, .-VDAC_Synth_UAB_Start
 1413              		.section	.text.VDAC_Synth_UAB_Stop,"ax",%progbits
 1414              		.align	1
 1415              		.global	VDAC_Synth_UAB_Stop
 1416              		.code	16
 1417              		.thumb_func
 1418              		.type	VDAC_Synth_UAB_Stop, %function
 1419              	VDAC_Synth_UAB_Stop:
 1420              	.LFB2:
 262:Generated_Source\PSoC4/VDAC_Synth_UAB.c ****     VDAC_Synth_UAB_Run(0UL); /*Clear run bit*/
 1421              		.loc 1 262 0
 1422              		.cfi_startproc
 1423 0000 08B5     		push	{r3, lr}
ARM GAS  C:\Users\Jerry\AppData\Local\Temp\cc1IKG0O.s 			page 52


 1424              		.cfi_def_cfa_offset 8
 1425              		.cfi_offset 3, -8
 1426              		.cfi_offset 14, -4
 263:Generated_Source\PSoC4/VDAC_Synth_UAB.c ****     /*Intentionally not clearing the enable bit because it has a side-effect - 
 1427              		.loc 1 263 0
 1428 0002 0020     		mov	r0, #0
 1429 0004 FFF7FEFF 		bl	VDAC_Synth_UAB_Run
 1430              	.LVL87:
 266:Generated_Source\PSoC4/VDAC_Synth_UAB.c **** 
 1431              		.loc 1 266 0
 1432              		@ sp needed
 1433 0008 08BD     		pop	{r3, pc}
 1434              		.cfi_endproc
 1435              	.LFE2:
 1436              		.size	VDAC_Synth_UAB_Stop, .-VDAC_Synth_UAB_Stop
 1437              		.section	.text.VDAC_Synth_UAB_SetLastStep,"ax",%progbits
 1438              		.align	1
 1439              		.global	VDAC_Synth_UAB_SetLastStep
 1440              		.code	16
 1441              		.thumb_func
 1442              		.type	VDAC_Synth_UAB_SetLastStep, %function
 1443              	VDAC_Synth_UAB_SetLastStep:
 1444              	.LFB35:
1426:Generated_Source\PSoC4/VDAC_Synth_UAB.c **** 
1427:Generated_Source\PSoC4/VDAC_Synth_UAB.c **** 
1428:Generated_Source\PSoC4/VDAC_Synth_UAB.c **** /************** VDAC_Synth_UAB_SetLastStep() ********************************/
1429:Generated_Source\PSoC4/VDAC_Synth_UAB.c **** /*!
1430:Generated_Source\PSoC4/VDAC_Synth_UAB.c **** * @brief Configure UAB-half clock width
1431:Generated_Source\PSoC4/VDAC_Synth_UAB.c **** * 
1432:Generated_Source\PSoC4/VDAC_Synth_UAB.c **** * @details The clocks can be up to 16 steps wide.  They can be configured to
1433:Generated_Source\PSoC4/VDAC_Synth_UAB.c **** * use any or all of the 16 step.  This function sets how many of the steps are
1434:Generated_Source\PSoC4/VDAC_Synth_UAB.c **** * to be used.  This width applies to all 12 clocks.  Returns @c void.
1435:Generated_Source\PSoC4/VDAC_Synth_UAB.c **** * 
1436:Generated_Source\PSoC4/VDAC_Synth_UAB.c **** * @internal
1437:Generated_Source\PSoC4/VDAC_Synth_UAB.c **** * @reglist @reg VDAC_Synth_UAB_SRAM0_CTRL_REG
1438:Generated_Source\PSoC4/VDAC_Synth_UAB.c **** * @endinternal
1439:Generated_Source\PSoC4/VDAC_Synth_UAB.c **** * 
1440:Generated_Source\PSoC4/VDAC_Synth_UAB.c **** * @param lastStep The last step desired to be used from SRAM clocks.
1441:Generated_Source\PSoC4/VDAC_Synth_UAB.c **** * Should be between @c 0 and @c 15 inclusive.
1442:Generated_Source\PSoC4/VDAC_Synth_UAB.c **** * 
1443:Generated_Source\PSoC4/VDAC_Synth_UAB.c **** * @sideeffect None
1444:Generated_Source\PSoC4/VDAC_Synth_UAB.c **** *******************************************************************************/
1445:Generated_Source\PSoC4/VDAC_Synth_UAB.c **** void VDAC_Synth_UAB_SetLastStep(uint32 lastStep)
1446:Generated_Source\PSoC4/VDAC_Synth_UAB.c **** {
 1445              		.loc 1 1446 0
 1446              		.cfi_startproc
 1447              	.LVL88:
1447:Generated_Source\PSoC4/VDAC_Synth_UAB.c ****     VDAC_Synth_UAB_SET_FIELD(
 1448              		.loc 1 1447 0
 1449 0000 0F21     		mov	r1, #15
 1450 0002 034A     		ldr	r2, .L130
 1451 0004 0840     		and	r0, r1
 1452              	.LVL89:
 1453 0006 1368     		ldr	r3, [r2]
1448:Generated_Source\PSoC4/VDAC_Synth_UAB.c ****       VDAC_Synth_UAB_SRAM_CTRL_PTR, 
1449:Generated_Source\PSoC4/VDAC_Synth_UAB.c ****       VDAC_Synth_UAB_LAST_STEP_MASK,
1450:Generated_Source\PSoC4/VDAC_Synth_UAB.c ****       lastStep, 
ARM GAS  C:\Users\Jerry\AppData\Local\Temp\cc1IKG0O.s 			page 53


1451:Generated_Source\PSoC4/VDAC_Synth_UAB.c ****       VDAC_Synth_UAB_LAST_STEP_SHIFT
1452:Generated_Source\PSoC4/VDAC_Synth_UAB.c ****     );    
1453:Generated_Source\PSoC4/VDAC_Synth_UAB.c **** }
 1454              		.loc 1 1453 0
 1455              		@ sp needed
1447:Generated_Source\PSoC4/VDAC_Synth_UAB.c ****     VDAC_Synth_UAB_SET_FIELD(
 1456              		.loc 1 1447 0
 1457 0008 8B43     		bic	r3, r1
 1458 000a 1843     		orr	r0, r3
 1459 000c 1060     		str	r0, [r2]
 1460              		.loc 1 1453 0
 1461 000e 7047     		bx	lr
 1462              	.L131:
 1463              		.align	2
 1464              	.L130:
 1465 0010 78033440 		.word	1077150584
 1466              		.cfi_endproc
 1467              	.LFE35:
 1468              		.size	VDAC_Synth_UAB_SetLastStep, .-VDAC_Synth_UAB_SetLastStep
 1469              		.section	.text.VDAC_Synth_UAB_SetStartupDelay,"ax",%progbits
 1470              		.align	1
 1471              		.global	VDAC_Synth_UAB_SetStartupDelay
 1472              		.code	16
 1473              		.thumb_func
 1474              		.type	VDAC_Synth_UAB_SetStartupDelay, %function
 1475              	VDAC_Synth_UAB_SetStartupDelay:
 1476              	.LFB36:
1454:Generated_Source\PSoC4/VDAC_Synth_UAB.c **** 
1455:Generated_Source\PSoC4/VDAC_Synth_UAB.c **** /******** VDAC_Synth_UAB_SetStartupDelay() **********************************/
1456:Generated_Source\PSoC4/VDAC_Synth_UAB.c **** /*!
1457:Generated_Source\PSoC4/VDAC_Synth_UAB.c **** * @brief Set the delay time before UAB starts running.
1458:Generated_Source\PSoC4/VDAC_Synth_UAB.c **** * 
1459:Generated_Source\PSoC4/VDAC_Synth_UAB.c **** * @details After a positive edge on the Trigger it will take STARTUP_DELAY clk half 
1460:Generated_Source\PSoC4/VDAC_Synth_UAB.c **** * cycles before the first UAB clock happens. This allows firmware to precisely align 
1461:Generated_Source\PSoC4/VDAC_Synth_UAB.c **** * the UAB output with the SAR schedule. Returns @c void.
1462:Generated_Source\PSoC4/VDAC_Synth_UAB.c **** * 
1463:Generated_Source\PSoC4/VDAC_Synth_UAB.c **** * @internal
1464:Generated_Source\PSoC4/VDAC_Synth_UAB.c **** * @reglist @reg VDAC_Synth_UAB_STARTUP_DELAY0_REG
1465:Generated_Source\PSoC4/VDAC_Synth_UAB.c **** * @endinternal
1466:Generated_Source\PSoC4/VDAC_Synth_UAB.c **** * 
1467:Generated_Source\PSoC4/VDAC_Synth_UAB.c **** * @param delayCount The number of clock cycles to delay before starting the UAB clocks. 
1468:Generated_Source\PSoC4/VDAC_Synth_UAB.c **** * A value of 0 disables this function.
1469:Generated_Source\PSoC4/VDAC_Synth_UAB.c **** * 
1470:Generated_Source\PSoC4/VDAC_Synth_UAB.c **** * 
1471:Generated_Source\PSoC4/VDAC_Synth_UAB.c **** * @sideeffect None
1472:Generated_Source\PSoC4/VDAC_Synth_UAB.c **** *******************************************************************************/
1473:Generated_Source\PSoC4/VDAC_Synth_UAB.c **** void VDAC_Synth_UAB_SetStartupDelay(uint16 delayCount)
1474:Generated_Source\PSoC4/VDAC_Synth_UAB.c **** {
 1477              		.loc 1 1474 0
 1478              		.cfi_startproc
 1479              	.LVL90:
1475:Generated_Source\PSoC4/VDAC_Synth_UAB.c ****     VDAC_Synth_UAB_SET_FIELD(
 1480              		.loc 1 1475 0
 1481 0000 034A     		ldr	r2, .L133
1476:Generated_Source\PSoC4/VDAC_Synth_UAB.c ****       VDAC_Synth_UAB_STARTUP_DELAY_PTR, 
1477:Generated_Source\PSoC4/VDAC_Synth_UAB.c ****       VDAC_Synth_UAB_STARTUP_DELAY_MASK, 
1478:Generated_Source\PSoC4/VDAC_Synth_UAB.c ****       (uint32)delayCount, 
ARM GAS  C:\Users\Jerry\AppData\Local\Temp\cc1IKG0O.s 			page 54


1479:Generated_Source\PSoC4/VDAC_Synth_UAB.c ****       VDAC_Synth_UAB_STARTUP_DELAY_SHIFT
1480:Generated_Source\PSoC4/VDAC_Synth_UAB.c ****     );
1481:Generated_Source\PSoC4/VDAC_Synth_UAB.c **** }
 1482              		.loc 1 1481 0
 1483              		@ sp needed
1475:Generated_Source\PSoC4/VDAC_Synth_UAB.c ****     VDAC_Synth_UAB_SET_FIELD(
 1484              		.loc 1 1475 0
 1485 0002 1368     		ldr	r3, [r2]
 1486 0004 1B0C     		lsr	r3, r3, #16
 1487 0006 1B04     		lsl	r3, r3, #16
 1488 0008 1843     		orr	r0, r3
 1489              	.LVL91:
 1490 000a 1060     		str	r0, [r2]
 1491              		.loc 1 1481 0
 1492 000c 7047     		bx	lr
 1493              	.L134:
 1494 000e C046     		.align	2
 1495              	.L133:
 1496 0010 20033440 		.word	1077150496
 1497              		.cfi_endproc
 1498              	.LFE36:
 1499              		.size	VDAC_Synth_UAB_SetStartupDelay, .-VDAC_Synth_UAB_SetStartupDelay
 1500              		.section	.text.VDAC_Synth_UAB_SetAlignMode,"ax",%progbits
 1501              		.align	1
 1502              		.global	VDAC_Synth_UAB_SetAlignMode
 1503              		.code	16
 1504              		.thumb_func
 1505              		.type	VDAC_Synth_UAB_SetAlignMode, %function
 1506              	VDAC_Synth_UAB_SetAlignMode:
 1507              	.LFB37:
1482:Generated_Source\PSoC4/VDAC_Synth_UAB.c **** 
1483:Generated_Source\PSoC4/VDAC_Synth_UAB.c **** /*********** VDAC_Synth_UAB_SetAlignMode() **********************************/
1484:Generated_Source\PSoC4/VDAC_Synth_UAB.c **** /*!
1485:Generated_Source\PSoC4/VDAC_Synth_UAB.c **** * @brief Change meaning of startupDelay based on scheduled or unscheduled mode
1486:Generated_Source\PSoC4/VDAC_Synth_UAB.c **** * 
1487:Generated_Source\PSoC4/VDAC_Synth_UAB.c **** * @details 
1488:Generated_Source\PSoC4/VDAC_Synth_UAB.c **** *
1489:Generated_Source\PSoC4/VDAC_Synth_UAB.c **** * @internal
1490:Generated_Source\PSoC4/VDAC_Synth_UAB.c **** * @reglist @reg VDAC_Synth_UAB_STARTUP_DELAY0_REG , VDAC_Synth_UAB_STARTUP_DELAY1_REG
1491:Generated_Source\PSoC4/VDAC_Synth_UAB.c **** * @endinternal
1492:Generated_Source\PSoC4/VDAC_Synth_UAB.c **** *
1493:Generated_Source\PSoC4/VDAC_Synth_UAB.c **** * 
1494:Generated_Source\PSoC4/VDAC_Synth_UAB.c **** * @sideeffect None
1495:Generated_Source\PSoC4/VDAC_Synth_UAB.c **** *******************************************************************************/
1496:Generated_Source\PSoC4/VDAC_Synth_UAB.c **** void VDAC_Synth_UAB_SetAlignMode(CyUAB_align_mode_enum alignMode)
1497:Generated_Source\PSoC4/VDAC_Synth_UAB.c **** {
 1508              		.loc 1 1497 0
 1509              		.cfi_startproc
 1510              	.LVL92:
 1511 0000 021C     		mov	r2, r0
1498:Generated_Source\PSoC4/VDAC_Synth_UAB.c ****     VDAC_Synth_UAB_SET_FIELD(
 1512              		.loc 1 1498 0
 1513 0002 8021     		mov	r1, #128
1497:Generated_Source\PSoC4/VDAC_Synth_UAB.c ****     VDAC_Synth_UAB_SET_FIELD(
 1514              		.loc 1 1497 0
 1515 0004 10B5     		push	{r4, lr}
 1516              		.cfi_def_cfa_offset 8
ARM GAS  C:\Users\Jerry\AppData\Local\Temp\cc1IKG0O.s 			page 55


 1517              		.cfi_offset 4, -8
 1518              		.cfi_offset 14, -4
 1519              		.loc 1 1498 0
 1520 0006 054C     		ldr	r4, .L136
 1521 0008 054B     		ldr	r3, .L136+4
 1522 000a 2068     		ldr	r0, [r4]
 1523              	.LVL93:
 1524 000c 4902     		lsl	r1, r1, #9
 1525 000e 1204     		lsl	r2, r2, #16
 1526 0010 0A40     		and	r2, r1
 1527 0012 0340     		and	r3, r0
 1528 0014 1A43     		orr	r2, r3
 1529 0016 2260     		str	r2, [r4]
1499:Generated_Source\PSoC4/VDAC_Synth_UAB.c ****       VDAC_Synth_UAB_STARTUP_DELAY_PTR, 
1500:Generated_Source\PSoC4/VDAC_Synth_UAB.c ****       VDAC_Synth_UAB_ALIGN_MODE_MASK, 
1501:Generated_Source\PSoC4/VDAC_Synth_UAB.c ****       ((uint32)alignMode), 
1502:Generated_Source\PSoC4/VDAC_Synth_UAB.c ****       VDAC_Synth_UAB_ALIGN_MODE_SHIFT
1503:Generated_Source\PSoC4/VDAC_Synth_UAB.c ****     );
1504:Generated_Source\PSoC4/VDAC_Synth_UAB.c **** }
 1530              		.loc 1 1504 0
 1531              		@ sp needed
 1532 0018 10BD     		pop	{r4, pc}
 1533              	.L137:
 1534 001a C046     		.align	2
 1535              	.L136:
 1536 001c 20033440 		.word	1077150496
 1537 0020 FFFFFEFF 		.word	-65537
 1538              		.cfi_endproc
 1539              	.LFE37:
 1540              		.size	VDAC_Synth_UAB_SetAlignMode, .-VDAC_Synth_UAB_SetAlignMode
 1541              		.section	.text.VDAC_Synth_UAB_SetSubsample,"ax",%progbits
 1542              		.align	1
 1543              		.global	VDAC_Synth_UAB_SetSubsample
 1544              		.code	16
 1545              		.thumb_func
 1546              		.type	VDAC_Synth_UAB_SetSubsample, %function
 1547              	VDAC_Synth_UAB_SetSubsample:
 1548              	.LFB38:
1505:Generated_Source\PSoC4/VDAC_Synth_UAB.c **** 
1506:Generated_Source\PSoC4/VDAC_Synth_UAB.c **** 
1507:Generated_Source\PSoC4/VDAC_Synth_UAB.c **** /******** VDAC_Synth_UAB_SetSubsample() *************************************/
1508:Generated_Source\PSoC4/VDAC_Synth_UAB.c **** /*!
1509:Generated_Source\PSoC4/VDAC_Synth_UAB.c **** * @brief Set the sub-sample waveform for selecting VALID signal.
1510:Generated_Source\PSoC4/VDAC_Synth_UAB.c **** * 
1511:Generated_Source\PSoC4/VDAC_Synth_UAB.c **** * @details Suppress VALID signal during the first subSampNum analog clock
1512:Generated_Source\PSoC4/VDAC_Synth_UAB.c **** * periods. Only allow VALID output in the last of the subSampNum+1 analog clock
1513:Generated_Source\PSoC4/VDAC_Synth_UAB.c **** * periods. Returns @c void.
1514:Generated_Source\PSoC4/VDAC_Synth_UAB.c **** * 
1515:Generated_Source\PSoC4/VDAC_Synth_UAB.c **** * @internal
1516:Generated_Source\PSoC4/VDAC_Synth_UAB.c **** * @reglist @reg SUBSAMPLE_CTRL0 @reg SUBSAMPLE_CTRL1
1517:Generated_Source\PSoC4/VDAC_Synth_UAB.c **** * @endinternal
1518:Generated_Source\PSoC4/VDAC_Synth_UAB.c **** * 
1519:Generated_Source\PSoC4/VDAC_Synth_UAB.c **** * @param subsample The VALID signal will be suppressed this many times.  
1520:Generated_Source\PSoC4/VDAC_Synth_UAB.c **** * A value of 0 will not suppress the VALID signal.
1521:Generated_Source\PSoC4/VDAC_Synth_UAB.c **** * 
1522:Generated_Source\PSoC4/VDAC_Synth_UAB.c **** * 
1523:Generated_Source\PSoC4/VDAC_Synth_UAB.c **** * @sideeffect None
ARM GAS  C:\Users\Jerry\AppData\Local\Temp\cc1IKG0O.s 			page 56


1524:Generated_Source\PSoC4/VDAC_Synth_UAB.c **** *******************************************************************************/
1525:Generated_Source\PSoC4/VDAC_Synth_UAB.c **** void VDAC_Synth_UAB_SetSubsample(uint8 subsample)
1526:Generated_Source\PSoC4/VDAC_Synth_UAB.c **** {
 1549              		.loc 1 1526 0
 1550              		.cfi_startproc
 1551              	.LVL94:
1527:Generated_Source\PSoC4/VDAC_Synth_UAB.c ****     VDAC_Synth_UAB_SET_FIELD(
 1552              		.loc 1 1527 0
 1553 0000 FF21     		mov	r1, #255
 1554 0002 034A     		ldr	r2, .L139
1528:Generated_Source\PSoC4/VDAC_Synth_UAB.c ****       VDAC_Synth_UAB_SUBSAMPLE_CTRL_PTR, 
1529:Generated_Source\PSoC4/VDAC_Synth_UAB.c ****       VDAC_Synth_UAB_SUBSAMPLE_MASK, 
1530:Generated_Source\PSoC4/VDAC_Synth_UAB.c ****       ((uint32)subsample), 
1531:Generated_Source\PSoC4/VDAC_Synth_UAB.c ****       VDAC_Synth_UAB_SUBSAMPLE_SHIFT
1532:Generated_Source\PSoC4/VDAC_Synth_UAB.c ****     );
1533:Generated_Source\PSoC4/VDAC_Synth_UAB.c **** }
 1555              		.loc 1 1533 0
 1556              		@ sp needed
1527:Generated_Source\PSoC4/VDAC_Synth_UAB.c ****     VDAC_Synth_UAB_SET_FIELD(
 1557              		.loc 1 1527 0
 1558 0004 1368     		ldr	r3, [r2]
 1559 0006 8B43     		bic	r3, r1
 1560 0008 1843     		orr	r0, r3
 1561              	.LVL95:
 1562 000a 1060     		str	r0, [r2]
 1563              		.loc 1 1533 0
 1564 000c 7047     		bx	lr
 1565              	.L140:
 1566 000e C046     		.align	2
 1567              	.L139:
 1568 0010 24033440 		.word	1077150500
 1569              		.cfi_endproc
 1570              	.LFE38:
 1571              		.size	VDAC_Synth_UAB_SetSubsample, .-VDAC_Synth_UAB_SetSubsample
 1572              		.section	.text.VDAC_Synth_UAB_SetSubsampleInit,"ax",%progbits
 1573              		.align	1
 1574              		.global	VDAC_Synth_UAB_SetSubsampleInit
 1575              		.code	16
 1576              		.thumb_func
 1577              		.type	VDAC_Synth_UAB_SetSubsampleInit, %function
 1578              	VDAC_Synth_UAB_SetSubsampleInit:
 1579              	.LFB39:
1534:Generated_Source\PSoC4/VDAC_Synth_UAB.c **** 
1535:Generated_Source\PSoC4/VDAC_Synth_UAB.c **** /***************  VDAC_Synth_UAB_SetSubsampleInit() *************************/
1536:Generated_Source\PSoC4/VDAC_Synth_UAB.c **** /*!
1537:Generated_Source\PSoC4/VDAC_Synth_UAB.c **** * @brief Set the subsampling counter value.
1538:Generated_Source\PSoC4/VDAC_Synth_UAB.c **** * 
1539:Generated_Source\PSoC4/VDAC_Synth_UAB.c **** * @details Initial value of the subsampling down counter. Before this UAB half is
1540:Generated_Source\PSoC4/VDAC_Synth_UAB.c **** * running the firmware can write to this field the initial value of the subsample
1541:Generated_Source\PSoC4/VDAC_Synth_UAB.c **** * down counter. It is recommended that the following is true for the initial value
1542:Generated_Source\PSoC4/VDAC_Synth_UAB.c **** * SUBSAMPLE_INIT <= SUBSAMPLE, however this is not a requirement. Writing a bigger
1543:Generated_Source\PSoC4/VDAC_Synth_UAB.c **** * value can be used to postpone the very first Valid output. Returns @c void.
1544:Generated_Source\PSoC4/VDAC_Synth_UAB.c **** * 
1545:Generated_Source\PSoC4/VDAC_Synth_UAB.c **** * @internal
1546:Generated_Source\PSoC4/VDAC_Synth_UAB.c **** * @reglist @reg SUBSAMPLE_CTRL0 @reg SUBSAMPLE_CTRL1
1547:Generated_Source\PSoC4/VDAC_Synth_UAB.c **** * @endinternal
1548:Generated_Source\PSoC4/VDAC_Synth_UAB.c **** * 
ARM GAS  C:\Users\Jerry\AppData\Local\Temp\cc1IKG0O.s 			page 57


1549:Generated_Source\PSoC4/VDAC_Synth_UAB.c **** * @param subsampleInit: The initial value for the subsampling counter.
1550:Generated_Source\PSoC4/VDAC_Synth_UAB.c **** *
1551:Generated_Source\PSoC4/VDAC_Synth_UAB.c **** * 
1552:Generated_Source\PSoC4/VDAC_Synth_UAB.c **** * @sideeffect None
1553:Generated_Source\PSoC4/VDAC_Synth_UAB.c **** *******************************************************************************/
1554:Generated_Source\PSoC4/VDAC_Synth_UAB.c **** void VDAC_Synth_UAB_SetSubsampleInit(uint8 subsampleInit)
1555:Generated_Source\PSoC4/VDAC_Synth_UAB.c **** {
 1580              		.loc 1 1555 0
 1581              		.cfi_startproc
 1582              	.LVL96:
1556:Generated_Source\PSoC4/VDAC_Synth_UAB.c ****     VDAC_Synth_UAB_SET_FIELD(
 1583              		.loc 1 1556 0
 1584 0000 034A     		ldr	r2, .L142
 1585 0002 044B     		ldr	r3, .L142+4
 1586 0004 1168     		ldr	r1, [r2]
 1587 0006 0002     		lsl	r0, r0, #8
 1588              	.LVL97:
 1589 0008 0B40     		and	r3, r1
 1590 000a 1843     		orr	r0, r3
 1591 000c 1060     		str	r0, [r2]
1557:Generated_Source\PSoC4/VDAC_Synth_UAB.c ****       VDAC_Synth_UAB_SUBSAMPLE_CTRL_PTR, 
1558:Generated_Source\PSoC4/VDAC_Synth_UAB.c ****       VDAC_Synth_UAB_SUBSAMPLE_INIT_MASK, 
1559:Generated_Source\PSoC4/VDAC_Synth_UAB.c ****       ((uint32)subsampleInit), 
1560:Generated_Source\PSoC4/VDAC_Synth_UAB.c ****       VDAC_Synth_UAB_SUBSAMPLE_INIT_SHIFT
1561:Generated_Source\PSoC4/VDAC_Synth_UAB.c ****     );
1562:Generated_Source\PSoC4/VDAC_Synth_UAB.c **** }
 1592              		.loc 1 1562 0
 1593              		@ sp needed
 1594 000e 7047     		bx	lr
 1595              	.L143:
 1596              		.align	2
 1597              	.L142:
 1598 0010 24033440 		.word	1077150500
 1599 0014 FF00FFFF 		.word	-65281
 1600              		.cfi_endproc
 1601              	.LFE39:
 1602              		.size	VDAC_Synth_UAB_SetSubsampleInit, .-VDAC_Synth_UAB_SetSubsampleInit
 1603              		.section	.text.VDAC_Synth_UAB_GetCurrentSubsample,"ax",%progbits
 1604              		.align	1
 1605              		.global	VDAC_Synth_UAB_GetCurrentSubsample
 1606              		.code	16
 1607              		.thumb_func
 1608              		.type	VDAC_Synth_UAB_GetCurrentSubsample, %function
 1609              	VDAC_Synth_UAB_GetCurrentSubsample:
 1610              	.LFB40:
1563:Generated_Source\PSoC4/VDAC_Synth_UAB.c **** 
1564:Generated_Source\PSoC4/VDAC_Synth_UAB.c **** 
1565:Generated_Source\PSoC4/VDAC_Synth_UAB.c **** /************* VDAC_Synth_UAB_GetCurrentSubsample() *************************/
1566:Generated_Source\PSoC4/VDAC_Synth_UAB.c **** /*!
1567:Generated_Source\PSoC4/VDAC_Synth_UAB.c **** * @brief Get currSubsample
1568:Generated_Source\PSoC4/VDAC_Synth_UAB.c **** * 
1569:Generated_Source\PSoC4/VDAC_Synth_UAB.c **** * @details
1570:Generated_Source\PSoC4/VDAC_Synth_UAB.c **** *
1571:Generated_Source\PSoC4/VDAC_Synth_UAB.c **** *
1572:Generated_Source\PSoC4/VDAC_Synth_UAB.c **** * @internal
1573:Generated_Source\PSoC4/VDAC_Synth_UAB.c **** * @reglist @reg STAT0.CURR_SUBSAMPLE @reg STAT1.CURR_SUBSAMPLE
1574:Generated_Source\PSoC4/VDAC_Synth_UAB.c **** * @image html _.png 
ARM GAS  C:\Users\Jerry\AppData\Local\Temp\cc1IKG0O.s 			page 58


1575:Generated_Source\PSoC4/VDAC_Synth_UAB.c **** * @endinternal
1576:Generated_Source\PSoC4/VDAC_Synth_UAB.c **** * 
1577:Generated_Source\PSoC4/VDAC_Synth_UAB.c **** * @sideeffect None
1578:Generated_Source\PSoC4/VDAC_Synth_UAB.c **** *******************************************************************************/
1579:Generated_Source\PSoC4/VDAC_Synth_UAB.c **** uint32 VDAC_Synth_UAB_GetCurrentSubsample(void)
1580:Generated_Source\PSoC4/VDAC_Synth_UAB.c **** {
 1611              		.loc 1 1580 0
 1612              		.cfi_startproc
1581:Generated_Source\PSoC4/VDAC_Synth_UAB.c ****     return VDAC_Synth_UAB_GET_FIELD(
 1613              		.loc 1 1581 0
 1614 0000 014B     		ldr	r3, .L145
1582:Generated_Source\PSoC4/VDAC_Synth_UAB.c ****       VDAC_Synth_UAB_STAT_PTR,
1583:Generated_Source\PSoC4/VDAC_Synth_UAB.c ****       VDAC_Synth_UAB_CURR_SUBSAMPLE_MASK,
1584:Generated_Source\PSoC4/VDAC_Synth_UAB.c ****       VDAC_Synth_UAB_CURR_SUBSAMPLE_SHIFT
1585:Generated_Source\PSoC4/VDAC_Synth_UAB.c ****     );
1586:Generated_Source\PSoC4/VDAC_Synth_UAB.c **** }
 1615              		.loc 1 1586 0
 1616              		@ sp needed
1581:Generated_Source\PSoC4/VDAC_Synth_UAB.c ****     return VDAC_Synth_UAB_GET_FIELD(
 1617              		.loc 1 1581 0
 1618 0002 1868     		ldr	r0, [r3]
 1619 0004 000E     		lsr	r0, r0, #24
 1620              		.loc 1 1586 0
 1621 0006 7047     		bx	lr
 1622              	.L146:
 1623              		.align	2
 1624              	.L145:
 1625 0008 7C033440 		.word	1077150588
 1626              		.cfi_endproc
 1627              	.LFE40:
 1628              		.size	VDAC_Synth_UAB_GetCurrentSubsample, .-VDAC_Synth_UAB_GetCurrentSubsample
 1629              		.section	.text.VDAC_Synth_UAB_GetCurrentStep,"ax",%progbits
 1630              		.align	1
 1631              		.global	VDAC_Synth_UAB_GetCurrentStep
 1632              		.code	16
 1633              		.thumb_func
 1634              		.type	VDAC_Synth_UAB_GetCurrentStep, %function
 1635              	VDAC_Synth_UAB_GetCurrentStep:
 1636              	.LFB41:
1587:Generated_Source\PSoC4/VDAC_Synth_UAB.c **** 
1588:Generated_Source\PSoC4/VDAC_Synth_UAB.c **** /************** VDAC_Synth_UAB_GetCurrentStep() *****************************/
1589:Generated_Source\PSoC4/VDAC_Synth_UAB.c **** /*!
1590:Generated_Source\PSoC4/VDAC_Synth_UAB.c **** * @brief Get currStep
1591:Generated_Source\PSoC4/VDAC_Synth_UAB.c **** * 
1592:Generated_Source\PSoC4/VDAC_Synth_UAB.c **** * @details
1593:Generated_Source\PSoC4/VDAC_Synth_UAB.c **** *
1594:Generated_Source\PSoC4/VDAC_Synth_UAB.c **** *
1595:Generated_Source\PSoC4/VDAC_Synth_UAB.c **** * @internal
1596:Generated_Source\PSoC4/VDAC_Synth_UAB.c **** * @reglist @reg STAT0.CURR_STEP @reg STAT1.CURR_STEP
1597:Generated_Source\PSoC4/VDAC_Synth_UAB.c **** * @image html _.png 
1598:Generated_Source\PSoC4/VDAC_Synth_UAB.c **** * @endinternal
1599:Generated_Source\PSoC4/VDAC_Synth_UAB.c **** * 
1600:Generated_Source\PSoC4/VDAC_Synth_UAB.c **** * @sideeffect None
1601:Generated_Source\PSoC4/VDAC_Synth_UAB.c **** *******************************************************************************/
1602:Generated_Source\PSoC4/VDAC_Synth_UAB.c **** uint32 VDAC_Synth_UAB_GetCurrentStep(void)
1603:Generated_Source\PSoC4/VDAC_Synth_UAB.c **** {
 1637              		.loc 1 1603 0
ARM GAS  C:\Users\Jerry\AppData\Local\Temp\cc1IKG0O.s 			page 59


 1638              		.cfi_startproc
1604:Generated_Source\PSoC4/VDAC_Synth_UAB.c ****     return VDAC_Synth_UAB_GET_FIELD(
 1639              		.loc 1 1604 0
 1640 0000 024B     		ldr	r3, .L148
1605:Generated_Source\PSoC4/VDAC_Synth_UAB.c ****       VDAC_Synth_UAB_STAT_PTR,
1606:Generated_Source\PSoC4/VDAC_Synth_UAB.c ****       VDAC_Synth_UAB_CURR_STEP_MASK,
1607:Generated_Source\PSoC4/VDAC_Synth_UAB.c ****       VDAC_Synth_UAB_CURR_STEP_SHIFT
1608:Generated_Source\PSoC4/VDAC_Synth_UAB.c ****     );
1609:Generated_Source\PSoC4/VDAC_Synth_UAB.c **** }
 1641              		.loc 1 1609 0
 1642              		@ sp needed
1604:Generated_Source\PSoC4/VDAC_Synth_UAB.c ****     return VDAC_Synth_UAB_GET_FIELD(
 1643              		.loc 1 1604 0
 1644 0002 1868     		ldr	r0, [r3]
 1645 0004 0F23     		mov	r3, #15
 1646 0006 1840     		and	r0, r3
 1647              		.loc 1 1609 0
 1648 0008 7047     		bx	lr
 1649              	.L149:
 1650 000a C046     		.align	2
 1651              	.L148:
 1652 000c 7C033440 		.word	1077150588
 1653              		.cfi_endproc
 1654              	.LFE41:
 1655              		.size	VDAC_Synth_UAB_GetCurrentStep, .-VDAC_Synth_UAB_GetCurrentStep
 1656              		.section	.text.VDAC_Synth_UAB_SetModbitSource,"ax",%progbits
 1657              		.align	1
 1658              		.global	VDAC_Synth_UAB_SetModbitSource
 1659              		.code	16
 1660              		.thumb_func
 1661              		.type	VDAC_Synth_UAB_SetModbitSource, %function
 1662              	VDAC_Synth_UAB_SetModbitSource:
 1663              	.LFB42:
1610:Generated_Source\PSoC4/VDAC_Synth_UAB.c **** 
1611:Generated_Source\PSoC4/VDAC_Synth_UAB.c **** 
1612:Generated_Source\PSoC4/VDAC_Synth_UAB.c **** /**************** VDAC_Synth_UAB_SetModbitSource() **************************/
1613:Generated_Source\PSoC4/VDAC_Synth_UAB.c **** /*!
1614:Generated_Source\PSoC4/VDAC_Synth_UAB.c **** * @brief Select source of switch control (modbit).
1615:Generated_Source\PSoC4/VDAC_Synth_UAB.c **** * 
1616:Generated_Source\PSoC4/VDAC_Synth_UAB.c **** * @details 4 of UAB clocks can use a modbit signal. This function selects the 
1617:Generated_Source\PSoC4/VDAC_Synth_UAB.c **** * source of the modbit.
1618:Generated_Source\PSoC4/VDAC_Synth_UAB.c **** * 
1619:Generated_Source\PSoC4/VDAC_Synth_UAB.c **** * @internal
1620:Generated_Source\PSoC4/VDAC_Synth_UAB.c **** * @reglist @reg VDAC_Synth_UAB_SW_MODBIT_SRC0 , VDAC_Synth_UAB_SW_MODBIT_SRC1
1621:Generated_Source\PSoC4/VDAC_Synth_UAB.c **** * @endinternal
1622:Generated_Source\PSoC4/VDAC_Synth_UAB.c **** * 
1623:Generated_Source\PSoC4/VDAC_Synth_UAB.c **** * @param modbitSrcAB branch A and branch B modbit selection
1624:Generated_Source\PSoC4/VDAC_Synth_UAB.c **** * @param modbitSrcC  branch C modbit selection valid choices are:
1625:Generated_Source\PSoC4/VDAC_Synth_UAB.c **** * @arg    0    = UAB0 half 0 comparator output
1626:Generated_Source\PSoC4/VDAC_Synth_UAB.c **** * @arg    1    = UAB0 half 1 comparator output
1627:Generated_Source\PSoC4/VDAC_Synth_UAB.c **** * @arg    2    = UAB1 half 0 comparator output
1628:Generated_Source\PSoC4/VDAC_Synth_UAB.c **** * @arg    3    = UAB1 half 1 comparator output
1629:Generated_Source\PSoC4/VDAC_Synth_UAB.c **** * @arg    4    = UAB2 half 0 comparator output
1630:Generated_Source\PSoC4/VDAC_Synth_UAB.c **** * @arg    5    = UAB2 half 1 comparator output
1631:Generated_Source\PSoC4/VDAC_Synth_UAB.c **** * @arg    6    = UAB3 half 0 comparator output
1632:Generated_Source\PSoC4/VDAC_Synth_UAB.c **** * @arg    7    = UAB3 half 1 comparator output
1633:Generated_Source\PSoC4/VDAC_Synth_UAB.c **** * @arg    8-30 = generic trigger inputs 0-22
ARM GAS  C:\Users\Jerry\AppData\Local\Temp\cc1IKG0O.s 			page 60


1634:Generated_Source\PSoC4/VDAC_Synth_UAB.c **** * @arg    31   = SIGN_VAL , also used as Firmware modbit. 
1635:Generated_Source\PSoC4/VDAC_Synth_UAB.c **** * (In VDAC use-case this inverts the voltage on the A and B Caps). 
1636:Generated_Source\PSoC4/VDAC_Synth_UAB.c **** * @param modbitSrcC  branch C modbit selection valid choices are:
1637:Generated_Source\PSoC4/VDAC_Synth_UAB.c **** * @arg    0    = UAB0 half 0 comparator output
1638:Generated_Source\PSoC4/VDAC_Synth_UAB.c **** * @arg    1    = UAB0 half 1 comparator output
1639:Generated_Source\PSoC4/VDAC_Synth_UAB.c **** * @arg    2    = UAB1 half 0 comparator output
1640:Generated_Source\PSoC4/VDAC_Synth_UAB.c **** * @arg    3    = UAB1 half 1 comparator output
1641:Generated_Source\PSoC4/VDAC_Synth_UAB.c **** * @arg    4    = UAB2 half 0 comparator output
1642:Generated_Source\PSoC4/VDAC_Synth_UAB.c **** * @arg    5    = UAB2 half 1 comparator output
1643:Generated_Source\PSoC4/VDAC_Synth_UAB.c **** * @arg    6    = UAB3 half 0 comparator output
1644:Generated_Source\PSoC4/VDAC_Synth_UAB.c **** * @arg    7    = UAB3 half 1 comparator output
1645:Generated_Source\PSoC4/VDAC_Synth_UAB.c **** * @arg    8-30 = generic trigger inputs 0-22
1646:Generated_Source\PSoC4/VDAC_Synth_UAB.c **** * @arg    31   = SIGN_VAL , also used as Firmware modbit.
1647:Generated_Source\PSoC4/VDAC_Synth_UAB.c **** * For PSoC4400, only values 0-1, 8-13, and 31 are valid.
1648:Generated_Source\PSoC4/VDAC_Synth_UAB.c **** * 
1649:Generated_Source\PSoC4/VDAC_Synth_UAB.c **** * @sideeffect None
1650:Generated_Source\PSoC4/VDAC_Synth_UAB.c **** *******************************************************************************/
1651:Generated_Source\PSoC4/VDAC_Synth_UAB.c **** void VDAC_Synth_UAB_SetModbitSource( uint32 modbitSrcAB, uint32 modbitSrcC )
1652:Generated_Source\PSoC4/VDAC_Synth_UAB.c **** {
 1664              		.loc 1 1652 0
 1665              		.cfi_startproc
 1666              	.LVL98:
1653:Generated_Source\PSoC4/VDAC_Synth_UAB.c ****     /*mask input values before shifting to prevent overlap*/
1654:Generated_Source\PSoC4/VDAC_Synth_UAB.c ****     const uint32 MODBIT_SRC_AB_PRESHIFT_MASK = VDAC_Synth_UAB_MODBIT0_SRC_SEL_MASK>>VDAC_Synth_UAB_
1655:Generated_Source\PSoC4/VDAC_Synth_UAB.c ****     const uint32 MODBIT_SRC_C_PRESHIFT_MASK = VDAC_Synth_UAB_MODBIT1_SRC_SEL_MASK>>VDAC_Synth_UAB_M
1656:Generated_Source\PSoC4/VDAC_Synth_UAB.c ****     VDAC_Synth_UAB_SET_VARIOUS_FIELDS(
 1667              		.loc 1 1656 0
 1668 0000 1F23     		mov	r3, #31
1652:Generated_Source\PSoC4/VDAC_Synth_UAB.c ****     /*mask input values before shifting to prevent overlap*/
 1669              		.loc 1 1652 0
 1670 0002 30B5     		push	{r4, r5, lr}
 1671              		.cfi_def_cfa_offset 12
 1672              		.cfi_offset 4, -12
 1673              		.cfi_offset 5, -8
 1674              		.cfi_offset 14, -4
 1675              		.loc 1 1656 0
 1676 0004 054C     		ldr	r4, .L151
 1677 0006 1940     		and	r1, r3
 1678              	.LVL99:
 1679 0008 2568     		ldr	r5, [r4]
 1680 000a 0340     		and	r3, r0
 1681 000c 281C     		mov	r0, r5
 1682              	.LVL100:
 1683 000e 044A     		ldr	r2, .L151+4
 1684 0010 0902     		lsl	r1, r1, #8
 1685 0012 0B43     		orr	r3, r1
 1686 0014 1040     		and	r0, r2
 1687 0016 0343     		orr	r3, r0
 1688 0018 2360     		str	r3, [r4]
1657:Generated_Source\PSoC4/VDAC_Synth_UAB.c ****       VDAC_Synth_UAB_SW_MODBIT_SRC_PTR,
1658:Generated_Source\PSoC4/VDAC_Synth_UAB.c ****       VDAC_Synth_UAB_MODBIT1_SRC_SEL_MASK | VDAC_Synth_UAB_MODBIT0_SRC_SEL_MASK,
1659:Generated_Source\PSoC4/VDAC_Synth_UAB.c ****       (uint32)( 
1660:Generated_Source\PSoC4/VDAC_Synth_UAB.c ****         ( (modbitSrcAB & MODBIT_SRC_AB_PRESHIFT_MASK) <<VDAC_Synth_UAB_MODBIT0_SRC_SEL_SHIFT ) | 
1661:Generated_Source\PSoC4/VDAC_Synth_UAB.c ****         ( (modbitSrcC &MODBIT_SRC_C_PRESHIFT_MASK) <<VDAC_Synth_UAB_MODBIT1_SRC_SEL_SHIFT ) 
1662:Generated_Source\PSoC4/VDAC_Synth_UAB.c ****       )
1663:Generated_Source\PSoC4/VDAC_Synth_UAB.c ****     );    
1664:Generated_Source\PSoC4/VDAC_Synth_UAB.c **** }
ARM GAS  C:\Users\Jerry\AppData\Local\Temp\cc1IKG0O.s 			page 61


 1689              		.loc 1 1664 0
 1690              		@ sp needed
 1691 001a 30BD     		pop	{r4, r5, pc}
 1692              	.L152:
 1693              		.align	2
 1694              	.L151:
 1695 001c 34033440 		.word	1077150516
 1696 0020 E0E0FFFF 		.word	-7968
 1697              		.cfi_endproc
 1698              	.LFE42:
 1699              		.size	VDAC_Synth_UAB_SetModbitSource, .-VDAC_Synth_UAB_SetModbitSource
 1700              		.section	.text.VDAC_Synth_UAB_SetStrobeMode,"ax",%progbits
 1701              		.align	1
 1702              		.global	VDAC_Synth_UAB_SetStrobeMode
 1703              		.code	16
 1704              		.thumb_func
 1705              		.type	VDAC_Synth_UAB_SetStrobeMode, %function
 1706              	VDAC_Synth_UAB_SetStrobeMode:
 1707              	.LFB43:
1665:Generated_Source\PSoC4/VDAC_Synth_UAB.c **** 
1666:Generated_Source\PSoC4/VDAC_Synth_UAB.c **** 
1667:Generated_Source\PSoC4/VDAC_Synth_UAB.c **** /********************** VDAC_Synth_UAB_SetStrobeMode ************************/
1668:Generated_Source\PSoC4/VDAC_Synth_UAB.c **** /*!
1669:Generated_Source\PSoC4/VDAC_Synth_UAB.c **** * @brief Configure whether strobe is used to load next capacitor values or 
1670:Generated_Source\PSoC4/VDAC_Synth_UAB.c **** * discharge them.
1671:Generated_Source\PSoC4/VDAC_Synth_UAB.c **** * 
1672:Generated_Source\PSoC4/VDAC_Synth_UAB.c **** * @details The strobe signal is used to time when to load the next value
1673:Generated_Source\PSoC4/VDAC_Synth_UAB.c **** * (in the case of DAC usage) or to discharge the capacitors (in the case of DelSig
1674:Generated_Source\PSoC4/VDAC_Synth_UAB.c **** * usage).  This function chooses which of those options the strobe is used for.
1675:Generated_Source\PSoC4/VDAC_Synth_UAB.c **** * 
1676:Generated_Source\PSoC4/VDAC_Synth_UAB.c **** * @internal
1677:Generated_Source\PSoC4/VDAC_Synth_UAB.c **** * @reglist @reg SW_STATIC0 @reg SW_STATIC1
1678:Generated_Source\PSoC4/VDAC_Synth_UAB.c **** * @endinternal
1679:Generated_Source\PSoC4/VDAC_Synth_UAB.c **** * 
1680:Generated_Source\PSoC4/VDAC_Synth_UAB.c **** * @param strobeMode
1681:Generated_Source\PSoC4/VDAC_Synth_UAB.c **** *   @arg @c 0 - Strobe will be used to load next capacitor values (for DAC)
1682:Generated_Source\PSoC4/VDAC_Synth_UAB.c **** *   @arg @c 1 - Strobe will be used to discharge capacitors
1683:Generated_Source\PSoC4/VDAC_Synth_UAB.c **** * 
1684:Generated_Source\PSoC4/VDAC_Synth_UAB.c **** * @see
1685:Generated_Source\PSoC4/VDAC_Synth_UAB.c **** * 
1686:Generated_Source\PSoC4/VDAC_Synth_UAB.c **** * @sideeffect None
1687:Generated_Source\PSoC4/VDAC_Synth_UAB.c **** *******************************************************************************/
1688:Generated_Source\PSoC4/VDAC_Synth_UAB.c **** void VDAC_Synth_UAB_SetStrobeMode(CyUAB_strobe_mode_enum strobeMode)
1689:Generated_Source\PSoC4/VDAC_Synth_UAB.c **** {
 1708              		.loc 1 1689 0
 1709              		.cfi_startproc
 1710              	.LVL101:
 1711 0000 021C     		mov	r2, r0
1690:Generated_Source\PSoC4/VDAC_Synth_UAB.c ****     VDAC_Synth_UAB_SET_FIELD(
 1712              		.loc 1 1690 0
 1713 0002 8021     		mov	r1, #128
1689:Generated_Source\PSoC4/VDAC_Synth_UAB.c ****     VDAC_Synth_UAB_SET_FIELD(
 1714              		.loc 1 1689 0
 1715 0004 10B5     		push	{r4, lr}
 1716              		.cfi_def_cfa_offset 8
 1717              		.cfi_offset 4, -8
 1718              		.cfi_offset 14, -4
ARM GAS  C:\Users\Jerry\AppData\Local\Temp\cc1IKG0O.s 			page 62


 1719              		.loc 1 1690 0
 1720 0006 054C     		ldr	r4, .L154
 1721 0008 054B     		ldr	r3, .L154+4
 1722 000a 2068     		ldr	r0, [r4]
 1723              	.LVL102:
 1724 000c 8905     		lsl	r1, r1, #22
 1725 000e 5207     		lsl	r2, r2, #29
 1726 0010 0A40     		and	r2, r1
 1727 0012 0340     		and	r3, r0
 1728 0014 1A43     		orr	r2, r3
 1729 0016 2260     		str	r2, [r4]
1691:Generated_Source\PSoC4/VDAC_Synth_UAB.c ****       VDAC_Synth_UAB_SW_STATIC_PTR, 
1692:Generated_Source\PSoC4/VDAC_Synth_UAB.c ****       VDAC_Synth_UAB_STRB_RST_EN_MASK, 
1693:Generated_Source\PSoC4/VDAC_Synth_UAB.c ****       ((uint32)strobeMode), 
1694:Generated_Source\PSoC4/VDAC_Synth_UAB.c ****       VDAC_Synth_UAB_STRB_RST_EN_SHIFT
1695:Generated_Source\PSoC4/VDAC_Synth_UAB.c ****     );
1696:Generated_Source\PSoC4/VDAC_Synth_UAB.c **** }
 1730              		.loc 1 1696 0
 1731              		@ sp needed
 1732 0018 10BD     		pop	{r4, pc}
 1733              	.L155:
 1734 001a C046     		.align	2
 1735              	.L154:
 1736 001c 30033440 		.word	1077150512
 1737 0020 FFFFFFDF 		.word	-536870913
 1738              		.cfi_endproc
 1739              	.LFE43:
 1740              		.size	VDAC_Synth_UAB_SetStrobeMode, .-VDAC_Synth_UAB_SetStrobeMode
 1741              		.section	.text.VDAC_Synth_UAB_SetStrobeSource,"ax",%progbits
 1742              		.align	1
 1743              		.global	VDAC_Synth_UAB_SetStrobeSource
 1744              		.code	16
 1745              		.thumb_func
 1746              		.type	VDAC_Synth_UAB_SetStrobeSource, %function
 1747              	VDAC_Synth_UAB_SetStrobeSource:
 1748              	.LFB44:
1697:Generated_Source\PSoC4/VDAC_Synth_UAB.c **** 
1698:Generated_Source\PSoC4/VDAC_Synth_UAB.c **** /*********** VDAC_Synth_UAB_SetStrobeSource *********************************/
1699:Generated_Source\PSoC4/VDAC_Synth_UAB.c **** /*!
1700:Generated_Source\PSoC4/VDAC_Synth_UAB.c **** @brief Select the trigger source that is logically ANDed with STROBE_RST waveform source.  
1701:Generated_Source\PSoC4/VDAC_Synth_UAB.c **** 
1702:Generated_Source\PSoC4/VDAC_Synth_UAB.c **** @details Normally, the positive edge of the STROBE_RST waveform is used to 
1703:Generated_Source\PSoC4/VDAC_Synth_UAB.c **** synchronize the time when to load the "next" caps value (in the case of DAC usage) 
1704:Generated_Source\PSoC4/VDAC_Synth_UAB.c **** or to discharge the capacitors (in the case of DelSig usage). 
1705:Generated_Source\PSoC4/VDAC_Synth_UAB.c **** When STROBE_RST is a modbitted waveform, the trigger source selected by this function 
1706:Generated_Source\PSoC4/VDAC_Synth_UAB.c **** must also be asserted. 
1707:Generated_Source\PSoC4/VDAC_Synth_UAB.c **** Returns @c void.
1708:Generated_Source\PSoC4/VDAC_Synth_UAB.c **** 
1709:Generated_Source\PSoC4/VDAC_Synth_UAB.c **** @internal
1710:Generated_Source\PSoC4/VDAC_Synth_UAB.c **** @reglist @reg VDAC_Synth_UAB_SW_STATIC0_REG.STRB_RST0_SEL or VDAC_Synth_UAB_SW_STATIC1_REG.STRB_RST
1711:Generated_Source\PSoC4/VDAC_Synth_UAB.c **** @endinternal
1712:Generated_Source\PSoC4/VDAC_Synth_UAB.c **** 
1713:Generated_Source\PSoC4/VDAC_Synth_UAB.c **** @param strobeSource
1714:Generated_Source\PSoC4/VDAC_Synth_UAB.c **** * @arg    0    = UAB0 half 0 comparator output
1715:Generated_Source\PSoC4/VDAC_Synth_UAB.c **** * @arg    1    = UAB0 half 1 comparator output
1716:Generated_Source\PSoC4/VDAC_Synth_UAB.c **** * @arg    2    = UAB1 half 0 comparator output
1717:Generated_Source\PSoC4/VDAC_Synth_UAB.c **** * @arg    3    = UAB1 half 1 comparator output
ARM GAS  C:\Users\Jerry\AppData\Local\Temp\cc1IKG0O.s 			page 63


1718:Generated_Source\PSoC4/VDAC_Synth_UAB.c **** * @arg    4    = UAB2 half 0 comparator output
1719:Generated_Source\PSoC4/VDAC_Synth_UAB.c **** * @arg    5    = UAB2 half 1 comparator output
1720:Generated_Source\PSoC4/VDAC_Synth_UAB.c **** * @arg    6    = UAB3 half 0 comparator output
1721:Generated_Source\PSoC4/VDAC_Synth_UAB.c **** * @arg    7    = UAB3 half 1 comparator output
1722:Generated_Source\PSoC4/VDAC_Synth_UAB.c **** * @arg    8-31 = generic trigger inputs 0-23
1723:Generated_Source\PSoC4/VDAC_Synth_UAB.c **** *
1724:Generated_Source\PSoC4/VDAC_Synth_UAB.c **** * For PSoC4400, only values 0-1 and 8-13 are valid.
1725:Generated_Source\PSoC4/VDAC_Synth_UAB.c **** *
1726:Generated_Source\PSoC4/VDAC_Synth_UAB.c **** * @sideeffect None
1727:Generated_Source\PSoC4/VDAC_Synth_UAB.c **** *******************************************************************************/
1728:Generated_Source\PSoC4/VDAC_Synth_UAB.c **** void VDAC_Synth_UAB_SetStrobeSource(uint32 strobeSource)
1729:Generated_Source\PSoC4/VDAC_Synth_UAB.c **** {
 1749              		.loc 1 1729 0
 1750              		.cfi_startproc
 1751              	.LVL103:
 1752 0000 021C     		mov	r2, r0
1730:Generated_Source\PSoC4/VDAC_Synth_UAB.c ****     VDAC_Synth_UAB_SET_FIELD(
 1753              		.loc 1 1730 0
 1754 0002 F821     		mov	r1, #248
1729:Generated_Source\PSoC4/VDAC_Synth_UAB.c ****     VDAC_Synth_UAB_SET_FIELD(
 1755              		.loc 1 1729 0
 1756 0004 10B5     		push	{r4, lr}
 1757              		.cfi_def_cfa_offset 8
 1758              		.cfi_offset 4, -8
 1759              		.cfi_offset 14, -4
 1760              		.loc 1 1730 0
 1761 0006 054C     		ldr	r4, .L157
 1762 0008 054B     		ldr	r3, .L157+4
 1763 000a 2068     		ldr	r0, [r4]
 1764              	.LVL104:
 1765 000c 4905     		lsl	r1, r1, #21
 1766 000e 1206     		lsl	r2, r2, #24
 1767              	.LVL105:
 1768 0010 0A40     		and	r2, r1
 1769 0012 0340     		and	r3, r0
 1770 0014 1A43     		orr	r2, r3
 1771 0016 2260     		str	r2, [r4]
1731:Generated_Source\PSoC4/VDAC_Synth_UAB.c ****       VDAC_Synth_UAB_SW_STATIC_PTR, 
1732:Generated_Source\PSoC4/VDAC_Synth_UAB.c ****       VDAC_Synth_UAB_STRB_RST_SEL_MASK, 
1733:Generated_Source\PSoC4/VDAC_Synth_UAB.c ****       strobeSource, 
1734:Generated_Source\PSoC4/VDAC_Synth_UAB.c ****       VDAC_Synth_UAB_STRB_RST_SEL_SHIFT
1735:Generated_Source\PSoC4/VDAC_Synth_UAB.c ****     );
1736:Generated_Source\PSoC4/VDAC_Synth_UAB.c **** }
 1772              		.loc 1 1736 0
 1773              		@ sp needed
 1774 0018 10BD     		pop	{r4, pc}
 1775              	.L158:
 1776 001a C046     		.align	2
 1777              	.L157:
 1778 001c 30033440 		.word	1077150512
 1779 0020 FFFFFFE0 		.word	-520093697
 1780              		.cfi_endproc
 1781              	.LFE44:
 1782              		.size	VDAC_Synth_UAB_SetStrobeSource, .-VDAC_Synth_UAB_SetStrobeSource
 1783              		.section	.text.VDAC_Synth_UAB_SetFirmwareModbit,"ax",%progbits
 1784              		.align	1
 1785              		.global	VDAC_Synth_UAB_SetFirmwareModbit
ARM GAS  C:\Users\Jerry\AppData\Local\Temp\cc1IKG0O.s 			page 64


 1786              		.code	16
 1787              		.thumb_func
 1788              		.type	VDAC_Synth_UAB_SetFirmwareModbit, %function
 1789              	VDAC_Synth_UAB_SetFirmwareModbit:
 1790              	.LFB45:
1737:Generated_Source\PSoC4/VDAC_Synth_UAB.c **** 
1738:Generated_Source\PSoC4/VDAC_Synth_UAB.c **** 
1739:Generated_Source\PSoC4/VDAC_Synth_UAB.c **** /************ VDAC_Synth_UAB_SetFirmwareModbit() ****************************/
1740:Generated_Source\PSoC4/VDAC_Synth_UAB.c **** /*!
1741:Generated_Source\PSoC4/VDAC_Synth_UAB.c **** * @brief Set the firmware modbit.
1742:Generated_Source\PSoC4/VDAC_Synth_UAB.c **** * 
1743:Generated_Source\PSoC4/VDAC_Synth_UAB.c **** * @details This function sets the firmware modbit. The modbit affects several 
1744:Generated_Source\PSoC4/VDAC_Synth_UAB.c **** * clocks.  If firmware modbit is selected (Use VDAC_Synth_UAB_SetModbitSource() choice 31),
1745:Generated_Source\PSoC4/VDAC_Synth_UAB.c **** * this value will be used.  
1746:Generated_Source\PSoC4/VDAC_Synth_UAB.c **** * 
1747:Generated_Source\PSoC4/VDAC_Synth_UAB.c **** * @see VDAC_Synth_UAB_SetModbitSource()
1748:Generated_Source\PSoC4/VDAC_Synth_UAB.c **** *
1749:Generated_Source\PSoC4/VDAC_Synth_UAB.c **** * @internal
1750:Generated_Source\PSoC4/VDAC_Synth_UAB.c **** * @reglist @reg CAP_AB0_VAL_NXT_REG.SIGN0_VAL @reg CAP_AB1_VAL_NXT_REG.SIGN0_VAL
1751:Generated_Source\PSoC4/VDAC_Synth_UAB.c **** * @endinternal
1752:Generated_Source\PSoC4/VDAC_Synth_UAB.c **** *
1753:Generated_Source\PSoC4/VDAC_Synth_UAB.c **** * 
1754:Generated_Source\PSoC4/VDAC_Synth_UAB.c **** * @sideeffect The firmware modbit is also used as a "sign bit" by the
1755:Generated_Source\PSoC4/VDAC_Synth_UAB.c **** * DAC.
1756:Generated_Source\PSoC4/VDAC_Synth_UAB.c **** *******************************************************************************/
1757:Generated_Source\PSoC4/VDAC_Synth_UAB.c **** void VDAC_Synth_UAB_SetFirmwareModbit(uint32 flag)
1758:Generated_Source\PSoC4/VDAC_Synth_UAB.c **** {
 1791              		.loc 1 1758 0
 1792              		.cfi_startproc
 1793              	.LVL106:
 1794 0000 021C     		mov	r2, r0
1759:Generated_Source\PSoC4/VDAC_Synth_UAB.c ****     VDAC_Synth_UAB_SET_FIELD(
 1795              		.loc 1 1759 0
 1796 0002 8021     		mov	r1, #128
1758:Generated_Source\PSoC4/VDAC_Synth_UAB.c ****     VDAC_Synth_UAB_SET_FIELD(
 1797              		.loc 1 1758 0
 1798 0004 10B5     		push	{r4, lr}
 1799              		.cfi_def_cfa_offset 8
 1800              		.cfi_offset 4, -8
 1801              		.cfi_offset 14, -4
 1802              		.loc 1 1759 0
 1803 0006 054C     		ldr	r4, .L160
 1804 0008 054B     		ldr	r3, .L160+4
 1805 000a 2068     		ldr	r0, [r4]
 1806              	.LVL107:
 1807 000c 4901     		lsl	r1, r1, #5
 1808 000e 1203     		lsl	r2, r2, #12
 1809              	.LVL108:
 1810 0010 0A40     		and	r2, r1
 1811 0012 0340     		and	r3, r0
 1812 0014 1A43     		orr	r2, r3
 1813 0016 2260     		str	r2, [r4]
1760:Generated_Source\PSoC4/VDAC_Synth_UAB.c ****       VDAC_Synth_UAB_CAP_ABCF_VAL_PTR, 
1761:Generated_Source\PSoC4/VDAC_Synth_UAB.c ****       VDAC_Synth_UAB_SIGN_VAL_MASK,
1762:Generated_Source\PSoC4/VDAC_Synth_UAB.c ****       (uint32)flag, 
1763:Generated_Source\PSoC4/VDAC_Synth_UAB.c ****       VDAC_Synth_UAB_SIGN_VAL_SHIFT
1764:Generated_Source\PSoC4/VDAC_Synth_UAB.c ****     );
ARM GAS  C:\Users\Jerry\AppData\Local\Temp\cc1IKG0O.s 			page 65


1765:Generated_Source\PSoC4/VDAC_Synth_UAB.c **** }
 1814              		.loc 1 1765 0
 1815              		@ sp needed
 1816 0018 10BD     		pop	{r4, pc}
 1817              	.L161:
 1818 001a C046     		.align	2
 1819              	.L160:
 1820 001c 08033440 		.word	1077150472
 1821 0020 FFEFFFFF 		.word	-4097
 1822              		.cfi_endproc
 1823              	.LFE45:
 1824              		.size	VDAC_Synth_UAB_SetFirmwareModbit, .-VDAC_Synth_UAB_SetFirmwareModbit
 1825              		.section	.text.VDAC_Synth_UAB_SetInputTrigger,"ax",%progbits
 1826              		.align	1
 1827              		.global	VDAC_Synth_UAB_SetInputTrigger
 1828              		.code	16
 1829              		.thumb_func
 1830              		.type	VDAC_Synth_UAB_SetInputTrigger, %function
 1831              	VDAC_Synth_UAB_SetInputTrigger:
 1832              	.LFB46:
1766:Generated_Source\PSoC4/VDAC_Synth_UAB.c **** 
1767:Generated_Source\PSoC4/VDAC_Synth_UAB.c **** 
1768:Generated_Source\PSoC4/VDAC_Synth_UAB.c **** /************* VDAC_Synth_UAB_SetInputTrigger() *****************************/
1769:Generated_Source\PSoC4/VDAC_Synth_UAB.c **** /*!
1770:Generated_Source\PSoC4/VDAC_Synth_UAB.c **** * @brief Configure UAB-half clock starting trigger.
1771:Generated_Source\PSoC4/VDAC_Synth_UAB.c **** * 
1772:Generated_Source\PSoC4/VDAC_Synth_UAB.c **** * @details The clocks can be configured to start running when a trigger signal 
1773:Generated_Source\PSoC4/VDAC_Synth_UAB.c **** * is received.  This function chooses whether to use the trigger, and if so, 
1774:Generated_Source\PSoC4/VDAC_Synth_UAB.c **** * which trigger to use.  Trigger state is irrelevant if VDAC_Synth_UAB_EnableClocks()
1775:Generated_Source\PSoC4/VDAC_Synth_UAB.c **** * has not been called.
1776:Generated_Source\PSoC4/VDAC_Synth_UAB.c **** * 
1777:Generated_Source\PSoC4/VDAC_Synth_UAB.c **** * @internal
1778:Generated_Source\PSoC4/VDAC_Synth_UAB.c **** * @reglist @reg VDAC_Synth_UAB_SRAM0_CTRL_REG VDAC_Synth_UAB_SRAM1_CTRL_REG
1779:Generated_Source\PSoC4/VDAC_Synth_UAB.c **** * @endinternal
1780:Generated_Source\PSoC4/VDAC_Synth_UAB.c **** * 
1781:Generated_Source\PSoC4/VDAC_Synth_UAB.c **** * @param triggerEn Enables the input trigger.  If 0, trigger signal is ignored,
1782:Generated_Source\PSoC4/VDAC_Synth_UAB.c **** * and the SRAM clocks will start running as soon as the VDAC_Synth_UAB_EnableClocks()
1783:Generated_Source\PSoC4/VDAC_Synth_UAB.c **** * is invoked.  If not 0, the SRAM clocks will start running when the trigger
1784:Generated_Source\PSoC4/VDAC_Synth_UAB.c **** * signal is received.
1785:Generated_Source\PSoC4/VDAC_Synth_UAB.c **** * @param triggerSel Choice for trigger signal. Valid inputs are:
1786:Generated_Source\PSoC4/VDAC_Synth_UAB.c **** * @arg    0    = UAB0 half 0 trigger output
1787:Generated_Source\PSoC4/VDAC_Synth_UAB.c **** * @arg    1    = UAB0 half 1 trigger output
1788:Generated_Source\PSoC4/VDAC_Synth_UAB.c **** * @arg    2    = UAB1 half 0 trigger output
1789:Generated_Source\PSoC4/VDAC_Synth_UAB.c **** * @arg    3    = UAB1 half 1 trigger output
1790:Generated_Source\PSoC4/VDAC_Synth_UAB.c **** * @arg    4    = UAB2 half 0 trigger output
1791:Generated_Source\PSoC4/VDAC_Synth_UAB.c **** * @arg    5    = UAB2 half 1 trigger output
1792:Generated_Source\PSoC4/VDAC_Synth_UAB.c **** * @arg    6    = UAB3 half 0 trigger output
1793:Generated_Source\PSoC4/VDAC_Synth_UAB.c **** * @arg    7    = UAB3 half 1 trigger output
1794:Generated_Source\PSoC4/VDAC_Synth_UAB.c **** * @arg    8-30 = generic trigger inputs 0-22
1795:Generated_Source\PSoC4/VDAC_Synth_UAB.c **** * @arg    31   = SAR trigger output
1796:Generated_Source\PSoC4/VDAC_Synth_UAB.c **** *
1797:Generated_Source\PSoC4/VDAC_Synth_UAB.c **** * For PSoC4400, only values 0-1, 8-13, and 31 are valid.
1798:Generated_Source\PSoC4/VDAC_Synth_UAB.c **** *
1799:Generated_Source\PSoC4/VDAC_Synth_UAB.c **** * @see VDAC_Synth_UAB_EnableClocks()
1800:Generated_Source\PSoC4/VDAC_Synth_UAB.c **** * 
1801:Generated_Source\PSoC4/VDAC_Synth_UAB.c **** * @sideeffect None
1802:Generated_Source\PSoC4/VDAC_Synth_UAB.c **** *******************************************************************************/
ARM GAS  C:\Users\Jerry\AppData\Local\Temp\cc1IKG0O.s 			page 66


1803:Generated_Source\PSoC4/VDAC_Synth_UAB.c **** void VDAC_Synth_UAB_SetInputTrigger(uint32 triggerEn, uint32 triggerSel)
1804:Generated_Source\PSoC4/VDAC_Synth_UAB.c **** {
 1833              		.loc 1 1804 0
 1834              		.cfi_startproc
 1835              	.LVL109:
1805:Generated_Source\PSoC4/VDAC_Synth_UAB.c ****     /*mask input values before shifting to prevent overlap*/
1806:Generated_Source\PSoC4/VDAC_Synth_UAB.c ****     const uint32 TRIG_SEL_PRESHIFT_MASK = VDAC_Synth_UAB_TRIG_SEL_MASK>>VDAC_Synth_UAB_TRIG_SEL_SHI
1807:Generated_Source\PSoC4/VDAC_Synth_UAB.c ****     const uint32 TRIGGER_EN_PRESHIFT_MASK = VDAC_Synth_UAB_TRIGGER_EN_MASK>>VDAC_Synth_UAB_TRIGGER_
1808:Generated_Source\PSoC4/VDAC_Synth_UAB.c ****     VDAC_Synth_UAB_SET_VARIOUS_FIELDS(
 1836              		.loc 1 1808 0
 1837 0000 1F23     		mov	r3, #31
 1838 0002 0A1C     		mov	r2, r1
1804:Generated_Source\PSoC4/VDAC_Synth_UAB.c ****     /*mask input values before shifting to prevent overlap*/
 1839              		.loc 1 1804 0
 1840 0004 30B5     		push	{r4, r5, lr}
 1841              		.cfi_def_cfa_offset 12
 1842              		.cfi_offset 4, -12
 1843              		.cfi_offset 5, -8
 1844              		.cfi_offset 14, -4
 1845              		.loc 1 1808 0
 1846 0006 074C     		ldr	r4, .L163
 1847 0008 1A40     		and	r2, r3
 1848 000a 1E3B     		sub	r3, r3, #30
 1849 000c 2568     		ldr	r5, [r4]
 1850 000e 1840     		and	r0, r3
 1851              	.LVL110:
 1852 0010 4007     		lsl	r0, r0, #29
 1853 0012 1206     		lsl	r2, r2, #24
 1854 0014 0243     		orr	r2, r0
 1855 0016 281C     		mov	r0, r5
 1856 0018 111C     		mov	r1, r2
 1857              	.LVL111:
 1858 001a 034B     		ldr	r3, .L163+4
1809:Generated_Source\PSoC4/VDAC_Synth_UAB.c ****       VDAC_Synth_UAB_SRAM_CTRL_PTR,
1810:Generated_Source\PSoC4/VDAC_Synth_UAB.c ****       VDAC_Synth_UAB_TRIG_SEL_MASK | VDAC_Synth_UAB_TRIGGER_EN_MASK,
1811:Generated_Source\PSoC4/VDAC_Synth_UAB.c ****       ( (triggerSel & TRIG_SEL_PRESHIFT_MASK) <<VDAC_Synth_UAB_TRIG_SEL_SHIFT   ) | 
1812:Generated_Source\PSoC4/VDAC_Synth_UAB.c ****       ( (triggerEn & TRIGGER_EN_PRESHIFT_MASK) <<VDAC_Synth_UAB_TRIGGER_EN_SHIFT )
1813:Generated_Source\PSoC4/VDAC_Synth_UAB.c ****     );
1814:Generated_Source\PSoC4/VDAC_Synth_UAB.c **** }
 1859              		.loc 1 1814 0
 1860              		@ sp needed
1808:Generated_Source\PSoC4/VDAC_Synth_UAB.c ****       VDAC_Synth_UAB_SRAM_CTRL_PTR,
 1861              		.loc 1 1808 0
 1862 001c 1840     		and	r0, r3
 1863 001e 0143     		orr	r1, r0
 1864 0020 2160     		str	r1, [r4]
 1865              		.loc 1 1814 0
 1866 0022 30BD     		pop	{r4, r5, pc}
 1867              	.L164:
 1868              		.align	2
 1869              	.L163:
 1870 0024 78033440 		.word	1077150584
 1871 0028 FFFFFFC0 		.word	-1056964609
 1872              		.cfi_endproc
 1873              	.LFE46:
 1874              		.size	VDAC_Synth_UAB_SetInputTrigger, .-VDAC_Synth_UAB_SetInputTrigger
 1875              		.section	.text.VDAC_Synth_UAB_SetStaticSwitch,"ax",%progbits
ARM GAS  C:\Users\Jerry\AppData\Local\Temp\cc1IKG0O.s 			page 67


 1876              		.align	1
 1877              		.global	VDAC_Synth_UAB_SetStaticSwitch
 1878              		.code	16
 1879              		.thumb_func
 1880              		.type	VDAC_Synth_UAB_SetStaticSwitch, %function
 1881              	VDAC_Synth_UAB_SetStaticSwitch:
 1882              	.LFB47:
1815:Generated_Source\PSoC4/VDAC_Synth_UAB.c **** 
1816:Generated_Source\PSoC4/VDAC_Synth_UAB.c **** 
1817:Generated_Source\PSoC4/VDAC_Synth_UAB.c **** /****************** VDAC_Synth_UAB_SetStaticSwitch() ************************/
1818:Generated_Source\PSoC4/VDAC_Synth_UAB.c **** /*!
1819:Generated_Source\PSoC4/VDAC_Synth_UAB.c **** * @brief Consistent interface for configuring static switches.
1820:Generated_Source\PSoC4/VDAC_Synth_UAB.c **** * 
1821:Generated_Source\PSoC4/VDAC_Synth_UAB.c **** * @details 
1822:Generated_Source\PSoC4/VDAC_Synth_UAB.c **** * Unpacks @p sw_id to get switch control field location (register offset and field 
1823:Generated_Source\PSoC4/VDAC_Synth_UAB.c **** * shift value) and sets that location to @p clk 
1824:Generated_Source\PSoC4/VDAC_Synth_UAB.c **** *
1825:Generated_Source\PSoC4/VDAC_Synth_UAB.c **** * @param sw_id represents a switch encoded with its reg field location
1826:Generated_Source\PSoC4/VDAC_Synth_UAB.c **** * @param clk switch setting (enum converted to single static switch bit field)
1827:Generated_Source\PSoC4/VDAC_Synth_UAB.c **** * CyUAB_SW_OPEN: open switch 
1828:Generated_Source\PSoC4/VDAC_Synth_UAB.c **** * CyUAB_SW_CLOSED and all other non-zero values: close switch 
1829:Generated_Source\PSoC4/VDAC_Synth_UAB.c **** *
1830:Generated_Source\PSoC4/VDAC_Synth_UAB.c **** * @note The exception is the two agnd and ref buffer sharing switches - 
1831:Generated_Source\PSoC4/VDAC_Synth_UAB.c **** * they are set through a different interface.
1832:Generated_Source\PSoC4/VDAC_Synth_UAB.c **** * 
1833:Generated_Source\PSoC4/VDAC_Synth_UAB.c **** * @internal
1834:Generated_Source\PSoC4/VDAC_Synth_UAB.c **** * @reglist @reg MANY
1835:Generated_Source\PSoC4/VDAC_Synth_UAB.c **** * @image html test123.png 
1836:Generated_Source\PSoC4/VDAC_Synth_UAB.c **** * @endinternal
1837:Generated_Source\PSoC4/VDAC_Synth_UAB.c **** * 
1838:Generated_Source\PSoC4/VDAC_Synth_UAB.c **** * @sideeffect None
1839:Generated_Source\PSoC4/VDAC_Synth_UAB.c **** *******************************************************************************/
1840:Generated_Source\PSoC4/VDAC_Synth_UAB.c **** void VDAC_Synth_UAB_SetStaticSwitch(CyUAB_sw_id_enum sw_id, CyUAB_clk_enum clk)
1841:Generated_Source\PSoC4/VDAC_Synth_UAB.c **** {   
 1883              		.loc 1 1841 0
 1884              		.cfi_startproc
 1885              	.LVL112:
 1886 0000 F822     		mov	r2, #248
1842:Generated_Source\PSoC4/VDAC_Synth_UAB.c ****     VDAC_Synth_UAB_SET_FIELD(
 1887              		.loc 1 1842 0
 1888 0002 244B     		ldr	r3, .L184
1841:Generated_Source\PSoC4/VDAC_Synth_UAB.c ****     VDAC_Synth_UAB_SET_FIELD(
 1889              		.loc 1 1841 0
 1890 0004 F0B5     		push	{r4, r5, r6, r7, lr}
 1891              		.cfi_def_cfa_offset 20
 1892              		.cfi_offset 4, -20
 1893              		.cfi_offset 5, -16
 1894              		.cfi_offset 6, -12
 1895              		.cfi_offset 7, -8
 1896              		.cfi_offset 14, -4
 1897 0006 5203     		lsl	r2, r2, #13
 1898              		.loc 1 1842 0
 1899 0008 C6B2     		uxtb	r6, r0
 1900 000a F618     		add	r6, r6, r3
 1901 000c 0502     		lsl	r5, r0, #8
 1902 000e 0240     		and	r2, r0
 1903 0010 3768     		ldr	r7, [r6]
ARM GAS  C:\Users\Jerry\AppData\Local\Temp\cc1IKG0O.s 			page 68


 1904 0012 ED0F     		lsr	r5, r5, #31
 1905 0014 120C     		lsr	r2, r2, #16
 1906 0016 002D     		cmp	r5, #0
 1907 0018 0AD0     		beq	.L166
 1908              		.loc 1 1842 0 is_stmt 0 discriminator 1
 1909 001a 0224     		mov	r4, #2
 1910 001c 002A     		cmp	r2, #0
 1911 001e 0BD0     		beq	.L183
 1912              		.loc 1 1842 0 discriminator 3
 1913 0020 0324     		mov	r4, #3
 1914 0022 012A     		cmp	r2, #1
 1915 0024 08D0     		beq	.L183
 1916              		.loc 1 1842 0 discriminator 5
 1917 0026 0924     		mov	r4, #9
 1918 0028 022A     		cmp	r2, #2
 1919 002a 05D1     		bne	.L183
 1920              		.loc 1 1842 0
 1921 002c 0524     		mov	r4, #5
 1922 002e 03E0     		b	.L183
 1923              	.L166:
 1924              		.loc 1 1842 0 discriminator 2
 1925 0030 0124     		mov	r4, #1
 1926 0032 9440     		lsl	r4, r4, r2
 1927 0034 E443     		mvn	r4, r4
 1928 0036 00E0     		b	.L167
 1929              	.L183:
 1930              		.loc 1 1842 0
 1931 0038 6442     		neg	r4, r4
 1932              	.L167:
 1933              		.loc 1 1842 0 discriminator 16
 1934 003a 4B1E     		sub	r3, r1, #1
 1935 003c 9941     		sbc	r1, r1, r3
 1936              	.LVL113:
 1937 003e F823     		mov	r3, #248
 1938 0040 5B03     		lsl	r3, r3, #13
 1939 0042 3C40     		and	r4, r7
 1940 0044 0340     		and	r3, r0
 1941 0046 002D     		cmp	r5, #0
 1942 0048 0CD0     		beq	.L168
 1943              		.loc 1 1842 0 discriminator 21
 1944 004a 1A0C     		lsr	r2, r3, #16
 1945 004c 0023     		mov	r3, #0
 1946 004e 9A42     		cmp	r2, r3
 1947 0050 09D0     		beq	.L169
 1948              		.loc 1 1842 0 discriminator 23
 1949 0052 131E     		sub	r3, r2, #0
 1950 0054 012B     		cmp	r3, #1
 1951 0056 06D0     		beq	.L169
 1952              		.loc 1 1842 0 discriminator 25
 1953 0058 931E     		sub	r3, r2, #2
 1954 005a 5A42     		neg	r2, r3
 1955 005c 5341     		adc	r3, r3, r2
 1956 005e 0322     		mov	r2, #3
 1957 0060 D31A     		sub	r3, r2, r3
 1958 0062 00E0     		b	.L169
 1959              	.L168:
 1960              		.loc 1 1842 0 discriminator 22
ARM GAS  C:\Users\Jerry\AppData\Local\Temp\cc1IKG0O.s 			page 69


 1961 0064 1B0C     		lsr	r3, r3, #16
 1962              	.L169:
 1963              		.loc 1 1842 0 discriminator 36
 1964 0066 9940     		lsl	r1, r1, r3
 1965 0068 F823     		mov	r3, #248
 1966 006a 5B03     		lsl	r3, r3, #13
 1967 006c 1840     		and	r0, r3
 1968              	.LVL114:
 1969 006e 000C     		lsr	r0, r0, #16
 1970 0070 0123     		mov	r3, #1
 1971 0072 002D     		cmp	r5, #0
 1972 0074 09D0     		beq	.L170
 1973              		.loc 1 1842 0 discriminator 37
 1974 0076 0028     		cmp	r0, #0
 1975 0078 08D0     		beq	.L171
 1976              		.loc 1 1842 0 discriminator 39
 1977 007a DB18     		add	r3, r3, r3
 1978 007c 0128     		cmp	r0, #1
 1979 007e 05D0     		beq	.L171
 1980              		.loc 1 1842 0 discriminator 41
 1981 0080 0233     		add	r3, r3, #2
 1982 0082 0228     		cmp	r0, #2
 1983 0084 02D0     		beq	.L171
 1984              		.loc 1 1842 0
 1985 0086 0433     		add	r3, r3, #4
 1986 0088 00E0     		b	.L171
 1987              	.L170:
 1988              		.loc 1 1842 0 discriminator 38
 1989 008a 8340     		lsl	r3, r3, r0
 1990              	.L171:
 1991              		.loc 1 1842 0 discriminator 52
 1992 008c 0B40     		and	r3, r1
 1993 008e 2343     		orr	r3, r4
 1994 0090 3360     		str	r3, [r6]
1843:Generated_Source\PSoC4/VDAC_Synth_UAB.c ****       VDAC_Synth_UAB_GetStaticSwAddr( (sw_id) ), 
1844:Generated_Source\PSoC4/VDAC_Synth_UAB.c ****       VDAC_Synth_UAB_StaticSwMask( (sw_id) ),
1845:Generated_Source\PSoC4/VDAC_Synth_UAB.c ****       CyUAB_SwIsClosed( (clk) ), 
1846:Generated_Source\PSoC4/VDAC_Synth_UAB.c ****       VDAC_Synth_UAB_StaticSwShift( (sw_id) )
1847:Generated_Source\PSoC4/VDAC_Synth_UAB.c ****     );
1848:Generated_Source\PSoC4/VDAC_Synth_UAB.c **** }
 1995              		.loc 1 1848 0 is_stmt 1 discriminator 52
 1996              		@ sp needed
 1997 0092 F0BD     		pop	{r4, r5, r6, r7, pc}
 1998              	.L185:
 1999              		.align	2
 2000              	.L184:
 2001 0094 00033440 		.word	1077150464
 2002              		.cfi_endproc
 2003              	.LFE47:
 2004              		.size	VDAC_Synth_UAB_SetStaticSwitch, .-VDAC_Synth_UAB_SetStaticSwitch
 2005              		.section	.text.VDAC_Synth_UAB_SetSwitch,"ax",%progbits
 2006              		.align	1
 2007              		.global	VDAC_Synth_UAB_SetSwitch
 2008              		.code	16
 2009              		.thumb_func
 2010              		.type	VDAC_Synth_UAB_SetSwitch, %function
 2011              	VDAC_Synth_UAB_SetSwitch:
ARM GAS  C:\Users\Jerry\AppData\Local\Temp\cc1IKG0O.s 			page 70


 2012              	.LFB48:
1849:Generated_Source\PSoC4/VDAC_Synth_UAB.c **** 
1850:Generated_Source\PSoC4/VDAC_Synth_UAB.c **** 
1851:Generated_Source\PSoC4/VDAC_Synth_UAB.c **** /******************** VDAC_Synth_UAB_SetSwitch() ****************************/
1852:Generated_Source\PSoC4/VDAC_Synth_UAB.c **** /*!
1853:Generated_Source\PSoC4/VDAC_Synth_UAB.c **** * @brief Consistent interface for configuring anything (switches or otherwise) 
1854:Generated_Source\PSoC4/VDAC_Synth_UAB.c **** * that can select one of the 12 UAB clocks or can be statically set open or closed.
1855:Generated_Source\PSoC4/VDAC_Synth_UAB.c **** * 
1856:Generated_Source\PSoC4/VDAC_Synth_UAB.c **** * @details 
1857:Generated_Source\PSoC4/VDAC_Synth_UAB.c **** * Unpacks @p sw_id to get switch control field location (register offset and field 
1858:Generated_Source\PSoC4/VDAC_Synth_UAB.c **** * shift value) and sets that location to @p clk.
1859:Generated_Source\PSoC4/VDAC_Synth_UAB.c **** *
1860:Generated_Source\PSoC4/VDAC_Synth_UAB.c **** * @param sw_id represents a switch encoded with its reg field location
1861:Generated_Source\PSoC4/VDAC_Synth_UAB.c **** * @param clk switch setting
1862:Generated_Source\PSoC4/VDAC_Synth_UAB.c **** * 
1863:Generated_Source\PSoC4/VDAC_Synth_UAB.c **** * @internal
1864:Generated_Source\PSoC4/VDAC_Synth_UAB.c **** * @reglist @reg MANY
1865:Generated_Source\PSoC4/VDAC_Synth_UAB.c **** * @image html test123.png 
1866:Generated_Source\PSoC4/VDAC_Synth_UAB.c **** * @endinternal
1867:Generated_Source\PSoC4/VDAC_Synth_UAB.c **** * 
1868:Generated_Source\PSoC4/VDAC_Synth_UAB.c **** * @sideeffect None
1869:Generated_Source\PSoC4/VDAC_Synth_UAB.c **** *//*==========================================================================*/
1870:Generated_Source\PSoC4/VDAC_Synth_UAB.c **** void VDAC_Synth_UAB_SetSwitch(CyUAB_sw_id_enum sw_id, CyUAB_clk_enum clk)
1871:Generated_Source\PSoC4/VDAC_Synth_UAB.c **** {
 2013              		.loc 1 1871 0
 2014              		.cfi_startproc
 2015              	.LVL115:
 2016 0000 F0B5     		push	{r4, r5, r6, r7, lr}
 2017              		.cfi_def_cfa_offset 20
 2018              		.cfi_offset 4, -20
 2019              		.cfi_offset 5, -16
 2020              		.cfi_offset 6, -12
 2021              		.cfi_offset 7, -8
 2022              		.cfi_offset 14, -4
1872:Generated_Source\PSoC4/VDAC_Synth_UAB.c ****     VDAC_Synth_UAB_SET_FIELD(
 2023              		.loc 1 1872 0
 2024 0002 4428     		cmp	r0, #68
 2025 0004 07D0     		beq	.L194
 2026              		.loc 1 1872 0 is_stmt 0 discriminator 1
 2027 0006 5428     		cmp	r0, #84
 2028 0008 07D0     		beq	.L195
 2029              		.loc 1 1872 0 discriminator 3
 2030 000a 6428     		cmp	r0, #100
 2031 000c 07D0     		beq	.L196
 2032              		.loc 1 1872 0 discriminator 5
 2033 000e 2C4B     		ldr	r3, .L207
 2034 0010 C4B2     		uxtb	r4, r0
 2035 0012 E418     		add	r4, r4, r3
 2036 0014 04E0     		b	.L187
 2037              	.L194:
 2038              		.loc 1 1872 0
 2039 0016 2B4C     		ldr	r4, .L207+4
 2040 0018 02E0     		b	.L187
 2041              	.L195:
 2042 001a 2B4C     		ldr	r4, .L207+8
 2043 001c 00E0     		b	.L187
 2044              	.L196:
ARM GAS  C:\Users\Jerry\AppData\Local\Temp\cc1IKG0O.s 			page 71


 2045 001e 2B4C     		ldr	r4, .L207+12
 2046              	.L187:
 2047 0020 F822     		mov	r2, #248
 2048 0022 5203     		lsl	r2, r2, #13
 2049              		.loc 1 1872 0 discriminator 24
 2050 0024 0502     		lsl	r5, r0, #8
 2051 0026 0240     		and	r2, r0
 2052 0028 2368     		ldr	r3, [r4]
 2053 002a ED0F     		lsr	r5, r5, #31
 2054 002c 120C     		lsr	r2, r2, #16
 2055 002e 002D     		cmp	r5, #0
 2056 0030 09D0     		beq	.L188
 2057              		.loc 1 1872 0 discriminator 25
 2058 0032 032A     		cmp	r2, #3
 2059 0034 0BD9     		bls	.L197
 2060              		.loc 1 1872 0 discriminator 27
 2061 0036 161F     		sub	r6, r2, #4
 2062 0038 032E     		cmp	r6, #3
 2063 003a 0AD9     		bls	.L198
 2064              		.loc 1 1872 0 discriminator 29
 2065 003c 083A     		sub	r2, r2, #8
 2066 003e 032A     		cmp	r2, #3
 2067 0040 0AD9     		bls	.L199
 2068              		.loc 1 1872 0
 2069 0042 234A     		ldr	r2, .L207+16
 2070 0044 09E0     		b	.L189
 2071              	.L188:
 2072              		.loc 1 1872 0 discriminator 26
 2073 0046 0F26     		mov	r6, #15
 2074 0048 9640     		lsl	r6, r6, r2
 2075 004a F243     		mvn	r2, r6
 2076 004c 05E0     		b	.L189
 2077              	.L197:
 2078              		.loc 1 1872 0
 2079 004e 1022     		mov	r2, #16
 2080 0050 00E0     		b	.L206
 2081              	.L198:
 2082 0052 F122     		mov	r2, #241
 2083              	.L206:
 2084 0054 5242     		neg	r2, r2
 2085 0056 00E0     		b	.L189
 2086              	.L199:
 2087 0058 1E4A     		ldr	r2, .L207+20
 2088              	.L189:
 2089 005a F826     		mov	r6, #248
 2090 005c 7603     		lsl	r6, r6, #13
 2091              		.loc 1 1872 0 discriminator 40
 2092 005e 0640     		and	r6, r0
 2093 0060 1A40     		and	r2, r3
 2094 0062 330C     		lsr	r3, r6, #16
 2095 0064 002D     		cmp	r5, #0
 2096 0066 0CD0     		beq	.L191
 2097              		.loc 1 1872 0 discriminator 41
 2098 0068 360C     		lsr	r6, r6, #16
 2099 006a 0023     		mov	r3, #0
 2100 006c 032E     		cmp	r6, #3
 2101 006e 08D9     		bls	.L191
ARM GAS  C:\Users\Jerry\AppData\Local\Temp\cc1IKG0O.s 			page 72


 2102              		.loc 1 1872 0 discriminator 43
 2103 0070 371F     		sub	r7, r6, #4
 2104 0072 0433     		add	r3, r3, #4
 2105 0074 032F     		cmp	r7, #3
 2106 0076 04D9     		bls	.L191
 2107              		.loc 1 1872 0 discriminator 45
 2108 0078 083E     		sub	r6, r6, #8
 2109 007a 0433     		add	r3, r3, #4
 2110 007c 032E     		cmp	r6, #3
 2111 007e 00D9     		bls	.L191
 2112              		.loc 1 1872 0
 2113 0080 0433     		add	r3, r3, #4
 2114              	.L191:
 2115              		.loc 1 1872 0 discriminator 56
 2116 0082 9940     		lsl	r1, r1, r3
 2117              	.LVL116:
 2118 0084 F823     		mov	r3, #248
 2119 0086 5B03     		lsl	r3, r3, #13
 2120 0088 002D     		cmp	r5, #0
 2121 008a 0ED0     		beq	.L192
 2122              		.loc 1 1872 0 discriminator 57
 2123 008c 1840     		and	r0, r3
 2124              	.LVL117:
 2125 008e 000C     		lsr	r0, r0, #16
 2126 0090 0F23     		mov	r3, #15
 2127 0092 0328     		cmp	r0, #3
 2128 0094 10D9     		bls	.L193
 2129              		.loc 1 1872 0 discriminator 59
 2130 0096 051F     		sub	r5, r0, #4
 2131 0098 E133     		add	r3, r3, #225
 2132 009a 032D     		cmp	r5, #3
 2133 009c 0CD9     		bls	.L193
 2134              		.loc 1 1872 0 discriminator 61
 2135 009e 0838     		sub	r0, r0, #8
 2136 00a0 F023     		mov	r3, #240
 2137 00a2 0328     		cmp	r0, #3
 2138 00a4 07D9     		bls	.L205
 2139              		.loc 1 1872 0
 2140 00a6 1B02     		lsl	r3, r3, #8
 2141 00a8 06E0     		b	.L193
 2142              	.LVL118:
 2143              	.L192:
 2144              		.loc 1 1872 0 discriminator 58
 2145 00aa 0340     		and	r3, r0
 2146 00ac 0F20     		mov	r0, #15
 2147              	.LVL119:
 2148 00ae 1B0C     		lsr	r3, r3, #16
 2149 00b0 9840     		lsl	r0, r0, r3
 2150 00b2 031C     		mov	r3, r0
 2151 00b4 00E0     		b	.L193
 2152              	.L205:
 2153              		.loc 1 1872 0
 2154 00b6 1B01     		lsl	r3, r3, #4
 2155              	.L193:
 2156              		.loc 1 1872 0 discriminator 72
 2157 00b8 0B40     		and	r3, r1
 2158 00ba 1343     		orr	r3, r2
ARM GAS  C:\Users\Jerry\AppData\Local\Temp\cc1IKG0O.s 			page 73


 2159 00bc 2360     		str	r3, [r4]
1873:Generated_Source\PSoC4/VDAC_Synth_UAB.c ****       VDAC_Synth_UAB_GetDynamicSwAddr( (sw_id) ),
1874:Generated_Source\PSoC4/VDAC_Synth_UAB.c ****       VDAC_Synth_UAB_DynamicSwMask( (sw_id) ),
1875:Generated_Source\PSoC4/VDAC_Synth_UAB.c ****       ((uint32)((clk))), 
1876:Generated_Source\PSoC4/VDAC_Synth_UAB.c ****       VDAC_Synth_UAB_DynamicSwShift( (sw_id) )
1877:Generated_Source\PSoC4/VDAC_Synth_UAB.c ****     ); 
1878:Generated_Source\PSoC4/VDAC_Synth_UAB.c **** }
 2160              		.loc 1 1878 0 is_stmt 1 discriminator 72
 2161              		@ sp needed
 2162 00be F0BD     		pop	{r4, r5, r6, r7, pc}
 2163              	.L208:
 2164              		.align	2
 2165              	.L207:
 2166 00c0 00033440 		.word	1077150464
 2167 00c4 44023440 		.word	1077150276
 2168 00c8 54023440 		.word	1077150292
 2169 00cc 64023440 		.word	1077150308
 2170 00d0 FF0FFFFF 		.word	-61441
 2171 00d4 FFF0FFFF 		.word	-3841
 2172              		.cfi_endproc
 2173              	.LFE48:
 2174              		.size	VDAC_Synth_UAB_SetSwitch, .-VDAC_Synth_UAB_SetSwitch
 2175              		.global	VDAC_Synth_UAB_config
 2176              		.global	VDAC_Synth_UAB_initPairs
 2177              		.global	VDAC_Synth_UAB_waveConfig
 2178              		.global	VDAC_Synth_UAB_initVar
 2179              		.data
 2180              		.align	2
 2181              		.set	.LANCHOR1,. + 0
 2182              		.type	VDAC_Synth_UAB_config, %object
 2183              		.size	VDAC_Synth_UAB_config, 12
 2184              	VDAC_Synth_UAB_config:
 2185 0000 00000000 		.word	VDAC_Synth_UAB_waveConfig
 2186 0004 00000000 		.word	VDAC_Synth_UAB_initPairs
 2187 0008 0000     		.short	0
 2188 000a 03       		.byte	3
 2189 000b 0E       		.byte	14
 2190              		.type	VDAC_Synth_UAB_initPairs, %object
 2191              		.size	VDAC_Synth_UAB_initPairs, 112
 2192              	VDAC_Synth_UAB_initPairs:
 2193 000c 00033440 		.word	1077150464
 2194 0010 07000000 		.word	7
 2195 0014 30033440 		.word	1077150512
 2196 0018 20300000 		.word	12320
 2197 001c 34033440 		.word	1077150516
 2198 0020 00000000 		.word	0
 2199 0024 78033440 		.word	1077150584
 2200 0028 03000000 		.word	3
 2201 002c 04033440 		.word	1077150468
 2202 0030 200000A0 		.word	-1610612704
 2203 0034 08033440 		.word	1077150472
 2204 0038 0000001F 		.word	520093696
 2205 003c 10033440 		.word	1077150480
 2206 0040 0000009F 		.word	-1627389952
 2207 0044 44033440 		.word	1077150532
