ARM GAS  C:\Users\Jerry\AppData\Local\Temp\ccorziUZ.s 			page 1


   1              		.cpu cortex-m0plus
   2              		.fpu softvfp
   3              		.eabi_attribute 20, 1
   4              		.eabi_attribute 21, 1
   5              		.eabi_attribute 23, 3
   6              		.eabi_attribute 24, 1
   7              		.eabi_attribute 25, 1
   8              		.eabi_attribute 26, 1
   9              		.eabi_attribute 30, 4
  10              		.eabi_attribute 34, 0
  11              		.eabi_attribute 18, 4
  12              		.code	16
  13              		.file	"VDAC_Synth_PM.c"
  14              		.text
  15              	.Ltext0:
  16              		.cfi_sections	.debug_frame
  17              		.section	.text.VDAC_Synth_Sleep,"ax",%progbits
  18              		.align	1
  19              		.global	VDAC_Synth_Sleep
  20              		.code	16
  21              		.thumb_func
  22              		.type	VDAC_Synth_Sleep, %function
  23              	VDAC_Synth_Sleep:
  24              	.LFB1:
  25              		.file 1 "Generated_Source\\PSoC4\\VDAC_Synth_PM.c"
   1:Generated_Source\PSoC4/VDAC_Synth_PM.c **** /***************************************************************************//**
   2:Generated_Source\PSoC4/VDAC_Synth_PM.c **** * \file VDAC_Synth_PM.c  
   3:Generated_Source\PSoC4/VDAC_Synth_PM.c **** * \version 1.10
   4:Generated_Source\PSoC4/VDAC_Synth_PM.c **** *
   5:Generated_Source\PSoC4/VDAC_Synth_PM.c **** * \brief
   6:Generated_Source\PSoC4/VDAC_Synth_PM.c **** *  This file provides the power manager source code to the API for PGA 
   7:Generated_Source\PSoC4/VDAC_Synth_PM.c **** *  Component.
   8:Generated_Source\PSoC4/VDAC_Synth_PM.c **** *
   9:Generated_Source\PSoC4/VDAC_Synth_PM.c **** ********************************************************************************
  10:Generated_Source\PSoC4/VDAC_Synth_PM.c **** * \copyright
  11:Generated_Source\PSoC4/VDAC_Synth_PM.c **** * (c) 2014-2015, Cypress Semiconductor Corporation. All rights reserved.
  12:Generated_Source\PSoC4/VDAC_Synth_PM.c **** * This software, including source code, documentation and related
  13:Generated_Source\PSoC4/VDAC_Synth_PM.c **** * materials ("Software"), is owned by Cypress Semiconductor
  14:Generated_Source\PSoC4/VDAC_Synth_PM.c **** * Corporation ("Cypress") and is protected by and subject to worldwide
  15:Generated_Source\PSoC4/VDAC_Synth_PM.c **** * patent protection (United States and foreign), United States copyright
  16:Generated_Source\PSoC4/VDAC_Synth_PM.c **** * laws and international treaty provisions. Therefore, you may use this
  17:Generated_Source\PSoC4/VDAC_Synth_PM.c **** * Software only as provided in the license agreement accompanying the
  18:Generated_Source\PSoC4/VDAC_Synth_PM.c **** * software package from which you obtained this Software ("EULA").
  19:Generated_Source\PSoC4/VDAC_Synth_PM.c **** * If no EULA applies, Cypress hereby grants you a personal, nonexclusive,
  20:Generated_Source\PSoC4/VDAC_Synth_PM.c **** * non-transferable license to copy, modify, and compile the
  21:Generated_Source\PSoC4/VDAC_Synth_PM.c **** * Software source code solely for use in connection with Cypress's
  22:Generated_Source\PSoC4/VDAC_Synth_PM.c **** * integrated circuit products. Any reproduction, modification, translation,
  23:Generated_Source\PSoC4/VDAC_Synth_PM.c **** * compilation, or representation of this Software except as specified
  24:Generated_Source\PSoC4/VDAC_Synth_PM.c **** * above is prohibited without the express written permission of Cypress.
  25:Generated_Source\PSoC4/VDAC_Synth_PM.c **** * Disclaimer: THIS SOFTWARE IS PROVIDED AS-IS, WITH NO
  26:Generated_Source\PSoC4/VDAC_Synth_PM.c **** * WARRANTY OF ANY KIND, EXPRESS OR IMPLIED, INCLUDING,
  27:Generated_Source\PSoC4/VDAC_Synth_PM.c **** * BUT NOT LIMITED TO, NONINFRINGEMENT, IMPLIED
  28:Generated_Source\PSoC4/VDAC_Synth_PM.c **** * WARRANTIES OF MERCHANTABILITY AND FITNESS FOR A
  29:Generated_Source\PSoC4/VDAC_Synth_PM.c **** * PARTICULAR PURPOSE. Cypress reserves the right to make
  30:Generated_Source\PSoC4/VDAC_Synth_PM.c **** * changes to the Software without notice. Cypress does not assume any
  31:Generated_Source\PSoC4/VDAC_Synth_PM.c **** * liability arising out of the application or use of the Software or any
  32:Generated_Source\PSoC4/VDAC_Synth_PM.c **** * product or circuit described in the Software. Cypress does not
ARM GAS  C:\Users\Jerry\AppData\Local\Temp\ccorziUZ.s 			page 2


  33:Generated_Source\PSoC4/VDAC_Synth_PM.c **** * authorize its products for use in any products where a malfunction or
  34:Generated_Source\PSoC4/VDAC_Synth_PM.c **** * failure of the Cypress product may reasonably be expected to result in
  35:Generated_Source\PSoC4/VDAC_Synth_PM.c **** * significant property damage, injury or death ("High Risk Product"). By
  36:Generated_Source\PSoC4/VDAC_Synth_PM.c **** * including Cypress's product in a High Risk Product, the manufacturer
  37:Generated_Source\PSoC4/VDAC_Synth_PM.c **** * of such system or application assumes all risk of such use and in doing
  38:Generated_Source\PSoC4/VDAC_Synth_PM.c **** * so agrees to indemnify Cypress against all liability.
  39:Generated_Source\PSoC4/VDAC_Synth_PM.c **** *******************************************************************************/
  40:Generated_Source\PSoC4/VDAC_Synth_PM.c **** 
  41:Generated_Source\PSoC4/VDAC_Synth_PM.c **** #include "VDAC_Synth.h" /* Need VDAC's .h */
  42:Generated_Source\PSoC4/VDAC_Synth_PM.c **** #include "VDAC_Synth_UAB.h" /* Need sub-component's functions */
  43:Generated_Source\PSoC4/VDAC_Synth_PM.c **** #include "VDAC_Synth_OUTBUFFER.h" 
  44:Generated_Source\PSoC4/VDAC_Synth_PM.c **** /**
  45:Generated_Source\PSoC4/VDAC_Synth_PM.c **** * \addtogroup group_globals
  46:Generated_Source\PSoC4/VDAC_Synth_PM.c **** * @{
  47:Generated_Source\PSoC4/VDAC_Synth_PM.c **** */
  48:Generated_Source\PSoC4/VDAC_Synth_PM.c **** /** Contains configuration of VDAC_Synth before sleep. Enable state is the
  49:Generated_Source\PSoC4/VDAC_Synth_PM.c **** *   only data required to be preserved. */
  50:Generated_Source\PSoC4/VDAC_Synth_PM.c **** static VDAC_Synth_BACKUP_STRUCT  VDAC_Synth_backup;
  51:Generated_Source\PSoC4/VDAC_Synth_PM.c **** /** @} globals */
  52:Generated_Source\PSoC4/VDAC_Synth_PM.c **** 
  53:Generated_Source\PSoC4/VDAC_Synth_PM.c **** 
  54:Generated_Source\PSoC4/VDAC_Synth_PM.c **** /*******************************************************************************   
  55:Generated_Source\PSoC4/VDAC_Synth_PM.c **** * Function Name: VDAC_Synth_Sleep
  56:Generated_Source\PSoC4/VDAC_Synth_PM.c **** ****************************************************************************//**
  57:Generated_Source\PSoC4/VDAC_Synth_PM.c **** *
  58:Generated_Source\PSoC4/VDAC_Synth_PM.c **** * \brief
  59:Generated_Source\PSoC4/VDAC_Synth_PM.c **** *  Disables block's operation and saves its configuration. Should be called 
  60:Generated_Source\PSoC4/VDAC_Synth_PM.c **** *  just prior to entering sleep.
  61:Generated_Source\PSoC4/VDAC_Synth_PM.c **** *
  62:Generated_Source\PSoC4/VDAC_Synth_PM.c **** * \globalvars
  63:Generated_Source\PSoC4/VDAC_Synth_PM.c **** *  \ref VDAC_Synth_backup (W)
  64:Generated_Source\PSoC4/VDAC_Synth_PM.c **** *
  65:Generated_Source\PSoC4/VDAC_Synth_PM.c **** * \sideeffect
  66:Generated_Source\PSoC4/VDAC_Synth_PM.c **** *  None.
  67:Generated_Source\PSoC4/VDAC_Synth_PM.c **** *
  68:Generated_Source\PSoC4/VDAC_Synth_PM.c **** * <b>Code Snippet</b>
  69:Generated_Source\PSoC4/VDAC_Synth_PM.c **** *  \snippet main.c snippet_VDAC_Synth_Sleep
  70:Generated_Source\PSoC4/VDAC_Synth_PM.c **** *
  71:Generated_Source\PSoC4/VDAC_Synth_PM.c **** *
  72:Generated_Source\PSoC4/VDAC_Synth_PM.c **** * \globalvars
  73:Generated_Source\PSoC4/VDAC_Synth_PM.c **** *  \ref VDAC_Synth_backup
  74:Generated_Source\PSoC4/VDAC_Synth_PM.c **** *
  75:Generated_Source\PSoC4/VDAC_Synth_PM.c **** *******************************************************************************/
  76:Generated_Source\PSoC4/VDAC_Synth_PM.c **** void VDAC_Synth_Sleep(void) 
  77:Generated_Source\PSoC4/VDAC_Synth_PM.c **** {
  26              		.loc 1 77 0
  27              		.cfi_startproc
  28 0000 08B5     		push	{r3, lr}
  29              		.cfi_def_cfa_offset 8
  30              		.cfi_offset 3, -8
  31              		.cfi_offset 14, -4
  78:Generated_Source\PSoC4/VDAC_Synth_PM.c ****     /* Save UAB_VDAC enable state */
  79:Generated_Source\PSoC4/VDAC_Synth_PM.c ****     if( 0UL != (VDAC_Synth_UAB_SRAM_CTRL_REG & VDAC_Synth_UAB_RUN_MASK)  )
  32              		.loc 1 79 0
  33 0002 094B     		ldr	r3, .L9
  34 0004 1A68     		ldr	r2, [r3]
  35 0006 094B     		ldr	r3, .L9+4
ARM GAS  C:\Users\Jerry\AppData\Local\Temp\ccorziUZ.s 			page 3


  36 0008 002A     		cmp	r2, #0
  37 000a 0ADA     		bge	.L2
  80:Generated_Source\PSoC4/VDAC_Synth_PM.c ****     {
  81:Generated_Source\PSoC4/VDAC_Synth_PM.c ****         /* Component is enabled */
  82:Generated_Source\PSoC4/VDAC_Synth_PM.c ****         VDAC_Synth_backup.enableState = VDAC_Synth_BACKUP_BLOCKENABLED;
  38              		.loc 1 82 0
  39 000c 0122     		mov	r2, #1
  40 000e 1A70     		strb	r2, [r3]
  83:Generated_Source\PSoC4/VDAC_Synth_PM.c ****         if (VDAC_Synth_OUTBUFFER_CHECK_PWR_MODE_OFF)
  41              		.loc 1 83 0
  42 0010 074A     		ldr	r2, .L9+8
  43 0012 1168     		ldr	r1, [r2]
  44 0014 0322     		mov	r2, #3
  45 0016 1142     		tst	r1, r2
  46 0018 00D0     		beq	.L3
  84:Generated_Source\PSoC4/VDAC_Synth_PM.c ****         {
  85:Generated_Source\PSoC4/VDAC_Synth_PM.c ****             /* Output is not HiZ */
  86:Generated_Source\PSoC4/VDAC_Synth_PM.c ****             VDAC_Synth_backup.enableState |= VDAC_Synth_BACKUP_OUTPUTDRIVEN;
  47              		.loc 1 86 0
  48 001a 1A70     		strb	r2, [r3]
  49              	.L3:
  87:Generated_Source\PSoC4/VDAC_Synth_PM.c ****         }
  88:Generated_Source\PSoC4/VDAC_Synth_PM.c ****         /* Stop the configuration */
  89:Generated_Source\PSoC4/VDAC_Synth_PM.c ****         VDAC_Synth_Stop();
  50              		.loc 1 89 0
  51 001c FFF7FEFF 		bl	VDAC_Synth_Stop
  52              	.LVL0:
  53 0020 01E0     		b	.L1
  54              	.L2:
  90:Generated_Source\PSoC4/VDAC_Synth_PM.c ****     }
  91:Generated_Source\PSoC4/VDAC_Synth_PM.c ****     else
  92:Generated_Source\PSoC4/VDAC_Synth_PM.c ****     {
  93:Generated_Source\PSoC4/VDAC_Synth_PM.c ****         /* Component is disabled */
  94:Generated_Source\PSoC4/VDAC_Synth_PM.c ****         VDAC_Synth_backup.enableState = 0u;
  55              		.loc 1 94 0
  56 0022 0022     		mov	r2, #0
  57 0024 1A70     		strb	r2, [r3]
  58              	.L1:
  95:Generated_Source\PSoC4/VDAC_Synth_PM.c ****     }
  96:Generated_Source\PSoC4/VDAC_Synth_PM.c **** }
  59              		.loc 1 96 0
  60              		@ sp needed
  61 0026 08BD     		pop	{r3, pc}
  62              	.L10:
  63              		.align	2
  64              	.L9:
  65 0028 78033440 		.word	1077150584
  66 002c 00000000 		.word	.LANCHOR0
  67 0030 04003040 		.word	1076887556
  68              		.cfi_endproc
  69              	.LFE1:
  70              		.size	VDAC_Synth_Sleep, .-VDAC_Synth_Sleep
  71              		.section	.text.VDAC_Synth_Wakeup,"ax",%progbits
  72              		.align	1
  73              		.global	VDAC_Synth_Wakeup
  74              		.code	16
  75              		.thumb_func
ARM GAS  C:\Users\Jerry\AppData\Local\Temp\ccorziUZ.s 			page 4


  76              		.type	VDAC_Synth_Wakeup, %function
  77              	VDAC_Synth_Wakeup:
  78              	.LFB2:
  97:Generated_Source\PSoC4/VDAC_Synth_PM.c **** 
  98:Generated_Source\PSoC4/VDAC_Synth_PM.c **** 
  99:Generated_Source\PSoC4/VDAC_Synth_PM.c **** /*******************************************************************************
 100:Generated_Source\PSoC4/VDAC_Synth_PM.c **** * Function Name: VDAC_Synth_Wakeup
 101:Generated_Source\PSoC4/VDAC_Synth_PM.c **** ****************************************************************************//**
 102:Generated_Source\PSoC4/VDAC_Synth_PM.c **** *
 103:Generated_Source\PSoC4/VDAC_Synth_PM.c **** * \brief
 104:Generated_Source\PSoC4/VDAC_Synth_PM.c **** *  Enables block's operation and restores its configuration. Should be called
 105:Generated_Source\PSoC4/VDAC_Synth_PM.c **** *  just after awaking from sleep.
 106:Generated_Source\PSoC4/VDAC_Synth_PM.c **** *
 107:Generated_Source\PSoC4/VDAC_Synth_PM.c **** * \globalvars
 108:Generated_Source\PSoC4/VDAC_Synth_PM.c **** *  \ref VDAC_Synth_backup (R)
 109:Generated_Source\PSoC4/VDAC_Synth_PM.c **** *
 110:Generated_Source\PSoC4/VDAC_Synth_PM.c **** * \sideeffect
 111:Generated_Source\PSoC4/VDAC_Synth_PM.c **** *  None.
 112:Generated_Source\PSoC4/VDAC_Synth_PM.c **** *
 113:Generated_Source\PSoC4/VDAC_Synth_PM.c **** * <b>Code Snippet</b>
 114:Generated_Source\PSoC4/VDAC_Synth_PM.c **** *  \snippet main.c snippet_VDAC_Synth_Wakeup
 115:Generated_Source\PSoC4/VDAC_Synth_PM.c **** *
 116:Generated_Source\PSoC4/VDAC_Synth_PM.c **** *
 117:Generated_Source\PSoC4/VDAC_Synth_PM.c **** * \globalvars
 118:Generated_Source\PSoC4/VDAC_Synth_PM.c **** *  \ref VDAC_Synth_backup
 119:Generated_Source\PSoC4/VDAC_Synth_PM.c **** * 
 120:Generated_Source\PSoC4/VDAC_Synth_PM.c **** *******************************************************************************/
 121:Generated_Source\PSoC4/VDAC_Synth_PM.c **** void VDAC_Synth_Wakeup(void)
 122:Generated_Source\PSoC4/VDAC_Synth_PM.c **** {
  79              		.loc 1 122 0
  80              		.cfi_startproc
  81 0000 38B5     		push	{r3, r4, r5, lr}
  82              		.cfi_def_cfa_offset 16
  83              		.cfi_offset 3, -16
  84              		.cfi_offset 4, -12
  85              		.cfi_offset 5, -8
  86              		.cfi_offset 14, -4
 123:Generated_Source\PSoC4/VDAC_Synth_PM.c ****      /* Enables the component operation */
 124:Generated_Source\PSoC4/VDAC_Synth_PM.c ****     if((VDAC_Synth_backup.enableState & VDAC_Synth_BACKUP_BLOCKENABLED)
  87              		.loc 1 124 0
  88 0002 0124     		mov	r4, #1
  89 0004 064D     		ldr	r5, .L18
  90 0006 2B78     		ldrb	r3, [r5]
  91 0008 2342     		tst	r3, r4
  92 000a 08D0     		beq	.L11
 125:Generated_Source\PSoC4/VDAC_Synth_PM.c ****         == VDAC_Synth_BACKUP_BLOCKENABLED) /* If block was enabled... */
 126:Generated_Source\PSoC4/VDAC_Synth_PM.c ****     {
 127:Generated_Source\PSoC4/VDAC_Synth_PM.c ****         /* Then enable rest of block */
 128:Generated_Source\PSoC4/VDAC_Synth_PM.c ****         VDAC_Synth_Enable();
  93              		.loc 1 128 0
  94 000c FFF7FEFF 		bl	VDAC_Synth_Enable
  95              	.LVL1:
 129:Generated_Source\PSoC4/VDAC_Synth_PM.c ****         /* Set up output buffer first */
 130:Generated_Source\PSoC4/VDAC_Synth_PM.c ****         if ((VDAC_Synth_backup.enableState & VDAC_Synth_BACKUP_OUTPUTDRIVEN) 
  96              		.loc 1 130 0
  97 0010 2B78     		ldrb	r3, [r5]
 131:Generated_Source\PSoC4/VDAC_Synth_PM.c ****              == VDAC_Synth_BACKUP_OUTPUTDRIVEN) /* If output was not HiZ */
ARM GAS  C:\Users\Jerry\AppData\Local\Temp\ccorziUZ.s 			page 5


 132:Generated_Source\PSoC4/VDAC_Synth_PM.c ****         {
 133:Generated_Source\PSoC4/VDAC_Synth_PM.c ****             VDAC_Synth_SetHiZ(VDAC_Synth_OUTSTATE_DRIVEN);
  98              		.loc 1 133 0
  99 0012 0020     		mov	r0, #0
 130:Generated_Source\PSoC4/VDAC_Synth_PM.c ****              == VDAC_Synth_BACKUP_OUTPUTDRIVEN) /* If output was not HiZ */
 100              		.loc 1 130 0
 101 0014 9B07     		lsl	r3, r3, #30
 102 0016 00D4     		bmi	.L17
 134:Generated_Source\PSoC4/VDAC_Synth_PM.c ****         }
 135:Generated_Source\PSoC4/VDAC_Synth_PM.c ****         else
 136:Generated_Source\PSoC4/VDAC_Synth_PM.c ****         {
 137:Generated_Source\PSoC4/VDAC_Synth_PM.c ****             VDAC_Synth_SetHiZ(VDAC_Synth_OUTSTATE_HIZ);
 103              		.loc 1 137 0
 104 0018 201C     		mov	r0, r4
 105              	.L17:
 106 001a FFF7FEFF 		bl	VDAC_Synth_SetHiZ
 107              	.LVL2:
 108              	.L11:
 138:Generated_Source\PSoC4/VDAC_Synth_PM.c ****         }
 139:Generated_Source\PSoC4/VDAC_Synth_PM.c ****     } /* Do nothing if component was disable before */
 140:Generated_Source\PSoC4/VDAC_Synth_PM.c **** }
 109              		.loc 1 140 0
 110              		@ sp needed
 111 001e 38BD     		pop	{r3, r4, r5, pc}
 112              	.L19:
 113              		.align	2
 114              	.L18:
 115 0020 00000000 		.word	.LANCHOR0
 116              		.cfi_endproc
 117              	.LFE2:
 118              		.size	VDAC_Synth_Wakeup, .-VDAC_Synth_Wakeup
 119              		.bss
 120              		.set	.LANCHOR0,. + 0
 121              		.type	VDAC_Synth_backup, %object
 122              		.size	VDAC_Synth_backup, 1
 123              	VDAC_Synth_backup:
 124 0000 00       		.space	1
 125              		.text
 126              	.Letext0:
 127              		.file 2 "Generated_Source\\PSoC4\\cytypes.h"
 128              		.file 3 "Generated_Source\\PSoC4\\VDAC_Synth.h"