ARM GAS  C:\Users\Jerry\AppData\Local\Temp\cc1IKG0O.s 			page 1


   1              		.cpu cortex-m0plus
   2              		.fpu softvfp
   3              		.eabi_attribute 20, 1
   4              		.eabi_attribute 21, 1
   5              		.eabi_attribute 23, 3
   6              		.eabi_attribute 24, 1
   7              		.eabi_attribute 25, 1
   8              		.eabi_attribute 26, 1
   9              		.eabi_attribute 30, 4
  10              		.eabi_attribute 34, 0
  11              		.eabi_attribute 18, 4
  12              		.code	16
  13              		.file	"VDAC_Synth_UAB.c"
  14              		.text
  15              	.Ltext0:
  16              		.cfi_sections	.debug_frame
  17              		.section	.text.VDAC_Synth_UAB_WriteInitPairs,"ax",%progbits
  18              		.align	1
  19              		.global	VDAC_Synth_UAB_WriteInitPairs
  20              		.code	16
  21              		.thumb_func
  22              		.type	VDAC_Synth_UAB_WriteInitPairs, %function
  23              	VDAC_Synth_UAB_WriteInitPairs:
  24              	.LFB3:
  25              		.file 1 "Generated_Source\\PSoC4\\VDAC_Synth_UAB.c"
   1:Generated_Source\PSoC4/VDAC_Synth_UAB.c **** /*!*****************************************************************************
   2:Generated_Source\PSoC4/VDAC_Synth_UAB.c **** * \file VDAC_Synth_UAB.c
   3:Generated_Source\PSoC4/VDAC_Synth_UAB.c **** * \version 1.10
   4:Generated_Source\PSoC4/VDAC_Synth_UAB.c **** *
   5:Generated_Source\PSoC4/VDAC_Synth_UAB.c **** * \brief 
   6:Generated_Source\PSoC4/VDAC_Synth_UAB.c **** *   API for Universal Analog Block (UAB)
   7:Generated_Source\PSoC4/VDAC_Synth_UAB.c **** *
   8:Generated_Source\PSoC4/VDAC_Synth_UAB.c **** ********************************************************************************
   9:Generated_Source\PSoC4/VDAC_Synth_UAB.c **** * \copyright
  10:Generated_Source\PSoC4/VDAC_Synth_UAB.c **** * (c) 2014-2016, Cypress Semiconductor Corporation. All rights reserved.
  11:Generated_Source\PSoC4/VDAC_Synth_UAB.c **** * This software, including source code, documentation and related
  12:Generated_Source\PSoC4/VDAC_Synth_UAB.c **** * materials ("Software"), is owned by Cypress Semiconductor
  13:Generated_Source\PSoC4/VDAC_Synth_UAB.c **** * Corporation ("Cypress") and is protected by and subject to worldwide
  14:Generated_Source\PSoC4/VDAC_Synth_UAB.c **** * patent protection (United States and foreign), United States copyright
  15:Generated_Source\PSoC4/VDAC_Synth_UAB.c **** * laws and international treaty provisions. Therefore, you may use this
  16:Generated_Source\PSoC4/VDAC_Synth_UAB.c **** * Software only as provided in the license agreement accompanying the
  17:Generated_Source\PSoC4/VDAC_Synth_UAB.c **** * software package from which you obtained this Software ("EULA").
  18:Generated_Source\PSoC4/VDAC_Synth_UAB.c **** * If no EULA applies, Cypress hereby grants you a personal, nonexclusive,
  19:Generated_Source\PSoC4/VDAC_Synth_UAB.c **** * non-transferable license to copy, modify, and compile the
  20:Generated_Source\PSoC4/VDAC_Synth_UAB.c **** * Software source code solely for use in connection with Cypress's
  21:Generated_Source\PSoC4/VDAC_Synth_UAB.c **** * integrated circuit products. Any reproduction, modification, translation,
  22:Generated_Source\PSoC4/VDAC_Synth_UAB.c **** * compilation, or representation of this Software except as specified
  23:Generated_Source\PSoC4/VDAC_Synth_UAB.c **** * above is prohibited without the express written permission of Cypress.
  24:Generated_Source\PSoC4/VDAC_Synth_UAB.c **** * Disclaimer: THIS SOFTWARE IS PROVIDED AS-IS, WITH NO
  25:Generated_Source\PSoC4/VDAC_Synth_UAB.c **** * WARRANTY OF ANY KIND, EXPRESS OR IMPLIED, INCLUDING,
  26:Generated_Source\PSoC4/VDAC_Synth_UAB.c **** * BUT NOT LIMITED TO, NONINFRINGEMENT, IMPLIED
  27:Generated_Source\PSoC4/VDAC_Synth_UAB.c **** * WARRANTIES OF MERCHANTABILITY AND FITNESS FOR A
  28:Generated_Source\PSoC4/VDAC_Synth_UAB.c **** * PARTICULAR PURPOSE. Cypress reserves the right to make
  29:Generated_Source\PSoC4/VDAC_Synth_UAB.c **** * changes to the Software without notice. Cypress does not assume any
  30:Generated_Source\PSoC4/VDAC_Synth_UAB.c **** * liability arising out of the application or use of the Software or any
  31:Generated_Source\PSoC4/VDAC_Synth_UAB.c **** * product or circuit described in the Software. Cypress does not
  32:Generated_Source\PSoC4/VDAC_Synth_UAB.c **** * authorize its products for use in any products where a malfunction or
ARM GAS  C:\Users\Jerry\AppData\Local\Temp\cc1IKG0O.s 			page 2


  33:Generated_Source\PSoC4/VDAC_Synth_UAB.c **** * failure of the Cypress product may reasonably be expected to result in
  34:Generated_Source\PSoC4/VDAC_Synth_UAB.c **** * significant property damage, injury or death ("High Risk Product"). By
  35:Generated_Source\PSoC4/VDAC_Synth_UAB.c **** * including Cypress's product in a High Risk Product, the manufacturer
  36:Generated_Source\PSoC4/VDAC_Synth_UAB.c **** * of such system or application assumes all risk of such use and in doing
  37:Generated_Source\PSoC4/VDAC_Synth_UAB.c **** * so agrees to indemnify Cypress against all liability.
  38:Generated_Source\PSoC4/VDAC_Synth_UAB.c **** *******************************************************************************/
  39:Generated_Source\PSoC4/VDAC_Synth_UAB.c **** 
  40:Generated_Source\PSoC4/VDAC_Synth_UAB.c **** 
  41:Generated_Source\PSoC4/VDAC_Synth_UAB.c **** #include "cytypes.h"
  42:Generated_Source\PSoC4/VDAC_Synth_UAB.c **** #include "VDAC_Synth_UAB_CyUAB_types.h"
  43:Generated_Source\PSoC4/VDAC_Synth_UAB.c **** #include "VDAC_Synth_UAB_CyUAB.h"
  44:Generated_Source\PSoC4/VDAC_Synth_UAB.c **** #include "VDAC_Synth_UAB_param.h"
  45:Generated_Source\PSoC4/VDAC_Synth_UAB.c **** #include "VDAC_Synth_UAB_regs.h"
  46:Generated_Source\PSoC4/VDAC_Synth_UAB.c **** #include "VDAC_Synth_UAB.h"
  47:Generated_Source\PSoC4/VDAC_Synth_UAB.c **** 
  48:Generated_Source\PSoC4/VDAC_Synth_UAB.c **** 
  49:Generated_Source\PSoC4/VDAC_Synth_UAB.c **** /*General*/
  50:Generated_Source\PSoC4/VDAC_Synth_UAB.c **** 
  51:Generated_Source\PSoC4/VDAC_Synth_UAB.c **** uint32 VDAC_Synth_UAB_initVar = 0UL; /**< 0 if component is uninitialized. 1 otherwise. */
  52:Generated_Source\PSoC4/VDAC_Synth_UAB.c **** 
  53:Generated_Source\PSoC4/VDAC_Synth_UAB.c **** /*!
  54:Generated_Source\PSoC4/VDAC_Synth_UAB.c **** * \addtogroup group_init
  55:Generated_Source\PSoC4/VDAC_Synth_UAB.c **** * @{
  56:Generated_Source\PSoC4/VDAC_Synth_UAB.c **** */
  57:Generated_Source\PSoC4/VDAC_Synth_UAB.c **** 
  58:Generated_Source\PSoC4/VDAC_Synth_UAB.c **** /*! Part of default configuration used to initialize UAB in VDAC_Synth_UAB_Start() */
  59:Generated_Source\PSoC4/VDAC_Synth_UAB.c **** uint16 VDAC_Synth_UAB_waveConfig[VDAC_Synth_UAB_NUM_STEPS] = {
  60:Generated_Source\PSoC4/VDAC_Synth_UAB.c **** /*0<=last_step<=15 , so always at least one step*/
  61:Generated_Source\PSoC4/VDAC_Synth_UAB.c **** ((uint16)VDAC_Synth_UAB_PARAM_WAVE_STEP_0)
  62:Generated_Source\PSoC4/VDAC_Synth_UAB.c **** 
  63:Generated_Source\PSoC4/VDAC_Synth_UAB.c **** #if VDAC_Synth_UAB_INC_STEP_1
  64:Generated_Source\PSoC4/VDAC_Synth_UAB.c **** ,((uint16)VDAC_Synth_UAB_PARAM_WAVE_STEP_1)
  65:Generated_Source\PSoC4/VDAC_Synth_UAB.c **** #endif
  66:Generated_Source\PSoC4/VDAC_Synth_UAB.c **** #if VDAC_Synth_UAB_INC_STEP_2
  67:Generated_Source\PSoC4/VDAC_Synth_UAB.c **** ,((uint16)VDAC_Synth_UAB_PARAM_WAVE_STEP_2)
  68:Generated_Source\PSoC4/VDAC_Synth_UAB.c **** #endif
  69:Generated_Source\PSoC4/VDAC_Synth_UAB.c **** #if VDAC_Synth_UAB_INC_STEP_3
  70:Generated_Source\PSoC4/VDAC_Synth_UAB.c **** ,((uint16)VDAC_Synth_UAB_PARAM_WAVE_STEP_3)
  71:Generated_Source\PSoC4/VDAC_Synth_UAB.c **** #endif
  72:Generated_Source\PSoC4/VDAC_Synth_UAB.c **** #if VDAC_Synth_UAB_INC_STEP_4
  73:Generated_Source\PSoC4/VDAC_Synth_UAB.c **** ,((uint16)VDAC_Synth_UAB_PARAM_WAVE_STEP_4)
  74:Generated_Source\PSoC4/VDAC_Synth_UAB.c **** #endif
  75:Generated_Source\PSoC4/VDAC_Synth_UAB.c **** #if VDAC_Synth_UAB_INC_STEP_5
  76:Generated_Source\PSoC4/VDAC_Synth_UAB.c **** ,((uint16)VDAC_Synth_UAB_PARAM_WAVE_STEP_5)
  77:Generated_Source\PSoC4/VDAC_Synth_UAB.c **** #endif
  78:Generated_Source\PSoC4/VDAC_Synth_UAB.c **** #if VDAC_Synth_UAB_INC_STEP_6
  79:Generated_Source\PSoC4/VDAC_Synth_UAB.c **** ,((uint16)VDAC_Synth_UAB_PARAM_WAVE_STEP_6)
  80:Generated_Source\PSoC4/VDAC_Synth_UAB.c **** #endif
  81:Generated_Source\PSoC4/VDAC_Synth_UAB.c **** #if VDAC_Synth_UAB_INC_STEP_7
  82:Generated_Source\PSoC4/VDAC_Synth_UAB.c **** ,((uint16)VDAC_Synth_UAB_PARAM_WAVE_STEP_7)
  83:Generated_Source\PSoC4/VDAC_Synth_UAB.c **** #endif
  84:Generated_Source\PSoC4/VDAC_Synth_UAB.c **** #if VDAC_Synth_UAB_INC_STEP_8
  85:Generated_Source\PSoC4/VDAC_Synth_UAB.c **** ,((uint16)VDAC_Synth_UAB_PARAM_WAVE_STEP_8)
  86:Generated_Source\PSoC4/VDAC_Synth_UAB.c **** #endif
  87:Generated_Source\PSoC4/VDAC_Synth_UAB.c **** #if VDAC_Synth_UAB_INC_STEP_9
  88:Generated_Source\PSoC4/VDAC_Synth_UAB.c **** ,((uint16)VDAC_Synth_UAB_PARAM_WAVE_STEP_9)
  89:Generated_Source\PSoC4/VDAC_Synth_UAB.c **** #endif
ARM GAS  C:\Users\Jerry\AppData\Local\Temp\cc1IKG0O.s 			page 3


  90:Generated_Source\PSoC4/VDAC_Synth_UAB.c **** #if VDAC_Synth_UAB_INC_STEP_10
  91:Generated_Source\PSoC4/VDAC_Synth_UAB.c **** ,((uint16)VDAC_Synth_UAB_PARAM_WAVE_STEP_10)
  92:Generated_Source\PSoC4/VDAC_Synth_UAB.c **** #endif
  93:Generated_Source\PSoC4/VDAC_Synth_UAB.c **** #if VDAC_Synth_UAB_INC_STEP_11
  94:Generated_Source\PSoC4/VDAC_Synth_UAB.c **** ,((uint16)VDAC_Synth_UAB_PARAM_WAVE_STEP_11)
  95:Generated_Source\PSoC4/VDAC_Synth_UAB.c **** #endif
  96:Generated_Source\PSoC4/VDAC_Synth_UAB.c **** #if VDAC_Synth_UAB_INC_STEP_12
  97:Generated_Source\PSoC4/VDAC_Synth_UAB.c **** ,((uint16)VDAC_Synth_UAB_PARAM_WAVE_STEP_12)
  98:Generated_Source\PSoC4/VDAC_Synth_UAB.c **** #endif
  99:Generated_Source\PSoC4/VDAC_Synth_UAB.c **** #if VDAC_Synth_UAB_INC_STEP_13
 100:Generated_Source\PSoC4/VDAC_Synth_UAB.c **** ,((uint16)VDAC_Synth_UAB_PARAM_WAVE_STEP_13)
 101:Generated_Source\PSoC4/VDAC_Synth_UAB.c **** #endif
 102:Generated_Source\PSoC4/VDAC_Synth_UAB.c **** #if VDAC_Synth_UAB_INC_STEP_14
 103:Generated_Source\PSoC4/VDAC_Synth_UAB.c **** ,((uint16)VDAC_Synth_UAB_PARAM_WAVE_STEP_14)
 104:Generated_Source\PSoC4/VDAC_Synth_UAB.c **** #endif
 105:Generated_Source\PSoC4/VDAC_Synth_UAB.c **** #if VDAC_Synth_UAB_INC_STEP_15
 106:Generated_Source\PSoC4/VDAC_Synth_UAB.c **** ,((uint16)VDAC_Synth_UAB_PARAM_WAVE_STEP_15)
 107:Generated_Source\PSoC4/VDAC_Synth_UAB.c **** #endif
 108:Generated_Source\PSoC4/VDAC_Synth_UAB.c **** };
 109:Generated_Source\PSoC4/VDAC_Synth_UAB.c **** 
 110:Generated_Source\PSoC4/VDAC_Synth_UAB.c **** /*! Part of default configuration used to initialize UAB in VDAC_Synth_UAB_Start() */
 111:Generated_Source\PSoC4/VDAC_Synth_UAB.c **** CyUAB_reg_pair VDAC_Synth_UAB_initPairs[VDAC_Synth_UAB_INIT_PAIRS_COUNT] = {
 112:Generated_Source\PSoC4/VDAC_Synth_UAB.c **** 
 113:Generated_Source\PSoC4/VDAC_Synth_UAB.c **** 	/*OA_CTRL default always first element in initPairs*/
 114:Generated_Source\PSoC4/VDAC_Synth_UAB.c **** #if VDAC_Synth_UAB_NONZERO_OA_CTRL
 115:Generated_Source\PSoC4/VDAC_Synth_UAB.c ****     {VDAC_Synth_UAB_OA_CTRL_PTR         , ((uint32)VDAC_Synth_UAB_DEFAULT_OA_CTRL)}
 116:Generated_Source\PSoC4/VDAC_Synth_UAB.c **** #endif
 117:Generated_Source\PSoC4/VDAC_Synth_UAB.c **** #if VDAC_Synth_UAB_NONZERO_SW_STATIC
 118:Generated_Source\PSoC4/VDAC_Synth_UAB.c ****     ,{VDAC_Synth_UAB_SW_STATIC_PTR      , ((uint32)VDAC_Synth_UAB_DEFAULT_SW_STATIC)}
 119:Generated_Source\PSoC4/VDAC_Synth_UAB.c **** #endif
 120:Generated_Source\PSoC4/VDAC_Synth_UAB.c **** #if VDAC_Synth_UAB_NONZERO_SW_MODBIT_SRC
 121:Generated_Source\PSoC4/VDAC_Synth_UAB.c ****     ,{VDAC_Synth_UAB_SW_MODBIT_SRC_PTR  , ((uint32)VDAC_Synth_UAB_DEFAULT_SW_MODBIT_SRC)}
 122:Generated_Source\PSoC4/VDAC_Synth_UAB.c **** #endif
 123:Generated_Source\PSoC4/VDAC_Synth_UAB.c **** #if VDAC_Synth_UAB_NONZERO_SRAM_CTRL
 124:Generated_Source\PSoC4/VDAC_Synth_UAB.c ****     ,{VDAC_Synth_UAB_SRAM_CTRL_PTR      , ((uint32)VDAC_Synth_UAB_DEFAULT_SRAM_CTRL)} 
 125:Generated_Source\PSoC4/VDAC_Synth_UAB.c **** #endif
 126:Generated_Source\PSoC4/VDAC_Synth_UAB.c **** 
 127:Generated_Source\PSoC4/VDAC_Synth_UAB.c **** 
 128:Generated_Source\PSoC4/VDAC_Synth_UAB.c **** 
 129:Generated_Source\PSoC4/VDAC_Synth_UAB.c **** 
 130:Generated_Source\PSoC4/VDAC_Synth_UAB.c **** 
 131:Generated_Source\PSoC4/VDAC_Synth_UAB.c **** #if VDAC_Synth_UAB_NONZERO_INTR_MASK	
 132:Generated_Source\PSoC4/VDAC_Synth_UAB.c ****     ,{VDAC_Synth_UAB_INTR_MASK_PTR      , ((uint32)VDAC_Synth_UAB_DEFAULT_INTR_MASK)}
 133:Generated_Source\PSoC4/VDAC_Synth_UAB.c **** #endif
 134:Generated_Source\PSoC4/VDAC_Synth_UAB.c **** #if VDAC_Synth_UAB_NONZERO_CAP_CTRL
 135:Generated_Source\PSoC4/VDAC_Synth_UAB.c ****     ,{VDAC_Synth_UAB_CAP_CTRL_PTR       , ((uint32)VDAC_Synth_UAB_DEFAULT_CAP_CTRL)}
 136:Generated_Source\PSoC4/VDAC_Synth_UAB.c **** #endif
 137:Generated_Source\PSoC4/VDAC_Synth_UAB.c **** #if VDAC_Synth_UAB_NONZERO_CAP_ABCF_VAL
 138:Generated_Source\PSoC4/VDAC_Synth_UAB.c ****     ,{VDAC_Synth_UAB_CAP_ABCF_VAL_PTR   , ((uint32)VDAC_Synth_UAB_DEFAULT_CAP_ABCF_VAL)}
 139:Generated_Source\PSoC4/VDAC_Synth_UAB.c **** #endif
 140:Generated_Source\PSoC4/VDAC_Synth_UAB.c **** #if VDAC_Synth_UAB_NONZERO_CAP_AB_VAL_NXT
 141:Generated_Source\PSoC4/VDAC_Synth_UAB.c ****     ,{VDAC_Synth_UAB_CAP_AB_VAL_NXT_PTR , ((uint32)VDAC_Synth_UAB_DEFAULT_CAP_AB_VAL_NXT)}
 142:Generated_Source\PSoC4/VDAC_Synth_UAB.c **** #endif
 143:Generated_Source\PSoC4/VDAC_Synth_UAB.c **** #if VDAC_Synth_UAB_NONZERO_CAP_CF_VAL_NXT
 144:Generated_Source\PSoC4/VDAC_Synth_UAB.c ****     ,{VDAC_Synth_UAB_CAP_CF_VAL_NXT_PTR , ((uint32)VDAC_Synth_UAB_DEFAULT_CAP_CF_VAL_NXT)}
 145:Generated_Source\PSoC4/VDAC_Synth_UAB.c **** #endif
 146:Generated_Source\PSoC4/VDAC_Synth_UAB.c **** #if VDAC_Synth_UAB_NONZERO_STARTUP_DELAY
ARM GAS  C:\Users\Jerry\AppData\Local\Temp\cc1IKG0O.s 			page 4


 147:Generated_Source\PSoC4/VDAC_Synth_UAB.c ****     ,{VDAC_Synth_UAB_STARTUP_DELAY_PTR  , ((uint32)VDAC_Synth_UAB_DEFAULT_STARTUP_DELAY)}
 148:Generated_Source\PSoC4/VDAC_Synth_UAB.c **** #endif
 149:Generated_Source\PSoC4/VDAC_Synth_UAB.c **** #if VDAC_Synth_UAB_NONZERO_SUBSAMPLE_CTRL
 150:Generated_Source\PSoC4/VDAC_Synth_UAB.c ****     ,{VDAC_Synth_UAB_SUBSAMPLE_CTRL_PTR , ((uint32)VDAC_Synth_UAB_DEFAULT_SUBSAMPLE_CTRL)}
 151:Generated_Source\PSoC4/VDAC_Synth_UAB.c **** #endif
 152:Generated_Source\PSoC4/VDAC_Synth_UAB.c **** #if VDAC_Synth_UAB_NONZERO_SW_CA_IN0
 153:Generated_Source\PSoC4/VDAC_Synth_UAB.c ****     ,{VDAC_Synth_UAB_SW_CA_IN0_PTR      , ((uint32)VDAC_Synth_UAB_DEFAULT_SW_CA_IN0)}
 154:Generated_Source\PSoC4/VDAC_Synth_UAB.c **** #endif
 155:Generated_Source\PSoC4/VDAC_Synth_UAB.c **** #if VDAC_Synth_UAB_NONZERO_SW_CA_IN1
 156:Generated_Source\PSoC4/VDAC_Synth_UAB.c ****     ,{VDAC_Synth_UAB_SW_CA_IN1_PTR      , ((uint32)VDAC_Synth_UAB_DEFAULT_SW_CA_IN1)}
 157:Generated_Source\PSoC4/VDAC_Synth_UAB.c **** #endif
 158:Generated_Source\PSoC4/VDAC_Synth_UAB.c **** #if VDAC_Synth_UAB_NONZERO_SW_CA_TOP
 159:Generated_Source\PSoC4/VDAC_Synth_UAB.c ****     ,{VDAC_Synth_UAB_SW_CA_TOP_PTR      , ((uint32)VDAC_Synth_UAB_DEFAULT_SW_CA_TOP)}
 160:Generated_Source\PSoC4/VDAC_Synth_UAB.c **** #endif
 161:Generated_Source\PSoC4/VDAC_Synth_UAB.c **** #if VDAC_Synth_UAB_NONZERO_SW_CB_IN0
 162:Generated_Source\PSoC4/VDAC_Synth_UAB.c ****     ,{VDAC_Synth_UAB_SW_CB_IN0_PTR      , ((uint32)VDAC_Synth_UAB_DEFAULT_SW_CB_IN0)}
 163:Generated_Source\PSoC4/VDAC_Synth_UAB.c **** #endif
 164:Generated_Source\PSoC4/VDAC_Synth_UAB.c **** #if VDAC_Synth_UAB_NONZERO_SW_CB_IN1
 165:Generated_Source\PSoC4/VDAC_Synth_UAB.c ****     ,{VDAC_Synth_UAB_SW_CB_IN1_PTR      , ((uint32)VDAC_Synth_UAB_DEFAULT_SW_CB_IN1)}
 166:Generated_Source\PSoC4/VDAC_Synth_UAB.c **** #endif
 167:Generated_Source\PSoC4/VDAC_Synth_UAB.c **** #if VDAC_Synth_UAB_NONZERO_SW_CB_TOP
 168:Generated_Source\PSoC4/VDAC_Synth_UAB.c ****     ,{VDAC_Synth_UAB_SW_CB_TOP_PTR      , ((uint32)VDAC_Synth_UAB_DEFAULT_SW_CB_TOP)}
 169:Generated_Source\PSoC4/VDAC_Synth_UAB.c **** #endif
 170:Generated_Source\PSoC4/VDAC_Synth_UAB.c **** #if VDAC_Synth_UAB_NONZERO_SW_CC_IN0
 171:Generated_Source\PSoC4/VDAC_Synth_UAB.c ****     ,{VDAC_Synth_UAB_SW_CC_IN0_PTR      , ((uint32)VDAC_Synth_UAB_DEFAULT_SW_CC_IN0)}
 172:Generated_Source\PSoC4/VDAC_Synth_UAB.c **** #endif
 173:Generated_Source\PSoC4/VDAC_Synth_UAB.c **** #if VDAC_Synth_UAB_NONZERO_SW_CC_IN1
 174:Generated_Source\PSoC4/VDAC_Synth_UAB.c ****     ,{VDAC_Synth_UAB_SW_CC_IN1_PTR      , ((uint32)VDAC_Synth_UAB_DEFAULT_SW_CC_IN1)}
 175:Generated_Source\PSoC4/VDAC_Synth_UAB.c **** #endif
 176:Generated_Source\PSoC4/VDAC_Synth_UAB.c **** #if VDAC_Synth_UAB_NONZERO_SW_CC_TOP
 177:Generated_Source\PSoC4/VDAC_Synth_UAB.c ****     ,{VDAC_Synth_UAB_SW_CC_TOP_PTR      , ((uint32)VDAC_Synth_UAB_DEFAULT_SW_CC_TOP)}
 178:Generated_Source\PSoC4/VDAC_Synth_UAB.c **** #endif
 179:Generated_Source\PSoC4/VDAC_Synth_UAB.c **** #if VDAC_Synth_UAB_NONZERO_SW_CF_BOT
 180:Generated_Source\PSoC4/VDAC_Synth_UAB.c ****     ,{VDAC_Synth_UAB_SW_CF_BOT_PTR      , ((uint32)VDAC_Synth_UAB_DEFAULT_SW_CF_BOT)}
 181:Generated_Source\PSoC4/VDAC_Synth_UAB.c **** #endif
 182:Generated_Source\PSoC4/VDAC_Synth_UAB.c **** #if VDAC_Synth_UAB_NONZERO_SW_OTHER
 183:Generated_Source\PSoC4/VDAC_Synth_UAB.c ****     ,{VDAC_Synth_UAB_SW_OTHER_PTR       , ((uint32)VDAC_Synth_UAB_DEFAULT_SW_OTHER)}
 184:Generated_Source\PSoC4/VDAC_Synth_UAB.c **** #endif
 185:Generated_Source\PSoC4/VDAC_Synth_UAB.c **** #if VDAC_Synth_UAB_NONZERO_SW_BOOST_CTRL
 186:Generated_Source\PSoC4/VDAC_Synth_UAB.c ****     ,{VDAC_Synth_UAB_SW_BOOST_CTRL_PTR  , ((uint32)VDAC_Synth_UAB_DEFAULT_SW_BOOST_CTRL)}
 187:Generated_Source\PSoC4/VDAC_Synth_UAB.c **** #endif
 188:Generated_Source\PSoC4/VDAC_Synth_UAB.c **** 
 189:Generated_Source\PSoC4/VDAC_Synth_UAB.c **** 
 190:Generated_Source\PSoC4/VDAC_Synth_UAB.c **** };
 191:Generated_Source\PSoC4/VDAC_Synth_UAB.c **** 
 192:Generated_Source\PSoC4/VDAC_Synth_UAB.c **** /*! Default configuration used to initialize UAB in VDAC_Synth_UAB_Start() */
 193:Generated_Source\PSoC4/VDAC_Synth_UAB.c **** CyUAB_config VDAC_Synth_UAB_config = {
 194:Generated_Source\PSoC4/VDAC_Synth_UAB.c ****     VDAC_Synth_UAB_waveConfig,
 195:Generated_Source\PSoC4/VDAC_Synth_UAB.c ****     VDAC_Synth_UAB_initPairs,
 196:Generated_Source\PSoC4/VDAC_Synth_UAB.c ****     CyUAB_SHARED_SW_CFG(VDAC_Synth_UAB_PARAM_REF_TIED,VDAC_Synth_UAB_PARAM_AGND_TIED,
 197:Generated_Source\PSoC4/VDAC_Synth_UAB.c ****         VDAC_Synth_UAB_PARAM_SW_CC,VDAC_Synth_UAB_PARAM_SW_BB,VDAC_Synth_UAB_PARAM_SW_AA),
 198:Generated_Source\PSoC4/VDAC_Synth_UAB.c ****     VDAC_Synth_UAB_NUM_STEPS,
 199:Generated_Source\PSoC4/VDAC_Synth_UAB.c ****     (uint8)(VDAC_Synth_UAB_ELEMENT_COUNT(VDAC_Synth_UAB_initPairs))
 200:Generated_Source\PSoC4/VDAC_Synth_UAB.c **** };
 201:Generated_Source\PSoC4/VDAC_Synth_UAB.c **** 
 202:Generated_Source\PSoC4/VDAC_Synth_UAB.c **** /*! @} group_init */
 203:Generated_Source\PSoC4/VDAC_Synth_UAB.c **** 
ARM GAS  C:\Users\Jerry\AppData\Local\Temp\cc1IKG0O.s 			page 5


 204:Generated_Source\PSoC4/VDAC_Synth_UAB.c **** 
 205:Generated_Source\PSoC4/VDAC_Synth_UAB.c **** /************** VDAC_Synth_UAB_Start() **************************************/
 206:Generated_Source\PSoC4/VDAC_Synth_UAB.c **** /*!
 207:Generated_Source\PSoC4/VDAC_Synth_UAB.c **** * @brief Initializes and enables the component.
 208:Generated_Source\PSoC4/VDAC_Synth_UAB.c **** * 
 209:Generated_Source\PSoC4/VDAC_Synth_UAB.c **** * @details This function is equivalent to calling 
 210:Generated_Source\PSoC4/VDAC_Synth_UAB.c **** * VDAC_Synth_UAB_Enable(), VDAC_Synth_UAB_Init(&VDAC_Synth_UAB_config), and VDAC_Synth_UAB_Run(1UL)
 211:Generated_Source\PSoC4/VDAC_Synth_UAB.c **** * Takes no parameters.  Returns @c void.
 212:Generated_Source\PSoC4/VDAC_Synth_UAB.c **** * 
 213:Generated_Source\PSoC4/VDAC_Synth_UAB.c **** * @internal
 214:Generated_Source\PSoC4/VDAC_Synth_UAB.c **** * @reglist
 215:Generated_Source\PSoC4/VDAC_Synth_UAB.c **** * @image html SetTopSwitch.png
 216:Generated_Source\PSoC4/VDAC_Synth_UAB.c **** * @endinternal
 217:Generated_Source\PSoC4/VDAC_Synth_UAB.c **** * 
 218:Generated_Source\PSoC4/VDAC_Synth_UAB.c **** * @see VDAC_Synth_UAB_Enable()
 219:Generated_Source\PSoC4/VDAC_Synth_UAB.c **** * @see VDAC_Synth_UAB_Init()
 220:Generated_Source\PSoC4/VDAC_Synth_UAB.c **** * @see VDAC_Synth_UAB_Run()
 221:Generated_Source\PSoC4/VDAC_Synth_UAB.c **** * @see VDAC_Synth_UAB_Stop()
 222:Generated_Source\PSoC4/VDAC_Synth_UAB.c **** *
 223:Generated_Source\PSoC4/VDAC_Synth_UAB.c **** * @sideeffect Sets ENABLED bit for whole UAB - both half0 and half1.
 224:Generated_Source\PSoC4/VDAC_Synth_UAB.c **** *
 225:Generated_Source\PSoC4/VDAC_Synth_UAB.c **** * \globalvars
 226:Generated_Source\PSoC4/VDAC_Synth_UAB.c **** *  \ref VDAC_Synth_UAB_initVar (RW)
 227:Generated_Source\PSoC4/VDAC_Synth_UAB.c **** *
 228:Generated_Source\PSoC4/VDAC_Synth_UAB.c **** *******************************************************************************/
 229:Generated_Source\PSoC4/VDAC_Synth_UAB.c **** void VDAC_Synth_UAB_Start(void)
 230:Generated_Source\PSoC4/VDAC_Synth_UAB.c **** {
 231:Generated_Source\PSoC4/VDAC_Synth_UAB.c ****     if (VDAC_Synth_UAB_initVar != 1UL)
 232:Generated_Source\PSoC4/VDAC_Synth_UAB.c ****     {
 233:Generated_Source\PSoC4/VDAC_Synth_UAB.c ****         VDAC_Synth_UAB_Init(&VDAC_Synth_UAB_config);
 234:Generated_Source\PSoC4/VDAC_Synth_UAB.c ****         VDAC_Synth_UAB_initVar = 1UL;
 235:Generated_Source\PSoC4/VDAC_Synth_UAB.c ****     }
 236:Generated_Source\PSoC4/VDAC_Synth_UAB.c ****     else 
 237:Generated_Source\PSoC4/VDAC_Synth_UAB.c ****     {
 238:Generated_Source\PSoC4/VDAC_Synth_UAB.c ****         /* Already initialized - empty */
 239:Generated_Source\PSoC4/VDAC_Synth_UAB.c ****     }
 240:Generated_Source\PSoC4/VDAC_Synth_UAB.c ****     
 241:Generated_Source\PSoC4/VDAC_Synth_UAB.c ****     /*no delay required between Enable() and Run(1) - run bit control logic handles UAB ramp up*/
 242:Generated_Source\PSoC4/VDAC_Synth_UAB.c ****     VDAC_Synth_UAB_Run(1UL); /*set the run bit*/
 243:Generated_Source\PSoC4/VDAC_Synth_UAB.c **** }
 244:Generated_Source\PSoC4/VDAC_Synth_UAB.c **** 
 245:Generated_Source\PSoC4/VDAC_Synth_UAB.c **** /************* VDAC_Synth_UAB_Stop() ****************************************/
 246:Generated_Source\PSoC4/VDAC_Synth_UAB.c **** /*!
 247:Generated_Source\PSoC4/VDAC_Synth_UAB.c **** * @brief Stops component functionality.
 248:Generated_Source\PSoC4/VDAC_Synth_UAB.c **** * 
 249:Generated_Source\PSoC4/VDAC_Synth_UAB.c **** * @details Disables the clocks.  Call this before modifying the UAB configuration.
 250:Generated_Source\PSoC4/VDAC_Synth_UAB.c **** * Takes no parameters.  Returns @c void.
 251:Generated_Source\PSoC4/VDAC_Synth_UAB.c **** * 
 252:Generated_Source\PSoC4/VDAC_Synth_UAB.c **** * @internal
 253:Generated_Source\PSoC4/VDAC_Synth_UAB.c **** * @reglist
 254:Generated_Source\PSoC4/VDAC_Synth_UAB.c **** * @endinternal
 255:Generated_Source\PSoC4/VDAC_Synth_UAB.c **** * 
 256:Generated_Source\PSoC4/VDAC_Synth_UAB.c **** * @see VDAC_Synth_UAB_Start()
 257:Generated_Source\PSoC4/VDAC_Synth_UAB.c **** * @see VDAC_Synth_UAB_Run()
 258:Generated_Source\PSoC4/VDAC_Synth_UAB.c **** * 
 259:Generated_Source\PSoC4/VDAC_Synth_UAB.c **** * @sideeffect None
 260:Generated_Source\PSoC4/VDAC_Synth_UAB.c **** *******************************************************************************/
ARM GAS  C:\Users\Jerry\AppData\Local\Temp\cc1IKG0O.s 			page 6


 261:Generated_Source\PSoC4/VDAC_Synth_UAB.c **** void VDAC_Synth_UAB_Stop(void)
 262:Generated_Source\PSoC4/VDAC_Synth_UAB.c **** {
 263:Generated_Source\PSoC4/VDAC_Synth_UAB.c ****     VDAC_Synth_UAB_Run(0UL); /*Clear run bit*/
 264:Generated_Source\PSoC4/VDAC_Synth_UAB.c ****     /*Intentionally not clearing the enable bit because it has a side-effect - 
 265:Generated_Source\PSoC4/VDAC_Synth_UAB.c **** 	the enable bit is shared with another UAB half*/
 266:Generated_Source\PSoC4/VDAC_Synth_UAB.c **** }
 267:Generated_Source\PSoC4/VDAC_Synth_UAB.c **** 
 268:Generated_Source\PSoC4/VDAC_Synth_UAB.c **** 
 269:Generated_Source\PSoC4/VDAC_Synth_UAB.c **** /* Support function for VDAC_Synth_UAB_Init() */
 270:Generated_Source\PSoC4/VDAC_Synth_UAB.c **** void VDAC_Synth_UAB_WriteInitPairs(const CyUAB_reg_pair pairs[], size_t n)
 271:Generated_Source\PSoC4/VDAC_Synth_UAB.c **** {
  26              		.loc 1 271 0
  27              		.cfi_startproc
  28              	.LVL0:
 272:Generated_Source\PSoC4/VDAC_Synth_UAB.c ****     uint32 i;
 273:Generated_Source\PSoC4/VDAC_Synth_UAB.c ****     for( i = 0UL; i < n; i++ )
  29              		.loc 1 273 0
  30 0000 0023     		mov	r3, #0
 271:Generated_Source\PSoC4/VDAC_Synth_UAB.c ****     uint32 i;
  31              		.loc 1 271 0
  32 0002 10B5     		push	{r4, lr}
  33              		.cfi_def_cfa_offset 8
  34              		.cfi_offset 4, -8
  35              		.cfi_offset 14, -4
  36              	.LVL1:
  37              	.L2:
  38              		.loc 1 273 0 discriminator 1
  39 0004 8B42     		cmp	r3, r1
  40 0006 05D0     		beq	.L5
 274:Generated_Source\PSoC4/VDAC_Synth_UAB.c ****     {
 275:Generated_Source\PSoC4/VDAC_Synth_UAB.c ****         CY_SET_REG32( pairs[i].addr, pairs[i].value );
  41              		.loc 1 275 0 discriminator 3
  42 0008 0268     		ldr	r2, [r0]
  43 000a 4468     		ldr	r4, [r0, #4]
 273:Generated_Source\PSoC4/VDAC_Synth_UAB.c ****     {
  44              		.loc 1 273 0 discriminator 3
  45 000c 0133     		add	r3, r3, #1
  46              	.LVL2:
  47              		.loc 1 275 0 discriminator 3
  48 000e 1460     		str	r4, [r2]
  49 0010 0830     		add	r0, r0, #8
  50 0012 F7E7     		b	.L2
  51              	.L5:
 276:Generated_Source\PSoC4/VDAC_Synth_UAB.c ****     }    
 277:Generated_Source\PSoC4/VDAC_Synth_UAB.c **** }
  52              		.loc 1 277 0
  53              		@ sp needed
  54 0014 10BD     		pop	{r4, pc}
  55              		.cfi_endproc
  56              	.LFE3:
  57              		.size	VDAC_Synth_UAB_WriteInitPairs, .-VDAC_Synth_UAB_WriteInitPairs
  58              		.section	.text.VDAC_Synth_UAB_Enable,"ax",%progbits
  59              		.align	1
  60              		.global	VDAC_Synth_UAB_Enable
  61              		.code	16
  62              		.thumb_func
  63              		.type	VDAC_Synth_UAB_Enable, %function
ARM GAS  C:\Users\Jerry\AppData\Local\Temp\cc1IKG0O.s 			page 7


  64              	VDAC_Synth_UAB_Enable:
  65              	.LFB5:
 278:Generated_Source\PSoC4/VDAC_Synth_UAB.c **** 
 279:Generated_Source\PSoC4/VDAC_Synth_UAB.c **** 
 280:Generated_Source\PSoC4/VDAC_Synth_UAB.c **** 
 281:Generated_Source\PSoC4/VDAC_Synth_UAB.c **** 
 282:Generated_Source\PSoC4/VDAC_Synth_UAB.c ****     
 283:Generated_Source\PSoC4/VDAC_Synth_UAB.c **** 
 284:Generated_Source\PSoC4/VDAC_Synth_UAB.c **** 
 285:Generated_Source\PSoC4/VDAC_Synth_UAB.c **** /*************** VDAC_Synth_UAB_Init() **************************************/
 286:Generated_Source\PSoC4/VDAC_Synth_UAB.c **** /*!
 287:Generated_Source\PSoC4/VDAC_Synth_UAB.c **** * @brief Initializes component settings.
 288:Generated_Source\PSoC4/VDAC_Synth_UAB.c **** * 
 289:Generated_Source\PSoC4/VDAC_Synth_UAB.c **** * @details Enables UAB and sets initial configurations, but does not start clocking.
 290:Generated_Source\PSoC4/VDAC_Synth_UAB.c **** *
 291:Generated_Source\PSoC4/VDAC_Synth_UAB.c **** * @param cfg pointer to a UAB configuration
 292:Generated_Source\PSoC4/VDAC_Synth_UAB.c **** * Returns @c void.
 293:Generated_Source\PSoC4/VDAC_Synth_UAB.c **** *
 294:Generated_Source\PSoC4/VDAC_Synth_UAB.c **** * Start() is the preferred way to enable the UAB.
 295:Generated_Source\PSoC4/VDAC_Synth_UAB.c **** *
 296:Generated_Source\PSoC4/VDAC_Synth_UAB.c **** * Can be used for dynamic reconfiguration - must create configurations that handle
 297:Generated_Source\PSoC4/VDAC_Synth_UAB.c **** * the deltas between them including clearing registers.
 298:Generated_Source\PSoC4/VDAC_Synth_UAB.c **** * 
 299:Generated_Source\PSoC4/VDAC_Synth_UAB.c **** * @internal
 300:Generated_Source\PSoC4/VDAC_Synth_UAB.c **** * @reglist all
 301:Generated_Source\PSoC4/VDAC_Synth_UAB.c **** * @endinternal
 302:Generated_Source\PSoC4/VDAC_Synth_UAB.c **** * 
 303:Generated_Source\PSoC4/VDAC_Synth_UAB.c **** * @see VDAC_Synth_UAB_Start()
 304:Generated_Source\PSoC4/VDAC_Synth_UAB.c **** * @see VDAC_Synth_UAB_Enable()
 305:Generated_Source\PSoC4/VDAC_Synth_UAB.c **** * 
 306:Generated_Source\PSoC4/VDAC_Synth_UAB.c **** * @sideeffect Sets ENABLED bit for whole UAB - both half0 and half1.
 307:Generated_Source\PSoC4/VDAC_Synth_UAB.c **** *******************************************************************************/
 308:Generated_Source\PSoC4/VDAC_Synth_UAB.c **** void VDAC_Synth_UAB_Init(const CyUAB_config * cfg)
 309:Generated_Source\PSoC4/VDAC_Synth_UAB.c **** {
 310:Generated_Source\PSoC4/VDAC_Synth_UAB.c **** #if VDAC_Synth_UAB_ISPAIRED 
 311:Generated_Source\PSoC4/VDAC_Synth_UAB.c ****     CyUAB_agnd_tied_enum agndTied;
 312:Generated_Source\PSoC4/VDAC_Synth_UAB.c ****     CyUAB_ref_tied_enum refTied;
 313:Generated_Source\PSoC4/VDAC_Synth_UAB.c ****     CyUAB_clk_enum clk_AA;
 314:Generated_Source\PSoC4/VDAC_Synth_UAB.c ****     CyUAB_clk_enum clk_BB;
 315:Generated_Source\PSoC4/VDAC_Synth_UAB.c ****     CyUAB_clk_enum clk_CC;
 316:Generated_Source\PSoC4/VDAC_Synth_UAB.c **** #endif
 317:Generated_Source\PSoC4/VDAC_Synth_UAB.c **** 
 318:Generated_Source\PSoC4/VDAC_Synth_UAB.c ****     VDAC_Synth_UAB_Enable();
 319:Generated_Source\PSoC4/VDAC_Synth_UAB.c ****     
 320:Generated_Source\PSoC4/VDAC_Synth_UAB.c ****     CyUAB_SetNSteps( VDAC_Synth_UAB_SRAM0_PTR, ((size_t)(cfg->stepCount)), (cfg->waveSteps) );
 321:Generated_Source\PSoC4/VDAC_Synth_UAB.c ****     
 322:Generated_Source\PSoC4/VDAC_Synth_UAB.c ****     /* Optimized version of ClearAllClocks() -- 
 323:Generated_Source\PSoC4/VDAC_Synth_UAB.c ****     Clear remaining wavesteps, so clock editing with SetClock() works
 324:Generated_Source\PSoC4/VDAC_Synth_UAB.c ****     */
 325:Generated_Source\PSoC4/VDAC_Synth_UAB.c ****     (void)CyUAB_wordset( 
 326:Generated_Source\PSoC4/VDAC_Synth_UAB.c ****         ((reg32*)( ((uint32)(VDAC_Synth_UAB_SRAM0_PTR)) + (((uint32)(cfg->stepCount))*sizeof(uint32
 327:Generated_Source\PSoC4/VDAC_Synth_UAB.c ****         0UL, 
 328:Generated_Source\PSoC4/VDAC_Synth_UAB.c ****         ( ( CyUAB_STEPS_LEN_MAX - ((uint32)(cfg->stepCount)) ) * sizeof(uint32) )
 329:Generated_Source\PSoC4/VDAC_Synth_UAB.c ****     );
 330:Generated_Source\PSoC4/VDAC_Synth_UAB.c ****     
 331:Generated_Source\PSoC4/VDAC_Synth_UAB.c ****     VDAC_Synth_UAB_WriteInitPairs( cfg->pairs, ((size_t)(cfg->pairCount)) );
 332:Generated_Source\PSoC4/VDAC_Synth_UAB.c ****     /* ^ 
ARM GAS  C:\Users\Jerry\AppData\Local\Temp\cc1IKG0O.s 			page 8


 333:Generated_Source\PSoC4/VDAC_Synth_UAB.c ****     *  | 
 334:Generated_Source\PSoC4/VDAC_Synth_UAB.c ****     *  | 
 335:Generated_Source\PSoC4/VDAC_Synth_UAB.c ****     *  Direct writes must happen before writing shared switch fields*/
 336:Generated_Source\PSoC4/VDAC_Synth_UAB.c ****     
 337:Generated_Source\PSoC4/VDAC_Synth_UAB.c ****     
 338:Generated_Source\PSoC4/VDAC_Synth_UAB.c **** #if VDAC_Synth_UAB_ISPAIRED
 339:Generated_Source\PSoC4/VDAC_Synth_UAB.c ****     /*Handle shared switches - switches that connect paired UABPRIM instances*/
 340:Generated_Source\PSoC4/VDAC_Synth_UAB.c ****     agndTied = CyUAB_SHARED_SW_CFG_AGNDTIED( cfg->shared_sw );
 341:Generated_Source\PSoC4/VDAC_Synth_UAB.c ****     VDAC_Synth_UAB_SetAgndTied( agndTied );
 342:Generated_Source\PSoC4/VDAC_Synth_UAB.c ****     refTied = CyUAB_SHARED_SW_CFG_REFTIED(  cfg->shared_sw );
 343:Generated_Source\PSoC4/VDAC_Synth_UAB.c ****     VDAC_Synth_UAB_SetRefTied( refTied );
 344:Generated_Source\PSoC4/VDAC_Synth_UAB.c ****     clk_AA = CyUAB_SHARED_SW_CFG_AA(  cfg->shared_sw );
 345:Generated_Source\PSoC4/VDAC_Synth_UAB.c ****     VDAC_Synth_UAB_SetSwitch( CyUAB_SW_AA, clk_AA );
 346:Generated_Source\PSoC4/VDAC_Synth_UAB.c ****     clk_BB = CyUAB_SHARED_SW_CFG_BB(  cfg->shared_sw );
 347:Generated_Source\PSoC4/VDAC_Synth_UAB.c ****     VDAC_Synth_UAB_SetSwitch( CyUAB_SW_BB, clk_BB );
 348:Generated_Source\PSoC4/VDAC_Synth_UAB.c ****     clk_CC = CyUAB_SHARED_SW_CFG_CC(  cfg->shared_sw );
 349:Generated_Source\PSoC4/VDAC_Synth_UAB.c ****     VDAC_Synth_UAB_SetSwitch( CyUAB_SW_CC, clk_CC );
 350:Generated_Source\PSoC4/VDAC_Synth_UAB.c **** #endif
 351:Generated_Source\PSoC4/VDAC_Synth_UAB.c ****     
 352:Generated_Source\PSoC4/VDAC_Synth_UAB.c **** }
 353:Generated_Source\PSoC4/VDAC_Synth_UAB.c **** 
 354:Generated_Source\PSoC4/VDAC_Synth_UAB.c **** /************** VDAC_Synth_UAB_Enable() *************************************/
 355:Generated_Source\PSoC4/VDAC_Synth_UAB.c **** /*!
 356:Generated_Source\PSoC4/VDAC_Synth_UAB.c **** * @brief Enables the component.
 357:Generated_Source\PSoC4/VDAC_Synth_UAB.c **** * 
 358:Generated_Source\PSoC4/VDAC_Synth_UAB.c **** * @details Provides power to the op-amp, charge pump, comparator, and reference 
 359:Generated_Source\PSoC4/VDAC_Synth_UAB.c **** * buffers.  Enable() does not enable the clocking.  Call Run(1UL) to enable clocking.
 360:Generated_Source\PSoC4/VDAC_Synth_UAB.c **** * Takes no parameters.  Returns @c void.
 361:Generated_Source\PSoC4/VDAC_Synth_UAB.c **** *
 362:Generated_Source\PSoC4/VDAC_Synth_UAB.c **** * Start() is the preferred way to enable the UAB if all of your configuration is 
 363:Generated_Source\PSoC4/VDAC_Synth_UAB.c **** * captured in symbol parameters.
 364:Generated_Source\PSoC4/VDAC_Synth_UAB.c **** *
 365:Generated_Source\PSoC4/VDAC_Synth_UAB.c **** * NOTE: The ENABLED bit controls both half0 and half1 within a UAB pair.
 366:Generated_Source\PSoC4/VDAC_Synth_UAB.c **** *
 367:Generated_Source\PSoC4/VDAC_Synth_UAB.c **** * Disable() is not implemented.
 368:Generated_Source\PSoC4/VDAC_Synth_UAB.c **** * Clearing the ENABLED bit has the side effect of disabling both halves.
 369:Generated_Source\PSoC4/VDAC_Synth_UAB.c **** * How to disable:
 370:Generated_Source\PSoC4/VDAC_Synth_UAB.c **** * VDAC_Synth_UAB_UAB_CTRL_REG &= ~VDAC_Synth_UAB_ENABLED_MASK;
 371:Generated_Source\PSoC4/VDAC_Synth_UAB.c **** *
 372:Generated_Source\PSoC4/VDAC_Synth_UAB.c **** * The actual power settings are Controlled by the power setting functions.
 373:Generated_Source\PSoC4/VDAC_Synth_UAB.c **** * 
 374:Generated_Source\PSoC4/VDAC_Synth_UAB.c **** * @internal
 375:Generated_Source\PSoC4/VDAC_Synth_UAB.c **** * @reglist
 376:Generated_Source\PSoC4/VDAC_Synth_UAB.c **** * @endinternal
 377:Generated_Source\PSoC4/VDAC_Synth_UAB.c **** * 
 378:Generated_Source\PSoC4/VDAC_Synth_UAB.c **** * @see VDAC_Synth_UAB_Start()
 379:Generated_Source\PSoC4/VDAC_Synth_UAB.c **** * @see VDAC_Synth_UAB_Init()
 380:Generated_Source\PSoC4/VDAC_Synth_UAB.c **** * @see VDAC_Synth_UAB_SetUABPower()
 381:Generated_Source\PSoC4/VDAC_Synth_UAB.c **** * @see VDAC_Synth_UAB_SetOAPower()
 382:Generated_Source\PSoC4/VDAC_Synth_UAB.c **** * @see VDAC_Synth_UAB_SetCompPower()
 383:Generated_Source\PSoC4/VDAC_Synth_UAB.c **** * @see VDAC_Synth_UAB_SetRefPower()
 384:Generated_Source\PSoC4/VDAC_Synth_UAB.c **** * @see VDAC_Synth_UAB_SetAgndPower()
 385:Generated_Source\PSoC4/VDAC_Synth_UAB.c **** * 
 386:Generated_Source\PSoC4/VDAC_Synth_UAB.c **** * @sideeffect Sets ENABLED bit for whole UAB - both half0 and half1.
 387:Generated_Source\PSoC4/VDAC_Synth_UAB.c **** *******************************************************************************/
 388:Generated_Source\PSoC4/VDAC_Synth_UAB.c **** void VDAC_Synth_UAB_Enable(void)
 389:Generated_Source\PSoC4/VDAC_Synth_UAB.c **** {
ARM GAS  C:\Users\Jerry\AppData\Local\Temp\cc1IKG0O.s 			page 9


  66              		.loc 1 389 0
  67              		.cfi_startproc
 390:Generated_Source\PSoC4/VDAC_Synth_UAB.c ****     VDAC_Synth_UAB_UAB_CTRL_REG |= VDAC_Synth_UAB_ENABLED_MASK; /*Side effect: also enables other U
  68              		.loc 1 390 0
  69 0000 8021     		mov	r1, #128
  70 0002 034A     		ldr	r2, .L7
  71 0004 0906     		lsl	r1, r1, #24
  72 0006 1368     		ldr	r3, [r2]
 391:Generated_Source\PSoC4/VDAC_Synth_UAB.c **** }
  73              		.loc 1 391 0
  74              		@ sp needed
 390:Generated_Source\PSoC4/VDAC_Synth_UAB.c ****     VDAC_Synth_UAB_UAB_CTRL_REG |= VDAC_Synth_UAB_ENABLED_MASK; /*Side effect: also enables other U
  75              		.loc 1 390 0
  76 0008 0B43     		orr	r3, r1
  77 000a 1360     		str	r3, [r2]
  78              		.loc 1 391 0
  79 000c 7047     		bx	lr
  80              	.L8:
  81 000e C046     		.align	2
  82              	.L7:
  83 0010 00003440 		.word	1077149696
  84              		.cfi_endproc
  85              	.LFE5:
  86              		.size	VDAC_Synth_UAB_Enable, .-VDAC_Synth_UAB_Enable
  87              		.section	.text.VDAC_Synth_UAB_Init,"ax",%progbits
  88              		.align	1
  89              		.global	VDAC_Synth_UAB_Init
  90              		.code	16
  91              		.thumb_func
  92              		.type	VDAC_Synth_UAB_Init, %function
  93              	VDAC_Synth_UAB_Init:
  94              	.LFB4:
 309:Generated_Source\PSoC4/VDAC_Synth_UAB.c **** #if VDAC_Synth_UAB_ISPAIRED 
  95              		.loc 1 309 0
  96              		.cfi_startproc
  97              	.LVL3:
  98 0000 10B5     		push	{r4, lr}
  99              		.cfi_def_cfa_offset 8
 100              		.cfi_offset 4, -8
 101              		.cfi_offset 14, -4
 309:Generated_Source\PSoC4/VDAC_Synth_UAB.c **** #if VDAC_Synth_UAB_ISPAIRED 
 102              		.loc 1 309 0
 103 0002 041C     		mov	r4, r0
 318:Generated_Source\PSoC4/VDAC_Synth_UAB.c ****     
 104              		.loc 1 318 0
 105 0004 FFF7FEFF 		bl	VDAC_Synth_UAB_Enable
 106              	.LVL4:
 320:Generated_Source\PSoC4/VDAC_Synth_UAB.c ****     
 107              		.loc 1 320 0
 108 0008 A17A     		ldrb	r1, [r4, #10]
 109 000a 2268     		ldr	r2, [r4]
 110 000c 0848     		ldr	r0, .L10
 111 000e FFF7FEFF 		bl	CyUAB_SetNSteps
 112              	.LVL5:
 326:Generated_Source\PSoC4/VDAC_Synth_UAB.c ****         0UL, 
 113              		.loc 1 326 0
 114 0012 A27A     		ldrb	r2, [r4, #10]
ARM GAS  C:\Users\Jerry\AppData\Local\Temp\cc1IKG0O.s 			page 10


 115 0014 074B     		ldr	r3, .L10+4
 325:Generated_Source\PSoC4/VDAC_Synth_UAB.c ****         ((reg32*)( ((uint32)(VDAC_Synth_UAB_SRAM0_PTR)) + (((uint32)(cfg->stepCount))*sizeof(uint32
 116              		.loc 1 325 0
 117 0016 0021     		mov	r1, #0
 326:Generated_Source\PSoC4/VDAC_Synth_UAB.c ****         0UL, 
 118              		.loc 1 326 0
 119 0018 D018     		add	r0, r2, r3
 325:Generated_Source\PSoC4/VDAC_Synth_UAB.c ****         ((reg32*)( ((uint32)(VDAC_Synth_UAB_SRAM0_PTR)) + (((uint32)(cfg->stepCount))*sizeof(uint32
 120              		.loc 1 325 0
 121 001a 9200     		lsl	r2, r2, #2
 122 001c 5242     		neg	r2, r2
 328:Generated_Source\PSoC4/VDAC_Synth_UAB.c ****     );
 123              		.loc 1 328 0
 124 001e 4032     		add	r2, r2, #64
 326:Generated_Source\PSoC4/VDAC_Synth_UAB.c ****         0UL, 
 125              		.loc 1 326 0
 126 0020 8000     		lsl	r0, r0, #2
 325:Generated_Source\PSoC4/VDAC_Synth_UAB.c ****         ((reg32*)( ((uint32)(VDAC_Synth_UAB_SRAM0_PTR)) + (((uint32)(cfg->stepCount))*sizeof(uint32
 127              		.loc 1 325 0
 128 0022 FFF7FEFF 		bl	CyUAB_wordset
 129              	.LVL6:
 331:Generated_Source\PSoC4/VDAC_Synth_UAB.c ****     /* ^ 
 130              		.loc 1 331 0
 131 0026 E17A     		ldrb	r1, [r4, #11]
 132 0028 6068     		ldr	r0, [r4, #4]
 133 002a FFF7FEFF 		bl	VDAC_Synth_UAB_WriteInitPairs
 134              	.LVL7:
 352:Generated_Source\PSoC4/VDAC_Synth_UAB.c **** 
 135              		.loc 1 352 0
 136              		@ sp needed
 137              	.LVL8:
 138 002e 10BD     		pop	{r4, pc}
 139              	.L11:
 140              		.align	2
 141              	.L10:
 142 0030 80033440 		.word	1077150592
 143 0034 E0000D10 		.word	269287648
 144              		.cfi_endproc
 145              	.LFE4:
 146              		.size	VDAC_Synth_UAB_Init, .-VDAC_Synth_UAB_Init
 147              		.section	.text.VDAC_Synth_UAB_ClearInterrupt,"ax",%progbits
 148              		.align	1
 149              		.global	VDAC_Synth_UAB_ClearInterrupt
 150              		.code	16
 151              		.thumb_func
 152              		.type	VDAC_Synth_UAB_ClearInterrupt, %function
 153              	VDAC_Synth_UAB_ClearInterrupt:
 154              	.LFB6:
 392:Generated_Source\PSoC4/VDAC_Synth_UAB.c **** 
 393:Generated_Source\PSoC4/VDAC_Synth_UAB.c **** 
 394:Generated_Source\PSoC4/VDAC_Synth_UAB.c **** /*Interrupts*/
 395:Generated_Source\PSoC4/VDAC_Synth_UAB.c **** 
 396:Generated_Source\PSoC4/VDAC_Synth_UAB.c **** 
 397:Generated_Source\PSoC4/VDAC_Synth_UAB.c **** /*********** VDAC_Synth_UAB_ClearInterrupt() ********************************/
 398:Generated_Source\PSoC4/VDAC_Synth_UAB.c **** /*!
 399:Generated_Source\PSoC4/VDAC_Synth_UAB.c **** * @brief Reset an interrupt request bit. 
 400:Generated_Source\PSoC4/VDAC_Synth_UAB.c **** * 
ARM GAS  C:\Users\Jerry\AppData\Local\Temp\cc1IKG0O.s 			page 11


 401:Generated_Source\PSoC4/VDAC_Synth_UAB.c **** * @details After an interrupt has been fired, this function resets the interrupt 
 402:Generated_Source\PSoC4/VDAC_Synth_UAB.c **** * so it can fire again. Returns @c void.
 403:Generated_Source\PSoC4/VDAC_Synth_UAB.c **** * 
 404:Generated_Source\PSoC4/VDAC_Synth_UAB.c **** * @param intr 
 405:Generated_Source\PSoC4/VDAC_Synth_UAB.c **** * @arg CyUAB_INTR_COMP select comparator interrupt
 406:Generated_Source\PSoC4/VDAC_Synth_UAB.c **** * @arg CyUAB_INTR_VDAC_EMPTY select VDAC empty interrupt
 407:Generated_Source\PSoC4/VDAC_Synth_UAB.c **** *
 408:Generated_Source\PSoC4/VDAC_Synth_UAB.c **** * @internal
 409:Generated_Source\PSoC4/VDAC_Synth_UAB.c **** * @reglist @reg VDAC_Synth_UAB_INTR_REG
 410:Generated_Source\PSoC4/VDAC_Synth_UAB.c **** * @endinternal
 411:Generated_Source\PSoC4/VDAC_Synth_UAB.c **** * 
 412:Generated_Source\PSoC4/VDAC_Synth_UAB.c **** * @see VDAC_Synth_UAB_SetInterrupt()
 413:Generated_Source\PSoC4/VDAC_Synth_UAB.c **** * 
 414:Generated_Source\PSoC4/VDAC_Synth_UAB.c **** * @see VDAC_Synth_UAB_SetInterruptMask()
 415:Generated_Source\PSoC4/VDAC_Synth_UAB.c **** * @see VDAC_Synth_UAB_ClearInterruptMask()
 416:Generated_Source\PSoC4/VDAC_Synth_UAB.c **** * @see VDAC_Synth_UAB_GetInterruptIsMasked()
 417:Generated_Source\PSoC4/VDAC_Synth_UAB.c **** * 
 418:Generated_Source\PSoC4/VDAC_Synth_UAB.c **** * @sideeffect None
 419:Generated_Source\PSoC4/VDAC_Synth_UAB.c **** *******************************************************************************/
 420:Generated_Source\PSoC4/VDAC_Synth_UAB.c **** void VDAC_Synth_UAB_ClearInterrupt(CyUAB_intr_enum intr)
 421:Generated_Source\PSoC4/VDAC_Synth_UAB.c **** {
 155              		.loc 1 421 0
 156              		.cfi_startproc
 157              	.LVL9:
 422:Generated_Source\PSoC4/VDAC_Synth_UAB.c ****     /* Write '1' to the register bit field to clear the interrupt bit. */
 423:Generated_Source\PSoC4/VDAC_Synth_UAB.c ****     /*intentionally omitting decimator interrupt - handled in decimator component*/    
 424:Generated_Source\PSoC4/VDAC_Synth_UAB.c **** 
 425:Generated_Source\PSoC4/VDAC_Synth_UAB.c ****     uint32 mask = ( (CyUAB_INTR_COMP==intr)      ? ((uint32)VDAC_Synth_UAB_INTR_COMP_MASK) : 
 158              		.loc 1 425 0
 159 0000 2528     		cmp	r0, #37
 160 0002 04D0     		beq	.L15
 426:Generated_Source\PSoC4/VDAC_Synth_UAB.c ****                   ( (CyUAB_INTR_VDAC_EMPTY==intr)? ((uint32)VDAC_Synth_UAB_INTR_VDAC_EMPTY_MASK) : 
 161              		.loc 1 426 0
 162 0004 4328     		cmp	r0, #67
 163 0006 08D1     		bne	.L12
 164 0008 8021     		mov	r1, #128
 165 000a 8902     		lsl	r1, r1, #10
 166 000c 01E0     		b	.L13
 167              	.L15:
 425:Generated_Source\PSoC4/VDAC_Synth_UAB.c ****                   ( (CyUAB_INTR_VDAC_EMPTY==intr)? ((uint32)VDAC_Synth_UAB_INTR_VDAC_EMPTY_MASK) : 
 168              		.loc 1 425 0
 169 000e 8021     		mov	r1, #128
 170 0010 4902     		lsl	r1, r1, #9
 171              	.L13:
 172              	.LVL10:
 427:Generated_Source\PSoC4/VDAC_Synth_UAB.c ****                   0UL ) );
 428:Generated_Source\PSoC4/VDAC_Synth_UAB.c ****     if(0UL!=mask)
 429:Generated_Source\PSoC4/VDAC_Synth_UAB.c ****     {
 430:Generated_Source\PSoC4/VDAC_Synth_UAB.c ****         *(VDAC_Synth_UAB_INTR_PTR) |= mask;    
 173              		.loc 1 430 0
 174 0012 024A     		ldr	r2, .L17
 175 0014 1368     		ldr	r3, [r2]
 176 0016 0B43     		orr	r3, r1
 177 0018 1360     		str	r3, [r2]
 178              	.LVL11:
 179              	.L12:
 431:Generated_Source\PSoC4/VDAC_Synth_UAB.c ****     }
ARM GAS  C:\Users\Jerry\AppData\Local\Temp\cc1IKG0O.s 			page 12


 432:Generated_Source\PSoC4/VDAC_Synth_UAB.c **** }
 180              		.loc 1 432 0
 181              		@ sp needed
 182 001a 7047     		bx	lr
 183              	.L18:
 184              		.align	2
 185              	.L17:
 186 001c 20003440 		.word	1077149728
 187              		.cfi_endproc
 188              	.LFE6:
 189              		.size	VDAC_Synth_UAB_ClearInterrupt, .-VDAC_Synth_UAB_ClearInterrupt
 190              		.section	.text.VDAC_Synth_UAB_SetInterrupt,"ax",%progbits
 191              		.align	1
 192              		.global	VDAC_Synth_UAB_SetInterrupt
 193              		.code	16
 194              		.thumb_func
 195              		.type	VDAC_Synth_UAB_SetInterrupt, %function
 196              	VDAC_Synth_UAB_SetInterrupt:
 197              	.LFB7:
 433:Generated_Source\PSoC4/VDAC_Synth_UAB.c **** 
 434:Generated_Source\PSoC4/VDAC_Synth_UAB.c **** /************* VDAC_Synth_UAB_SetInterrupt() ********************************/
 435:Generated_Source\PSoC4/VDAC_Synth_UAB.c **** /*!
 436:Generated_Source\PSoC4/VDAC_Synth_UAB.c **** * @brief Sets the bit in the interrupt request register.
 437:Generated_Source\PSoC4/VDAC_Synth_UAB.c **** * 
 438:Generated_Source\PSoC4/VDAC_Synth_UAB.c **** * @details Set the bit to activate a certain interrupt request. Returns @c void.
 439:Generated_Source\PSoC4/VDAC_Synth_UAB.c **** * 
 440:Generated_Source\PSoC4/VDAC_Synth_UAB.c **** * @param intr 
 441:Generated_Source\PSoC4/VDAC_Synth_UAB.c **** * @arg CyUAB_INTR_COMP select comparator interrupt
 442:Generated_Source\PSoC4/VDAC_Synth_UAB.c **** * @arg CyUAB_INTR_VDAC_EMPTY select VDAC empty interrupt
 443:Generated_Source\PSoC4/VDAC_Synth_UAB.c **** *
 444:Generated_Source\PSoC4/VDAC_Synth_UAB.c **** * @internal
 445:Generated_Source\PSoC4/VDAC_Synth_UAB.c **** * @reglist @reg VDAC_Synth_UAB_INTR_SET_REG
 446:Generated_Source\PSoC4/VDAC_Synth_UAB.c **** * @endinternal
 447:Generated_Source\PSoC4/VDAC_Synth_UAB.c **** *
 448:Generated_Source\PSoC4/VDAC_Synth_UAB.c **** * 
 449:Generated_Source\PSoC4/VDAC_Synth_UAB.c **** * @see VDAC_Synth_UAB_ClearInterrupt()
 450:Generated_Source\PSoC4/VDAC_Synth_UAB.c **** * @see VDAC_Synth_UAB_SetInterruptMask()
 451:Generated_Source\PSoC4/VDAC_Synth_UAB.c **** * @see VDAC_Synth_UAB_ClearInterruptMask()
 452:Generated_Source\PSoC4/VDAC_Synth_UAB.c **** * @see VDAC_Synth_UAB_GetInterruptIsMasked()
 453:Generated_Source\PSoC4/VDAC_Synth_UAB.c **** * 
 454:Generated_Source\PSoC4/VDAC_Synth_UAB.c **** * @sideeffect None
 455:Generated_Source\PSoC4/VDAC_Synth_UAB.c **** *******************************************************************************/
 456:Generated_Source\PSoC4/VDAC_Synth_UAB.c **** void VDAC_Synth_UAB_SetInterrupt(CyUAB_intr_enum intr)
 457:Generated_Source\PSoC4/VDAC_Synth_UAB.c **** {
 198              		.loc 1 457 0
 199              		.cfi_startproc
 200              	.LVL12:
 458:Generated_Source\PSoC4/VDAC_Synth_UAB.c ****     /* Write with '1' to set corresponding bit in interrupt request register. */
 459:Generated_Source\PSoC4/VDAC_Synth_UAB.c ****     /*intentionally omitting decimator interrupt - handled in decimator component*/
 460:Generated_Source\PSoC4/VDAC_Synth_UAB.c ****     
 461:Generated_Source\PSoC4/VDAC_Synth_UAB.c ****     uint32 mask = ( (CyUAB_INTR_COMP==intr)      ? ((uint32)VDAC_Synth_UAB_INTR_COMP_MASK) : 
 201              		.loc 1 461 0
 202 0000 2528     		cmp	r0, #37
 203 0002 04D0     		beq	.L22
 462:Generated_Source\PSoC4/VDAC_Synth_UAB.c ****                   ( (CyUAB_INTR_VDAC_EMPTY==intr)? ((uint32)VDAC_Synth_UAB_INTR_VDAC_EMPTY_MASK) : 
 204              		.loc 1 462 0
 205 0004 4328     		cmp	r0, #67
ARM GAS  C:\Users\Jerry\AppData\Local\Temp\cc1IKG0O.s 			page 13


 206 0006 08D1     		bne	.L19
 207 0008 8021     		mov	r1, #128
 208 000a 8902     		lsl	r1, r1, #10
 209 000c 01E0     		b	.L20
 210              	.L22:
 461:Generated_Source\PSoC4/VDAC_Synth_UAB.c ****                   ( (CyUAB_INTR_VDAC_EMPTY==intr)? ((uint32)VDAC_Synth_UAB_INTR_VDAC_EMPTY_MASK) : 
 211              		.loc 1 461 0
 212 000e 8021     		mov	r1, #128
 213 0010 4902     		lsl	r1, r1, #9
 214              	.L20:
 215              	.LVL13:
 463:Generated_Source\PSoC4/VDAC_Synth_UAB.c ****                   0UL ) );
 464:Generated_Source\PSoC4/VDAC_Synth_UAB.c ****     if(0UL!=mask)
 465:Generated_Source\PSoC4/VDAC_Synth_UAB.c ****     {
 466:Generated_Source\PSoC4/VDAC_Synth_UAB.c ****         *(VDAC_Synth_UAB_INTR_SET_PTR) |= mask;
 216              		.loc 1 466 0
 217 0012 024A     		ldr	r2, .L24
 218 0014 1368     		ldr	r3, [r2]
 219 0016 0B43     		orr	r3, r1
 220 0018 1360     		str	r3, [r2]
 221              	.LVL14:
 222              	.L19:
 467:Generated_Source\PSoC4/VDAC_Synth_UAB.c ****     }
 468:Generated_Source\PSoC4/VDAC_Synth_UAB.c **** }
 223              		.loc 1 468 0
 224              		@ sp needed
 225 001a 7047     		bx	lr
 226              	.L25:
 227              		.align	2
 228              	.L24:
 229 001c 24003440 		.word	1077149732
 230              		.cfi_endproc
 231              	.LFE7:
 232              		.size	VDAC_Synth_UAB_SetInterrupt, .-VDAC_Synth_UAB_SetInterrupt
 233              		.section	.text.VDAC_Synth_UAB_SetInterruptMask,"ax",%progbits
 234              		.align	1
 235              		.global	VDAC_Synth_UAB_SetInterruptMask
 236              		.code	16
 237              		.thumb_func
 238              		.type	VDAC_Synth_UAB_SetInterruptMask, %function
 239              	VDAC_Synth_UAB_SetInterruptMask:
 240              	.LFB8:
 469:Generated_Source\PSoC4/VDAC_Synth_UAB.c **** 
 470:Generated_Source\PSoC4/VDAC_Synth_UAB.c **** /************** VDAC_Synth_UAB_SetInterruptMask() ***************************/
 471:Generated_Source\PSoC4/VDAC_Synth_UAB.c **** /*!
 472:Generated_Source\PSoC4/VDAC_Synth_UAB.c **** * @brief Sets the mask bit for the passed interrupt.
 473:Generated_Source\PSoC4/VDAC_Synth_UAB.c **** * 
 474:Generated_Source\PSoC4/VDAC_Synth_UAB.c **** * @details Set the mask bit for setting an interrupt request. Returns @c void.
 475:Generated_Source\PSoC4/VDAC_Synth_UAB.c **** * 
 476:Generated_Source\PSoC4/VDAC_Synth_UAB.c **** * @param intr 
 477:Generated_Source\PSoC4/VDAC_Synth_UAB.c **** * @arg CyUAB_INTR_COMP select comparator interrupt
 478:Generated_Source\PSoC4/VDAC_Synth_UAB.c **** * @arg CyUAB_INTR_VDAC_EMPTY select VDAC empty interrupt
 479:Generated_Source\PSoC4/VDAC_Synth_UAB.c **** *
 480:Generated_Source\PSoC4/VDAC_Synth_UAB.c **** * @internal
 481:Generated_Source\PSoC4/VDAC_Synth_UAB.c **** * @reglist @reg VDAC_Synth_UAB_INTR_MASK_REG
 482:Generated_Source\PSoC4/VDAC_Synth_UAB.c **** * @endinternal
 483:Generated_Source\PSoC4/VDAC_Synth_UAB.c **** * 
ARM GAS  C:\Users\Jerry\AppData\Local\Temp\cc1IKG0O.s 			page 14


 484:Generated_Source\PSoC4/VDAC_Synth_UAB.c **** * @see VDAC_Synth_UAB_SetInterrupt()
 485:Generated_Source\PSoC4/VDAC_Synth_UAB.c **** * @see VDAC_Synth_UAB_ClearInterrupt()
 486:Generated_Source\PSoC4/VDAC_Synth_UAB.c **** * 
 487:Generated_Source\PSoC4/VDAC_Synth_UAB.c **** * @see VDAC_Synth_UAB_ClearInterruptMask()
 488:Generated_Source\PSoC4/VDAC_Synth_UAB.c **** * @see VDAC_Synth_UAB_GetInterruptIsMasked()
 489:Generated_Source\PSoC4/VDAC_Synth_UAB.c **** *
 490:Generated_Source\PSoC4/VDAC_Synth_UAB.c **** * @sideeffect None
 491:Generated_Source\PSoC4/VDAC_Synth_UAB.c **** *******************************************************************************/
 492:Generated_Source\PSoC4/VDAC_Synth_UAB.c **** void VDAC_Synth_UAB_SetInterruptMask(CyUAB_intr_enum intr)
 493:Generated_Source\PSoC4/VDAC_Synth_UAB.c **** {
 241              		.loc 1 493 0
 242              		.cfi_startproc
 243              	.LVL15:
 494:Generated_Source\PSoC4/VDAC_Synth_UAB.c ****     /* Write with '1' to set interrupt mask*/
 495:Generated_Source\PSoC4/VDAC_Synth_UAB.c ****     /*intentionally omitting decimator interrupt - handled in decimator component*/
 496:Generated_Source\PSoC4/VDAC_Synth_UAB.c ****     
 497:Generated_Source\PSoC4/VDAC_Synth_UAB.c ****     uint32 mask = ( (CyUAB_INTR_COMP==intr)      ? ((uint32)VDAC_Synth_UAB_INTR_COMP_MASK) : 
 244              		.loc 1 497 0
 245 0000 2528     		cmp	r0, #37
 246 0002 04D0     		beq	.L29
 498:Generated_Source\PSoC4/VDAC_Synth_UAB.c ****                   ( (CyUAB_INTR_VDAC_EMPTY==intr)? ((uint32)VDAC_Synth_UAB_INTR_VDAC_EMPTY_MASK) : 
 247              		.loc 1 498 0
 248 0004 4328     		cmp	r0, #67
 249 0006 08D1     		bne	.L26
 250 0008 8021     		mov	r1, #128
 251 000a 8902     		lsl	r1, r1, #10
 252 000c 01E0     		b	.L27
 253              	.L29:
 497:Generated_Source\PSoC4/VDAC_Synth_UAB.c ****                   ( (CyUAB_INTR_VDAC_EMPTY==intr)? ((uint32)VDAC_Synth_UAB_INTR_VDAC_EMPTY_MASK) : 
 254              		.loc 1 497 0
 255 000e 8021     		mov	r1, #128
 256 0010 4902     		lsl	r1, r1, #9
 257              	.L27:
 258              	.LVL16:
 499:Generated_Source\PSoC4/VDAC_Synth_UAB.c ****                   0UL ) );
 500:Generated_Source\PSoC4/VDAC_Synth_UAB.c ****     if(0UL!=mask)
 501:Generated_Source\PSoC4/VDAC_Synth_UAB.c ****     {
 502:Generated_Source\PSoC4/VDAC_Synth_UAB.c ****         *(VDAC_Synth_UAB_INTR_MASK_PTR) |= mask;    
 259              		.loc 1 502 0
 260 0012 024A     		ldr	r2, .L31
 261 0014 1368     		ldr	r3, [r2]
 262 0016 0B43     		orr	r3, r1
 263 0018 1360     		str	r3, [r2]
 264              	.LVL17:
 265              	.L26:
 503:Generated_Source\PSoC4/VDAC_Synth_UAB.c ****     }
 504:Generated_Source\PSoC4/VDAC_Synth_UAB.c **** }
 266              		.loc 1 504 0
 267              		@ sp needed
 268 001a 7047     		bx	lr
 269              	.L32:
 270              		.align	2
 271              	.L31:
 272 001c 28003440 		.word	1077149736
 273              		.cfi_endproc
 274              	.LFE8:
 275              		.size	VDAC_Synth_UAB_SetInterruptMask, .-VDAC_Synth_UAB_SetInterruptMask
ARM GAS  C:\Users\Jerry\AppData\Local\Temp\cc1IKG0O.s 			page 15


 276              		.section	.text.VDAC_Synth_UAB_ClearInterruptMask,"ax",%progbits
 277              		.align	1
 278              		.global	VDAC_Synth_UAB_ClearInterruptMask
 279              		.code	16
 280              		.thumb_func
 281              		.type	VDAC_Synth_UAB_ClearInterruptMask, %function
 282              	VDAC_Synth_UAB_ClearInterruptMask:
 283              	.LFB9:
 505:Generated_Source\PSoC4/VDAC_Synth_UAB.c **** 
 506:Generated_Source\PSoC4/VDAC_Synth_UAB.c **** /************* VDAC_Synth_UAB_ClearInterruptMask() **************************/
 507:Generated_Source\PSoC4/VDAC_Synth_UAB.c **** /*!
 508:Generated_Source\PSoC4/VDAC_Synth_UAB.c **** * @brief Clears the mask bit for the passed interrupt.
 509:Generated_Source\PSoC4/VDAC_Synth_UAB.c **** * 
 510:Generated_Source\PSoC4/VDAC_Synth_UAB.c **** * @details Clear the mask bit for setting an interrupt request. Returns @c void.
 511:Generated_Source\PSoC4/VDAC_Synth_UAB.c **** * 
 512:Generated_Source\PSoC4/VDAC_Synth_UAB.c **** * @param intr 
 513:Generated_Source\PSoC4/VDAC_Synth_UAB.c **** * @arg CyUAB_INTR_COMP select comparator interrupt
 514:Generated_Source\PSoC4/VDAC_Synth_UAB.c **** * @arg CyUAB_INTR_VDAC_EMPTY select VDAC empty interrupt
 515:Generated_Source\PSoC4/VDAC_Synth_UAB.c **** *
 516:Generated_Source\PSoC4/VDAC_Synth_UAB.c **** * @internal
 517:Generated_Source\PSoC4/VDAC_Synth_UAB.c **** * @reglist @reg VDAC_Synth_UAB_INTR_MASK_REG
 518:Generated_Source\PSoC4/VDAC_Synth_UAB.c **** * @endinternal
 519:Generated_Source\PSoC4/VDAC_Synth_UAB.c **** * 
 520:Generated_Source\PSoC4/VDAC_Synth_UAB.c **** * @see VDAC_Synth_UAB_SetInterrupt()
 521:Generated_Source\PSoC4/VDAC_Synth_UAB.c **** * @see VDAC_Synth_UAB_ClearInterrupt()
 522:Generated_Source\PSoC4/VDAC_Synth_UAB.c **** * @see VDAC_Synth_UAB_SetInterruptMask()
 523:Generated_Source\PSoC4/VDAC_Synth_UAB.c **** * 
 524:Generated_Source\PSoC4/VDAC_Synth_UAB.c **** * @see VDAC_Synth_UAB_GetInterruptIsMasked()
 525:Generated_Source\PSoC4/VDAC_Synth_UAB.c **** * 
 526:Generated_Source\PSoC4/VDAC_Synth_UAB.c **** * @sideeffect None
 527:Generated_Source\PSoC4/VDAC_Synth_UAB.c **** ******************************************************************************/
 528:Generated_Source\PSoC4/VDAC_Synth_UAB.c **** void VDAC_Synth_UAB_ClearInterruptMask(CyUAB_intr_enum intr)
 529:Generated_Source\PSoC4/VDAC_Synth_UAB.c **** {
 284              		.loc 1 529 0
 285              		.cfi_startproc
 286              	.LVL18:
 530:Generated_Source\PSoC4/VDAC_Synth_UAB.c ****     /* Write with '0' to clear interrupt mask*/
 531:Generated_Source\PSoC4/VDAC_Synth_UAB.c ****     /*intentionally omitting decimator interrupt - handled in decimator component*/
 532:Generated_Source\PSoC4/VDAC_Synth_UAB.c ****     
 533:Generated_Source\PSoC4/VDAC_Synth_UAB.c ****     uint32 mask = ( (CyUAB_INTR_COMP==intr)      ? ~((uint32)VDAC_Synth_UAB_INTR_COMP_MASK) : 
 287              		.loc 1 533 0
 288 0000 2528     		cmp	r0, #37
 289 0002 03D0     		beq	.L36
 534:Generated_Source\PSoC4/VDAC_Synth_UAB.c ****                   ( (CyUAB_INTR_VDAC_EMPTY==intr)? ~((uint32)VDAC_Synth_UAB_INTR_VDAC_EMPTY_MASK) :
 290              		.loc 1 534 0
 291 0004 4328     		cmp	r0, #67
 292 0006 06D1     		bne	.L33
 293 0008 034B     		ldr	r3, .L38
 294 000a 00E0     		b	.L34
 295              	.L36:
 533:Generated_Source\PSoC4/VDAC_Synth_UAB.c ****                   ( (CyUAB_INTR_VDAC_EMPTY==intr)? ~((uint32)VDAC_Synth_UAB_INTR_VDAC_EMPTY_MASK) :
 296              		.loc 1 533 0
 297 000c 034B     		ldr	r3, .L38+4
 298              	.L34:
 299              	.LVL19:
 535:Generated_Source\PSoC4/VDAC_Synth_UAB.c ****                   0xFFFFFFFFUL ) );
 536:Generated_Source\PSoC4/VDAC_Synth_UAB.c ****     if(0xFFFFFFFFUL!=mask)
ARM GAS  C:\Users\Jerry\AppData\Local\Temp\cc1IKG0O.s 			page 16


 537:Generated_Source\PSoC4/VDAC_Synth_UAB.c ****     {
 538:Generated_Source\PSoC4/VDAC_Synth_UAB.c ****         *(VDAC_Synth_UAB_INTR_MASK_PTR) &= mask;    
 300              		.loc 1 538 0
 301 000e 044A     		ldr	r2, .L38+8
 302 0010 1168     		ldr	r1, [r2]
 303 0012 0B40     		and	r3, r1
 304              	.LVL20:
 305 0014 1360     		str	r3, [r2]
 306              	.L33:
 539:Generated_Source\PSoC4/VDAC_Synth_UAB.c ****     }
 540:Generated_Source\PSoC4/VDAC_Synth_UAB.c **** }
 307              		.loc 1 540 0
 308              		@ sp needed
 309 0016 7047     		bx	lr
 310              	.L39:
 311              		.align	2
 312              	.L38:
 313 0018 FFFFFDFF 		.word	-131073
 314 001c FFFFFEFF 		.word	-65537
 315 0020 28003440 		.word	1077149736
 316              		.cfi_endproc
 317              	.LFE9:
 318              		.size	VDAC_Synth_UAB_ClearInterruptMask, .-VDAC_Synth_UAB_ClearInterruptMask
 319              		.section	.text.VDAC_Synth_UAB_GetInterruptIsMasked,"ax",%progbits
 320              		.align	1
 321              		.global	VDAC_Synth_UAB_GetInterruptIsMasked
 322              		.code	16
 323              		.thumb_func
 324              		.type	VDAC_Synth_UAB_GetInterruptIsMasked, %function
 325              	VDAC_Synth_UAB_GetInterruptIsMasked:
 326              	.LFB10:
 541:Generated_Source\PSoC4/VDAC_Synth_UAB.c **** 
 542:Generated_Source\PSoC4/VDAC_Synth_UAB.c **** /********** VDAC_Synth_UAB_GetInterruptIsMasked() ***************************/
 543:Generated_Source\PSoC4/VDAC_Synth_UAB.c **** /*!
 544:Generated_Source\PSoC4/VDAC_Synth_UAB.c **** * @brief Check for interrupt masked.
 545:Generated_Source\PSoC4/VDAC_Synth_UAB.c **** * 
 546:Generated_Source\PSoC4/VDAC_Synth_UAB.c **** * @details Return type is @c uint32 32-bit unsigned integer. Returns 1 if the passed 
 547:Generated_Source\PSoC4/VDAC_Synth_UAB.c **** interrupt is both masked and requested. Returns 0 otherwise.
 548:Generated_Source\PSoC4/VDAC_Synth_UAB.c **** * 
 549:Generated_Source\PSoC4/VDAC_Synth_UAB.c **** * @param intr 
 550:Generated_Source\PSoC4/VDAC_Synth_UAB.c **** * @arg CyUAB_INTR_COMP select comparator interrupt
 551:Generated_Source\PSoC4/VDAC_Synth_UAB.c **** * @arg CyUAB_INTR_VDAC_EMPTY select VDAC empty interrupt
 552:Generated_Source\PSoC4/VDAC_Synth_UAB.c **** *
 553:Generated_Source\PSoC4/VDAC_Synth_UAB.c **** * @internal
 554:Generated_Source\PSoC4/VDAC_Synth_UAB.c **** * @reglist VDAC_Synth_UAB_INTR_MASKED_REG
 555:Generated_Source\PSoC4/VDAC_Synth_UAB.c **** * @endinternal
 556:Generated_Source\PSoC4/VDAC_Synth_UAB.c **** *
 557:Generated_Source\PSoC4/VDAC_Synth_UAB.c **** * @see VDAC_Synth_UAB_SetInterrupt()
 558:Generated_Source\PSoC4/VDAC_Synth_UAB.c **** * @see VDAC_Synth_UAB_ClearInterrupt()
 559:Generated_Source\PSoC4/VDAC_Synth_UAB.c **** * @see VDAC_Synth_UAB_SetInterruptMask()
 560:Generated_Source\PSoC4/VDAC_Synth_UAB.c **** * @see VDAC_Synth_UAB_ClearInterruptMask()
 561:Generated_Source\PSoC4/VDAC_Synth_UAB.c **** * 
 562:Generated_Source\PSoC4/VDAC_Synth_UAB.c **** *
 563:Generated_Source\PSoC4/VDAC_Synth_UAB.c **** * @sideeffect None
 564:Generated_Source\PSoC4/VDAC_Synth_UAB.c **** *******************************************************************************/
 565:Generated_Source\PSoC4/VDAC_Synth_UAB.c **** uint32 VDAC_Synth_UAB_GetInterruptIsMasked(CyUAB_intr_enum intr)
 566:Generated_Source\PSoC4/VDAC_Synth_UAB.c **** {
ARM GAS  C:\Users\Jerry\AppData\Local\Temp\cc1IKG0O.s 			page 17


 327              		.loc 1 566 0
 328              		.cfi_startproc
 329              	.LVL21:
 567:Generated_Source\PSoC4/VDAC_Synth_UAB.c ****     uint32 r; /*return value*/
 568:Generated_Source\PSoC4/VDAC_Synth_UAB.c ****     
 569:Generated_Source\PSoC4/VDAC_Synth_UAB.c ****     /*intentionally omitting decimator interrupt - handled in decimator component*/
 570:Generated_Source\PSoC4/VDAC_Synth_UAB.c ****     
 571:Generated_Source\PSoC4/VDAC_Synth_UAB.c ****     uint32 mask = ( (CyUAB_INTR_COMP==intr)      ? ((uint32)VDAC_Synth_UAB_INTR_COMP_MASK) : 
 330              		.loc 1 571 0
 331 0000 2528     		cmp	r0, #37
 332 0002 04D0     		beq	.L42
 572:Generated_Source\PSoC4/VDAC_Synth_UAB.c ****                   ( (CyUAB_INTR_VDAC_EMPTY==intr)? ((uint32)VDAC_Synth_UAB_INTR_VDAC_EMPTY_MASK) : 
 333              		.loc 1 572 0
 334 0004 4338     		sub	r0, r0, #67
 335              	.LVL22:
 336 0006 4342     		neg	r3, r0
 337 0008 5841     		adc	r0, r0, r3
 338 000a 4004     		lsl	r0, r0, #17
 339 000c 01E0     		b	.L41
 340              	.LVL23:
 341              	.L42:
 571:Generated_Source\PSoC4/VDAC_Synth_UAB.c ****                   ( (CyUAB_INTR_VDAC_EMPTY==intr)? ((uint32)VDAC_Synth_UAB_INTR_VDAC_EMPTY_MASK) : 
 342              		.loc 1 571 0
 343 000e 8020     		mov	r0, #128
 344              	.LVL24:
 345 0010 4002     		lsl	r0, r0, #9
 346              	.L41:
 347              	.LVL25:
 573:Generated_Source\PSoC4/VDAC_Synth_UAB.c ****                   0UL ) );
 574:Generated_Source\PSoC4/VDAC_Synth_UAB.c ****     
 575:Generated_Source\PSoC4/VDAC_Synth_UAB.c ****     r = ( 0UL != ( (*(VDAC_Synth_UAB_INTR_MASKED_PTR)) & mask ) ) ? 1UL : 0UL;
 348              		.loc 1 575 0 discriminator 3
 349 0012 034B     		ldr	r3, .L44
 576:Generated_Source\PSoC4/VDAC_Synth_UAB.c ****     return r;
 577:Generated_Source\PSoC4/VDAC_Synth_UAB.c **** }
 350              		.loc 1 577 0 discriminator 3
 351              		@ sp needed
 575:Generated_Source\PSoC4/VDAC_Synth_UAB.c ****     return r;
 352              		.loc 1 575 0 discriminator 3
 353 0014 1B68     		ldr	r3, [r3]
 354              	.LVL26:
 355 0016 1840     		and	r0, r3
 356              	.LVL27:
 357 0018 431E     		sub	r3, r0, #1
 358 001a 9841     		sbc	r0, r0, r3
 359              		.loc 1 577 0 discriminator 3
 360 001c 7047     		bx	lr
 361              	.L45:
 362 001e C046     		.align	2
 363              	.L44:
 364 0020 2C003440 		.word	1077149740
 365              		.cfi_endproc
 366              	.LFE10:
 367              		.size	VDAC_Synth_UAB_GetInterruptIsMasked, .-VDAC_Synth_UAB_GetInterruptIsMasked
 368              		.section	.text.VDAC_Synth_UAB_SetUABPower,"ax",%progbits
 369              		.align	1
 370              		.global	VDAC_Synth_UAB_SetUABPower
ARM GAS  C:\Users\Jerry\AppData\Local\Temp\cc1IKG0O.s 			page 18


 371              		.code	16
 372              		.thumb_func
 373              		.type	VDAC_Synth_UAB_SetUABPower, %function
 374              	VDAC_Synth_UAB_SetUABPower:
 375              	.LFB11:
 578:Generated_Source\PSoC4/VDAC_Synth_UAB.c **** 
 579:Generated_Source\PSoC4/VDAC_Synth_UAB.c **** /*Power*/
 580:Generated_Source\PSoC4/VDAC_Synth_UAB.c **** 
 581:Generated_Source\PSoC4/VDAC_Synth_UAB.c **** /***************** VDAC_Synth_UAB_SetUABPower() *****************************/
 582:Generated_Source\PSoC4/VDAC_Synth_UAB.c **** /*!
 583:Generated_Source\PSoC4/VDAC_Synth_UAB.c **** * @brief Sets the UAB half's power mode.
 584:Generated_Source\PSoC4/VDAC_Synth_UAB.c **** * 
 585:Generated_Source\PSoC4/VDAC_Synth_UAB.c **** * @details The UAB half has several power modes available.  This sets the power
 586:Generated_Source\PSoC4/VDAC_Synth_UAB.c **** * reference that is used for the active components as well, that is, the op-amp
 587:Generated_Source\PSoC4/VDAC_Synth_UAB.c **** * and comparator have settings that are HI, MED, and LOW relative to the entire
 588:Generated_Source\PSoC4/VDAC_Synth_UAB.c **** * UAB half's power.
 589:Generated_Source\PSoC4/VDAC_Synth_UAB.c **** * 
 590:Generated_Source\PSoC4/VDAC_Synth_UAB.c **** * @internal
 591:Generated_Source\PSoC4/VDAC_Synth_UAB.c **** * @reglist @reg VDAC_Synth_UAB_OA0_CTRL @reg VDAC_Synth_UAB_OA1_CTRL
 592:Generated_Source\PSoC4/VDAC_Synth_UAB.c **** * @endinternal
 593:Generated_Source\PSoC4/VDAC_Synth_UAB.c **** * 
 594:Generated_Source\PSoC4/VDAC_Synth_UAB.c **** * @see VDAC_Synth_UAB_Stop()
 595:Generated_Source\PSoC4/VDAC_Synth_UAB.c **** * @see VDAC_Synth_UAB_SetOAPower()
 596:Generated_Source\PSoC4/VDAC_Synth_UAB.c **** * @see VDAC_Synth_UAB_SetCompPower()
 597:Generated_Source\PSoC4/VDAC_Synth_UAB.c **** * @see VDAC_Synth_UAB_SetRefPower()
 598:Generated_Source\PSoC4/VDAC_Synth_UAB.c **** * @see VDAC_Synth_UAB_SetAgndPower()
 599:Generated_Source\PSoC4/VDAC_Synth_UAB.c **** * 
 600:Generated_Source\PSoC4/VDAC_Synth_UAB.c **** * @sideeffect None
 601:Generated_Source\PSoC4/VDAC_Synth_UAB.c **** *******************************************************************************/
 602:Generated_Source\PSoC4/VDAC_Synth_UAB.c **** void VDAC_Synth_UAB_SetUABPower(CyUAB_coarse_pwr_enum powerLevel)
 603:Generated_Source\PSoC4/VDAC_Synth_UAB.c **** {
 376              		.loc 1 603 0
 377              		.cfi_startproc
 378              	.LVL28:
 604:Generated_Source\PSoC4/VDAC_Synth_UAB.c ****     VDAC_Synth_UAB_SET_FIELD(
 379              		.loc 1 604 0
 380 0000 034A     		ldr	r2, .L47
 381 0002 8007     		lsl	r0, r0, #30
 382              	.LVL29:
 383 0004 1368     		ldr	r3, [r2]
 605:Generated_Source\PSoC4/VDAC_Synth_UAB.c ****       VDAC_Synth_UAB_OA_CTRL_PTR, 
 606:Generated_Source\PSoC4/VDAC_Synth_UAB.c ****       VDAC_Synth_UAB_UAB_PWR_MASK, 
 607:Generated_Source\PSoC4/VDAC_Synth_UAB.c ****       ((uint32)powerLevel), 
 608:Generated_Source\PSoC4/VDAC_Synth_UAB.c ****       VDAC_Synth_UAB_UAB_PWR_SHIFT
 609:Generated_Source\PSoC4/VDAC_Synth_UAB.c ****     );
 610:Generated_Source\PSoC4/VDAC_Synth_UAB.c **** }
 384              		.loc 1 610 0
 385              		@ sp needed
 604:Generated_Source\PSoC4/VDAC_Synth_UAB.c ****     VDAC_Synth_UAB_SET_FIELD(
 386              		.loc 1 604 0
 387 0006 9B00     		lsl	r3, r3, #2
 388 0008 9B08     		lsr	r3, r3, #2
 389 000a 1843     		orr	r0, r3
 390 000c 1060     		str	r0, [r2]
 391              		.loc 1 610 0
 392 000e 7047     		bx	lr
 393              	.L48:
ARM GAS  C:\Users\Jerry\AppData\Local\Temp\cc1IKG0O.s 			page 19


 394              		.align	2
 395              	.L47:
 396 0010 00033440 		.word	1077150464
 397              		.cfi_endproc
 398              	.LFE11:
 399              		.size	VDAC_Synth_UAB_SetUABPower, .-VDAC_Synth_UAB_SetUABPower
 400              		.section	.text.VDAC_Synth_UAB_SetOAPower,"ax",%progbits
 401              		.align	1
 402              		.global	VDAC_Synth_UAB_SetOAPower
 403              		.code	16
 404              		.thumb_func
 405              		.type	VDAC_Synth_UAB_SetOAPower, %function
 406              	VDAC_Synth_UAB_SetOAPower:
 407              	.LFB12:
 611:Generated_Source\PSoC4/VDAC_Synth_UAB.c **** 
 612:Generated_Source\PSoC4/VDAC_Synth_UAB.c **** 
 613:Generated_Source\PSoC4/VDAC_Synth_UAB.c **** /************* VDAC_Synth_UAB_SetOAPower() **********************************/
 614:Generated_Source\PSoC4/VDAC_Synth_UAB.c **** /*!
 615:Generated_Source\PSoC4/VDAC_Synth_UAB.c **** * @brief Set the op-amp power level.
 616:Generated_Source\PSoC4/VDAC_Synth_UAB.c **** * 
 617:Generated_Source\PSoC4/VDAC_Synth_UAB.c **** * @details The power of the op-amp is relative to the power mode of the UAB. 
 618:Generated_Source\PSoC4/VDAC_Synth_UAB.c **** * This function sets that relative setting.  Returns @c void.
 619:Generated_Source\PSoC4/VDAC_Synth_UAB.c **** * 
 620:Generated_Source\PSoC4/VDAC_Synth_UAB.c **** * @internal
 621:Generated_Source\PSoC4/VDAC_Synth_UAB.c **** * @reglist @reg VDAC_Synth_UAB_OA0_CTRL @reg VDAC_Synth_UAB_OA1_CTRL
 622:Generated_Source\PSoC4/VDAC_Synth_UAB.c **** * @image html _.png 
 623:Generated_Source\PSoC4/VDAC_Synth_UAB.c **** * @endinternal
 624:Generated_Source\PSoC4/VDAC_Synth_UAB.c **** * 
 625:Generated_Source\PSoC4/VDAC_Synth_UAB.c **** * @see VDAC_Synth_UAB_SetUABPower()
 626:Generated_Source\PSoC4/VDAC_Synth_UAB.c **** * @sideeffect None
 627:Generated_Source\PSoC4/VDAC_Synth_UAB.c **** *******************************************************************************/
 628:Generated_Source\PSoC4/VDAC_Synth_UAB.c **** void VDAC_Synth_UAB_SetOAPower(CyUAB_fine_pwr_enum powerLevel)
 629:Generated_Source\PSoC4/VDAC_Synth_UAB.c **** {
 408              		.loc 1 629 0
 409              		.cfi_startproc
 410              	.LVL30:
 630:Generated_Source\PSoC4/VDAC_Synth_UAB.c ****     VDAC_Synth_UAB_SET_FIELD(
 411              		.loc 1 630 0
 412 0000 0721     		mov	r1, #7
 413 0002 034A     		ldr	r2, .L50
 414 0004 0840     		and	r0, r1
 415              	.LVL31:
 416 0006 1368     		ldr	r3, [r2]
 631:Generated_Source\PSoC4/VDAC_Synth_UAB.c ****       VDAC_Synth_UAB_OA_CTRL_PTR, 
 632:Generated_Source\PSoC4/VDAC_Synth_UAB.c ****       VDAC_Synth_UAB_OA_PWR_MASK, 
 633:Generated_Source\PSoC4/VDAC_Synth_UAB.c ****       ((uint32)powerLevel), 
 634:Generated_Source\PSoC4/VDAC_Synth_UAB.c ****       VDAC_Synth_UAB_OA_PWR_SHIFT
 635:Generated_Source\PSoC4/VDAC_Synth_UAB.c ****     );
 636:Generated_Source\PSoC4/VDAC_Synth_UAB.c **** }
 417              		.loc 1 636 0
 418              		@ sp needed
 630:Generated_Source\PSoC4/VDAC_Synth_UAB.c ****     VDAC_Synth_UAB_SET_FIELD(
 419              		.loc 1 630 0
 420 0008 8B43     		bic	r3, r1
 421 000a 1843     		orr	r0, r3
 422 000c 1060     		str	r0, [r2]
 423              		.loc 1 636 0
ARM GAS  C:\Users\Jerry\AppData\Local\Temp\cc1IKG0O.s 			page 20


 424 000e 7047     		bx	lr
 425              	.L51:
 426              		.align	2
 427              	.L50:
 428 0010 00033440 		.word	1077150464
 429              		.cfi_endproc
 430              	.LFE12:
 431              		.size	VDAC_Synth_UAB_SetOAPower, .-VDAC_Synth_UAB_SetOAPower
 432              		.section	.text.VDAC_Synth_UAB_SetCompPower,"ax",%progbits
 433              		.align	1
 434              		.global	VDAC_Synth_UAB_SetCompPower
 435              		.code	16
 436              		.thumb_func
 437              		.type	VDAC_Synth_UAB_SetCompPower, %function
 438              	VDAC_Synth_UAB_SetCompPower:
 439              	.LFB13:
 637:Generated_Source\PSoC4/VDAC_Synth_UAB.c **** 
 638:Generated_Source\PSoC4/VDAC_Synth_UAB.c **** 
 639:Generated_Source\PSoC4/VDAC_Synth_UAB.c **** /******************** VDAC_Synth_UAB_SetCompPower() *************************/
 640:Generated_Source\PSoC4/VDAC_Synth_UAB.c **** /*!
 641:Generated_Source\PSoC4/VDAC_Synth_UAB.c **** * @brief Set the comparator power level.
 642:Generated_Source\PSoC4/VDAC_Synth_UAB.c **** * 
 643:Generated_Source\PSoC4/VDAC_Synth_UAB.c **** * @details The power of the comparator is relative to the power mode of the UAB.
 644:Generated_Source\PSoC4/VDAC_Synth_UAB.c **** * This function sets that relative setting.  Returns @c void.
 645:Generated_Source\PSoC4/VDAC_Synth_UAB.c **** * 
 646:Generated_Source\PSoC4/VDAC_Synth_UAB.c **** * @internal
 647:Generated_Source\PSoC4/VDAC_Synth_UAB.c **** * @reglist @reg VDAC_Synth_UAB_OA0_CTRL @reg VDAC_Synth_UAB_OA1_CTRL
 648:Generated_Source\PSoC4/VDAC_Synth_UAB.c **** * @image html SetCompPower.png 
 649:Generated_Source\PSoC4/VDAC_Synth_UAB.c **** * @endinternal
 650:Generated_Source\PSoC4/VDAC_Synth_UAB.c **** *
 651:Generated_Source\PSoC4/VDAC_Synth_UAB.c **** * @see VDAC_Synth_UAB_SetUABPower()
 652:Generated_Source\PSoC4/VDAC_Synth_UAB.c **** *
 653:Generated_Source\PSoC4/VDAC_Synth_UAB.c **** * @sideeffect None
 654:Generated_Source\PSoC4/VDAC_Synth_UAB.c **** *******************************************************************************/
 655:Generated_Source\PSoC4/VDAC_Synth_UAB.c **** void VDAC_Synth_UAB_SetCompPower(CyUAB_fine_pwr_enum powerLevel)
 656:Generated_Source\PSoC4/VDAC_Synth_UAB.c **** {  
 440              		.loc 1 656 0
 441              		.cfi_startproc
 442              	.LVL32:
 443 0000 021C     		mov	r2, r0
 657:Generated_Source\PSoC4/VDAC_Synth_UAB.c ****     VDAC_Synth_UAB_SET_FIELD(
 444              		.loc 1 657 0
 445 0002 E021     		mov	r1, #224
 656:Generated_Source\PSoC4/VDAC_Synth_UAB.c ****     VDAC_Synth_UAB_SET_FIELD(
 446              		.loc 1 656 0
 447 0004 10B5     		push	{r4, lr}
 448              		.cfi_def_cfa_offset 8
 449              		.cfi_offset 4, -8
 450              		.cfi_offset 14, -4
 451              		.loc 1 657 0
 452 0006 054C     		ldr	r4, .L53
 453 0008 054B     		ldr	r3, .L53+4
 454 000a 2068     		ldr	r0, [r4]
 455              	.LVL33:
 456 000c C900     		lsl	r1, r1, #3
 457 000e 1202     		lsl	r2, r2, #8
 458 0010 0A40     		and	r2, r1
ARM GAS  C:\Users\Jerry\AppData\Local\Temp\cc1IKG0O.s 			page 21


 459 0012 0340     		and	r3, r0
 460 0014 1A43     		orr	r2, r3
 461 0016 2260     		str	r2, [r4]
 658:Generated_Source\PSoC4/VDAC_Synth_UAB.c ****       VDAC_Synth_UAB_OA_CTRL_PTR, 
 659:Generated_Source\PSoC4/VDAC_Synth_UAB.c ****       VDAC_Synth_UAB_CMP_PWR_MASK, 
 660:Generated_Source\PSoC4/VDAC_Synth_UAB.c ****       ((uint32)powerLevel), 
 661:Generated_Source\PSoC4/VDAC_Synth_UAB.c ****       VDAC_Synth_UAB_CMP_PWR_SHIFT
 662:Generated_Source\PSoC4/VDAC_Synth_UAB.c ****     );
 663:Generated_Source\PSoC4/VDAC_Synth_UAB.c **** }
 462              		.loc 1 663 0
 463              		@ sp needed
 464 0018 10BD     		pop	{r4, pc}
 465              	.L54:
 466 001a C046     		.align	2
 467              	.L53:
 468 001c 00033440 		.word	1077150464
 469 0020 FFF8FFFF 		.word	-1793
 470              		.cfi_endproc
 471              	.LFE13:
 472              		.size	VDAC_Synth_UAB_SetCompPower, .-VDAC_Synth_UAB_SetCompPower
 473              		.section	.text.VDAC_Synth_UAB_SetRefPower,"ax",%progbits
 474              		.align	1
 475              		.global	VDAC_Synth_UAB_SetRefPower
 476              		.code	16
 477              		.thumb_func
 478              		.type	VDAC_Synth_UAB_SetRefPower, %function
 479              	VDAC_Synth_UAB_SetRefPower:
 480              	.LFB14:
 664:Generated_Source\PSoC4/VDAC_Synth_UAB.c **** 
 665:Generated_Source\PSoC4/VDAC_Synth_UAB.c **** 
 666:Generated_Source\PSoC4/VDAC_Synth_UAB.c **** /***************** VDAC_Synth_UAB_SetRefPower *******************************/
 667:Generated_Source\PSoC4/VDAC_Synth_UAB.c **** /*!
 668:Generated_Source\PSoC4/VDAC_Synth_UAB.c **** * @brief Set the power level of the buffer for the reference voltage.
 669:Generated_Source\PSoC4/VDAC_Synth_UAB.c **** * 
 670:Generated_Source\PSoC4/VDAC_Synth_UAB.c **** * @details There are two buffered inputs: reference and analog-ground.  This 
 671:Generated_Source\PSoC4/VDAC_Synth_UAB.c **** * function sets the power of the reference buffer--which connects to the 
 672:Generated_Source\PSoC4/VDAC_Synth_UAB.c **** * VDAC_Synth_UAB_NET_REF signal--relative to the power mode of the UAB. Returns @c void.
 673:Generated_Source\PSoC4/VDAC_Synth_UAB.c **** * 
 674:Generated_Source\PSoC4/VDAC_Synth_UAB.c **** * @internal
 675:Generated_Source\PSoC4/VDAC_Synth_UAB.c **** * @reglist @reg VDAC_Synth_UAB_OA0_CTRL @reg VDAC_Synth_UAB_OA1_CTRL
 676:Generated_Source\PSoC4/VDAC_Synth_UAB.c **** * @image html SetRefPower.png 
 677:Generated_Source\PSoC4/VDAC_Synth_UAB.c **** * @endinternal
 678:Generated_Source\PSoC4/VDAC_Synth_UAB.c **** * 
 679:Generated_Source\PSoC4/VDAC_Synth_UAB.c **** * @see VDAC_Synth_UAB_SetUABPower()
 680:Generated_Source\PSoC4/VDAC_Synth_UAB.c **** * 
 681:Generated_Source\PSoC4/VDAC_Synth_UAB.c **** * @sideeffect None
 682:Generated_Source\PSoC4/VDAC_Synth_UAB.c **** *******************************************************************************/
 683:Generated_Source\PSoC4/VDAC_Synth_UAB.c **** void VDAC_Synth_UAB_SetRefPower(CyUAB_fine_pwr_enum powerLevel)
 684:Generated_Source\PSoC4/VDAC_Synth_UAB.c **** {
 481              		.loc 1 684 0
 482              		.cfi_startproc
 483              	.LVL34:
 484 0000 021C     		mov	r2, r0
 685:Generated_Source\PSoC4/VDAC_Synth_UAB.c ****     VDAC_Synth_UAB_SET_FIELD(
 485              		.loc 1 685 0
 486 0002 E021     		mov	r1, #224
 684:Generated_Source\PSoC4/VDAC_Synth_UAB.c ****     VDAC_Synth_UAB_SET_FIELD(
ARM GAS  C:\Users\Jerry\AppData\Local\Temp\cc1IKG0O.s 			page 22


 487              		.loc 1 684 0
 488 0004 10B5     		push	{r4, lr}
 489              		.cfi_def_cfa_offset 8
 490              		.cfi_offset 4, -8
 491              		.cfi_offset 14, -4
 492              		.loc 1 685 0
 493 0006 054C     		ldr	r4, .L56
 494 0008 054B     		ldr	r3, .L56+4
 495 000a 2068     		ldr	r0, [r4]
 496              	.LVL35:
 497 000c C902     		lsl	r1, r1, #11
 498 000e 1204     		lsl	r2, r2, #16
 499 0010 0A40     		and	r2, r1
 500 0012 0340     		and	r3, r0
 501 0014 1A43     		orr	r2, r3
 502 0016 2260     		str	r2, [r4]
 686:Generated_Source\PSoC4/VDAC_Synth_UAB.c ****       VDAC_Synth_UAB_OA_CTRL_PTR, 
 687:Generated_Source\PSoC4/VDAC_Synth_UAB.c ****       VDAC_Synth_UAB_REF_PWR_MASK, 
 688:Generated_Source\PSoC4/VDAC_Synth_UAB.c ****       ((uint32)powerLevel), 
 689:Generated_Source\PSoC4/VDAC_Synth_UAB.c ****       VDAC_Synth_UAB_REF_PWR_SHIFT
 690:Generated_Source\PSoC4/VDAC_Synth_UAB.c ****     );
 691:Generated_Source\PSoC4/VDAC_Synth_UAB.c **** }
 503              		.loc 1 691 0
 504              		@ sp needed
 505 0018 10BD     		pop	{r4, pc}
 506              	.L57:
 507 001a C046     		.align	2
 508              	.L56:
 509 001c 00033440 		.word	1077150464
 510 0020 FFFFF8FF 		.word	-458753
 511              		.cfi_endproc
 512              	.LFE14:
 513              		.size	VDAC_Synth_UAB_SetRefPower, .-VDAC_Synth_UAB_SetRefPower
 514              		.section	.text.VDAC_Synth_UAB_SetAgndPower,"ax",%progbits
 515              		.align	1
 516              		.global	VDAC_Synth_UAB_SetAgndPower
 517              		.code	16
 518              		.thumb_func
 519              		.type	VDAC_Synth_UAB_SetAgndPower, %function
 520              	VDAC_Synth_UAB_SetAgndPower:
 521              	.LFB15:
 692:Generated_Source\PSoC4/VDAC_Synth_UAB.c **** 
 693:Generated_Source\PSoC4/VDAC_Synth_UAB.c **** 
 694:Generated_Source\PSoC4/VDAC_Synth_UAB.c **** /**************** VDAC_Synth_UAB_SetAgndPower() *****************************/
 695:Generated_Source\PSoC4/VDAC_Synth_UAB.c **** /*!
 696:Generated_Source\PSoC4/VDAC_Synth_UAB.c **** * @brief Set the power level of the buffer for the analog-ground voltage.
 697:Generated_Source\PSoC4/VDAC_Synth_UAB.c **** * 
 698:Generated_Source\PSoC4/VDAC_Synth_UAB.c **** * @details There are two buffered inputs: reference and analog-ground.  This 
 699:Generated_Source\PSoC4/VDAC_Synth_UAB.c **** * function sets the power of the analog-ground buffer--which connects to the 
 700:Generated_Source\PSoC4/VDAC_Synth_UAB.c **** * VDAC_Synth_UAB_NET_REF signal--relative to the power mode of the UAB. Returns @c void.
 701:Generated_Source\PSoC4/VDAC_Synth_UAB.c **** * 
 702:Generated_Source\PSoC4/VDAC_Synth_UAB.c **** * @internal
 703:Generated_Source\PSoC4/VDAC_Synth_UAB.c **** * @reglist @reg VDAC_Synth_UAB_OA0_CTRL @reg VDAC_Synth_UAB_OA1_CTRL
 704:Generated_Source\PSoC4/VDAC_Synth_UAB.c **** * @image html SetAgndPower.png 
 705:Generated_Source\PSoC4/VDAC_Synth_UAB.c **** * @endinternal
 706:Generated_Source\PSoC4/VDAC_Synth_UAB.c **** * 
 707:Generated_Source\PSoC4/VDAC_Synth_UAB.c **** * @see VDAC_Synth_UAB_SetUABPower()
ARM GAS  C:\Users\Jerry\AppData\Local\Temp\cc1IKG0O.s 			page 23


 708:Generated_Source\PSoC4/VDAC_Synth_UAB.c **** * 
 709:Generated_Source\PSoC4/VDAC_Synth_UAB.c **** * @sideeffect None
 710:Generated_Source\PSoC4/VDAC_Synth_UAB.c **** *******************************************************************************/
 711:Generated_Source\PSoC4/VDAC_Synth_UAB.c **** void VDAC_Synth_UAB_SetAgndPower(CyUAB_fine_pwr_enum powerLevel)
 712:Generated_Source\PSoC4/VDAC_Synth_UAB.c **** {
 522              		.loc 1 712 0
 523              		.cfi_startproc
 524              	.LVL36:
 525 0000 021C     		mov	r2, r0
 713:Generated_Source\PSoC4/VDAC_Synth_UAB.c ****     VDAC_Synth_UAB_SET_FIELD(
 526              		.loc 1 713 0
 527 0002 E021     		mov	r1, #224
 712:Generated_Source\PSoC4/VDAC_Synth_UAB.c ****     VDAC_Synth_UAB_SET_FIELD(
 528              		.loc 1 712 0
 529 0004 10B5     		push	{r4, lr}
 530              		.cfi_def_cfa_offset 8
 531              		.cfi_offset 4, -8
 532              		.cfi_offset 14, -4
 533              		.loc 1 713 0
 534 0006 054C     		ldr	r4, .L59
 535 0008 054B     		ldr	r3, .L59+4
 536 000a 2068     		ldr	r0, [r4]
 537              	.LVL37:
 538 000c C903     		lsl	r1, r1, #15
 539 000e 1205     		lsl	r2, r2, #20
 540 0010 0A40     		and	r2, r1
 541 0012 0340     		and	r3, r0
 542 0014 1A43     		orr	r2, r3
 543 0016 2260     		str	r2, [r4]
 714:Generated_Source\PSoC4/VDAC_Synth_UAB.c ****       VDAC_Synth_UAB_OA_CTRL_PTR, 
 715:Generated_Source\PSoC4/VDAC_Synth_UAB.c ****       VDAC_Synth_UAB_AGND_PWR_MASK, 
 716:Generated_Source\PSoC4/VDAC_Synth_UAB.c ****       ((uint32)powerLevel), 
 717:Generated_Source\PSoC4/VDAC_Synth_UAB.c ****       VDAC_Synth_UAB_AGND_PWR_SHIFT
 718:Generated_Source\PSoC4/VDAC_Synth_UAB.c ****     );
 719:Generated_Source\PSoC4/VDAC_Synth_UAB.c **** }
 544              		.loc 1 719 0
 545              		@ sp needed
 546 0018 10BD     		pop	{r4, pc}
 547              	.L60:
 548 001a C046     		.align	2
 549              	.L59:
 550 001c 00033440 		.word	1077150464
 551 0020 FFFF8FFF 		.word	-7340033
 552              		.cfi_endproc
 553              	.LFE15:
 554              		.size	VDAC_Synth_UAB_SetAgndPower, .-VDAC_Synth_UAB_SetAgndPower
 555              		.section	.text.VDAC_Synth_UAB_SetRefVdda,"ax",%progbits
 556              		.align	1
 557              		.global	VDAC_Synth_UAB_SetRefVdda
 558              		.code	16
 559              		.thumb_func
 560              		.type	VDAC_Synth_UAB_SetRefVdda, %function
 561              	VDAC_Synth_UAB_SetRefVdda:
 562              	.LFB16:
 720:Generated_Source\PSoC4/VDAC_Synth_UAB.c **** 
 721:Generated_Source\PSoC4/VDAC_Synth_UAB.c **** 
 722:Generated_Source\PSoC4/VDAC_Synth_UAB.c **** /**************** VDAC_Synth_UAB_SetRefVdda() *******************************/
ARM GAS  C:\Users\Jerry\AppData\Local\Temp\cc1IKG0O.s 			page 24


 723:Generated_Source\PSoC4/VDAC_Synth_UAB.c **** /*!
 724:Generated_Source\PSoC4/VDAC_Synth_UAB.c **** * @brief Force buffered ref to VDDA.
 725:Generated_Source\PSoC4/VDAC_Synth_UAB.c **** * 
 726:Generated_Source\PSoC4/VDAC_Synth_UAB.c **** * @details Replace ref buffer output with VDDA (REFx_PTS). Returns @c void.
 727:Generated_Source\PSoC4/VDAC_Synth_UAB.c **** *
 728:Generated_Source\PSoC4/VDAC_Synth_UAB.c **** * @param forceVdda
 729:Generated_Source\PSoC4/VDAC_Synth_UAB.c **** * @arg 0 use routed reference
 730:Generated_Source\PSoC4/VDAC_Synth_UAB.c **** * @arg 1 use vdda for reference 
 731:Generated_Source\PSoC4/VDAC_Synth_UAB.c **** *
 732:Generated_Source\PSoC4/VDAC_Synth_UAB.c **** * @internal
 733:Generated_Source\PSoC4/VDAC_Synth_UAB.c **** * @reglist @reg VDAC_Synth_UAB_OA0_CTRL @reg VDAC_Synth_UAB_OA1_CTRL
 734:Generated_Source\PSoC4/VDAC_Synth_UAB.c **** * @image html _.png 
 735:Generated_Source\PSoC4/VDAC_Synth_UAB.c **** * @endinternal
 736:Generated_Source\PSoC4/VDAC_Synth_UAB.c **** * 
 737:Generated_Source\PSoC4/VDAC_Synth_UAB.c **** * @sideeffect None
 738:Generated_Source\PSoC4/VDAC_Synth_UAB.c **** *******************************************************************************/
 739:Generated_Source\PSoC4/VDAC_Synth_UAB.c **** void VDAC_Synth_UAB_SetRefVdda(CyUAB_ref_force_vdda_enum forceVdda)
 740:Generated_Source\PSoC4/VDAC_Synth_UAB.c **** {
 563              		.loc 1 740 0
 564              		.cfi_startproc
 565              	.LVL38:
 566 0000 021C     		mov	r2, r0
 741:Generated_Source\PSoC4/VDAC_Synth_UAB.c ****     VDAC_Synth_UAB_SET_FIELD(
 567              		.loc 1 741 0
 568 0002 8021     		mov	r1, #128
 740:Generated_Source\PSoC4/VDAC_Synth_UAB.c ****     VDAC_Synth_UAB_SET_FIELD(
 569              		.loc 1 740 0
 570 0004 10B5     		push	{r4, lr}
 571              		.cfi_def_cfa_offset 8
 572              		.cfi_offset 4, -8
 573              		.cfi_offset 14, -4
 574              		.loc 1 741 0
 575 0006 054C     		ldr	r4, .L62
 576 0008 054B     		ldr	r3, .L62+4
 577 000a 2068     		ldr	r0, [r4]
 578              	.LVL39:
 579 000c 0903     		lsl	r1, r1, #12
 580 000e D204     		lsl	r2, r2, #19
 581 0010 0A40     		and	r2, r1
 582 0012 0340     		and	r3, r0
 583 0014 1A43     		orr	r2, r3
 584 0016 2260     		str	r2, [r4]
 742:Generated_Source\PSoC4/VDAC_Synth_UAB.c ****       VDAC_Synth_UAB_OA_CTRL_PTR, 
 743:Generated_Source\PSoC4/VDAC_Synth_UAB.c ****       VDAC_Synth_UAB_REF_PTS_MASK, 
 744:Generated_Source\PSoC4/VDAC_Synth_UAB.c ****       ((uint32)forceVdda), 
 745:Generated_Source\PSoC4/VDAC_Synth_UAB.c ****       VDAC_Synth_UAB_REF_PTS_SHIFT
 746:Generated_Source\PSoC4/VDAC_Synth_UAB.c ****     );
 747:Generated_Source\PSoC4/VDAC_Synth_UAB.c **** }
 585              		.loc 1 747 0
 586              		@ sp needed
 587 0018 10BD     		pop	{r4, pc}
 588              	.L63:
 589 001a C046     		.align	2
 590              	.L62:
 591 001c 00033440 		.word	1077150464
 592 0020 FFFFF7FF 		.word	-524289
 593              		.cfi_endproc
ARM GAS  C:\Users\Jerry\AppData\Local\Temp\cc1IKG0O.s 			page 25


 594              	.LFE16:
 595              		.size	VDAC_Synth_UAB_SetRefVdda, .-VDAC_Synth_UAB_SetRefVdda
 596              		.section	.text.VDAC_Synth_UAB_SetAgndVdda,"ax",%progbits
 597              		.align	1
 598              		.global	VDAC_Synth_UAB_SetAgndVdda
 599              		.code	16
 600              		.thumb_func
 601              		.type	VDAC_Synth_UAB_SetAgndVdda, %function
 602              	VDAC_Synth_UAB_SetAgndVdda:
 603              	.LFB17:
 748:Generated_Source\PSoC4/VDAC_Synth_UAB.c **** 
 749:Generated_Source\PSoC4/VDAC_Synth_UAB.c **** 
 750:Generated_Source\PSoC4/VDAC_Synth_UAB.c **** /*************** VDAC_Synth_UAB_SetAgndVdda() *******************************/
 751:Generated_Source\PSoC4/VDAC_Synth_UAB.c **** /*!
 752:Generated_Source\PSoC4/VDAC_Synth_UAB.c **** * @brief Force buffered agnd to VDDA.
 753:Generated_Source\PSoC4/VDAC_Synth_UAB.c **** * 
 754:Generated_Source\PSoC4/VDAC_Synth_UAB.c **** * @details Replace analog ground buffer output with VDDA. (AGNDx_PTS). Returns @c void.
 755:Generated_Source\PSoC4/VDAC_Synth_UAB.c **** * 
 756:Generated_Source\PSoC4/VDAC_Synth_UAB.c **** * @param forceVdda
 757:Generated_Source\PSoC4/VDAC_Synth_UAB.c **** * @arg 0 use routed reference
 758:Generated_Source\PSoC4/VDAC_Synth_UAB.c **** * @arg 1 use vdda for reference
 759:Generated_Source\PSoC4/VDAC_Synth_UAB.c **** *
 760:Generated_Source\PSoC4/VDAC_Synth_UAB.c **** * @internal
 761:Generated_Source\PSoC4/VDAC_Synth_UAB.c **** * @reglist @reg VDAC_Synth_UAB_OA0_CTRL @reg VDAC_Synth_UAB_OA1_CTRL
 762:Generated_Source\PSoC4/VDAC_Synth_UAB.c **** * @image html _.png 
 763:Generated_Source\PSoC4/VDAC_Synth_UAB.c **** * @endinternal
 764:Generated_Source\PSoC4/VDAC_Synth_UAB.c **** * 
 765:Generated_Source\PSoC4/VDAC_Synth_UAB.c **** * @sideeffect None
 766:Generated_Source\PSoC4/VDAC_Synth_UAB.c **** *******************************************************************************/
 767:Generated_Source\PSoC4/VDAC_Synth_UAB.c **** void VDAC_Synth_UAB_SetAgndVdda(CyUAB_agnd_force_vdda_enum forceVdda)
 768:Generated_Source\PSoC4/VDAC_Synth_UAB.c **** {
 604              		.loc 1 768 0
 605              		.cfi_startproc
 606              	.LVL40:
 607 0000 021C     		mov	r2, r0
 769:Generated_Source\PSoC4/VDAC_Synth_UAB.c ****     VDAC_Synth_UAB_SET_FIELD(
 608              		.loc 1 769 0
 609 0002 8021     		mov	r1, #128
 768:Generated_Source\PSoC4/VDAC_Synth_UAB.c ****     VDAC_Synth_UAB_SET_FIELD(
 610              		.loc 1 768 0
 611 0004 10B5     		push	{r4, lr}
 612              		.cfi_def_cfa_offset 8
 613              		.cfi_offset 4, -8
 614              		.cfi_offset 14, -4
 615              		.loc 1 769 0
 616 0006 054C     		ldr	r4, .L65
 617 0008 054B     		ldr	r3, .L65+4
 618 000a 2068     		ldr	r0, [r4]
 619              	.LVL41:
 620 000c 0904     		lsl	r1, r1, #16
 621 000e D205     		lsl	r2, r2, #23
 622 0010 0A40     		and	r2, r1
 623 0012 0340     		and	r3, r0
 624 0014 1A43     		orr	r2, r3
 625 0016 2260     		str	r2, [r4]
 770:Generated_Source\PSoC4/VDAC_Synth_UAB.c ****       VDAC_Synth_UAB_OA_CTRL_PTR, 
 771:Generated_Source\PSoC4/VDAC_Synth_UAB.c ****       VDAC_Synth_UAB_AGND_PTS_MASK, 
ARM GAS  C:\Users\Jerry\AppData\Local\Temp\cc1IKG0O.s 			page 26


 772:Generated_Source\PSoC4/VDAC_Synth_UAB.c ****       ((uint32)forceVdda), 
 773:Generated_Source\PSoC4/VDAC_Synth_UAB.c ****       VDAC_Synth_UAB_AGND_PTS_SHIFT
 774:Generated_Source\PSoC4/VDAC_Synth_UAB.c ****     );
 775:Generated_Source\PSoC4/VDAC_Synth_UAB.c **** }
 626              		.loc 1 775 0
 627              		@ sp needed
 628 0018 10BD     		pop	{r4, pc}
 629              	.L66:
 630 001a C046     		.align	2
 631              	.L65:
 632 001c 00033440 		.word	1077150464
 633 0020 FFFF7FFF 		.word	-8388609
 634              		.cfi_endproc
 635              	.LFE17:
 636              		.size	VDAC_Synth_UAB_SetAgndVdda, .-VDAC_Synth_UAB_SetAgndVdda
 637              		.section	.text.VDAC_Synth_UAB_SetRefTied,"ax",%progbits
 638              		.align	1
 639              		.global	VDAC_Synth_UAB_SetRefTied
 640              		.code	16
 641              		.thumb_func
 642              		.type	VDAC_Synth_UAB_SetRefTied, %function
 643              	VDAC_Synth_UAB_SetRefTied:
 644              	.LFB18:
 776:Generated_Source\PSoC4/VDAC_Synth_UAB.c **** 
 777:Generated_Source\PSoC4/VDAC_Synth_UAB.c **** 
 778:Generated_Source\PSoC4/VDAC_Synth_UAB.c **** /************* VDAC_Synth_UAB_SetRefTied() **********************************/
 779:Generated_Source\PSoC4/VDAC_Synth_UAB.c **** /*!
 780:Generated_Source\PSoC4/VDAC_Synth_UAB.c **** * @brief Ties the outputs of the reference buffers of the two UAB-halves together.
 781:Generated_Source\PSoC4/VDAC_Synth_UAB.c **** * 
 782:Generated_Source\PSoC4/VDAC_Synth_UAB.c **** * @details The reference buffers of this half-UAB and its sibling half-UAB can be
 783:Generated_Source\PSoC4/VDAC_Synth_UAB.c **** * tied together.
 784:Generated_Source\PSoC4/VDAC_Synth_UAB.c **** * 
 785:Generated_Source\PSoC4/VDAC_Synth_UAB.c **** * @param refTied
 786:Generated_Source\PSoC4/VDAC_Synth_UAB.c **** * @arg 0 references not shared
 787:Generated_Source\PSoC4/VDAC_Synth_UAB.c **** * @arg 1 references shared
 788:Generated_Source\PSoC4/VDAC_Synth_UAB.c **** *
 789:Generated_Source\PSoC4/VDAC_Synth_UAB.c **** * @note Make sure that one of the reference buffers is disabled before tying them
 790:Generated_Source\PSoC4/VDAC_Synth_UAB.c **** * together.
 791:Generated_Source\PSoC4/VDAC_Synth_UAB.c **** *
 792:Generated_Source\PSoC4/VDAC_Synth_UAB.c **** * @internal
 793:Generated_Source\PSoC4/VDAC_Synth_UAB.c **** * @reglist @reg VDAC_Synth_UAB_OA1_CTRL
 794:Generated_Source\PSoC4/VDAC_Synth_UAB.c **** * @image html _.png 
 795:Generated_Source\PSoC4/VDAC_Synth_UAB.c **** * @endinternal
 796:Generated_Source\PSoC4/VDAC_Synth_UAB.c **** * 
 797:Generated_Source\PSoC4/VDAC_Synth_UAB.c **** * 
 798:Generated_Source\PSoC4/VDAC_Synth_UAB.c **** * @see VDAC_Synth_UAB_SetAgndTied()
 799:Generated_Source\PSoC4/VDAC_Synth_UAB.c **** * 
 800:Generated_Source\PSoC4/VDAC_Synth_UAB.c **** * @sideeffect None
 801:Generated_Source\PSoC4/VDAC_Synth_UAB.c **** *******************************************************************************/
 802:Generated_Source\PSoC4/VDAC_Synth_UAB.c **** void VDAC_Synth_UAB_SetRefTied( CyUAB_ref_tied_enum refTied)
 803:Generated_Source\PSoC4/VDAC_Synth_UAB.c **** {
 645              		.loc 1 803 0
 646              		.cfi_startproc
 647              	.LVL42:
 648 0000 021C     		mov	r2, r0
 804:Generated_Source\PSoC4/VDAC_Synth_UAB.c ****     VDAC_Synth_UAB_SET_FIELD(
 649              		.loc 1 804 0
ARM GAS  C:\Users\Jerry\AppData\Local\Temp\cc1IKG0O.s 			page 27


 650 0002 8021     		mov	r1, #128
 803:Generated_Source\PSoC4/VDAC_Synth_UAB.c ****     VDAC_Synth_UAB_SET_FIELD(
 651              		.loc 1 803 0
 652 0004 10B5     		push	{r4, lr}
 653              		.cfi_def_cfa_offset 8
 654              		.cfi_offset 4, -8
 655              		.cfi_offset 14, -4
 656              		.loc 1 804 0
 657 0006 054C     		ldr	r4, .L68
 658 0008 054B     		ldr	r3, .L68+4
 659 000a 2068     		ldr	r0, [r4]
 660              	.LVL43:
 661 000c 4904     		lsl	r1, r1, #17
 662 000e 1206     		lsl	r2, r2, #24
 663 0010 0A40     		and	r2, r1
 664 0012 0340     		and	r3, r0
 665 0014 1A43     		orr	r2, r3
 666 0016 2260     		str	r2, [r4]
 805:Generated_Source\PSoC4/VDAC_Synth_UAB.c ****       VDAC_Synth_UAB_REF_TIED_PTR, 
 806:Generated_Source\PSoC4/VDAC_Synth_UAB.c ****       VDAC_Synth_UAB_REF_TIED_MASK, 
 807:Generated_Source\PSoC4/VDAC_Synth_UAB.c ****       ((uint32)refTied), 
 808:Generated_Source\PSoC4/VDAC_Synth_UAB.c ****       VDAC_Synth_UAB_REF_TIED_SHIFT
 809:Generated_Source\PSoC4/VDAC_Synth_UAB.c ****     );
 810:Generated_Source\PSoC4/VDAC_Synth_UAB.c **** }
 667              		.loc 1 810 0
 668              		@ sp needed
 669 0018 10BD     		pop	{r4, pc}
 670              	.L69:
 671 001a C046     		.align	2
 672              	.L68:
 673 001c 00033440 		.word	1077150464
 674 0020 FFFFFFFE 		.word	-16777217
 675              		.cfi_endproc
 676              	.LFE18:
 677              		.size	VDAC_Synth_UAB_SetRefTied, .-VDAC_Synth_UAB_SetRefTied
 678              		.section	.text.VDAC_Synth_UAB_SetAgndTied,"ax",%progbits
 679              		.align	1
 680              		.global	VDAC_Synth_UAB_SetAgndTied
 681              		.code	16
 682              		.thumb_func
 683              		.type	VDAC_Synth_UAB_SetAgndTied, %function
 684              	VDAC_Synth_UAB_SetAgndTied:
 685              	.LFB19:
 811:Generated_Source\PSoC4/VDAC_Synth_UAB.c **** 
 812:Generated_Source\PSoC4/VDAC_Synth_UAB.c **** /*********** VDAC_Synth_UAB_SetAgndTied() ***********************************/
 813:Generated_Source\PSoC4/VDAC_Synth_UAB.c **** /*!
 814:Generated_Source\PSoC4/VDAC_Synth_UAB.c **** * @brief Ties the outputs of the analog-ground buffers of the two UAB-halves
 815:Generated_Source\PSoC4/VDAC_Synth_UAB.c **** * together.
 816:Generated_Source\PSoC4/VDAC_Synth_UAB.c **** * 
 817:Generated_Source\PSoC4/VDAC_Synth_UAB.c **** * @details The analog-ground buffers of this half-UAB and its sibling half-UAB can
 818:Generated_Source\PSoC4/VDAC_Synth_UAB.c **** * be tied together.
 819:Generated_Source\PSoC4/VDAC_Synth_UAB.c **** *
 820:Generated_Source\PSoC4/VDAC_Synth_UAB.c **** * @param agndTied
 821:Generated_Source\PSoC4/VDAC_Synth_UAB.c **** * @arg 0 references not shared
 822:Generated_Source\PSoC4/VDAC_Synth_UAB.c **** * @arg 1 references shared
 823:Generated_Source\PSoC4/VDAC_Synth_UAB.c **** *
 824:Generated_Source\PSoC4/VDAC_Synth_UAB.c **** * @note Make sure that one of the analog-ground buffers is disabled before tying
ARM GAS  C:\Users\Jerry\AppData\Local\Temp\cc1IKG0O.s 			page 28


 825:Generated_Source\PSoC4/VDAC_Synth_UAB.c **** * them together.
 826:Generated_Source\PSoC4/VDAC_Synth_UAB.c **** * 
 827:Generated_Source\PSoC4/VDAC_Synth_UAB.c **** * @internal
 828:Generated_Source\PSoC4/VDAC_Synth_UAB.c **** * @reglist @reg VDAC_Synth_UAB_OA0_CTRL
 829:Generated_Source\PSoC4/VDAC_Synth_UAB.c **** * @image html _.png 
 830:Generated_Source\PSoC4/VDAC_Synth_UAB.c **** * @endinternal
 831:Generated_Source\PSoC4/VDAC_Synth_UAB.c **** * 
 832:Generated_Source\PSoC4/VDAC_Synth_UAB.c **** * @see VDAC_Synth_UAB_SetRefTied()
 833:Generated_Source\PSoC4/VDAC_Synth_UAB.c **** * 
 834:Generated_Source\PSoC4/VDAC_Synth_UAB.c **** * @sideeffect None
 835:Generated_Source\PSoC4/VDAC_Synth_UAB.c **** *******************************************************************************/
 836:Generated_Source\PSoC4/VDAC_Synth_UAB.c **** void VDAC_Synth_UAB_SetAgndTied(CyUAB_agnd_tied_enum agndTied)
 837:Generated_Source\PSoC4/VDAC_Synth_UAB.c **** {
 686              		.loc 1 837 0
 687              		.cfi_startproc
 688              	.LVL44:
 689 0000 021C     		mov	r2, r0
 838:Generated_Source\PSoC4/VDAC_Synth_UAB.c ****     VDAC_Synth_UAB_SET_FIELD(
 690              		.loc 1 838 0
 691 0002 8021     		mov	r1, #128
 837:Generated_Source\PSoC4/VDAC_Synth_UAB.c ****     VDAC_Synth_UAB_SET_FIELD(
 692              		.loc 1 837 0
 693 0004 10B5     		push	{r4, lr}
 694              		.cfi_def_cfa_offset 8
 695              		.cfi_offset 4, -8
 696              		.cfi_offset 14, -4
 697              		.loc 1 838 0
 698 0006 054C     		ldr	r4, .L71
 699 0008 054B     		ldr	r3, .L71+4
 700 000a 2068     		ldr	r0, [r4]
 701              	.LVL45:
 702 000c 4904     		lsl	r1, r1, #17
 703 000e 1206     		lsl	r2, r2, #24
 704 0010 0A40     		and	r2, r1
 705 0012 0340     		and	r3, r0
 706 0014 1A43     		orr	r2, r3
 707 0016 2260     		str	r2, [r4]
 839:Generated_Source\PSoC4/VDAC_Synth_UAB.c ****       VDAC_Synth_UAB_AGND_TIED_PTR, 
 840:Generated_Source\PSoC4/VDAC_Synth_UAB.c ****       VDAC_Synth_UAB_AGND_TIED_MASK, 
 841:Generated_Source\PSoC4/VDAC_Synth_UAB.c ****       ((uint32)agndTied), 
 842:Generated_Source\PSoC4/VDAC_Synth_UAB.c ****       VDAC_Synth_UAB_AGND_TIED_SHIFT
 843:Generated_Source\PSoC4/VDAC_Synth_UAB.c ****     );
 844:Generated_Source\PSoC4/VDAC_Synth_UAB.c **** }
 708              		.loc 1 844 0
 709              		@ sp needed
 710 0018 10BD     		pop	{r4, pc}
 711              	.L72:
 712 001a C046     		.align	2
 713              	.L71:
 714 001c 00023440 		.word	1077150208
 715 0020 FFFFFFFE 		.word	-16777217
 716              		.cfi_endproc
 717              	.LFE19:
 718              		.size	VDAC_Synth_UAB_SetAgndTied, .-VDAC_Synth_UAB_SetAgndTied
 719              		.section	.text.VDAC_Synth_UAB_SetCapA,"ax",%progbits
 720              		.align	1
 721              		.global	VDAC_Synth_UAB_SetCapA
ARM GAS  C:\Users\Jerry\AppData\Local\Temp\cc1IKG0O.s 			page 29


 722              		.code	16
 723              		.thumb_func
 724              		.type	VDAC_Synth_UAB_SetCapA, %function
 725              	VDAC_Synth_UAB_SetCapA:
 726              	.LFB20:
 845:Generated_Source\PSoC4/VDAC_Synth_UAB.c **** 
 846:Generated_Source\PSoC4/VDAC_Synth_UAB.c **** 
 847:Generated_Source\PSoC4/VDAC_Synth_UAB.c **** /*Caps*/
 848:Generated_Source\PSoC4/VDAC_Synth_UAB.c **** 
 849:Generated_Source\PSoC4/VDAC_Synth_UAB.c **** /***************** VDAC_Synth_UAB_SetCapA() *********************************/
 850:Generated_Source\PSoC4/VDAC_Synth_UAB.c **** /*!
 851:Generated_Source\PSoC4/VDAC_Synth_UAB.c **** * @brief Set the capacitance for branch A
 852:Generated_Source\PSoC4/VDAC_Synth_UAB.c **** * 
 853:Generated_Source\PSoC4/VDAC_Synth_UAB.c **** * @details There are three input branches (A, B, C) and a single feedback branch (F).  
 854:Generated_Source\PSoC4/VDAC_Synth_UAB.c **** * Each branch can have its capacitance configured independently.
 855:Generated_Source\PSoC4/VDAC_Synth_UAB.c **** * 
 856:Generated_Source\PSoC4/VDAC_Synth_UAB.c **** * The A, B, and C branches have capacitance range of 0-63 units (0-3150fF) in increments of 50fF.  
 857:Generated_Source\PSoC4/VDAC_Synth_UAB.c **** * The F branch has a capacitance range of 0-64 units (0-3200fF) in increments of 100fF.
 858:Generated_Source\PSoC4/VDAC_Synth_UAB.c **** *
 859:Generated_Source\PSoC4/VDAC_Synth_UAB.c **** * @note In branches B and C, there are attenuation capacitors in the signal path.
 860:Generated_Source\PSoC4/VDAC_Synth_UAB.c **** * This function does not configure those capacitors.
 861:Generated_Source\PSoC4/VDAC_Synth_UAB.c **** * @see VDAC_Synth_UAB_SetAttenBypassSwitchB()
 862:Generated_Source\PSoC4/VDAC_Synth_UAB.c **** * @see VDAC_Synth_UAB_SetAttenBypassSwitchC()
 863:Generated_Source\PSoC4/VDAC_Synth_UAB.c **** *
 864:Generated_Source\PSoC4/VDAC_Synth_UAB.c **** * @see VDAC_Synth_UAB_SetCaps()
 865:Generated_Source\PSoC4/VDAC_Synth_UAB.c **** * @see VDAC_Synth_UAB_SetCapB()
 866:Generated_Source\PSoC4/VDAC_Synth_UAB.c **** * @see VDAC_Synth_UAB_SetCapC()
 867:Generated_Source\PSoC4/VDAC_Synth_UAB.c **** * @see VDAC_Synth_UAB_SetCapF()
 868:Generated_Source\PSoC4/VDAC_Synth_UAB.c **** *
 869:Generated_Source\PSoC4/VDAC_Synth_UAB.c **** * @internal
 870:Generated_Source\PSoC4/VDAC_Synth_UAB.c **** * @reglist @reg VDAC_Synth_UAB_CAP_ABCF0_VAL @reg VDAC_Synth_UAB_CAP_ABCF1_VAL
 871:Generated_Source\PSoC4/VDAC_Synth_UAB.c **** * @image html SetCapacitors.png 
 872:Generated_Source\PSoC4/VDAC_Synth_UAB.c **** * @endinternal
 873:Generated_Source\PSoC4/VDAC_Synth_UAB.c **** *
 874:Generated_Source\PSoC4/VDAC_Synth_UAB.c **** * @sideeffect None
 875:Generated_Source\PSoC4/VDAC_Synth_UAB.c **** *******************************************************************************/
 876:Generated_Source\PSoC4/VDAC_Synth_UAB.c **** void VDAC_Synth_UAB_SetCapA(CyUAB_cap_enum capA)
 877:Generated_Source\PSoC4/VDAC_Synth_UAB.c **** {
 727              		.loc 1 877 0
 728              		.cfi_startproc
 729              	.LVL46:
 878:Generated_Source\PSoC4/VDAC_Synth_UAB.c ****     VDAC_Synth_UAB_SET_FIELD(
 730              		.loc 1 878 0
 731 0000 FC21     		mov	r1, #252
 877:Generated_Source\PSoC4/VDAC_Synth_UAB.c ****     VDAC_Synth_UAB_SET_FIELD(
 732              		.loc 1 877 0
 733 0002 10B5     		push	{r4, lr}
 734              		.cfi_def_cfa_offset 8
 735              		.cfi_offset 4, -8
 736              		.cfi_offset 14, -4
 737              		.loc 1 878 0
 738 0004 074C     		ldr	r4, .L74
 739 0006 084B     		ldr	r3, .L74+4
 740 0008 2268     		ldr	r2, [r4]
 741 000a 0901     		lsl	r1, r1, #4
 742 000c 8001     		lsl	r0, r0, #6
 743              	.LVL47:
ARM GAS  C:\Users\Jerry\AppData\Local\Temp\cc1IKG0O.s 			page 30


 744 000e 0840     		and	r0, r1
 745 0010 1A40     		and	r2, r3
 746 0012 0243     		orr	r2, r0
 747 0014 2260     		str	r2, [r4]
 879:Generated_Source\PSoC4/VDAC_Synth_UAB.c ****       VDAC_Synth_UAB_CAP_ABCF_VAL_PTR,
 880:Generated_Source\PSoC4/VDAC_Synth_UAB.c ****       VDAC_Synth_UAB_CA_VAL_MASK, 
 881:Generated_Source\PSoC4/VDAC_Synth_UAB.c ****       ((uint32)capA), 
 882:Generated_Source\PSoC4/VDAC_Synth_UAB.c ****       VDAC_Synth_UAB_CA_VAL_SHIFT
 883:Generated_Source\PSoC4/VDAC_Synth_UAB.c ****     );
 884:Generated_Source\PSoC4/VDAC_Synth_UAB.c ****     VDAC_Synth_UAB_SET_FIELD(
 748              		.loc 1 884 0
 749 0016 054A     		ldr	r2, .L74+8
 885:Generated_Source\PSoC4/VDAC_Synth_UAB.c ****       VDAC_Synth_UAB_CAP_AB_VAL_NXT_PTR, 
 886:Generated_Source\PSoC4/VDAC_Synth_UAB.c ****       VDAC_Synth_UAB_CA_VAL_MASK, 
 887:Generated_Source\PSoC4/VDAC_Synth_UAB.c ****       ((uint32)capA), 
 888:Generated_Source\PSoC4/VDAC_Synth_UAB.c ****       VDAC_Synth_UAB_CA_VAL_SHIFT
 889:Generated_Source\PSoC4/VDAC_Synth_UAB.c ****     ); 
 890:Generated_Source\PSoC4/VDAC_Synth_UAB.c **** }
 750              		.loc 1 890 0
 751              		@ sp needed
 884:Generated_Source\PSoC4/VDAC_Synth_UAB.c ****       VDAC_Synth_UAB_CAP_AB_VAL_NXT_PTR, 
 752              		.loc 1 884 0
 753 0018 1168     		ldr	r1, [r2]
 754 001a 0B40     		and	r3, r1
 755 001c 0343     		orr	r3, r0
 756 001e 1360     		str	r3, [r2]
 757              		.loc 1 890 0
 758 0020 10BD     		pop	{r4, pc}
 759              	.L75:
 760 0022 C046     		.align	2
 761              	.L74:
 762 0024 08033440 		.word	1077150472
 763 0028 3FF0FFFF 		.word	-4033
 764 002c 0C033440 		.word	1077150476
 765              		.cfi_endproc
 766              	.LFE20:
 767              		.size	VDAC_Synth_UAB_SetCapA, .-VDAC_Synth_UAB_SetCapA
 768              		.section	.text.VDAC_Synth_UAB_SetCapB,"ax",%progbits
 769              		.align	1
 770              		.global	VDAC_Synth_UAB_SetCapB
 771              		.code	16
 772              		.thumb_func
 773              		.type	VDAC_Synth_UAB_SetCapB, %function
 774              	VDAC_Synth_UAB_SetCapB:
 775              	.LFB21:
 891:Generated_Source\PSoC4/VDAC_Synth_UAB.c **** 
 892:Generated_Source\PSoC4/VDAC_Synth_UAB.c **** /***************** VDAC_Synth_UAB_SetCapB() *********************************/
 893:Generated_Source\PSoC4/VDAC_Synth_UAB.c **** /*!
 894:Generated_Source\PSoC4/VDAC_Synth_UAB.c **** * @brief Set the capacitance for branch B
 895:Generated_Source\PSoC4/VDAC_Synth_UAB.c **** * 
 896:Generated_Source\PSoC4/VDAC_Synth_UAB.c **** * @details There are three input branches (A, B, C) and a single feedback branch (F).  
 897:Generated_Source\PSoC4/VDAC_Synth_UAB.c **** * Each branch can have its capacitance configured independently.
 898:Generated_Source\PSoC4/VDAC_Synth_UAB.c **** * 
 899:Generated_Source\PSoC4/VDAC_Synth_UAB.c **** * The A, B, and C branches have capacitance range of 0-63 units (0-3150fF) in increments of 50fF.  
 900:Generated_Source\PSoC4/VDAC_Synth_UAB.c **** * The F branch has a capacitance range of 0-64 units (0-3200fF) in increments of 100fF.
 901:Generated_Source\PSoC4/VDAC_Synth_UAB.c **** *
 902:Generated_Source\PSoC4/VDAC_Synth_UAB.c **** * @note In branches B and C, there are attenuation capacitors in the signal path.
ARM GAS  C:\Users\Jerry\AppData\Local\Temp\cc1IKG0O.s 			page 31


 903:Generated_Source\PSoC4/VDAC_Synth_UAB.c **** * This function does not configure those capacitors.
 904:Generated_Source\PSoC4/VDAC_Synth_UAB.c **** * @see VDAC_Synth_UAB_SetAttenBypassSwitchB()
 905:Generated_Source\PSoC4/VDAC_Synth_UAB.c **** * @see VDAC_Synth_UAB_SetAttenBypassSwitchC()
 906:Generated_Source\PSoC4/VDAC_Synth_UAB.c **** *
 907:Generated_Source\PSoC4/VDAC_Synth_UAB.c **** * @see VDAC_Synth_UAB_SetCaps()
 908:Generated_Source\PSoC4/VDAC_Synth_UAB.c **** * @see VDAC_Synth_UAB_SetCapA()
 909:Generated_Source\PSoC4/VDAC_Synth_UAB.c **** * @see VDAC_Synth_UAB_SetCapC()
 910:Generated_Source\PSoC4/VDAC_Synth_UAB.c **** * @see VDAC_Synth_UAB_SetCapF()
 911:Generated_Source\PSoC4/VDAC_Synth_UAB.c **** * @see VDAC_Synth_UAB_SetGroundUnused()
 912:Generated_Source\PSoC4/VDAC_Synth_UAB.c **** *
 913:Generated_Source\PSoC4/VDAC_Synth_UAB.c **** * @internal
 914:Generated_Source\PSoC4/VDAC_Synth_UAB.c **** * @reglist @reg VDAC_Synth_UAB_CAP_ABCF0_VAL @reg VDAC_Synth_UAB_CAP_ABCF1_VAL
 915:Generated_Source\PSoC4/VDAC_Synth_UAB.c **** * @image html SetCapacitors.png 
 916:Generated_Source\PSoC4/VDAC_Synth_UAB.c **** * @endinternal
 917:Generated_Source\PSoC4/VDAC_Synth_UAB.c **** * 
 918:Generated_Source\PSoC4/VDAC_Synth_UAB.c **** * @sideeffect capB[5:0] = capB[6] ? 0x3F : capB[5:0]
 919:Generated_Source\PSoC4/VDAC_Synth_UAB.c **** *******************************************************************************/
 920:Generated_Source\PSoC4/VDAC_Synth_UAB.c **** void VDAC_Synth_UAB_SetCapB(CyUAB_b_cap_enum capB)
 921:Generated_Source\PSoC4/VDAC_Synth_UAB.c **** {
 776              		.loc 1 921 0
 777              		.cfi_startproc
 778              	.LVL48:
 779 0000 10B5     		push	{r4, lr}
 780              		.cfi_def_cfa_offset 8
 781              		.cfi_offset 4, -8
 782              		.cfi_offset 14, -4
 783 0002 0A4A     		ldr	r2, .L79
 922:Generated_Source\PSoC4/VDAC_Synth_UAB.c ****     const uint32 threshold64 = 64UL; /*capB>=64 are treated the same (set CB_64 and CB_VAL[5:0]==0x
 923:Generated_Source\PSoC4/VDAC_Synth_UAB.c ****     const uint32 b64 = VDAC_Synth_UAB_CB_64_MASK | VDAC_Synth_UAB_CB_VAL_MASK;
 924:Generated_Source\PSoC4/VDAC_Synth_UAB.c ****     uint32 bval = (((uint32)capB)>=threshold64) ? b64 : ((uint32)capB);
 784              		.loc 1 924 0
 785 0004 3F28     		cmp	r0, #63
 786 0006 00D9     		bls	.L77
 787 0008 101C     		mov	r0, r2
 788              	.LVL49:
 789              	.L77:
 925:Generated_Source\PSoC4/VDAC_Synth_UAB.c ****     VDAC_Synth_UAB_SET_VARIOUS_FIELDS(
 790              		.loc 1 925 0 discriminator 4
 791 000a 0240     		and	r2, r0
 792 000c 111C     		mov	r1, r2
 793 000e 084C     		ldr	r4, .L79+4
 794 0010 084A     		ldr	r2, .L79+8
 795 0012 2368     		ldr	r3, [r4]
 926:Generated_Source\PSoC4/VDAC_Synth_UAB.c ****       VDAC_Synth_UAB_CAP_ABCF_VAL_PTR,
 927:Generated_Source\PSoC4/VDAC_Synth_UAB.c ****       VDAC_Synth_UAB_CB_64_MASK | VDAC_Synth_UAB_CB_VAL_MASK, 
 928:Generated_Source\PSoC4/VDAC_Synth_UAB.c ****        bval
 929:Generated_Source\PSoC4/VDAC_Synth_UAB.c ****     );
 930:Generated_Source\PSoC4/VDAC_Synth_UAB.c ****     
 931:Generated_Source\PSoC4/VDAC_Synth_UAB.c ****     /*No CB_64 in CAP_AB_VAL_NXT register*/
 932:Generated_Source\PSoC4/VDAC_Synth_UAB.c ****     VDAC_Synth_UAB_SET_FIELD(
 933:Generated_Source\PSoC4/VDAC_Synth_UAB.c ****       VDAC_Synth_UAB_CAP_AB_VAL_NXT_PTR, 
 934:Generated_Source\PSoC4/VDAC_Synth_UAB.c ****       VDAC_Synth_UAB_CB_VAL_MASK, 
 935:Generated_Source\PSoC4/VDAC_Synth_UAB.c ****       bval,
 936:Generated_Source\PSoC4/VDAC_Synth_UAB.c ****       VDAC_Synth_UAB_CB_VAL_SHIFT
 937:Generated_Source\PSoC4/VDAC_Synth_UAB.c ****     );
 938:Generated_Source\PSoC4/VDAC_Synth_UAB.c **** }
 796              		.loc 1 938 0 discriminator 4
ARM GAS  C:\Users\Jerry\AppData\Local\Temp\cc1IKG0O.s 			page 32


 797              		@ sp needed
 925:Generated_Source\PSoC4/VDAC_Synth_UAB.c ****     VDAC_Synth_UAB_SET_VARIOUS_FIELDS(
 798              		.loc 1 925 0 discriminator 4
 799 0014 1340     		and	r3, r2
 800 0016 0B43     		orr	r3, r1
 932:Generated_Source\PSoC4/VDAC_Synth_UAB.c ****       VDAC_Synth_UAB_CAP_AB_VAL_NXT_PTR, 
 801              		.loc 1 932 0 discriminator 4
 802 0018 3F21     		mov	r1, #63
 803 001a 074A     		ldr	r2, .L79+12
 925:Generated_Source\PSoC4/VDAC_Synth_UAB.c ****     VDAC_Synth_UAB_SET_VARIOUS_FIELDS(
 804              		.loc 1 925 0 discriminator 4
 805 001c 2360     		str	r3, [r4]
 932:Generated_Source\PSoC4/VDAC_Synth_UAB.c ****       VDAC_Synth_UAB_CAP_AB_VAL_NXT_PTR, 
 806              		.loc 1 932 0 discriminator 4
 807 001e 1368     		ldr	r3, [r2]
 808 0020 0840     		and	r0, r1
 809              	.LVL50:
 810 0022 8B43     		bic	r3, r1
 811 0024 1843     		orr	r0, r3
 812 0026 1060     		str	r0, [r2]
 813              		.loc 1 938 0 discriminator 4
 814 0028 10BD     		pop	{r4, pc}
 815              	.L80:
 816 002a C046     		.align	2
 817              	.L79:
 818 002c 3F200000 		.word	8255
 819 0030 08033440 		.word	1077150472
 820 0034 C0DFFFFF 		.word	-8256
 821 0038 0C033440 		.word	1077150476
 822              		.cfi_endproc
 823              	.LFE21:
 824              		.size	VDAC_Synth_UAB_SetCapB, .-VDAC_Synth_UAB_SetCapB
 825              		.section	.text.VDAC_Synth_UAB_SetCapC,"ax",%progbits
 826              		.align	1
 827              		.global	VDAC_Synth_UAB_SetCapC
 828              		.code	16
 829              		.thumb_func
 830              		.type	VDAC_Synth_UAB_SetCapC, %function
 831              	VDAC_Synth_UAB_SetCapC:
 832              	.LFB22:
 939:Generated_Source\PSoC4/VDAC_Synth_UAB.c **** 
 940:Generated_Source\PSoC4/VDAC_Synth_UAB.c **** /***************** VDAC_Synth_UAB_SetCapC() *********************************/
 941:Generated_Source\PSoC4/VDAC_Synth_UAB.c **** /*!
 942:Generated_Source\PSoC4/VDAC_Synth_UAB.c **** * @brief Set the capacitance for branch C
 943:Generated_Source\PSoC4/VDAC_Synth_UAB.c **** * 
 944:Generated_Source\PSoC4/VDAC_Synth_UAB.c **** * @details There are three input branches (A, B, C) and a single feedback branch (F).  
 945:Generated_Source\PSoC4/VDAC_Synth_UAB.c **** * Each branch can have its capacitance configured independently.
 946:Generated_Source\PSoC4/VDAC_Synth_UAB.c **** * 
 947:Generated_Source\PSoC4/VDAC_Synth_UAB.c **** * The A, B, and C branches have capacitance range of 0-63 units (0-3150fF) in increments of 50fF.  
 948:Generated_Source\PSoC4/VDAC_Synth_UAB.c **** * The F branch has a capacitance range of 0-64 units (0-3200fF) in increments of 100fF.
 949:Generated_Source\PSoC4/VDAC_Synth_UAB.c **** *
 950:Generated_Source\PSoC4/VDAC_Synth_UAB.c **** * @note In branches B and C, there are attenuation capacitors in the signal path.
 951:Generated_Source\PSoC4/VDAC_Synth_UAB.c **** * This function does not configure those capacitors.
 952:Generated_Source\PSoC4/VDAC_Synth_UAB.c **** * @see VDAC_Synth_UAB_SetAttenBypassSwitchB()
 953:Generated_Source\PSoC4/VDAC_Synth_UAB.c **** * @see VDAC_Synth_UAB_SetAttenBypassSwitchC()
 954:Generated_Source\PSoC4/VDAC_Synth_UAB.c **** * 
 955:Generated_Source\PSoC4/VDAC_Synth_UAB.c **** * @see VDAC_Synth_UAB_SetCaps()
ARM GAS  C:\Users\Jerry\AppData\Local\Temp\cc1IKG0O.s 			page 33


 956:Generated_Source\PSoC4/VDAC_Synth_UAB.c **** * @see VDAC_Synth_UAB_SetCapA()
 957:Generated_Source\PSoC4/VDAC_Synth_UAB.c **** * @see VDAC_Synth_UAB_SetCapB()
 958:Generated_Source\PSoC4/VDAC_Synth_UAB.c **** * @see VDAC_Synth_UAB_SetCapF()
 959:Generated_Source\PSoC4/VDAC_Synth_UAB.c **** * @see VDAC_Synth_UAB_SetGroundUnused()
 960:Generated_Source\PSoC4/VDAC_Synth_UAB.c **** *
 961:Generated_Source\PSoC4/VDAC_Synth_UAB.c **** * @internal
 962:Generated_Source\PSoC4/VDAC_Synth_UAB.c **** * @reglist @reg VDAC_Synth_UAB_CAP_ABCF0_VAL @reg VDAC_Synth_UAB_CAP_ABCF1_VAL
 963:Generated_Source\PSoC4/VDAC_Synth_UAB.c **** * @image html SetCapacitors.png 
 964:Generated_Source\PSoC4/VDAC_Synth_UAB.c **** * @endinternal
 965:Generated_Source\PSoC4/VDAC_Synth_UAB.c **** *
 966:Generated_Source\PSoC4/VDAC_Synth_UAB.c **** * @sideeffect None
 967:Generated_Source\PSoC4/VDAC_Synth_UAB.c **** *******************************************************************************/
 968:Generated_Source\PSoC4/VDAC_Synth_UAB.c **** void VDAC_Synth_UAB_SetCapC(CyUAB_cap_enum capC)
 969:Generated_Source\PSoC4/VDAC_Synth_UAB.c **** {
 833              		.loc 1 969 0
 834              		.cfi_startproc
 835              	.LVL51:
 970:Generated_Source\PSoC4/VDAC_Synth_UAB.c ****     VDAC_Synth_UAB_SET_FIELD(
 836              		.loc 1 970 0
 837 0000 FC21     		mov	r1, #252
 969:Generated_Source\PSoC4/VDAC_Synth_UAB.c ****     VDAC_Synth_UAB_SET_FIELD(
 838              		.loc 1 969 0
 839 0002 10B5     		push	{r4, lr}
 840              		.cfi_def_cfa_offset 8
 841              		.cfi_offset 4, -8
 842              		.cfi_offset 14, -4
 843              		.loc 1 970 0
 844 0004 074C     		ldr	r4, .L82
 845 0006 084B     		ldr	r3, .L82+4
 846 0008 2268     		ldr	r2, [r4]
 847 000a 8903     		lsl	r1, r1, #14
 848 000c 0004     		lsl	r0, r0, #16
 849              	.LVL52:
 850 000e 0840     		and	r0, r1
 851 0010 1A40     		and	r2, r3
 852 0012 0243     		orr	r2, r0
 853 0014 2260     		str	r2, [r4]
 971:Generated_Source\PSoC4/VDAC_Synth_UAB.c ****       VDAC_Synth_UAB_CAP_ABCF_VAL_PTR,
 972:Generated_Source\PSoC4/VDAC_Synth_UAB.c ****       VDAC_Synth_UAB_CC_VAL_MASK, 
 973:Generated_Source\PSoC4/VDAC_Synth_UAB.c ****       ((uint32)capC), 
 974:Generated_Source\PSoC4/VDAC_Synth_UAB.c ****       VDAC_Synth_UAB_CC_VAL_SHIFT
 975:Generated_Source\PSoC4/VDAC_Synth_UAB.c ****     );
 976:Generated_Source\PSoC4/VDAC_Synth_UAB.c ****     /*Not setting CC_VAL_UPDATE bit*/
 977:Generated_Source\PSoC4/VDAC_Synth_UAB.c ****     VDAC_Synth_UAB_SET_FIELD(
 854              		.loc 1 977 0
 855 0016 054A     		ldr	r2, .L82+8
 978:Generated_Source\PSoC4/VDAC_Synth_UAB.c ****       VDAC_Synth_UAB_CAP_CF_VAL_NXT_PTR, 
 979:Generated_Source\PSoC4/VDAC_Synth_UAB.c ****       VDAC_Synth_UAB_CC_VAL_MASK, 
 980:Generated_Source\PSoC4/VDAC_Synth_UAB.c ****       ((uint32)capC), 
 981:Generated_Source\PSoC4/VDAC_Synth_UAB.c ****       VDAC_Synth_UAB_CC_VAL_SHIFT
 982:Generated_Source\PSoC4/VDAC_Synth_UAB.c ****     );
 983:Generated_Source\PSoC4/VDAC_Synth_UAB.c **** }
 856              		.loc 1 983 0
 857              		@ sp needed
 977:Generated_Source\PSoC4/VDAC_Synth_UAB.c ****       VDAC_Synth_UAB_CAP_CF_VAL_NXT_PTR, 
 858              		.loc 1 977 0
 859 0018 1168     		ldr	r1, [r2]
ARM GAS  C:\Users\Jerry\AppData\Local\Temp\cc1IKG0O.s 			page 34


 860 001a 0B40     		and	r3, r1
 861 001c 0343     		orr	r3, r0
 862 001e 1360     		str	r3, [r2]
 863              		.loc 1 983 0
 864 0020 10BD     		pop	{r4, pc}
 865              	.L83:
 866 0022 C046     		.align	2
 867              	.L82:
 868 0024 08033440 		.word	1077150472
 869 0028 FFFFC0FF 		.word	-4128769
 870 002c 10033440 		.word	1077150480
 871              		.cfi_endproc
 872              	.LFE22:
 873              		.size	VDAC_Synth_UAB_SetCapC, .-VDAC_Synth_UAB_SetCapC
 874              		.section	.text.VDAC_Synth_UAB_SetCapF,"ax",%progbits
 875              		.align	1
 876              		.global	VDAC_Synth_UAB_SetCapF
 877              		.code	16
 878              		.thumb_func
 879              		.type	VDAC_Synth_UAB_SetCapF, %function
 880              	VDAC_Synth_UAB_SetCapF:
 881              	.LFB23:
 984:Generated_Source\PSoC4/VDAC_Synth_UAB.c **** 
 985:Generated_Source\PSoC4/VDAC_Synth_UAB.c **** /***************** VDAC_Synth_UAB_SetCapF() *********************************/
 986:Generated_Source\PSoC4/VDAC_Synth_UAB.c **** /*!
 987:Generated_Source\PSoC4/VDAC_Synth_UAB.c **** * @brief Set the capacitance for branch F
 988:Generated_Source\PSoC4/VDAC_Synth_UAB.c **** * 
 989:Generated_Source\PSoC4/VDAC_Synth_UAB.c **** * @details There are three input branches (A, B, C) and a single feedback branch (F).  
 990:Generated_Source\PSoC4/VDAC_Synth_UAB.c **** * Each branch can have its capacitance configured independently.
 991:Generated_Source\PSoC4/VDAC_Synth_UAB.c **** * 
 992:Generated_Source\PSoC4/VDAC_Synth_UAB.c **** * The A, B, and C branches have capacitance range of 0-63 units (0-3150fF) in increments of 50fF.  
 993:Generated_Source\PSoC4/VDAC_Synth_UAB.c **** * The F branch has a capacitance range of 0-64 units (0-3200fF) in increments of 100fF.
 994:Generated_Source\PSoC4/VDAC_Synth_UAB.c **** *
 995:Generated_Source\PSoC4/VDAC_Synth_UAB.c **** * @note In branches B and C, there are attenuation capacitors in the signal path.
 996:Generated_Source\PSoC4/VDAC_Synth_UAB.c **** * This function does not configure those capacitors.
 997:Generated_Source\PSoC4/VDAC_Synth_UAB.c **** * @see VDAC_Synth_UAB_SetAttenBypassSwitchB()
 998:Generated_Source\PSoC4/VDAC_Synth_UAB.c **** * @see VDAC_Synth_UAB_SetAttenBypassSwitchC()
 999:Generated_Source\PSoC4/VDAC_Synth_UAB.c **** *
1000:Generated_Source\PSoC4/VDAC_Synth_UAB.c **** * @see VDAC_Synth_UAB_SetCaps()
1001:Generated_Source\PSoC4/VDAC_Synth_UAB.c **** * @see VDAC_Synth_UAB_SetCapA()
1002:Generated_Source\PSoC4/VDAC_Synth_UAB.c **** * @see VDAC_Synth_UAB_SetCapB()
1003:Generated_Source\PSoC4/VDAC_Synth_UAB.c **** * @see VDAC_Synth_UAB_SetCapC()
1004:Generated_Source\PSoC4/VDAC_Synth_UAB.c **** *
1005:Generated_Source\PSoC4/VDAC_Synth_UAB.c **** * @internal
1006:Generated_Source\PSoC4/VDAC_Synth_UAB.c **** * @reglist @reg VDAC_Synth_UAB_CAP_ABCF0_VAL @reg VDAC_Synth_UAB_CAP_ABCF1_VAL
1007:Generated_Source\PSoC4/VDAC_Synth_UAB.c **** * @image html SetCapacitors.png 
1008:Generated_Source\PSoC4/VDAC_Synth_UAB.c **** * @endinternal
1009:Generated_Source\PSoC4/VDAC_Synth_UAB.c **** *
1010:Generated_Source\PSoC4/VDAC_Synth_UAB.c **** * @sideeffect None
1011:Generated_Source\PSoC4/VDAC_Synth_UAB.c **** *******************************************************************************/
1012:Generated_Source\PSoC4/VDAC_Synth_UAB.c **** void VDAC_Synth_UAB_SetCapF(CyUAB_f_cap_enum capF)
1013:Generated_Source\PSoC4/VDAC_Synth_UAB.c **** {
 882              		.loc 1 1013 0
 883              		.cfi_startproc
 884              	.LVL53:
1014:Generated_Source\PSoC4/VDAC_Synth_UAB.c ****     VDAC_Synth_UAB_SET_FIELD(
 885              		.loc 1 1014 0
ARM GAS  C:\Users\Jerry\AppData\Local\Temp\cc1IKG0O.s 			page 35


 886 0000 F821     		mov	r1, #248
1013:Generated_Source\PSoC4/VDAC_Synth_UAB.c ****     VDAC_Synth_UAB_SET_FIELD(
 887              		.loc 1 1013 0
 888 0002 10B5     		push	{r4, lr}
 889              		.cfi_def_cfa_offset 8
 890              		.cfi_offset 4, -8
 891              		.cfi_offset 14, -4
 892              		.loc 1 1014 0
 893 0004 074C     		ldr	r4, .L85
 894 0006 084B     		ldr	r3, .L85+4
 895 0008 2268     		ldr	r2, [r4]
 896 000a 4905     		lsl	r1, r1, #21
 897 000c 0006     		lsl	r0, r0, #24
 898              	.LVL54:
 899 000e 0840     		and	r0, r1
 900 0010 1A40     		and	r2, r3
 901 0012 0243     		orr	r2, r0
 902 0014 2260     		str	r2, [r4]
1015:Generated_Source\PSoC4/VDAC_Synth_UAB.c ****       VDAC_Synth_UAB_CAP_ABCF_VAL_PTR,
1016:Generated_Source\PSoC4/VDAC_Synth_UAB.c ****       VDAC_Synth_UAB_CF_VAL_MASK, 
1017:Generated_Source\PSoC4/VDAC_Synth_UAB.c ****       ((uint32)capF), 
1018:Generated_Source\PSoC4/VDAC_Synth_UAB.c ****       VDAC_Synth_UAB_CF_VAL_SHIFT
1019:Generated_Source\PSoC4/VDAC_Synth_UAB.c ****     );
1020:Generated_Source\PSoC4/VDAC_Synth_UAB.c ****     /*Not setting CF_VAL_UPDATE bit*/
1021:Generated_Source\PSoC4/VDAC_Synth_UAB.c ****     VDAC_Synth_UAB_SET_FIELD(
 903              		.loc 1 1021 0
 904 0016 054A     		ldr	r2, .L85+8
1022:Generated_Source\PSoC4/VDAC_Synth_UAB.c ****       VDAC_Synth_UAB_CAP_CF_VAL_NXT_PTR, 
1023:Generated_Source\PSoC4/VDAC_Synth_UAB.c ****       VDAC_Synth_UAB_CF_VAL_MASK, 
1024:Generated_Source\PSoC4/VDAC_Synth_UAB.c ****       ((uint32)capF), 
1025:Generated_Source\PSoC4/VDAC_Synth_UAB.c ****       VDAC_Synth_UAB_CF_VAL_SHIFT
1026:Generated_Source\PSoC4/VDAC_Synth_UAB.c ****     );    
1027:Generated_Source\PSoC4/VDAC_Synth_UAB.c **** }
 905              		.loc 1 1027 0
 906              		@ sp needed
1021:Generated_Source\PSoC4/VDAC_Synth_UAB.c ****       VDAC_Synth_UAB_CAP_CF_VAL_NXT_PTR, 
 907              		.loc 1 1021 0
 908 0018 1168     		ldr	r1, [r2]
 909 001a 0B40     		and	r3, r1
 910 001c 0343     		orr	r3, r0
 911 001e 1360     		str	r3, [r2]
 912              		.loc 1 1027 0
 913 0020 10BD     		pop	{r4, pc}
 914              	.L86:
 915 0022 C046     		.align	2
 916              	.L85:
 917 0024 08033440 		.word	1077150472
 918 0028 FFFFFFE0 		.word	-520093697
 919 002c 10033440 		.word	1077150480
 920              		.cfi_endproc
 921              	.LFE23:
 922              		.size	VDAC_Synth_UAB_SetCapF, .-VDAC_Synth_UAB_SetCapF
 923              		.section	.text.VDAC_Synth_UAB_SetCaps,"ax",%progbits
 924              		.align	1
 925              		.global	VDAC_Synth_UAB_SetCaps
 926              		.code	16
 927              		.thumb_func
ARM GAS  C:\Users\Jerry\AppData\Local\Temp\cc1IKG0O.s 			page 36


 928              		.type	VDAC_Synth_UAB_SetCaps, %function
 929              	VDAC_Synth_UAB_SetCaps:
 930              	.LFB24:
1028:Generated_Source\PSoC4/VDAC_Synth_UAB.c **** 
1029:Generated_Source\PSoC4/VDAC_Synth_UAB.c **** /***************** VDAC_Synth_UAB_SetCaps() *********************************/
1030:Generated_Source\PSoC4/VDAC_Synth_UAB.c **** /*!
1031:Generated_Source\PSoC4/VDAC_Synth_UAB.c **** * @brief Set the capacitances individually for all branches (A,B,C,F)
1032:Generated_Source\PSoC4/VDAC_Synth_UAB.c **** * 
1033:Generated_Source\PSoC4/VDAC_Synth_UAB.c **** * @details There are three input branches (A, B, C) and a single feedback branch (F).  
1034:Generated_Source\PSoC4/VDAC_Synth_UAB.c **** * Each branch can have its capacitance configured independently.
1035:Generated_Source\PSoC4/VDAC_Synth_UAB.c **** * 
1036:Generated_Source\PSoC4/VDAC_Synth_UAB.c **** * The A, B, and C branches have capacitance range of 0-63 units (0-3150fF) in increments of 50fF.  
1037:Generated_Source\PSoC4/VDAC_Synth_UAB.c **** * The F branch has a capacitance range of 0-64 units (0-3200fF) in increments of 100fF.
1038:Generated_Source\PSoC4/VDAC_Synth_UAB.c **** 
1039:Generated_Source\PSoC4/VDAC_Synth_UAB.c **** * @note In branches B and C, there are attenuation capacitors in the signal path.
1040:Generated_Source\PSoC4/VDAC_Synth_UAB.c **** * This function does not configure those capacitors.  See VDAC_Synth_UAB_SetAttenuationTrim() 
1041:Generated_Source\PSoC4/VDAC_Synth_UAB.c **** * and VDAC_Synth_UAB_SetAttenBypassSwitch().
1042:Generated_Source\PSoC4/VDAC_Synth_UAB.c **** * 
1043:Generated_Source\PSoC4/VDAC_Synth_UAB.c **** * @param capA Use the CyUAB_cap_enum enumerated values.
1044:Generated_Source\PSoC4/VDAC_Synth_UAB.c **** * @param capB Use the CyUAB_b_cap_enum enumerated values.
1045:Generated_Source\PSoC4/VDAC_Synth_UAB.c **** * @param capC Use the CyUAB_cap_enum enumerated values.
1046:Generated_Source\PSoC4/VDAC_Synth_UAB.c **** * @param capF Use the CyUAB_f_cap_enum enumerated values.
1047:Generated_Source\PSoC4/VDAC_Synth_UAB.c **** *
1048:Generated_Source\PSoC4/VDAC_Synth_UAB.c **** * @see VDAC_Synth_UAB_SetCapA()
1049:Generated_Source\PSoC4/VDAC_Synth_UAB.c **** * @see VDAC_Synth_UAB_SetCapC()
1050:Generated_Source\PSoC4/VDAC_Synth_UAB.c **** * @see VDAC_Synth_UAB_SetCapF()
1051:Generated_Source\PSoC4/VDAC_Synth_UAB.c **** * @see VDAC_Synth_UAB_SetGroundUnused()
1052:Generated_Source\PSoC4/VDAC_Synth_UAB.c **** * @see VDAC_Synth_UAB_SetSwitch(CyUAB_SW_TB,clk)
1053:Generated_Source\PSoC4/VDAC_Synth_UAB.c **** * @see VDAC_Synth_UAB_SetSwitch(CyUAB_SW_TC,clk)
1054:Generated_Source\PSoC4/VDAC_Synth_UAB.c **** * 
1055:Generated_Source\PSoC4/VDAC_Synth_UAB.c **** * @internal
1056:Generated_Source\PSoC4/VDAC_Synth_UAB.c **** * @reglist @reg VDAC_Synth_UAB_CAP_ABCF0_VAL @reg VDAC_Synth_UAB_CAP_ABCF1_VAL
1057:Generated_Source\PSoC4/VDAC_Synth_UAB.c **** * @image html _.png 
1058:Generated_Source\PSoC4/VDAC_Synth_UAB.c **** * @endinternal
1059:Generated_Source\PSoC4/VDAC_Synth_UAB.c **** *
1060:Generated_Source\PSoC4/VDAC_Synth_UAB.c **** * @sideeffect None
1061:Generated_Source\PSoC4/VDAC_Synth_UAB.c **** *******************************************************************************/
1062:Generated_Source\PSoC4/VDAC_Synth_UAB.c **** void VDAC_Synth_UAB_SetCaps(CyUAB_cap_enum capA, CyUAB_b_cap_enum capB, 
1063:Generated_Source\PSoC4/VDAC_Synth_UAB.c ****     CyUAB_cap_enum capC, CyUAB_f_cap_enum capF)
1064:Generated_Source\PSoC4/VDAC_Synth_UAB.c **** {
 931              		.loc 1 1064 0
 932              		.cfi_startproc
 933              	.LVL55:
 934 0000 70B5     		push	{r4, r5, r6, lr}
 935              		.cfi_def_cfa_offset 16
 936              		.cfi_offset 4, -16
 937              		.cfi_offset 5, -12
 938              		.cfi_offset 6, -8
 939              		.cfi_offset 14, -4
 940              		.loc 1 1064 0
 941 0002 0E1C     		mov	r6, r1
 942 0004 151C     		mov	r5, r2
 943 0006 1C1C     		mov	r4, r3
1065:Generated_Source\PSoC4/VDAC_Synth_UAB.c ****     VDAC_Synth_UAB_SetCapA(capA);
 944              		.loc 1 1065 0
 945 0008 FFF7FEFF 		bl	VDAC_Synth_UAB_SetCapA
 946              	.LVL56:
ARM GAS  C:\Users\Jerry\AppData\Local\Temp\cc1IKG0O.s 			page 37


1066:Generated_Source\PSoC4/VDAC_Synth_UAB.c ****     VDAC_Synth_UAB_SetCapB(capB);
 947              		.loc 1 1066 0
 948 000c 301C     		mov	r0, r6
 949 000e FFF7FEFF 		bl	VDAC_Synth_UAB_SetCapB
 950              	.LVL57:
1067:Generated_Source\PSoC4/VDAC_Synth_UAB.c ****     VDAC_Synth_UAB_SetCapC(capC);
 951              		.loc 1 1067 0
 952 0012 281C     		mov	r0, r5
 953 0014 FFF7FEFF 		bl	VDAC_Synth_UAB_SetCapC
 954              	.LVL58:
1068:Generated_Source\PSoC4/VDAC_Synth_UAB.c ****     VDAC_Synth_UAB_SetCapF(capF);
 955              		.loc 1 1068 0
 956 0018 201C     		mov	r0, r4
 957 001a FFF7FEFF 		bl	VDAC_Synth_UAB_SetCapF
 958              	.LVL59:
1069:Generated_Source\PSoC4/VDAC_Synth_UAB.c **** }
 959              		.loc 1 1069 0
 960              		@ sp needed
 961 001e 70BD     		pop	{r4, r5, r6, pc}
 962              		.cfi_endproc
 963              	.LFE24:
 964              		.size	VDAC_Synth_UAB_SetCaps, .-VDAC_Synth_UAB_SetCaps
 965              		.section	.text.VDAC_Synth_UAB_SetGroundUnused,"ax",%progbits
 966              		.align	1
 967              		.global	VDAC_Synth_UAB_SetGroundUnused
 968              		.code	16
 969              		.thumb_func
 970              		.type	VDAC_Synth_UAB_SetGroundUnused, %function
 971              	VDAC_Synth_UAB_SetGroundUnused:
 972              	.LFB25:
1070:Generated_Source\PSoC4/VDAC_Synth_UAB.c **** 
1071:Generated_Source\PSoC4/VDAC_Synth_UAB.c **** /********* VDAC_Synth_UAB_SetGroundUnused() *********************************/
1072:Generated_Source\PSoC4/VDAC_Synth_UAB.c **** /*!
1073:Generated_Source\PSoC4/VDAC_Synth_UAB.c **** * @brief Sets whether unused capacitors are grounded or floating.
1074:Generated_Source\PSoC4/VDAC_Synth_UAB.c **** * 
1075:Generated_Source\PSoC4/VDAC_Synth_UAB.c **** * @details By default unused caps in the cap array are left floating.  
1076:Generated_Source\PSoC4/VDAC_Synth_UAB.c **** * Unused caps in branch B and C can be grounded when not in use.  
1077:Generated_Source\PSoC4/VDAC_Synth_UAB.c **** *
1078:Generated_Source\PSoC4/VDAC_Synth_UAB.c **** * When used as a DAC, the UAB uses two branches, one for MSBs, one for LSBs.
1079:Generated_Source\PSoC4/VDAC_Synth_UAB.c **** * The MSB cap array unit cells have their bottom plate floated when the
1080:Generated_Source\PSoC4/VDAC_Synth_UAB.c **** * CAP is not being used. For the LSB array, the unused caps must be shorted to the
1081:Generated_Source\PSoC4/VDAC_Synth_UAB.c **** * Analog Ground. Most common case will be using Branch A as MSB, with one of
1082:Generated_Source\PSoC4/VDAC_Synth_UAB.c **** * either B/C as the LSB.  Returns @c void.
1083:Generated_Source\PSoC4/VDAC_Synth_UAB.c **** *
1084:Generated_Source\PSoC4/VDAC_Synth_UAB.c **** * @param gndUnusedB ground unused caps in branch B
1085:Generated_Source\PSoC4/VDAC_Synth_UAB.c **** * @param gndUnusedC gournd unused caps in branch C
1086:Generated_Source\PSoC4/VDAC_Synth_UAB.c **** *
1087:Generated_Source\PSoC4/VDAC_Synth_UAB.c **** * @internal
1088:Generated_Source\PSoC4/VDAC_Synth_UAB.c **** * @reglist @reg VDAC_Synth_UAB_CAP_CTRL0 VDAC_Synth_UAB_CAP_CTRL1
1089:Generated_Source\PSoC4/VDAC_Synth_UAB.c **** * @image html SetCapacitors.png 
1090:Generated_Source\PSoC4/VDAC_Synth_UAB.c **** * @endinternal
1091:Generated_Source\PSoC4/VDAC_Synth_UAB.c **** *
1092:Generated_Source\PSoC4/VDAC_Synth_UAB.c **** * @sideeffect None
1093:Generated_Source\PSoC4/VDAC_Synth_UAB.c **** *******************************************************************************/
1094:Generated_Source\PSoC4/VDAC_Synth_UAB.c **** void VDAC_Synth_UAB_SetGroundUnused(CyUAB_gnd_unused_enum gndUnusedB, CyUAB_gnd_unused_enum gndUnus
1095:Generated_Source\PSoC4/VDAC_Synth_UAB.c **** {
 973              		.loc 1 1095 0
ARM GAS  C:\Users\Jerry\AppData\Local\Temp\cc1IKG0O.s 			page 38


 974              		.cfi_startproc
 975              	.LVL60:
1096:Generated_Source\PSoC4/VDAC_Synth_UAB.c ****     
1097:Generated_Source\PSoC4/VDAC_Synth_UAB.c ****     /*mask input values before shifting to prevent overlap*/
1098:Generated_Source\PSoC4/VDAC_Synth_UAB.c ****     const uint32 CB_GND_PRESHIFT_MASK = VDAC_Synth_UAB_CB_GND_MASK>>VDAC_Synth_UAB_CB_GND_SHIFT;
1099:Generated_Source\PSoC4/VDAC_Synth_UAB.c ****     const uint32 CC_GND_PRESHIFT_MASK = VDAC_Synth_UAB_CC_GND_MASK>>VDAC_Synth_UAB_CC_GND_SHIFT;
1100:Generated_Source\PSoC4/VDAC_Synth_UAB.c ****     const uint32 mask = VDAC_Synth_UAB_CC_GND_MASK | VDAC_Synth_UAB_CB_GND_MASK;
1101:Generated_Source\PSoC4/VDAC_Synth_UAB.c ****     VDAC_Synth_UAB_SET_VARIOUS_FIELDS(
 976              		.loc 1 1101 0
 977 0000 0123     		mov	r3, #1
 978 0002 1940     		and	r1, r3
 979              	.LVL61:
 980 0004 0340     		and	r3, r0
 981 0006 8901     		lsl	r1, r1, #6
 982 0008 5B01     		lsl	r3, r3, #5
 983 000a 0B43     		orr	r3, r1
 984 000c 6021     		mov	r1, #96
1095:Generated_Source\PSoC4/VDAC_Synth_UAB.c ****     
 985              		.loc 1 1095 0
 986 000e 10B5     		push	{r4, lr}
 987              		.cfi_def_cfa_offset 8
 988              		.cfi_offset 4, -8
 989              		.cfi_offset 14, -4
 990              		.loc 1 1101 0
 991 0010 024C     		ldr	r4, .L89
1102:Generated_Source\PSoC4/VDAC_Synth_UAB.c ****       VDAC_Synth_UAB_CAP_CTRL_PTR,
1103:Generated_Source\PSoC4/VDAC_Synth_UAB.c ****       mask,
1104:Generated_Source\PSoC4/VDAC_Synth_UAB.c ****       ((uint32)( 
1105:Generated_Source\PSoC4/VDAC_Synth_UAB.c ****         ( ( ((uint32)gndUnusedC) & CC_GND_PRESHIFT_MASK) <<VDAC_Synth_UAB_CC_GND_SHIFT ) |
1106:Generated_Source\PSoC4/VDAC_Synth_UAB.c ****         ( ( ((uint32)gndUnusedB) & CB_GND_PRESHIFT_MASK) <<VDAC_Synth_UAB_CB_GND_SHIFT )
1107:Generated_Source\PSoC4/VDAC_Synth_UAB.c ****       ))
1108:Generated_Source\PSoC4/VDAC_Synth_UAB.c ****     );
1109:Generated_Source\PSoC4/VDAC_Synth_UAB.c **** }
 992              		.loc 1 1109 0
 993              		@ sp needed
1101:Generated_Source\PSoC4/VDAC_Synth_UAB.c ****       VDAC_Synth_UAB_CAP_CTRL_PTR,
 994              		.loc 1 1101 0
 995 0012 2268     		ldr	r2, [r4]
 996 0014 8A43     		bic	r2, r1
 997 0016 1343     		orr	r3, r2
 998 0018 2360     		str	r3, [r4]
 999              		.loc 1 1109 0
 1000 001a 10BD     		pop	{r4, pc}
 1001              	.L90:
 1002              		.align	2
 1003              	.L89:
 1004 001c 04033440 		.word	1077150468
 1005              		.cfi_endproc
 1006              	.LFE25:
 1007              		.size	VDAC_Synth_UAB_SetGroundUnused, .-VDAC_Synth_UAB_SetGroundUnused
 1008              		.section	.text.VDAC_Synth_UAB_SetDacModeEn,"ax",%progbits
 1009              		.align	1
 1010              		.global	VDAC_Synth_UAB_SetDacModeEn
 1011              		.code	16
 1012              		.thumb_func
 1013              		.type	VDAC_Synth_UAB_SetDacModeEn, %function
 1014              	VDAC_Synth_UAB_SetDacModeEn:
ARM GAS  C:\Users\Jerry\AppData\Local\Temp\cc1IKG0O.s 			page 39


 1015              	.LFB26:
1110:Generated_Source\PSoC4/VDAC_Synth_UAB.c **** 
1111:Generated_Source\PSoC4/VDAC_Synth_UAB.c **** 
1112:Generated_Source\PSoC4/VDAC_Synth_UAB.c **** 
1113:Generated_Source\PSoC4/VDAC_Synth_UAB.c **** /*DAC*/
1114:Generated_Source\PSoC4/VDAC_Synth_UAB.c **** 
1115:Generated_Source\PSoC4/VDAC_Synth_UAB.c **** /******************* VDAC_Synth_UAB_SetDacModeEn() **************************/
1116:Generated_Source\PSoC4/VDAC_Synth_UAB.c **** /*!
1117:Generated_Source\PSoC4/VDAC_Synth_UAB.c **** * @brief DACMODE_EN effects how the sign bit of DAC data is used as modbit.
1118:Generated_Source\PSoC4/VDAC_Synth_UAB.c **** * 
1119:Generated_Source\PSoC4/VDAC_Synth_UAB.c **** * @details If the UAB is set to a DAC_MODE, then the SIGN_VAL bit is used as part
1120:Generated_Source\PSoC4/VDAC_Synth_UAB.c **** * of the DAC number.  The entire data word is decoded according to the DAC_MODE.
1121:Generated_Source\PSoC4/VDAC_Synth_UAB.c **** * If the UAB is not in a DAC_MODE, the SIGN_VAL bit is not computed when determining
1122:Generated_Source\PSoC4/VDAC_Synth_UAB.c **** * how to decode the data in the capacitor registers.  In either case, the modbit_src
1123:Generated_Source\PSoC4/VDAC_Synth_UAB.c **** * must be set to the firmware choice.
1124:Generated_Source\PSoC4/VDAC_Synth_UAB.c **** *
1125:Generated_Source\PSoC4/VDAC_Synth_UAB.c **** * @param isEnabled enable DAC mode
1126:Generated_Source\PSoC4/VDAC_Synth_UAB.c **** *
1127:Generated_Source\PSoC4/VDAC_Synth_UAB.c **** * @see VDAC_Synth_UAB_SetDacMode()
1128:Generated_Source\PSoC4/VDAC_Synth_UAB.c **** * @see VDAC_Synth_UAB_SetModbitSource()
1129:Generated_Source\PSoC4/VDAC_Synth_UAB.c **** *
1130:Generated_Source\PSoC4/VDAC_Synth_UAB.c **** * @internal
1131:Generated_Source\PSoC4/VDAC_Synth_UAB.c **** * @reglist @reg VDAC_Synth_UAB_CAP_CTRL_REG
1132:Generated_Source\PSoC4/VDAC_Synth_UAB.c **** * @endinternal
1133:Generated_Source\PSoC4/VDAC_Synth_UAB.c **** * 
1134:Generated_Source\PSoC4/VDAC_Synth_UAB.c **** * @sideeffect None
1135:Generated_Source\PSoC4/VDAC_Synth_UAB.c **** *******************************************************************************/
1136:Generated_Source\PSoC4/VDAC_Synth_UAB.c **** void VDAC_Synth_UAB_SetDacModeEn(CyUAB_dac_mode_en_enum isEnabled)
1137:Generated_Source\PSoC4/VDAC_Synth_UAB.c **** {
 1016              		.loc 1 1137 0
 1017              		.cfi_startproc
 1018              	.LVL62:
 1019 0000 021C     		mov	r2, r0
1138:Generated_Source\PSoC4/VDAC_Synth_UAB.c ****     VDAC_Synth_UAB_SET_FIELD(
 1020              		.loc 1 1138 0
 1021 0002 8021     		mov	r1, #128
1137:Generated_Source\PSoC4/VDAC_Synth_UAB.c ****     VDAC_Synth_UAB_SET_FIELD(
 1022              		.loc 1 1137 0
 1023 0004 10B5     		push	{r4, lr}
 1024              		.cfi_def_cfa_offset 8
 1025              		.cfi_offset 4, -8
 1026              		.cfi_offset 14, -4
 1027              		.loc 1 1138 0
 1028 0006 054C     		ldr	r4, .L92
 1029 0008 054B     		ldr	r3, .L92+4
 1030 000a 2068     		ldr	r0, [r4]
 1031              	.LVL63:
 1032 000c 8905     		lsl	r1, r1, #22
 1033 000e 5207     		lsl	r2, r2, #29
 1034 0010 0A40     		and	r2, r1
 1035 0012 0340     		and	r3, r0
 1036 0014 1A43     		orr	r2, r3
 1037 0016 2260     		str	r2, [r4]
1139:Generated_Source\PSoC4/VDAC_Synth_UAB.c ****       VDAC_Synth_UAB_CAP_CTRL_PTR, 
1140:Generated_Source\PSoC4/VDAC_Synth_UAB.c ****       VDAC_Synth_UAB_DAC_MODE_EN_MASK, 
1141:Generated_Source\PSoC4/VDAC_Synth_UAB.c ****       ((uint32)isEnabled), 
1142:Generated_Source\PSoC4/VDAC_Synth_UAB.c ****       VDAC_Synth_UAB_DAC_MODE_EN_SHIFT
ARM GAS  C:\Users\Jerry\AppData\Local\Temp\cc1IKG0O.s 			page 40


1143:Generated_Source\PSoC4/VDAC_Synth_UAB.c ****     );
1144:Generated_Source\PSoC4/VDAC_Synth_UAB.c **** }
 1038              		.loc 1 1144 0
 1039              		@ sp needed
 1040 0018 10BD     		pop	{r4, pc}
 1041              	.L93:
 1042 001a C046     		.align	2
 1043              	.L92:
 1044 001c 04033440 		.word	1077150468
 1045 0020 FFFFFFDF 		.word	-536870913
 1046              		.cfi_endproc
 1047              	.LFE26:
 1048              		.size	VDAC_Synth_UAB_SetDacModeEn, .-VDAC_Synth_UAB_SetDacModeEn
 1049              		.section	.text.VDAC_Synth_UAB_SetDacMode,"ax",%progbits
 1050              		.align	1
 1051              		.global	VDAC_Synth_UAB_SetDacMode
 1052              		.code	16
 1053              		.thumb_func
 1054              		.type	VDAC_Synth_UAB_SetDacMode, %function
 1055              	VDAC_Synth_UAB_SetDacMode:
 1056              	.LFB27:
1145:Generated_Source\PSoC4/VDAC_Synth_UAB.c **** 
1146:Generated_Source\PSoC4/VDAC_Synth_UAB.c **** /*************** VDAC_Synth_UAB_SetDacMode() ********************************/
1147:Generated_Source\PSoC4/VDAC_Synth_UAB.c **** /*!
1148:Generated_Source\PSoC4/VDAC_Synth_UAB.c **** * @brief Sets the DAC mode.
1149:Generated_Source\PSoC4/VDAC_Synth_UAB.c **** * 
1150:Generated_Source\PSoC4/VDAC_Synth_UAB.c **** * @details The DAC can be operated as a 12-bit unsigned, 12-bit virtual signed, 
1151:Generated_Source\PSoC4/VDAC_Synth_UAB.c **** * or 13-bit unsigned DAC.  This function sets that mode.
1152:Generated_Source\PSoC4/VDAC_Synth_UAB.c **** * 
1153:Generated_Source\PSoC4/VDAC_Synth_UAB.c **** * @param dacMode DAC mode selection
1154:Generated_Source\PSoC4/VDAC_Synth_UAB.c **** *
1155:Generated_Source\PSoC4/VDAC_Synth_UAB.c **** * @see VDAC_Synth_UAB_SetDacModeEn()
1156:Generated_Source\PSoC4/VDAC_Synth_UAB.c **** * @see VDAC_Synth_UAB_SetModbitSource()
1157:Generated_Source\PSoC4/VDAC_Synth_UAB.c **** *
1158:Generated_Source\PSoC4/VDAC_Synth_UAB.c **** * @internal
1159:Generated_Source\PSoC4/VDAC_Synth_UAB.c **** * @reglist @reg VDAC_Synth_UAB_CAP_CTRL_REG
1160:Generated_Source\PSoC4/VDAC_Synth_UAB.c **** * @endinternal
1161:Generated_Source\PSoC4/VDAC_Synth_UAB.c **** * 
1162:Generated_Source\PSoC4/VDAC_Synth_UAB.c **** * @sideeffect None
1163:Generated_Source\PSoC4/VDAC_Synth_UAB.c **** *******************************************************************************/
1164:Generated_Source\PSoC4/VDAC_Synth_UAB.c **** void VDAC_Synth_UAB_SetDacMode(CyUAB_dac_mode_enum dacMode)
1165:Generated_Source\PSoC4/VDAC_Synth_UAB.c **** {
 1057              		.loc 1 1165 0
 1058              		.cfi_startproc
 1059              	.LVL64:
1166:Generated_Source\PSoC4/VDAC_Synth_UAB.c ****     VDAC_Synth_UAB_SET_FIELD(
 1060              		.loc 1 1166 0
 1061 0000 034A     		ldr	r2, .L95
 1062 0002 8007     		lsl	r0, r0, #30
 1063              	.LVL65:
 1064 0004 1368     		ldr	r3, [r2]
1167:Generated_Source\PSoC4/VDAC_Synth_UAB.c ****       VDAC_Synth_UAB_CAP_CTRL_PTR, 
1168:Generated_Source\PSoC4/VDAC_Synth_UAB.c ****       VDAC_Synth_UAB_DAC_MODE_MASK, 
1169:Generated_Source\PSoC4/VDAC_Synth_UAB.c ****       ((uint32)dacMode), 
1170:Generated_Source\PSoC4/VDAC_Synth_UAB.c ****       VDAC_Synth_UAB_DAC_MODE_SHIFT
1171:Generated_Source\PSoC4/VDAC_Synth_UAB.c ****     );    
1172:Generated_Source\PSoC4/VDAC_Synth_UAB.c **** }
ARM GAS  C:\Users\Jerry\AppData\Local\Temp\cc1IKG0O.s 			page 41


 1065              		.loc 1 1172 0
 1066              		@ sp needed
1166:Generated_Source\PSoC4/VDAC_Synth_UAB.c ****     VDAC_Synth_UAB_SET_FIELD(
 1067              		.loc 1 1166 0
 1068 0006 9B00     		lsl	r3, r3, #2
 1069 0008 9B08     		lsr	r3, r3, #2
 1070 000a 1843     		orr	r0, r3
 1071 000c 1060     		str	r0, [r2]
 1072              		.loc 1 1172 0
 1073 000e 7047     		bx	lr
 1074              	.L96:
 1075              		.align	2
 1076              	.L95:
 1077 0010 04033440 		.word	1077150468
 1078              		.cfi_endproc
 1079              	.LFE27:
 1080              		.size	VDAC_Synth_UAB_SetDacMode, .-VDAC_Synth_UAB_SetDacMode
 1081              		.section	.text.VDAC_Synth_UAB_SetDacNext,"ax",%progbits
 1082              		.align	1
 1083              		.global	VDAC_Synth_UAB_SetDacNext
 1084              		.code	16
 1085              		.thumb_func
 1086              		.type	VDAC_Synth_UAB_SetDacNext, %function
 1087              	VDAC_Synth_UAB_SetDacNext:
 1088              	.LFB28:
1173:Generated_Source\PSoC4/VDAC_Synth_UAB.c **** 
1174:Generated_Source\PSoC4/VDAC_Synth_UAB.c **** /*************** VDAC_Synth_UAB_SetDacNext() ********************************/
1175:Generated_Source\PSoC4/VDAC_Synth_UAB.c **** /*!
1176:Generated_Source\PSoC4/VDAC_Synth_UAB.c **** * @brief Set the next value to be converted by the DAC.
1177:Generated_Source\PSoC4/VDAC_Synth_UAB.c **** * 
1178:Generated_Source\PSoC4/VDAC_Synth_UAB.c **** * @details To make sure that the DAC loads its values at the right time, there
1179:Generated_Source\PSoC4/VDAC_Synth_UAB.c **** * is a register used as a digital buffer.  This function loads that buffer,
1180:Generated_Source\PSoC4/VDAC_Synth_UAB.c **** * which gets transferred to the capacitors during the next @c strobe signal.
1181:Generated_Source\PSoC4/VDAC_Synth_UAB.c **** * 
1182:Generated_Source\PSoC4/VDAC_Synth_UAB.c **** * @param nextDACVal buffered DAC value
1183:Generated_Source\PSoC4/VDAC_Synth_UAB.c **** *
1184:Generated_Source\PSoC4/VDAC_Synth_UAB.c **** * @see VDAC_Synth_UAB_SetDacModeEn()
1185:Generated_Source\PSoC4/VDAC_Synth_UAB.c **** * @see VDAC_Synth_UAB_SetDacMode()
1186:Generated_Source\PSoC4/VDAC_Synth_UAB.c **** * @see VDAC_Synth_UAB_SetModbitSource()
1187:Generated_Source\PSoC4/VDAC_Synth_UAB.c **** *
1188:Generated_Source\PSoC4/VDAC_Synth_UAB.c **** * @internal
1189:Generated_Source\PSoC4/VDAC_Synth_UAB.c **** * @reglist @reg VDAC_Synth_UAB_CAP_AB_VAL_NXT_REG.
1190:Generated_Source\PSoC4/VDAC_Synth_UAB.c **** * This function is @b NOT generalized.  It depends on the 'next' values all
1191:Generated_Source\PSoC4/VDAC_Synth_UAB.c **** * being contiguous within a single register.
1192:Generated_Source\PSoC4/VDAC_Synth_UAB.c **** * @endinternal
1193:Generated_Source\PSoC4/VDAC_Synth_UAB.c **** * 
1194:Generated_Source\PSoC4/VDAC_Synth_UAB.c **** * @sideeffect None
1195:Generated_Source\PSoC4/VDAC_Synth_UAB.c **** *******************************************************************************/
1196:Generated_Source\PSoC4/VDAC_Synth_UAB.c **** void VDAC_Synth_UAB_SetDacNext(int16 nextDACVal)
1197:Generated_Source\PSoC4/VDAC_Synth_UAB.c **** {
 1089              		.loc 1 1197 0
 1090              		.cfi_startproc
 1091              	.LVL66:
1198:Generated_Source\PSoC4/VDAC_Synth_UAB.c ****     /*Uses a custom mask because the operation writes over three bitfields. 
1199:Generated_Source\PSoC4/VDAC_Synth_UAB.c ****     The shift amount is the shift amount for the field that represents the LSBs*/
1200:Generated_Source\PSoC4/VDAC_Synth_UAB.c ****     
1201:Generated_Source\PSoC4/VDAC_Synth_UAB.c ****     uint32 val = ( ((uint32)nextDACVal) & ((uint32)VDAC_Synth_UAB_DAC_NEXT_MASK) );
ARM GAS  C:\Users\Jerry\AppData\Local\Temp\cc1IKG0O.s 			page 42


1202:Generated_Source\PSoC4/VDAC_Synth_UAB.c ****     VDAC_Synth_UAB_SET_FIELD(
 1092              		.loc 1 1202 0
 1093 0000 044A     		ldr	r2, .L98
1201:Generated_Source\PSoC4/VDAC_Synth_UAB.c ****     VDAC_Synth_UAB_SET_FIELD(
 1094              		.loc 1 1201 0
 1095 0002 C004     		lsl	r0, r0, #19
 1096              	.LVL67:
 1097              		.loc 1 1202 0
 1098 0004 1368     		ldr	r3, [r2]
 1099 0006 C00C     		lsr	r0, r0, #19
 1100 0008 5B0B     		lsr	r3, r3, #13
 1101 000a 5B03     		lsl	r3, r3, #13
 1102 000c 1843     		orr	r0, r3
 1103 000e 1060     		str	r0, [r2]
1203:Generated_Source\PSoC4/VDAC_Synth_UAB.c ****       VDAC_Synth_UAB_CAP_AB_VAL_NXT_PTR, 
1204:Generated_Source\PSoC4/VDAC_Synth_UAB.c ****       VDAC_Synth_UAB_DAC_NEXT_MASK, 
1205:Generated_Source\PSoC4/VDAC_Synth_UAB.c ****       val, 
1206:Generated_Source\PSoC4/VDAC_Synth_UAB.c ****       VDAC_Synth_UAB_CB_VAL_SHIFT
1207:Generated_Source\PSoC4/VDAC_Synth_UAB.c ****     );
1208:Generated_Source\PSoC4/VDAC_Synth_UAB.c **** }
 1104              		.loc 1 1208 0
 1105              		@ sp needed
 1106 0010 7047     		bx	lr
 1107              	.L99:
 1108 0012 C046     		.align	2
 1109              	.L98:
 1110 0014 0C033440 		.word	1077150476
 1111              		.cfi_endproc
 1112              	.LFE28:
 1113              		.size	VDAC_Synth_UAB_SetDacNext, .-VDAC_Synth_UAB_SetDacNext
 1114              		.section	.text.VDAC_Synth_UAB_SetCapCFNext,"ax",%progbits
 1115              		.align	1
 1116              		.global	VDAC_Synth_UAB_SetCapCFNext
 1117              		.code	16
 1118              		.thumb_func
 1119              		.type	VDAC_Synth_UAB_SetCapCFNext, %function
 1120              	VDAC_Synth_UAB_SetCapCFNext:
 1121              	.LFB29:
1209:Generated_Source\PSoC4/VDAC_Synth_UAB.c **** 
1210:Generated_Source\PSoC4/VDAC_Synth_UAB.c **** /*PGA*/
1211:Generated_Source\PSoC4/VDAC_Synth_UAB.c **** 
1212:Generated_Source\PSoC4/VDAC_Synth_UAB.c **** /************** VDAC_Synth_UAB_SetCapCFNext() *******************************/
1213:Generated_Source\PSoC4/VDAC_Synth_UAB.c **** /*!
1214:Generated_Source\PSoC4/VDAC_Synth_UAB.c **** * @brief Set the next value to be loaded into branch C and branch F capacitors.
1215:Generated_Source\PSoC4/VDAC_Synth_UAB.c **** * 
1216:Generated_Source\PSoC4/VDAC_Synth_UAB.c **** * @details To make sure that the C/F cap arrays are double-buffered, there
1217:Generated_Source\PSoC4/VDAC_Synth_UAB.c **** * is a register used as a digital buffer.  This function loads that buffer,
1218:Generated_Source\PSoC4/VDAC_Synth_UAB.c **** * which gets transferred to the capacitors during the next @c strobe signal.
1219:Generated_Source\PSoC4/VDAC_Synth_UAB.c **** * 
1220:Generated_Source\PSoC4/VDAC_Synth_UAB.c **** * @param nextCapC buffered C capacitance
1221:Generated_Source\PSoC4/VDAC_Synth_UAB.c **** * @param nextCapF buffered F capacitance
1222:Generated_Source\PSoC4/VDAC_Synth_UAB.c **** *
1223:Generated_Source\PSoC4/VDAC_Synth_UAB.c **** * @internal
1224:Generated_Source\PSoC4/VDAC_Synth_UAB.c **** * @reglist @reg VDAC_Synth_UAB_CAP_CF_VAL_NXT_REG.
1225:Generated_Source\PSoC4/VDAC_Synth_UAB.c **** * This function is @b NOT generalized.  It depends on the 'next' values all
1226:Generated_Source\PSoC4/VDAC_Synth_UAB.c **** * being contiguous within a single register.
1227:Generated_Source\PSoC4/VDAC_Synth_UAB.c **** * @endinternal
ARM GAS  C:\Users\Jerry\AppData\Local\Temp\cc1IKG0O.s 			page 43


1228:Generated_Source\PSoC4/VDAC_Synth_UAB.c **** * 
1229:Generated_Source\PSoC4/VDAC_Synth_UAB.c **** * @sideeffect None
1230:Generated_Source\PSoC4/VDAC_Synth_UAB.c **** *******************************************************************************/
1231:Generated_Source\PSoC4/VDAC_Synth_UAB.c **** void VDAC_Synth_UAB_SetCapCFNext(CyUAB_cap_enum nextCapC,CyUAB_f_cap_enum nextCapF)
1232:Generated_Source\PSoC4/VDAC_Synth_UAB.c **** {
 1122              		.loc 1 1232 0
 1123              		.cfi_startproc
 1124              	.LVL68:
 1125 0000 10B5     		push	{r4, lr}
 1126              		.cfi_def_cfa_offset 8
 1127              		.cfi_offset 4, -8
 1128              		.cfi_offset 14, -4
1233:Generated_Source\PSoC4/VDAC_Synth_UAB.c ****     const uint32 CF_VAL_PRESHIFT_MASK = ((uint32)(VDAC_Synth_UAB_CF_VAL_MASK>>VDAC_Synth_UAB_CF_VAL
1234:Generated_Source\PSoC4/VDAC_Synth_UAB.c ****     const uint32 CC_VAL_PRESHIFT_MASK = ((uint32)(VDAC_Synth_UAB_CC_VAL_MASK>>VDAC_Synth_UAB_CC_VAL
1235:Generated_Source\PSoC4/VDAC_Synth_UAB.c ****     const uint32 mask = ((uint32)VDAC_Synth_UAB_CF_VAL_UPDATE_MASK) | ((uint32)VDAC_Synth_UAB_CC_VA
1236:Generated_Source\PSoC4/VDAC_Synth_UAB.c ****       ((uint32)VDAC_Synth_UAB_CF_VAL_MASK) | ((uint32)VDAC_Synth_UAB_CC_VAL_MASK);
1237:Generated_Source\PSoC4/VDAC_Synth_UAB.c ****     
1238:Generated_Source\PSoC4/VDAC_Synth_UAB.c ****     /* Also setting CF_VAL_UPDATE and CC_VAL_UPDATE bits */
1239:Generated_Source\PSoC4/VDAC_Synth_UAB.c ****     VDAC_Synth_UAB_SET_VARIOUS_FIELDS(
 1129              		.loc 1 1239 0
 1130 0002 084C     		ldr	r4, .L101
 1131 0004 084B     		ldr	r3, .L101+4
 1132 0006 2268     		ldr	r2, [r4]
1240:Generated_Source\PSoC4/VDAC_Synth_UAB.c ****       VDAC_Synth_UAB_CAP_CF_VAL_NXT_PTR,
1241:Generated_Source\PSoC4/VDAC_Synth_UAB.c ****       mask,
1242:Generated_Source\PSoC4/VDAC_Synth_UAB.c ****       ((uint32)VDAC_Synth_UAB_CF_VAL_UPDATE_MASK) | ((uint32)VDAC_Synth_UAB_CC_VAL_UPDATE_MASK) |
1243:Generated_Source\PSoC4/VDAC_Synth_UAB.c ****         ( ( ((uint32)nextCapF) & CF_VAL_PRESHIFT_MASK)<<VDAC_Synth_UAB_CF_VAL_SHIFT ) |
1244:Generated_Source\PSoC4/VDAC_Synth_UAB.c ****         ( ( ((uint32)nextCapC) & CC_VAL_PRESHIFT_MASK)<<VDAC_Synth_UAB_CC_VAL_SHIFT ) 
1245:Generated_Source\PSoC4/VDAC_Synth_UAB.c **** 	);
1246:Generated_Source\PSoC4/VDAC_Synth_UAB.c **** }
 1133              		.loc 1 1246 0
 1134              		@ sp needed
1239:Generated_Source\PSoC4/VDAC_Synth_UAB.c ****       VDAC_Synth_UAB_CAP_CF_VAL_NXT_PTR,
 1135              		.loc 1 1239 0
 1136 0008 1A40     		and	r2, r3
 1137 000a C023     		mov	r3, #192
 1138 000c 1B06     		lsl	r3, r3, #24
 1139 000e 1A43     		orr	r2, r3
 1140 0010 1F23     		mov	r3, #31
 1141 0012 1940     		and	r1, r3
 1142              	.LVL69:
 1143 0014 2033     		add	r3, r3, #32
 1144 0016 1840     		and	r0, r3
 1145              	.LVL70:
 1146 0018 0004     		lsl	r0, r0, #16
 1147 001a 0906     		lsl	r1, r1, #24
 1148 001c 0143     		orr	r1, r0
 1149 001e 1143     		orr	r1, r2
 1150 0020 2160     		str	r1, [r4]
 1151              		.loc 1 1246 0
 1152 0022 10BD     		pop	{r4, pc}
 1153              	.L102:
 1154              		.align	2
 1155              	.L101:
 1156 0024 10033440 		.word	1077150480
 1157 0028 FFFFC020 		.word	549519359
 1158              		.cfi_endproc
ARM GAS  C:\Users\Jerry\AppData\Local\Temp\cc1IKG0O.s 			page 44


 1159              	.LFE29:
 1160              		.size	VDAC_Synth_UAB_SetCapCFNext, .-VDAC_Synth_UAB_SetCapCFNext
 1161              		.section	.text.VDAC_Synth_UAB_SetCompEdgeDetect,"ax",%progbits
 1162              		.align	1
 1163              		.global	VDAC_Synth_UAB_SetCompEdgeDetect
 1164              		.code	16
 1165              		.thumb_func
 1166              		.type	VDAC_Synth_UAB_SetCompEdgeDetect, %function
 1167              	VDAC_Synth_UAB_SetCompEdgeDetect:
 1168              	.LFB30:
1247:Generated_Source\PSoC4/VDAC_Synth_UAB.c **** 
1248:Generated_Source\PSoC4/VDAC_Synth_UAB.c **** 
1249:Generated_Source\PSoC4/VDAC_Synth_UAB.c **** /* Comparator */
1250:Generated_Source\PSoC4/VDAC_Synth_UAB.c **** 
1251:Generated_Source\PSoC4/VDAC_Synth_UAB.c **** /*************** VDAC_Synth_UAB_SetCompEdgeDetect() *************************/
1252:Generated_Source\PSoC4/VDAC_Synth_UAB.c **** /*!
1253:Generated_Source\PSoC4/VDAC_Synth_UAB.c **** * @brief Set what level of comparator activity to use to generate interrupt and
1254:Generated_Source\PSoC4/VDAC_Synth_UAB.c **** * trigger-output.
1255:Generated_Source\PSoC4/VDAC_Synth_UAB.c **** * 
1256:Generated_Source\PSoC4/VDAC_Synth_UAB.c **** * @details The comparator can be used as the source for an interrupt and/or a 
1257:Generated_Source\PSoC4/VDAC_Synth_UAB.c **** * trigger-output.  This function configures whether an interrupt is triggered, 
1258:Generated_Source\PSoC4/VDAC_Synth_UAB.c **** * and if so, whether to trigger on the comparator's rising edge, falling edge, 
1259:Generated_Source\PSoC4/VDAC_Synth_UAB.c **** * or both.  Returns @c void.
1260:Generated_Source\PSoC4/VDAC_Synth_UAB.c **** * 
1261:Generated_Source\PSoC4/VDAC_Synth_UAB.c **** * @param detectMode interrupt and trigger output comparator edge selection
1262:Generated_Source\PSoC4/VDAC_Synth_UAB.c **** *
1263:Generated_Source\PSoC4/VDAC_Synth_UAB.c **** * @internal
1264:Generated_Source\PSoC4/VDAC_Synth_UAB.c **** * @reglist @reg VDAC_Synth_UAB_OA0_CTRL_REG VDAC_Synth_UAB_OA1_CTRL_REG
1265:Generated_Source\PSoC4/VDAC_Synth_UAB.c **** * @endinternal
1266:Generated_Source\PSoC4/VDAC_Synth_UAB.c **** * 
1267:Generated_Source\PSoC4/VDAC_Synth_UAB.c **** * 
1268:Generated_Source\PSoC4/VDAC_Synth_UAB.c **** * @see VDAC_Synth_UAB_SetCompOutLevel()
1269:Generated_Source\PSoC4/VDAC_Synth_UAB.c **** * @see VDAC_Synth_UAB_GetCompStatus()
1270:Generated_Source\PSoC4/VDAC_Synth_UAB.c **** * 
1271:Generated_Source\PSoC4/VDAC_Synth_UAB.c **** * @sideeffect None
1272:Generated_Source\PSoC4/VDAC_Synth_UAB.c **** *******************************************************************************/
1273:Generated_Source\PSoC4/VDAC_Synth_UAB.c **** void VDAC_Synth_UAB_SetCompEdgeDetect(CyUAB_cmp_edge_enum detectMode)
1274:Generated_Source\PSoC4/VDAC_Synth_UAB.c **** {
 1169              		.loc 1 1274 0
 1170              		.cfi_startproc
 1171              	.LVL71:
 1172 0000 021C     		mov	r2, r0
1275:Generated_Source\PSoC4/VDAC_Synth_UAB.c ****     VDAC_Synth_UAB_SET_FIELD(
 1173              		.loc 1 1275 0
 1174 0002 C021     		mov	r1, #192
1274:Generated_Source\PSoC4/VDAC_Synth_UAB.c ****     VDAC_Synth_UAB_SET_FIELD(
 1175              		.loc 1 1274 0
 1176 0004 10B5     		push	{r4, lr}
 1177              		.cfi_def_cfa_offset 8
 1178              		.cfi_offset 4, -8
 1179              		.cfi_offset 14, -4
 1180              		.loc 1 1275 0
 1181 0006 054C     		ldr	r4, .L104
 1182 0008 054B     		ldr	r3, .L104+4
 1183 000a 2068     		ldr	r0, [r4]
 1184              	.LVL72:
 1185 000c 8901     		lsl	r1, r1, #6
ARM GAS  C:\Users\Jerry\AppData\Local\Temp\cc1IKG0O.s 			page 45


 1186 000e 1203     		lsl	r2, r2, #12
 1187 0010 0A40     		and	r2, r1
 1188 0012 0340     		and	r3, r0
 1189 0014 1A43     		orr	r2, r3
 1190 0016 2260     		str	r2, [r4]
1276:Generated_Source\PSoC4/VDAC_Synth_UAB.c ****       VDAC_Synth_UAB_OA_CTRL_PTR, 
1277:Generated_Source\PSoC4/VDAC_Synth_UAB.c ****       VDAC_Synth_UAB_CMP_EDGE_MASK, 
1278:Generated_Source\PSoC4/VDAC_Synth_UAB.c ****       ((uint32)detectMode), 
1279:Generated_Source\PSoC4/VDAC_Synth_UAB.c ****       VDAC_Synth_UAB_CMP_EDGE_SHIFT
1280:Generated_Source\PSoC4/VDAC_Synth_UAB.c ****     );
1281:Generated_Source\PSoC4/VDAC_Synth_UAB.c **** }
 1191              		.loc 1 1281 0
 1192              		@ sp needed
 1193 0018 10BD     		pop	{r4, pc}
 1194              	.L105:
 1195 001a C046     		.align	2
 1196              	.L104:
 1197 001c 00033440 		.word	1077150464
 1198 0020 FFCFFFFF 		.word	-12289
 1199              		.cfi_endproc
 1200              	.LFE30:
 1201              		.size	VDAC_Synth_UAB_SetCompEdgeDetect, .-VDAC_Synth_UAB_SetCompEdgeDetect
 1202              		.section	.text.VDAC_Synth_UAB_SetCompOutLevel,"ax",%progbits
 1203              		.align	1
 1204              		.global	VDAC_Synth_UAB_SetCompOutLevel
 1205              		.code	16
 1206              		.thumb_func
 1207              		.type	VDAC_Synth_UAB_SetCompOutLevel, %function
 1208              	VDAC_Synth_UAB_SetCompOutLevel:
 1209              	.LFB31:
1282:Generated_Source\PSoC4/VDAC_Synth_UAB.c **** 
1283:Generated_Source\PSoC4/VDAC_Synth_UAB.c **** /************ VDAC_Synth_UAB_SetCompOutLevel ********************************/
1284:Generated_Source\PSoC4/VDAC_Synth_UAB.c **** /*!
1285:Generated_Source\PSoC4/VDAC_Synth_UAB.c **** * @brief Sets the comparator output trigger level.
1286:Generated_Source\PSoC4/VDAC_Synth_UAB.c **** * 
1287:Generated_Source\PSoC4/VDAC_Synth_UAB.c **** * @details
1288:Generated_Source\PSoC4/VDAC_Synth_UAB.c **** * 
1289:Generated_Source\PSoC4/VDAC_Synth_UAB.c **** * @internal
1290:Generated_Source\PSoC4/VDAC_Synth_UAB.c **** * @reglist @reg VDAC_Synth_UAB_OA0_CTRL_REG
1291:Generated_Source\PSoC4/VDAC_Synth_UAB.c **** * @endinternal
1292:Generated_Source\PSoC4/VDAC_Synth_UAB.c **** * 
1293:Generated_Source\PSoC4/VDAC_Synth_UAB.c **** * @param isLevel
1294:Generated_Source\PSoC4/VDAC_Synth_UAB.c **** *   @arg @c 0 - Output trigger will be a pulse.
1295:Generated_Source\PSoC4/VDAC_Synth_UAB.c **** *   @arg @c 1 - Output trigger will be level.
1296:Generated_Source\PSoC4/VDAC_Synth_UAB.c **** *
1297:Generated_Source\PSoC4/VDAC_Synth_UAB.c **** * @see VDAC_Synth_UAB_SetCompEdgeDetect()
1298:Generated_Source\PSoC4/VDAC_Synth_UAB.c **** * 
1299:Generated_Source\PSoC4/VDAC_Synth_UAB.c **** * @see VDAC_Synth_UAB_GetCompStatus()
1300:Generated_Source\PSoC4/VDAC_Synth_UAB.c **** * 
1301:Generated_Source\PSoC4/VDAC_Synth_UAB.c **** * @sideeffect None
1302:Generated_Source\PSoC4/VDAC_Synth_UAB.c **** *******************************************************************************/
1303:Generated_Source\PSoC4/VDAC_Synth_UAB.c **** void VDAC_Synth_UAB_SetCompOutLevel(CyUAB_cmp_level_enum isLevel)
1304:Generated_Source\PSoC4/VDAC_Synth_UAB.c **** {
 1210              		.loc 1 1304 0
 1211              		.cfi_startproc
 1212              	.LVL73:
 1213 0000 021C     		mov	r2, r0
ARM GAS  C:\Users\Jerry\AppData\Local\Temp\cc1IKG0O.s 			page 46


1305:Generated_Source\PSoC4/VDAC_Synth_UAB.c ****     VDAC_Synth_UAB_SET_FIELD(
 1214              		.loc 1 1305 0
 1215 0002 8021     		mov	r1, #128
1304:Generated_Source\PSoC4/VDAC_Synth_UAB.c ****     VDAC_Synth_UAB_SET_FIELD(
 1216              		.loc 1 1304 0
 1217 0004 10B5     		push	{r4, lr}
 1218              		.cfi_def_cfa_offset 8
 1219              		.cfi_offset 4, -8
 1220              		.cfi_offset 14, -4
 1221              		.loc 1 1305 0
 1222 0006 054C     		ldr	r4, .L107
 1223 0008 054B     		ldr	r3, .L107+4
 1224 000a 2068     		ldr	r0, [r4]
 1225              	.LVL74:
 1226 000c C901     		lsl	r1, r1, #7
 1227 000e 9203     		lsl	r2, r2, #14
 1228 0010 0A40     		and	r2, r1
 1229 0012 0340     		and	r3, r0
 1230 0014 1A43     		orr	r2, r3
 1231 0016 2260     		str	r2, [r4]
1306:Generated_Source\PSoC4/VDAC_Synth_UAB.c ****       VDAC_Synth_UAB_OA_CTRL_PTR, 
1307:Generated_Source\PSoC4/VDAC_Synth_UAB.c ****       VDAC_Synth_UAB_CMP_DSI_LEVEL_MASK, 
1308:Generated_Source\PSoC4/VDAC_Synth_UAB.c ****       ((uint32)isLevel), 
1309:Generated_Source\PSoC4/VDAC_Synth_UAB.c ****       VDAC_Synth_UAB_CMP_DSI_LEVEL_SHIFT
1310:Generated_Source\PSoC4/VDAC_Synth_UAB.c ****     );
1311:Generated_Source\PSoC4/VDAC_Synth_UAB.c **** }
 1232              		.loc 1 1311 0
 1233              		@ sp needed
 1234 0018 10BD     		pop	{r4, pc}
 1235              	.L108:
 1236 001a C046     		.align	2
 1237              	.L107:
 1238 001c 00033440 		.word	1077150464
 1239 0020 FFBFFFFF 		.word	-16385
 1240              		.cfi_endproc
 1241              	.LFE31:
 1242              		.size	VDAC_Synth_UAB_SetCompOutLevel, .-VDAC_Synth_UAB_SetCompOutLevel
 1243              		.section	.text.VDAC_Synth_UAB_GetCompStatus,"ax",%progbits
 1244              		.align	1
 1245              		.global	VDAC_Synth_UAB_GetCompStatus
 1246              		.code	16
 1247              		.thumb_func
 1248              		.type	VDAC_Synth_UAB_GetCompStatus, %function
 1249              	VDAC_Synth_UAB_GetCompStatus:
 1250              	.LFB32:
1312:Generated_Source\PSoC4/VDAC_Synth_UAB.c **** 
1313:Generated_Source\PSoC4/VDAC_Synth_UAB.c **** 
1314:Generated_Source\PSoC4/VDAC_Synth_UAB.c **** /************  VDAC_Synth_UAB_GetCompStatus() *******************************/
1315:Generated_Source\PSoC4/VDAC_Synth_UAB.c **** /*!
1316:Generated_Source\PSoC4/VDAC_Synth_UAB.c **** * @brief Get the output status of the Comparator.
1317:Generated_Source\PSoC4/VDAC_Synth_UAB.c **** * 
1318:Generated_Source\PSoC4/VDAC_Synth_UAB.c **** * @details Show the current comparator status output. Return type is @c uint8 an 
1319:Generated_Source\PSoC4/VDAC_Synth_UAB.c **** * unsigned 8-bit integer. It returns 1 if the current comp output is HIGH, and 
1320:Generated_Source\PSoC4/VDAC_Synth_UAB.c **** * returns 0 if current comp output is LOW
1321:Generated_Source\PSoC4/VDAC_Synth_UAB.c **** * 
1322:Generated_Source\PSoC4/VDAC_Synth_UAB.c **** * @internal
1323:Generated_Source\PSoC4/VDAC_Synth_UAB.c **** * @reglist @reg STAT0 STAT1
ARM GAS  C:\Users\Jerry\AppData\Local\Temp\cc1IKG0O.s 			page 47


1324:Generated_Source\PSoC4/VDAC_Synth_UAB.c **** * @endinternal
1325:Generated_Source\PSoC4/VDAC_Synth_UAB.c **** * 
1326:Generated_Source\PSoC4/VDAC_Synth_UAB.c **** * @see VDAC_Synth_UAB_SetCompEdgeDetect()
1327:Generated_Source\PSoC4/VDAC_Synth_UAB.c **** * @see VDAC_Synth_UAB_SetCompOutLevel()
1328:Generated_Source\PSoC4/VDAC_Synth_UAB.c **** * 
1329:Generated_Source\PSoC4/VDAC_Synth_UAB.c **** * 
1330:Generated_Source\PSoC4/VDAC_Synth_UAB.c **** * @sideeffect None
1331:Generated_Source\PSoC4/VDAC_Synth_UAB.c **** *******************************************************************************/
1332:Generated_Source\PSoC4/VDAC_Synth_UAB.c **** uint32 VDAC_Synth_UAB_GetCompStatus(void)
1333:Generated_Source\PSoC4/VDAC_Synth_UAB.c **** {
 1251              		.loc 1 1333 0
 1252              		.cfi_startproc
1334:Generated_Source\PSoC4/VDAC_Synth_UAB.c ****     /*GET_FIELD() has an addional shift*/
1335:Generated_Source\PSoC4/VDAC_Synth_UAB.c ****     uint32 r = (0UL != ((*(VDAC_Synth_UAB_STAT_PTR)) & VDAC_Synth_UAB_COMP_MASK)) ? 1UL : 0UL;
 1253              		.loc 1 1335 0
 1254 0000 024B     		ldr	r3, .L110
1336:Generated_Source\PSoC4/VDAC_Synth_UAB.c ****     return r;    
1337:Generated_Source\PSoC4/VDAC_Synth_UAB.c **** }
 1255              		.loc 1 1337 0
 1256              		@ sp needed
1335:Generated_Source\PSoC4/VDAC_Synth_UAB.c ****     return r;    
 1257              		.loc 1 1335 0
 1258 0002 1868     		ldr	r0, [r3]
 1259              	.LVL75:
 1260 0004 C006     		lsl	r0, r0, #27
 1261              	.LVL76:
 1262 0006 C00F     		lsr	r0, r0, #31
 1263              		.loc 1 1337 0
 1264 0008 7047     		bx	lr
 1265              	.L111:
 1266 000a C046     		.align	2
 1267              	.L110:
 1268 000c 7C033440 		.word	1077150588
 1269              		.cfi_endproc
 1270              	.LFE32:
 1271              		.size	VDAC_Synth_UAB_GetCompStatus, .-VDAC_Synth_UAB_GetCompStatus
 1272              		.section	.text.VDAC_Synth_UAB_SetEarly,"ax",%progbits
 1273              		.align	1
 1274              		.global	VDAC_Synth_UAB_SetEarly
 1275              		.code	16
 1276              		.thumb_func
 1277              		.type	VDAC_Synth_UAB_SetEarly, %function
 1278              	VDAC_Synth_UAB_SetEarly:
 1279              	.LFB33:
1338:Generated_Source\PSoC4/VDAC_Synth_UAB.c **** 
1339:Generated_Source\PSoC4/VDAC_Synth_UAB.c **** 
1340:Generated_Source\PSoC4/VDAC_Synth_UAB.c **** /* Switches */
1341:Generated_Source\PSoC4/VDAC_Synth_UAB.c **** 
1342:Generated_Source\PSoC4/VDAC_Synth_UAB.c **** 
1343:Generated_Source\PSoC4/VDAC_Synth_UAB.c **** /************** VDAC_Synth_UAB_SetEarly() ***********************************/
1344:Generated_Source\PSoC4/VDAC_Synth_UAB.c **** /*!
1345:Generated_Source\PSoC4/VDAC_Synth_UAB.c **** * @brief Set early clock timing for specific switches
1346:Generated_Source\PSoC4/VDAC_Synth_UAB.c **** * 
1347:Generated_Source\PSoC4/VDAC_Synth_UAB.c **** * @details Applies to PS (OUT<->SUM) and PO (VOUT->OUT) switches only.
1348:Generated_Source\PSoC4/VDAC_Synth_UAB.c **** *
1349:Generated_Source\PSoC4/VDAC_Synth_UAB.c **** * @param sw_id CyUAB_SW_PS or CyUAB_SW_PO - ignores all other values of id
1350:Generated_Source\PSoC4/VDAC_Synth_UAB.c **** * @param isEarly 
ARM GAS  C:\Users\Jerry\AppData\Local\Temp\cc1IKG0O.s 			page 48


1351:Generated_Source\PSoC4/VDAC_Synth_UAB.c **** * @arg CyUAB_CLK_ADJ_NOEARLY normal timing
1352:Generated_Source\PSoC4/VDAC_Synth_UAB.c **** * @arg CyUAB_CLK_ADJ_EARLY   early timing
1353:Generated_Source\PSoC4/VDAC_Synth_UAB.c **** *
1354:Generated_Source\PSoC4/VDAC_Synth_UAB.c **** * @internal
1355:Generated_Source\PSoC4/VDAC_Synth_UAB.c **** * @reglist @reg VDAC_Synth_UAB_SW_STATIC0_REG or VDAC_Synth_UAB_SW_STATIC1_REG
1356:Generated_Source\PSoC4/VDAC_Synth_UAB.c **** * @image html _.png 
1357:Generated_Source\PSoC4/VDAC_Synth_UAB.c **** * @endinternal
1358:Generated_Source\PSoC4/VDAC_Synth_UAB.c **** * 
1359:Generated_Source\PSoC4/VDAC_Synth_UAB.c **** * @sideeffect None
1360:Generated_Source\PSoC4/VDAC_Synth_UAB.c **** *******************************************************************************/
1361:Generated_Source\PSoC4/VDAC_Synth_UAB.c **** void VDAC_Synth_UAB_SetEarly(CyUAB_sw_id_enum sw_id, CyUAB_clk_adj_enum isEarly)
1362:Generated_Source\PSoC4/VDAC_Synth_UAB.c **** {
 1280              		.loc 1 1362 0
 1281              		.cfi_startproc
 1282              	.LVL77:
1363:Generated_Source\PSoC4/VDAC_Synth_UAB.c ****     if( CyUAB_SW_PS==sw_id )
 1283              		.loc 1 1363 0
 1284 0000 0C4B     		ldr	r3, .L116
1362:Generated_Source\PSoC4/VDAC_Synth_UAB.c ****     if( CyUAB_SW_PS==sw_id )
 1285              		.loc 1 1362 0
 1286 0002 10B5     		push	{r4, lr}
 1287              		.cfi_def_cfa_offset 8
 1288              		.cfi_offset 4, -8
 1289              		.cfi_offset 14, -4
 1290              		.loc 1 1363 0
 1291 0004 9842     		cmp	r0, r3
 1292 0006 07D1     		bne	.L113
1364:Generated_Source\PSoC4/VDAC_Synth_UAB.c ****     {
1365:Generated_Source\PSoC4/VDAC_Synth_UAB.c ****         VDAC_Synth_UAB_SET_FIELD(
 1293              		.loc 1 1365 0
 1294 0008 8022     		mov	r2, #128
 1295 000a 0B48     		ldr	r0, .L116+4
 1296              	.LVL78:
 1297 000c 0903     		lsl	r1, r1, #12
 1298              	.LVL79:
 1299 000e 5201     		lsl	r2, r2, #5
 1300 0010 0468     		ldr	r4, [r0]
 1301 0012 1140     		and	r1, r2
 1302 0014 094B     		ldr	r3, .L116+8
 1303 0016 09E0     		b	.L115
 1304              	.LVL80:
 1305              	.L113:
1366:Generated_Source\PSoC4/VDAC_Synth_UAB.c ****           VDAC_Synth_UAB_SW_STATIC_PTR, 
1367:Generated_Source\PSoC4/VDAC_Synth_UAB.c ****           VDAC_Synth_UAB_EARLY_PS_MASK, 
1368:Generated_Source\PSoC4/VDAC_Synth_UAB.c ****           ((uint32)isEarly), 
1369:Generated_Source\PSoC4/VDAC_Synth_UAB.c ****           VDAC_Synth_UAB_EARLY_PS_SHIFT
1370:Generated_Source\PSoC4/VDAC_Synth_UAB.c ****         ); 
1371:Generated_Source\PSoC4/VDAC_Synth_UAB.c ****     }
1372:Generated_Source\PSoC4/VDAC_Synth_UAB.c ****     else if( CyUAB_SW_PO==sw_id )
 1306              		.loc 1 1372 0
 1307 0018 094B     		ldr	r3, .L116+12
 1308 001a 9842     		cmp	r0, r3
 1309 001c 09D1     		bne	.L112
1373:Generated_Source\PSoC4/VDAC_Synth_UAB.c ****     {
1374:Generated_Source\PSoC4/VDAC_Synth_UAB.c ****         VDAC_Synth_UAB_SET_FIELD(
 1310              		.loc 1 1374 0
 1311 001e 8022     		mov	r2, #128
ARM GAS  C:\Users\Jerry\AppData\Local\Temp\cc1IKG0O.s 			page 49


 1312 0020 0548     		ldr	r0, .L116+4
 1313              	.LVL81:
 1314 0022 4903     		lsl	r1, r1, #13
 1315              	.LVL82:
 1316 0024 9201     		lsl	r2, r2, #6
 1317 0026 0468     		ldr	r4, [r0]
 1318 0028 064B     		ldr	r3, .L116+16
 1319 002a 1140     		and	r1, r2
 1320              	.L115:
 1321 002c 2340     		and	r3, r4
 1322 002e 1943     		orr	r1, r3
 1323 0030 0160     		str	r1, [r0]
 1324              	.L112:
1375:Generated_Source\PSoC4/VDAC_Synth_UAB.c ****           VDAC_Synth_UAB_SW_STATIC_PTR, 
1376:Generated_Source\PSoC4/VDAC_Synth_UAB.c ****           VDAC_Synth_UAB_EARLY_PO_MASK, 
1377:Generated_Source\PSoC4/VDAC_Synth_UAB.c ****           ((uint32)isEarly), 
1378:Generated_Source\PSoC4/VDAC_Synth_UAB.c ****           VDAC_Synth_UAB_EARLY_PO_SHIFT
1379:Generated_Source\PSoC4/VDAC_Synth_UAB.c ****         );
1380:Generated_Source\PSoC4/VDAC_Synth_UAB.c ****     }
1381:Generated_Source\PSoC4/VDAC_Synth_UAB.c ****     else
1382:Generated_Source\PSoC4/VDAC_Synth_UAB.c ****     {
1383:Generated_Source\PSoC4/VDAC_Synth_UAB.c ****         /* do nothing - only 2 switches have early option */   
1384:Generated_Source\PSoC4/VDAC_Synth_UAB.c ****     }
1385:Generated_Source\PSoC4/VDAC_Synth_UAB.c **** }
 1325              		.loc 1 1385 0
 1326              		@ sp needed
 1327 0032 10BD     		pop	{r4, pc}
 1328              	.L117:
 1329              		.align	2
 1330              	.L116:
 1331 0034 6C000800 		.word	524396
 1332 0038 30033440 		.word	1077150512
 1333 003c FFEFFFFF 		.word	-4097
 1334 0040 6C000C00 		.word	786540
 1335 0044 FFDFFFFF 		.word	-8193
 1336              		.cfi_endproc
 1337              	.LFE33:
 1338              		.size	VDAC_Synth_UAB_SetEarly, .-VDAC_Synth_UAB_SetEarly
 1339              		.section	.text.VDAC_Synth_UAB_Run,"ax",%progbits
 1340              		.align	1
 1341              		.global	VDAC_Synth_UAB_Run
 1342              		.code	16
 1343              		.thumb_func
 1344              		.type	VDAC_Synth_UAB_Run, %function
 1345              	VDAC_Synth_UAB_Run:
 1346              	.LFB34:
1386:Generated_Source\PSoC4/VDAC_Synth_UAB.c **** 
1387:Generated_Source\PSoC4/VDAC_Synth_UAB.c **** 
1388:Generated_Source\PSoC4/VDAC_Synth_UAB.c **** 
1389:Generated_Source\PSoC4/VDAC_Synth_UAB.c **** /* Clocking */
1390:Generated_Source\PSoC4/VDAC_Synth_UAB.c **** 
1391:Generated_Source\PSoC4/VDAC_Synth_UAB.c **** 
1392:Generated_Source\PSoC4/VDAC_Synth_UAB.c **** 
1393:Generated_Source\PSoC4/VDAC_Synth_UAB.c **** 
1394:Generated_Source\PSoC4/VDAC_Synth_UAB.c **** /************** VDAC_Synth_UAB_Run() ****************************************/
1395:Generated_Source\PSoC4/VDAC_Synth_UAB.c **** /*!
1396:Generated_Source\PSoC4/VDAC_Synth_UAB.c **** * @brief UAB clock enabling
ARM GAS  C:\Users\Jerry\AppData\Local\Temp\cc1IKG0O.s 			page 50


1397:Generated_Source\PSoC4/VDAC_Synth_UAB.c **** * 
1398:Generated_Source\PSoC4/VDAC_Synth_UAB.c **** * @details sets and clears RUN bit
1399:Generated_Source\PSoC4/VDAC_Synth_UAB.c **** * The UAB clocks are not enabled by default.  Once they are enabled,
1400:Generated_Source\PSoC4/VDAC_Synth_UAB.c **** * they will either wait for a trigger (see VDAC_Synth_UAB_SetInputTrigger()),
1401:Generated_Source\PSoC4/VDAC_Synth_UAB.c **** * or start immediately.
1402:Generated_Source\PSoC4/VDAC_Synth_UAB.c **** *
1403:Generated_Source\PSoC4/VDAC_Synth_UAB.c **** * Can call this immediately after calling Enable() (setting ENABLED bit) - 
1404:Generated_Source\PSoC4/VDAC_Synth_UAB.c **** * no delay required - run bit control logic handles UAB ramp up
1405:Generated_Source\PSoC4/VDAC_Synth_UAB.c **** *
1406:Generated_Source\PSoC4/VDAC_Synth_UAB.c **** * @param flag
1407:Generated_Source\PSoC4/VDAC_Synth_UAB.c **** * @arg 0 clear run bit
1408:Generated_Source\PSoC4/VDAC_Synth_UAB.c **** * @arg 1 set run bit
1409:Generated_Source\PSoC4/VDAC_Synth_UAB.c **** *
1410:Generated_Source\PSoC4/VDAC_Synth_UAB.c **** * @internal
1411:Generated_Source\PSoC4/VDAC_Synth_UAB.c **** * @reglist @reg SRAM0_CTRL @reg SRAM1_CTRL
1412:Generated_Source\PSoC4/VDAC_Synth_UAB.c **** * @image html _.png 
1413:Generated_Source\PSoC4/VDAC_Synth_UAB.c **** * @endinternal
1414:Generated_Source\PSoC4/VDAC_Synth_UAB.c **** * 
1415:Generated_Source\PSoC4/VDAC_Synth_UAB.c **** * @sideeffect None
1416:Generated_Source\PSoC4/VDAC_Synth_UAB.c **** *******************************************************************************/
1417:Generated_Source\PSoC4/VDAC_Synth_UAB.c **** void VDAC_Synth_UAB_Run(uint32 flag)
1418:Generated_Source\PSoC4/VDAC_Synth_UAB.c **** {
 1347              		.loc 1 1418 0
 1348              		.cfi_startproc
 1349              	.LVL83:
1419:Generated_Source\PSoC4/VDAC_Synth_UAB.c ****     VDAC_Synth_UAB_SET_FIELD(
 1350              		.loc 1 1419 0
 1351 0000 034A     		ldr	r2, .L119
 1352 0002 C007     		lsl	r0, r0, #31
 1353              	.LVL84:
 1354 0004 1368     		ldr	r3, [r2]
1420:Generated_Source\PSoC4/VDAC_Synth_UAB.c ****       VDAC_Synth_UAB_SRAM_CTRL_PTR,
1421:Generated_Source\PSoC4/VDAC_Synth_UAB.c ****       VDAC_Synth_UAB_RUN_MASK, 
1422:Generated_Source\PSoC4/VDAC_Synth_UAB.c ****       flag, 
1423:Generated_Source\PSoC4/VDAC_Synth_UAB.c ****       VDAC_Synth_UAB_RUN_SHIFT
1424:Generated_Source\PSoC4/VDAC_Synth_UAB.c ****     );    
1425:Generated_Source\PSoC4/VDAC_Synth_UAB.c **** }
 1355              		.loc 1 1425 0
 1356              		@ sp needed
1419:Generated_Source\PSoC4/VDAC_Synth_UAB.c ****     VDAC_Synth_UAB_SET_FIELD(
 1357              		.loc 1 1419 0
 1358 0006 5B00     		lsl	r3, r3, #1
 1359 0008 5B08     		lsr	r3, r3, #1
 1360 000a 1843     		orr	r0, r3
 1361 000c 1060     		str	r0, [r2]
 1362              		.loc 1 1425 0
 1363 000e 7047     		bx	lr
 1364              	.L120:
 1365              		.align	2
 1366              	.L119:
 1367 0010 78033440 		.word	1077150584
 1368              		.cfi_endproc
 1369              	.LFE34:
 1370              		.size	VDAC_Synth_UAB_Run, .-VDAC_Synth_UAB_Run
 1371              		.section	.text.VDAC_Synth_UAB_Start,"ax",%progbits
 1372              		.align	1
 1373              		.global	VDAC_Synth_UAB_Start
ARM GAS  C:\Users\Jerry\AppData\Local\Temp\cc1IKG0O.s 			page 51


 1374              		.code	16
 1375              		.thumb_func
 1376              		.type	VDAC_Synth_UAB_Start, %function
 1377              	VDAC_Synth_UAB_Start:
 1378              	.LFB1:
 230:Generated_Source\PSoC4/VDAC_Synth_UAB.c ****     if (VDAC_Synth_UAB_initVar != 1UL)
 1379              		.loc 1 230 0
 1380              		.cfi_startproc
 1381 0000 10B5     		push	{r4, lr}
 1382              		.cfi_def_cfa_offset 8
 1383              		.cfi_offset 4, -8
 1384              		.cfi_offset 14, -4
 231:Generated_Source\PSoC4/VDAC_Synth_UAB.c ****     {
 1385              		.loc 1 231 0
 1386 0002 064C     		ldr	r4, .L126
 1387 0004 2368     		ldr	r3, [r4]
 1388 0006 012B     		cmp	r3, #1
 1389 0008 04D0     		beq	.L122
 233:Generated_Source\PSoC4/VDAC_Synth_UAB.c ****         VDAC_Synth_UAB_initVar = 1UL;
 1390              		.loc 1 233 0
 1391 000a 0548     		ldr	r0, .L126+4
 1392 000c FFF7FEFF 		bl	VDAC_Synth_UAB_Init
 1393              	.LVL85:
 234:Generated_Source\PSoC4/VDAC_Synth_UAB.c ****     }
 1394              		.loc 1 234 0
 1395 0010 0123     		mov	r3, #1
 1396 0012 2360     		str	r3, [r4]
 1397              	.L122:
 242:Generated_Source\PSoC4/VDAC_Synth_UAB.c **** }
 1398              		.loc 1 242 0
 1399 0014 0120     		mov	r0, #1
 1400 0016 FFF7FEFF 		bl	VDAC_Synth_UAB_Run
 1401              	.LVL86:
 243:Generated_Source\PSoC4/VDAC_Synth_UAB.c **** 
 1402              		.loc 1 243 0
 1403              		@ sp needed
 1404 001a 10BD     		pop	{r4, pc}
 1405              	.L127:
 1406              		.align	2
 1407              	.L126:
 1408 001c 00000000 		.word	.LANCHOR0
 1409 0020 00000000 		.word	.LANCHOR1
 1410              		.cfi_endproc
 1411              	.LFE1:
 1412              		.size	VDAC_Synth_UAB_Start, .-VDAC_Synth_UAB_Start
 1413              		.section	.text.VDAC_Synth_UAB_Stop,"ax",%progbits
 1414              		.align	1
 1415              		.global	VDAC_Synth_UAB_Stop
 1416              		.code	16
 1417              		.thumb_func
 1418              		.type	VDAC_Synth_UAB_Stop, %function
 1419              	VDAC_Synth_UAB_Stop:
 1420              	.LFB2:
 262:Generated_Source\PSoC4/VDAC_Synth_UAB.c ****     VDAC_Synth_UAB_Run(0UL); /*Clear run bit*/
 1421              		.loc 1 262 0
 1422              		.cfi_startproc
 1423 0000 08B5     		push	{r3, lr}
ARM GAS  C:\Users\Jerry\AppData\Local\Temp\cc1IKG0O.s 			page 52


 1424              		.cfi_def_cfa_offset 8
 1425              		.cfi_offset 3, -8
 1426              		.cfi_offset 14, -4
 263:Generated_Source\PSoC4/VDAC_Synth_UAB.c ****     /*Intentionally not clearing the enable bit because it has a side-effect - 
 1427              		.loc 1 263 0
 1428 0002 0020     		mov	r0, #0
 1429 0004 FFF7FEFF 		bl	VDAC_Synth_UAB_Run
 1430              	.LVL87:
 266:Generated_Source\PSoC4/VDAC_Synth_UAB.c **** 
 1431              		.loc 1 266 0
 1432              		@ sp needed
 1433 0008 08BD     		pop	{r3, pc}
 1434              		.cfi_endproc
 1435              	.LFE2:
 1436              		.size	VDAC_Synth_UAB_Stop, .-VDAC_Synth_UAB_Stop
 1437              		.section	.text.VDAC_Synth_UAB_SetLastStep,"ax",%progbits
 1438              		.align	1
 1439              		.global	VDAC_Synth_UAB_SetLastStep
 1440              		.code	16
 1441              		.thumb_func
 1442              		.type	VDAC_Synth_UAB_SetLastStep, %function
 1443              	VDAC_Synth_UAB_SetLastStep:
 1444              	.LFB35:
1426:Generated_Source\PSoC4/VDAC_Synth_UAB.c **** 
1427:Generated_Source\PSoC4/VDAC_Synth_UAB.c **** 
1428:Generated_Source\PSoC4/VDAC_Synth_UAB.c **** /************** VDAC_Synth_UAB_SetLastStep() ********************************/
1429:Generated_Source\PSoC4/VDAC_Synth_UAB.c **** /*!
1430:Generated_Source\PSoC4/VDAC_Synth_UAB.c **** * @brief Configure UAB-half clock width
1431:Generated_Source\PSoC4/VDAC_Synth_UAB.c **** * 
1432:Generated_Source\PSoC4/VDAC_Synth_UAB.c **** * @details The clocks can be up to 16 steps wide.  They can be configured to
1433:Generated_Source\PSoC4/VDAC_Synth_UAB.c **** * use any or all of the 16 step.  This function sets how many of the steps are
1434:Generated_Source\PSoC4/VDAC_Synth_UAB.c **** * to be used.  This width applies to all 12 clocks.  Returns @c void.
1435:Generated_Source\PSoC4/VDAC_Synth_UAB.c **** * 
1436:Generated_Source\PSoC4/VDAC_Synth_UAB.c **** * @internal
1437:Generated_Source\PSoC4/VDAC_Synth_UAB.c **** * @reglist @reg VDAC_Synth_UAB_SRAM0_CTRL_REG
1438:Generated_Source\PSoC4/VDAC_Synth_UAB.c **** * @endinternal
1439:Generated_Source\PSoC4/VDAC_Synth_UAB.c **** * 
1440:Generated_Source\PSoC4/VDAC_Synth_UAB.c **** * @param lastStep The last step desired to be used from SRAM clocks.
1441:Generated_Source\PSoC4/VDAC_Synth_UAB.c **** * Should be between @c 0 and @c 15 inclusive.
1442:Generated_Source\PSoC4/VDAC_Synth_UAB.c **** * 
1443:Generated_Source\PSoC4/VDAC_Synth_UAB.c **** * @sideeffect None
1444:Generated_Source\PSoC4/VDAC_Synth_UAB.c **** *******************************************************************************/
1445:Generated_Source\PSoC4/VDAC_Synth_UAB.c **** void VDAC_Synth_UAB_SetLastStep(uint32 lastStep)
1446:Generated_Source\PSoC4/VDAC_Synth_UAB.c **** {
 1445              		.loc 1 1446 0
 1446              		.cfi_startproc
 1447              	.LVL88:
1447:Generated_Source\PSoC4/VDAC_Synth_UAB.c ****     VDAC_Synth_UAB_SET_FIELD(
 1448              		.loc 1 1447 0
 1449 0000 0F21     		mov	r1, #15
 1450 0002 034A     		ldr	r2, .L130
 1451 0004 0840     		and	r0, r1
 1452              	.LVL89:
 1453 0006 1368     		ldr	r3, [r2]
1448:Generated_Source\PSoC4/VDAC_Synth_UAB.c ****       VDAC_Synth_UAB_SRAM_CTRL_PTR, 
1449:Generated_Source\PSoC4/VDAC_Synth_UAB.c ****       VDAC_Synth_UAB_LAST_STEP_MASK,
1450:Generated_Source\PSoC4/VDAC_Synth_UAB.c ****       lastStep, 
ARM GAS  C:\Users\Jerry\AppData\Local\Temp\cc1IKG0O.s 			page 53


1451:Generated_Source\PSoC4/VDAC_Synth_UAB.c ****       VDAC_Synth_UAB_LAST_STEP_SHIFT
1452:Generated_Source\PSoC4/VDAC_Synth_UAB.c ****     );    
1453:Generated_Source\PSoC4/VDAC_Synth_UAB.c **** }
 1454              		.loc 1 1453 0
 1455              		@ sp needed
1447:Generated_Source\PSoC4/VDAC_Synth_UAB.c ****     VDAC_Synth_UAB_SET_FIELD(
 1456              		.loc 1 1447 0
 1457 0008 8B43     		bic	r3, r1
 1458 000a 1843     		orr	r0, r3
 1459 000c 1060     		str	r0, [r2]
 1460              		.loc 1 1453 0
 1461 000e 7047     		bx	lr
 1462              	.L131:
 1463              		.align	2
 1464              	.L130:
 1465 0010 78033440 		.word	1077150584
 1466              		.cfi_endproc
 1467              	.LFE35:
 1468              		.size	VDAC_Synth_UAB_SetLastStep, .-VDAC_Synth_UAB_SetLastStep
 1469              		.section	.text.VDAC_Synth_UAB_SetStartupDelay,"ax",%progbits
 1470              		.align	1
 1471              		.global	VDAC_Synth_UAB_SetStartupDelay
 1472              		.code	16
 1473              		.thumb_func
 1474              		.type	VDAC_Synth_UAB_SetStartupDelay, %function
 1475              	VDAC_Synth_UAB_SetStartupDelay:
 1476              	.LFB36:
1454:Generated_Source\PSoC4/VDAC_Synth_UAB.c **** 
1455:Generated_Source\PSoC4/VDAC_Synth_UAB.c **** /******** VDAC_Synth_UAB_SetStartupDelay() **********************************/
1456:Generated_Source\PSoC4/VDAC_Synth_UAB.c **** /*!
1457:Generated_Source\PSoC4/VDAC_Synth_UAB.c **** * @brief Set the delay time before UAB starts running.
1458:Generated_Source\PSoC4/VDAC_Synth_UAB.c **** * 
1459:Generated_Source\PSoC4/VDAC_Synth_UAB.c **** * @details After a positive edge on the Trigger it will take STARTUP_DELAY clk half 
1460:Generated_Source\PSoC4/VDAC_Synth_UAB.c **** * cycles before the first UAB clock happens. This allows firmware to precisely align 
1461:Generated_Source\PSoC4/VDAC_Synth_UAB.c **** * the UAB output with the SAR schedule. Returns @c void.
1462:Generated_Source\PSoC4/VDAC_Synth_UAB.c **** * 
1463:Generated_Source\PSoC4/VDAC_Synth_UAB.c **** * @internal
1464:Generated_Source\PSoC4/VDAC_Synth_UAB.c **** * @reglist @reg VDAC_Synth_UAB_STARTUP_DELAY0_REG
1465:Generated_Source\PSoC4/VDAC_Synth_UAB.c **** * @endinternal
1466:Generated_Source\PSoC4/VDAC_Synth_UAB.c **** * 
1467:Generated_Source\PSoC4/VDAC_Synth_UAB.c **** * @param delayCount The number of clock cycles to delay before starting the UAB clocks. 
1468:Generated_Source\PSoC4/VDAC_Synth_UAB.c **** * A value of 0 disables this function.
1469:Generated_Source\PSoC4/VDAC_Synth_UAB.c **** * 
1470:Generated_Source\PSoC4/VDAC_Synth_UAB.c **** * 
1471:Generated_Source\PSoC4/VDAC_Synth_UAB.c **** * @sideeffect None
1472:Generated_Source\PSoC4/VDAC_Synth_UAB.c **** *******************************************************************************/
1473:Generated_Source\PSoC4/VDAC_Synth_UAB.c **** void VDAC_Synth_UAB_SetStartupDelay(uint16 delayCount)
1474:Generated_Source\PSoC4/VDAC_Synth_UAB.c **** {
 1477              		.loc 1 1474 0
 1478              		.cfi_startproc
 1479              	.LVL90:
1475:Generated_Source\PSoC4/VDAC_Synth_UAB.c ****     VDAC_Synth_UAB_SET_FIELD(
 1480              		.loc 1 1475 0
 1481 0000 034A     		ldr	r2, .L133
1476:Generated_Source\PSoC4/VDAC_Synth_UAB.c ****       VDAC_Synth_UAB_STARTUP_DELAY_PTR, 
1477:Generated_Source\PSoC4/VDAC_Synth_UAB.c ****       VDAC_Synth_UAB_STARTUP_DELAY_MASK, 
1478:Generated_Source\PSoC4/VDAC_Synth_UAB.c ****       (uint32)delayCount, 
ARM GAS  C:\Users\Jerry\AppData\Local\Temp\cc1IKG0O.s 			page 54


1479:Generated_Source\PSoC4/VDAC_Synth_UAB.c ****       VDAC_Synth_UAB_STARTUP_DELAY_SHIFT
1480:Generated_Source\PSoC4/VDAC_Synth_UAB.c ****     );
1481:Generated_Source\PSoC4/VDAC_Synth_UAB.c **** }
 1482              		.loc 1 1481 0
 1483              		@ sp needed
1475:Generated_Source\PSoC4/VDAC_Synth_UAB.c ****     VDAC_Synth_UAB_SET_FIELD(
 1484              		.loc 1 1475 0
 1485 0002 1368     		ldr	r3, [r2]
 1486 0004 1B0C     		lsr	r3, r3, #16
 1487 0006 1B04     		lsl	r3, r3, #16
 1488 0008 1843     		orr	r0, r3
 1489              	.LVL91:
 1490 000a 1060     		str	r0, [r2]
 1491              		.loc 1 1481 0
 1492 000c 7047     		bx	lr
 1493              	.L134:
 1494 000e C046     		.align	2
 1495              	.L133:
 1496 0010 20033440 		.word	1077150496
 1497              		.cfi_endproc
 1498              	.LFE36:
 1499              		.size	VDAC_Synth_UAB_SetStartupDelay, .-VDAC_Synth_UAB_SetStartupDelay
 1500              		.section	.text.VDAC_Synth_UAB_SetAlignMode,"ax",%progbits
 1501              		.align	1
 1502              		.global	VDAC_Synth_UAB_SetAlignMode
 1503              		.code	16
 1504              		.thumb_func
 1505              		.type	VDAC_Synth_UAB_SetAlignMode, %function
 1506              	VDAC_Synth_UAB_SetAlignMode:
 1507              	.LFB37:
1482:Generated_Source\PSoC4/VDAC_Synth_UAB.c **** 
1483:Generated_Source\PSoC4/VDAC_Synth_UAB.c **** /*********** VDAC_Synth_UAB_SetAlignMode() **********************************/
1484:Generated_Source\PSoC4/VDAC_Synth_UAB.c **** /*!
1485:Generated_Source\PSoC4/VDAC_Synth_UAB.c **** * @brief Change meaning of startupDelay based on scheduled or unscheduled mode
1486:Generated_Source\PSoC4/VDAC_Synth_UAB.c **** * 
1487:Generated_Source\PSoC4/VDAC_Synth_UAB.c **** * @details 
1488:Generated_Source\PSoC4/VDAC_Synth_UAB.c **** *
1489:Generated_Source\PSoC4/VDAC_Synth_UAB.c **** * @internal
1490:Generated_Source\PSoC4/VDAC_Synth_UAB.c **** * @reglist @reg VDAC_Synth_UAB_STARTUP_DELAY0_REG , VDAC_Synth_UAB_STARTUP_DELAY1_REG
1491:Generated_Source\PSoC4/VDAC_Synth_UAB.c **** * @endinternal
1492:Generated_Source\PSoC4/VDAC_Synth_UAB.c **** *
1493:Generated_Source\PSoC4/VDAC_Synth_UAB.c **** * 
1494:Generated_Source\PSoC4/VDAC_Synth_UAB.c **** * @sideeffect None
1495:Generated_Source\PSoC4/VDAC_Synth_UAB.c **** *******************************************************************************/
1496:Generated_Source\PSoC4/VDAC_Synth_UAB.c **** void VDAC_Synth_UAB_SetAlignMode(CyUAB_align_mode_enum alignMode)
1497:Generated_Source\PSoC4/VDAC_Synth_UAB.c **** {
 1508              		.loc 1 1497 0
 1509              		.cfi_startproc
 1510              	.LVL92:
 1511 0000 021C     		mov	r2, r0
1498:Generated_Source\PSoC4/VDAC_Synth_UAB.c ****     VDAC_Synth_UAB_SET_FIELD(
 1512              		.loc 1 1498 0
 1513 0002 8021     		mov	r1, #128
1497:Generated_Source\PSoC4/VDAC_Synth_UAB.c ****     VDAC_Synth_UAB_SET_FIELD(
 1514              		.loc 1 1497 0
 1515 0004 10B5     		push	{r4, lr}
 1516              		.cfi_def_cfa_offset 8
ARM GAS  C:\Users\Jerry\AppData\Local\Temp\cc1IKG0O.s 			page 55


 1517              		.cfi_offset 4, -8
 1518              		.cfi_offset 14, -4
 1519              		.loc 1 1498 0
 1520 0006 054C     		ldr	r4, .L136
 1521 0008 054B     		ldr	r3, .L136+4
 1522 000a 2068     		ldr	r0, [r4]
 1523              	.LVL93:
 1524 000c 4902     		lsl	r1, r1, #9
 1525 000e 1204     		lsl	r2, r2, #16
 1526 0010 0A40     		and	r2, r1
 1527 0012 0340     		and	r3, r0
 1528 0014 1A43     		orr	r2, r3
 1529 0016 2260     		str	r2, [r4]
1499:Generated_Source\PSoC4/VDAC_Synth_UAB.c ****       VDAC_Synth_UAB_STARTUP_DELAY_PTR, 
1500:Generated_Source\PSoC4/VDAC_Synth_UAB.c ****       VDAC_Synth_UAB_ALIGN_MODE_MASK, 
1501:Generated_Source\PSoC4/VDAC_Synth_UAB.c ****       ((uint32)alignMode), 
1502:Generated_Source\PSoC4/VDAC_Synth_UAB.c ****       VDAC_Synth_UAB_ALIGN_MODE_SHIFT
1503:Generated_Source\PSoC4/VDAC_Synth_UAB.c ****     );
1504:Generated_Source\PSoC4/VDAC_Synth_UAB.c **** }
 1530              		.loc 1 1504 0
 1531              		@ sp needed
 1532 0018 10BD     		pop	{r4, pc}
 1533              	.L137:
 1534 001a C046     		.align	2
 1535              	.L136:
 1536 001c 20033440 		.word	1077150496
 1537 0020 FFFFFEFF 		.word	-65537
 1538              		.cfi_endproc
 1539              	.LFE37:
 1540              		.size	VDAC_Synth_UAB_SetAlignMode, .-VDAC_Synth_UAB_SetAlignMode
 1541              		.section	.text.VDAC_Synth_UAB_SetSubsample,"ax",%progbits
 1542              		.align	1
 1543              		.global	VDAC_Synth_UAB_SetSubsample
 1544              		.code	16
 1545              		.thumb_func
 1546              		.type	VDAC_Synth_UAB_SetSubsample, %function
 1547              	VDAC_Synth_UAB_SetSubsample:
 1548              	.LFB38:
1505:Generated_Source\PSoC4/VDAC_Synth_UAB.c **** 
1506:Generated_Source\PSoC4/VDAC_Synth_UAB.c **** 
1507:Generated_Source\PSoC4/VDAC_Synth_UAB.c **** /******** VDAC_Synth_UAB_SetSubsample() *************************************/
1508:Generated_Source\PSoC4/VDAC_Synth_UAB.c **** /*!
1509:Generated_Source\PSoC4/VDAC_Synth_UAB.c **** * @brief Set the sub-sample waveform for selecting VALID signal.
1510:Generated_Source\PSoC4/VDAC_Synth_UAB.c **** * 
1511:Generated_Source\PSoC4/VDAC_Synth_UAB.c **** * @details Suppress VALID signal during the first subSampNum analog clock
1512:Generated_Source\PSoC4/VDAC_Synth_UAB.c **** * periods. Only allow VALID output in the last of the subSampNum+1 analog clock
1513:Generated_Source\PSoC4/VDAC_Synth_UAB.c **** * periods. Returns @c void.
1514:Generated_Source\PSoC4/VDAC_Synth_UAB.c **** * 
1515:Generated_Source\PSoC4/VDAC_Synth_UAB.c **** * @internal
1516:Generated_Source\PSoC4/VDAC_Synth_UAB.c **** * @reglist @reg SUBSAMPLE_CTRL0 @reg SUBSAMPLE_CTRL1
1517:Generated_Source\PSoC4/VDAC_Synth_UAB.c **** * @endinternal
1518:Generated_Source\PSoC4/VDAC_Synth_UAB.c **** * 
1519:Generated_Source\PSoC4/VDAC_Synth_UAB.c **** * @param subsample The VALID signal will be suppressed this many times.  
1520:Generated_Source\PSoC4/VDAC_Synth_UAB.c **** * A value of 0 will not suppress the VALID signal.
1521:Generated_Source\PSoC4/VDAC_Synth_UAB.c **** * 
1522:Generated_Source\PSoC4/VDAC_Synth_UAB.c **** * 
1523:Generated_Source\PSoC4/VDAC_Synth_UAB.c **** * @sideeffect None
ARM GAS  C:\Users\Jerry\AppData\Local\Temp\cc1IKG0O.s 			page 56


1524:Generated_Source\PSoC4/VDAC_Synth_UAB.c **** *******************************************************************************/
1525:Generated_Source\PSoC4/VDAC_Synth_UAB.c **** void VDAC_Synth_UAB_SetSubsample(uint8 subsample)
1526:Generated_Source\PSoC4/VDAC_Synth_UAB.c **** {
 1549              		.loc 1 1526 0
 1550              		.cfi_startproc
 1551              	.LVL94:
1527:Generated_Source\PSoC4/VDAC_Synth_UAB.c ****     VDAC_Synth_UAB_SET_FIELD(
 1552              		.loc 1 1527 0
 1553 0000 FF21     		mov	r1, #255
 1554 0002 034A     		ldr	r2, .L139
1528:Generated_Source\PSoC4/VDAC_Synth_UAB.c ****       VDAC_Synth_UAB_SUBSAMPLE_CTRL_PTR, 
1529:Generated_Source\PSoC4/VDAC_Synth_UAB.c ****       VDAC_Synth_UAB_SUBSAMPLE_MASK, 
1530:Generated_Source\PSoC4/VDAC_Synth_UAB.c ****       ((uint32)subsample), 
1531:Generated_Source\PSoC4/VDAC_Synth_UAB.c ****       VDAC_Synth_UAB_SUBSAMPLE_SHIFT
1532:Generated_Source\PSoC4/VDAC_Synth_UAB.c ****     );
1533:Generated_Source\PSoC4/VDAC_Synth_UAB.c **** }
 1555              		.loc 1 1533 0
 1556              		@ sp needed
1527:Generated_Source\PSoC4/VDAC_Synth_UAB.c ****     VDAC_Synth_UAB_SET_FIELD(
 1557              		.loc 1 1527 0
 1558 0004 1368     		ldr	r3, [r2]
 1559 0006 8B43     		bic	r3, r1
 1560 0008 1843     		orr	r0, r3
 1561              	.LVL95:
 1562 000a 1060     		str	r0, [r2]
 1563              		.loc 1 1533 0
 1564 000c 7047     		bx	lr
 1565              	.L140:
 1566 000e C046     		.align	2
 1567              	.L139:
 1568 0010 24033440 		.word	1077150500
 1569              		.cfi_endproc
 1570              	.LFE38:
 1571              		.size	VDAC_Synth_UAB_SetSubsample, .-VDAC_Synth_UAB_SetSubsample
 1572              		.section	.text.VDAC_Synth_UAB_SetSubsampleInit,"ax",%progbits
 1573              		.align	1
 1574              		.global	VDAC_Synth_UAB_SetSubsampleInit
 1575              		.code	16
 1576              		.thumb_func
 1577              		.type	VDAC_Synth_UAB_SetSubsampleInit, %function
 1578              	VDAC_Synth_UAB_SetSubsampleInit:
 1579              	.LFB39:
1534:Generated_Source\PSoC4/VDAC_Synth_UAB.c **** 
1535:Generated_Source\PSoC4/VDAC_Synth_UAB.c **** /***************  VDAC_Synth_UAB_SetSubsampleInit() *************************/
1536:Generated_Source\PSoC4/VDAC_Synth_UAB.c **** /*!
1537:Generated_Source\PSoC4/VDAC_Synth_UAB.c **** * @brief Set the subsampling counter value.
1538:Generated_Source\PSoC4/VDAC_Synth_UAB.c **** * 
1539:Generated_Source\PSoC4/VDAC_Synth_UAB.c **** * @details Initial value of the subsampling down counter. Before this UAB half is
1540:Generated_Source\PSoC4/VDAC_Synth_UAB.c **** * running the firmware can write to this field the initial value of the subsample
1541:Generated_Source\PSoC4/VDAC_Synth_UAB.c **** * down counter. It is recommended that the following is true for the initial value
1542:Generated_Source\PSoC4/VDAC_Synth_UAB.c **** * SUBSAMPLE_INIT <= SUBSAMPLE, however this is not a requirement. Writing a bigger
1543:Generated_Source\PSoC4/VDAC_Synth_UAB.c **** * value can be used to postpone the very first Valid output. Returns @c void.
1544:Generated_Source\PSoC4/VDAC_Synth_UAB.c **** * 
1545:Generated_Source\PSoC4/VDAC_Synth_UAB.c **** * @internal
1546:Generated_Source\PSoC4/VDAC_Synth_UAB.c **** * @reglist @reg SUBSAMPLE_CTRL0 @reg SUBSAMPLE_CTRL1
1547:Generated_Source\PSoC4/VDAC_Synth_UAB.c **** * @endinternal
1548:Generated_Source\PSoC4/VDAC_Synth_UAB.c **** * 
ARM GAS  C:\Users\Jerry\AppData\Local\Temp\cc1IKG0O.s 			page 57


1549:Generated_Source\PSoC4/VDAC_Synth_UAB.c **** * @param subsampleInit: The initial value for the subsampling counter.
1550:Generated_Source\PSoC4/VDAC_Synth_UAB.c **** *
1551:Generated_Source\PSoC4/VDAC_Synth_UAB.c **** * 
1552:Generated_Source\PSoC4/VDAC_Synth_UAB.c **** * @sideeffect None
1553:Generated_Source\PSoC4/VDAC_Synth_UAB.c **** *******************************************************************************/
1554:Generated_Source\PSoC4/VDAC_Synth_UAB.c **** void VDAC_Synth_UAB_SetSubsampleInit(uint8 subsampleInit)
1555:Generated_Source\PSoC4/VDAC_Synth_UAB.c **** {
 1580              		.loc 1 1555 0
 1581              		.cfi_startproc
 1582              	.LVL96:
1556:Generated_Source\PSoC4/VDAC_Synth_UAB.c ****     VDAC_Synth_UAB_SET_FIELD(
 1583              		.loc 1 1556 0
 1584 0000 034A     		ldr	r2, .L142
 1585 0002 044B     		ldr	r3, .L142+4
 1586 0004 1168     		ldr	r1, [r2]
 1587 0006 0002     		lsl	r0, r0, #8
 1588              	.LVL97:
 1589 0008 0B40     		and	r3, r1
 1590 000a 1843     		orr	r0, r3
 1591 000c 1060     		str	r0, [r2]
1557:Generated_Source\PSoC4/VDAC_Synth_UAB.c ****       VDAC_Synth_UAB_SUBSAMPLE_CTRL_PTR, 
1558:Generated_Source\PSoC4/VDAC_Synth_UAB.c ****       VDAC_Synth_UAB_SUBSAMPLE_INIT_MASK, 
1559:Generated_Source\PSoC4/VDAC_Synth_UAB.c ****       ((uint32)subsampleInit), 
1560:Generated_Source\PSoC4/VDAC_Synth_UAB.c ****       VDAC_Synth_UAB_SUBSAMPLE_INIT_SHIFT
1561:Generated_Source\PSoC4/VDAC_Synth_UAB.c ****     );
1562:Generated_Source\PSoC4/VDAC_Synth_UAB.c **** }
 1592              		.loc 1 1562 0
 1593              		@ sp needed
 1594 000e 7047     		bx	lr
 1595              	.L143:
 1596              		.align	2
 1597              	.L142:
 1598 0010 24033440 		.word	1077150500
 1599 0014 FF00FFFF 		.word	-65281
 1600              		.cfi_endproc
 1601              	.LFE39:
 1602              		.size	VDAC_Synth_UAB_SetSubsampleInit, .-VDAC_Synth_UAB_SetSubsampleInit
 1603              		.section	.text.VDAC_Synth_UAB_GetCurrentSubsample,"ax",%progbits
 1604              		.align	1
 1605              		.global	VDAC_Synth_UAB_GetCurrentSubsample
 1606              		.code	16
 1607              		.thumb_func
 1608              		.type	VDAC_Synth_UAB_GetCurrentSubsample, %function
 1609              	VDAC_Synth_UAB_GetCurrentSubsample:
 1610              	.LFB40:
1563:Generated_Source\PSoC4/VDAC_Synth_UAB.c **** 
1564:Generated_Source\PSoC4/VDAC_Synth_UAB.c **** 
1565:Generated_Source\PSoC4/VDAC_Synth_UAB.c **** /************* VDAC_Synth_UAB_GetCurrentSubsample() *************************/
1566:Generated_Source\PSoC4/VDAC_Synth_UAB.c **** /*!
1567:Generated_Source\PSoC4/VDAC_Synth_UAB.c **** * @brief Get currSubsample
1568:Generated_Source\PSoC4/VDAC_Synth_UAB.c **** * 
1569:Generated_Source\PSoC4/VDAC_Synth_UAB.c **** * @details
1570:Generated_Source\PSoC4/VDAC_Synth_UAB.c **** *
1571:Generated_Source\PSoC4/VDAC_Synth_UAB.c **** *
1572:Generated_Source\PSoC4/VDAC_Synth_UAB.c **** * @internal
1573:Generated_Source\PSoC4/VDAC_Synth_UAB.c **** * @reglist @reg STAT0.CURR_SUBSAMPLE @reg STAT1.CURR_SUBSAMPLE
1574:Generated_Source\PSoC4/VDAC_Synth_UAB.c **** * @image html _.png 
ARM GAS  C:\Users\Jerry\AppData\Local\Temp\cc1IKG0O.s 			page 58


1575:Generated_Source\PSoC4/VDAC_Synth_UAB.c **** * @endinternal
1576:Generated_Source\PSoC4/VDAC_Synth_UAB.c **** * 
1577:Generated_Source\PSoC4/VDAC_Synth_UAB.c **** * @sideeffect None
1578:Generated_Source\PSoC4/VDAC_Synth_UAB.c **** *******************************************************************************/
1579:Generated_Source\PSoC4/VDAC_Synth_UAB.c **** uint32 VDAC_Synth_UAB_GetCurrentSubsample(void)
1580:Generated_Source\PSoC4/VDAC_Synth_UAB.c **** {
 1611              		.loc 1 1580 0
 1612              		.cfi_startproc
1581:Generated_Source\PSoC4/VDAC_Synth_UAB.c ****     return VDAC_Synth_UAB_GET_FIELD(
 1613              		.loc 1 1581 0
 1614 0000 014B     		ldr	r3, .L145
1582:Generated_Source\PSoC4/VDAC_Synth_UAB.c ****       VDAC_Synth_UAB_STAT_PTR,
1583:Generated_Source\PSoC4/VDAC_Synth_UAB.c ****       VDAC_Synth_UAB_CURR_SUBSAMPLE_MASK,
1584:Generated_Source\PSoC4/VDAC_Synth_UAB.c ****       VDAC_Synth_UAB_CURR_SUBSAMPLE_SHIFT
1585:Generated_Source\PSoC4/VDAC_Synth_UAB.c ****     );
1586:Generated_Source\PSoC4/VDAC_Synth_UAB.c **** }
 1615              		.loc 1 1586 0
 1616              		@ sp needed
1581:Generated_Source\PSoC4/VDAC_Synth_UAB.c ****     return VDAC_Synth_UAB_GET_FIELD(
 1617              		.loc 1 1581 0
 1618 0002 1868     		ldr	r0, [r3]
 1619 0004 000E     		lsr	r0, r0, #24
 1620              		.loc 1 1586 0
 1621 0006 7047     		bx	lr
 1622              	.L146:
 1623              		.align	2
 1624              	.L145:
 1625 0008 7C033440 		.word	1077150588
 1626              		.cfi_endproc
 1627              	.LFE40:
 1628              		.size	VDAC_Synth_UAB_GetCurrentSubsample, .-VDAC_Synth_UAB_GetCurrentSubsample
 1629              		.section	.text.VDAC_Synth_UAB_GetCurrentStep,"ax",%progbits
 1630              		.align	1
 1631              		.global	VDAC_Synth_UAB_GetCurrentStep
 1632              		.code	16
 1633              		.thumb_func
 1634              		.type	VDAC_Synth_UAB_GetCurrentStep, %function
 1635              	VDAC_Synth_UAB_GetCurrentStep:
 1636              	.LFB41:
1587:Generated_Source\PSoC4/VDAC_Synth_UAB.c **** 
1588:Generated_Source\PSoC4/VDAC_Synth_UAB.c **** /************** VDAC_Synth_UAB_GetCurrentStep() *****************************/
1589:Generated_Source\PSoC4/VDAC_Synth_UAB.c **** /*!
1590:Generated_Source\PSoC4/VDAC_Synth_UAB.c **** * @brief Get currStep
1591:Generated_Source\PSoC4/VDAC_Synth_UAB.c **** * 
1592:Generated_Source\PSoC4/VDAC_Synth_UAB.c **** * @details
1593:Generated_Source\PSoC4/VDAC_Synth_UAB.c **** *
1594:Generated_Source\PSoC4/VDAC_Synth_UAB.c **** *
1595:Generated_Source\PSoC4/VDAC_Synth_UAB.c **** * @internal
1596:Generated_Source\PSoC4/VDAC_Synth_UAB.c **** * @reglist @reg STAT0.CURR_STEP @reg STAT1.CURR_STEP
1597:Generated_Source\PSoC4/VDAC_Synth_UAB.c **** * @image html _.png 
1598:Generated_Source\PSoC4/VDAC_Synth_UAB.c **** * @endinternal
1599:Generated_Source\PSoC4/VDAC_Synth_UAB.c **** * 
1600:Generated_Source\PSoC4/VDAC_Synth_UAB.c **** * @sideeffect None
1601:Generated_Source\PSoC4/VDAC_Synth_UAB.c **** *******************************************************************************/
1602:Generated_Source\PSoC4/VDAC_Synth_UAB.c **** uint32 VDAC_Synth_UAB_GetCurrentStep(void)
1603:Generated_Source\PSoC4/VDAC_Synth_UAB.c **** {
 1637              		.loc 1 1603 0
ARM GAS  C:\Users\Jerry\AppData\Local\Temp\cc1IKG0O.s 			page 59


 1638              		.cfi_startproc
1604:Generated_Source\PSoC4/VDAC_Synth_UAB.c ****     return VDAC_Synth_UAB_GET_FIELD(
 1639              		.loc 1 1604 0
 1640 0000 024B     		ldr	r3, .L148
1605:Generated_Source\PSoC4/VDAC_Synth_UAB.c ****       VDAC_Synth_UAB_STAT_PTR,
1606:Generated_Source\PSoC4/VDAC_Synth_UAB.c ****       VDAC_Synth_UAB_CURR_STEP_MASK,
1607:Generated_Source\PSoC4/VDAC_Synth_UAB.c ****       VDAC_Synth_UAB_CURR_STEP_SHIFT
1608:Generated_Source\PSoC4/VDAC_Synth_UAB.c ****     );
1609:Generated_Source\PSoC4/VDAC_Synth_UAB.c **** }
 1641              		.loc 1 1609 0
 1642              		@ sp needed
1604:Generated_Source\PSoC4/VDAC_Synth_UAB.c ****     return VDAC_Synth_UAB_GET_FIELD(
 1643              		.loc 1 1604 0
 1644 0002 1868     		ldr	r0, [r3]
 1645 0004 0F23     		mov	r3, #15
 1646 0006 1840     		and	r0, r3
 1647              		.loc 1 1609 0
 1648 0008 7047     		bx	lr
 1649              	.L149:
 1650 000a C046     		.align	2
 1651              	.L148:
 1652 000c 7C033440 		.word	1077150588
 1653              		.cfi_endproc
 1654              	.LFE41:
 1655              		.size	VDAC_Synth_UAB_GetCurrentStep, .-VDAC_Synth_UAB_GetCurrentStep
 1656              		.section	.text.VDAC_Synth_UAB_SetModbitSource,"ax",%progbits
 1657              		.align	1
 1658              		.global	VDAC_Synth_UAB_SetModbitSource
 1659              		.code	16
 1660              		.thumb_func
 1661              		.type	VDAC_Synth_UAB_SetModbitSource, %function
 1662              	VDAC_Synth_UAB_SetModbitSource:
 1663              	.LFB42:
1610:Generated_Source\PSoC4/VDAC_Synth_UAB.c **** 
1611:Generated_Source\PSoC4/VDAC_Synth_UAB.c **** 
1612:Generated_Source\PSoC4/VDAC_Synth_UAB.c **** /**************** VDAC_Synth_UAB_SetModbitSource() **************************/
1613:Generated_Source\PSoC4/VDAC_Synth_UAB.c **** /*!
1614:Generated_Source\PSoC4/VDAC_Synth_UAB.c **** * @brief Select source of switch control (modbit).
1615:Generated_Source\PSoC4/VDAC_Synth_UAB.c **** * 
1616:Generated_Source\PSoC4/VDAC_Synth_UAB.c **** * @details 4 of UAB clocks can use a modbit signal. This function selects the 
1617:Generated_Source\PSoC4/VDAC_Synth_UAB.c **** * source of the modbit.
1618:Generated_Source\PSoC4/VDAC_Synth_UAB.c **** * 
1619:Generated_Source\PSoC4/VDAC_Synth_UAB.c **** * @internal
1620:Generated_Source\PSoC4/VDAC_Synth_UAB.c **** * @reglist @reg VDAC_Synth_UAB_SW_MODBIT_SRC0 , VDAC_Synth_UAB_SW_MODBIT_SRC1
1621:Generated_Source\PSoC4/VDAC_Synth_UAB.c **** * @endinternal
1622:Generated_Source\PSoC4/VDAC_Synth_UAB.c **** * 
1623:Generated_Source\PSoC4/VDAC_Synth_UAB.c **** * @param modbitSrcAB branch A and branch B modbit selection
1624:Generated_Source\PSoC4/VDAC_Synth_UAB.c **** * @param modbitSrcC  branch C modbit selection valid choices are:
1625:Generated_Source\PSoC4/VDAC_Synth_UAB.c **** * @arg    0    = UAB0 half 0 comparator output
1626:Generated_Source\PSoC4/VDAC_Synth_UAB.c **** * @arg    1    = UAB0 half 1 comparator output
1627:Generated_Source\PSoC4/VDAC_Synth_UAB.c **** * @arg    2    = UAB1 half 0 comparator output
1628:Generated_Source\PSoC4/VDAC_Synth_UAB.c **** * @arg    3    = UAB1 half 1 comparator output
1629:Generated_Source\PSoC4/VDAC_Synth_UAB.c **** * @arg    4    = UAB2 half 0 comparator output
1630:Generated_Source\PSoC4/VDAC_Synth_UAB.c **** * @arg    5    = UAB2 half 1 comparator output
1631:Generated_Source\PSoC4/VDAC_Synth_UAB.c **** * @arg    6    = UAB3 half 0 comparator output
1632:Generated_Source\PSoC4/VDAC_Synth_UAB.c **** * @arg    7    = UAB3 half 1 comparator output
1633:Generated_Source\PSoC4/VDAC_Synth_UAB.c **** * @arg    8-30 = generic trigger inputs 0-22
ARM GAS  C:\Users\Jerry\AppData\Local\Temp\cc1IKG0O.s 			page 60


1634:Generated_Source\PSoC4/VDAC_Synth_UAB.c **** * @arg    31   = SIGN_VAL , also used as Firmware modbit. 
1635:Generated_Source\PSoC4/VDAC_Synth_UAB.c **** * (In VDAC use-case this inverts the voltage on the A and B Caps). 
1636:Generated_Source\PSoC4/VDAC_Synth_UAB.c **** * @param modbitSrcC  branch C modbit selection valid choices are:
1637:Generated_Source\PSoC4/VDAC_Synth_UAB.c **** * @arg    0    = UAB0 half 0 comparator output
1638:Generated_Source\PSoC4/VDAC_Synth_UAB.c **** * @arg    1    = UAB0 half 1 comparator output
1639:Generated_Source\PSoC4/VDAC_Synth_UAB.c **** * @arg    2    = UAB1 half 0 comparator output
1640:Generated_Source\PSoC4/VDAC_Synth_UAB.c **** * @arg    3    = UAB1 half 1 comparator output
1641:Generated_Source\PSoC4/VDAC_Synth_UAB.c **** * @arg    4    = UAB2 half 0 comparator output
1642:Generated_Source\PSoC4/VDAC_Synth_UAB.c **** * @arg    5    = UAB2 half 1 comparator output
1643:Generated_Source\PSoC4/VDAC_Synth_UAB.c **** * @arg    6    = UAB3 half 0 comparator output
1644:Generated_Source\PSoC4/VDAC_Synth_UAB.c **** * @arg    7    = UAB3 half 1 comparator output
1645:Generated_Source\PSoC4/VDAC_Synth_UAB.c **** * @arg    8-30 = generic trigger inputs 0-22
1646:Generated_Source\PSoC4/VDAC_Synth_UAB.c **** * @arg    31   = SIGN_VAL , also used as Firmware modbit.
1647:Generated_Source\PSoC4/VDAC_Synth_UAB.c **** * For PSoC4400, only values 0-1, 8-13, and 31 are valid.
1648:Generated_Source\PSoC4/VDAC_Synth_UAB.c **** * 
1649:Generated_Source\PSoC4/VDAC_Synth_UAB.c **** * @sideeffect None
1650:Generated_Source\PSoC4/VDAC_Synth_UAB.c **** *******************************************************************************/
1651:Generated_Source\PSoC4/VDAC_Synth_UAB.c **** void VDAC_Synth_UAB_SetModbitSource( uint32 modbitSrcAB, uint32 modbitSrcC )
1652:Generated_Source\PSoC4/VDAC_Synth_UAB.c **** {
 1664              		.loc 1 1652 0
 1665              		.cfi_startproc
 1666              	.LVL98:
1653:Generated_Source\PSoC4/VDAC_Synth_UAB.c ****     /*mask input values before shifting to prevent overlap*/
1654:Generated_Source\PSoC4/VDAC_Synth_UAB.c ****     const uint32 MODBIT_SRC_AB_PRESHIFT_MASK = VDAC_Synth_UAB_MODBIT0_SRC_SEL_MASK>>VDAC_Synth_UAB_
1655:Generated_Source\PSoC4/VDAC_Synth_UAB.c ****     const uint32 MODBIT_SRC_C_PRESHIFT_MASK = VDAC_Synth_UAB_MODBIT1_SRC_SEL_MASK>>VDAC_Synth_UAB_M
1656:Generated_Source\PSoC4/VDAC_Synth_UAB.c ****     VDAC_Synth_UAB_SET_VARIOUS_FIELDS(
 1667              		.loc 1 1656 0
 1668 0000 1F23     		mov	r3, #31
1652:Generated_Source\PSoC4/VDAC_Synth_UAB.c ****     /*mask input values before shifting to prevent overlap*/
 1669              		.loc 1 1652 0
 1670 0002 30B5     		push	{r4, r5, lr}
 1671              		.cfi_def_cfa_offset 12
 1672              		.cfi_offset 4, -12
 1673              		.cfi_offset 5, -8
 1674              		.cfi_offset 14, -4
 1675              		.loc 1 1656 0
 1676 0004 054C     		ldr	r4, .L151
 1677 0006 1940     		and	r1, r3
 1678              	.LVL99:
 1679 0008 2568     		ldr	r5, [r4]
 1680 000a 0340     		and	r3, r0
 1681 000c 281C     		mov	r0, r5
 1682              	.LVL100:
 1683 000e 044A     		ldr	r2, .L151+4
 1684 0010 0902     		lsl	r1, r1, #8
 1685 0012 0B43     		orr	r3, r1
 1686 0014 1040     		and	r0, r2
 1687 0016 0343     		orr	r3, r0
 1688 0018 2360     		str	r3, [r4]
1657:Generated_Source\PSoC4/VDAC_Synth_UAB.c ****       VDAC_Synth_UAB_SW_MODBIT_SRC_PTR,
1658:Generated_Source\PSoC4/VDAC_Synth_UAB.c ****       VDAC_Synth_UAB_MODBIT1_SRC_SEL_MASK | VDAC_Synth_UAB_MODBIT0_SRC_SEL_MASK,
1659:Generated_Source\PSoC4/VDAC_Synth_UAB.c ****       (uint32)( 
1660:Generated_Source\PSoC4/VDAC_Synth_UAB.c ****         ( (modbitSrcAB & MODBIT_SRC_AB_PRESHIFT_MASK) <<VDAC_Synth_UAB_MODBIT0_SRC_SEL_SHIFT ) | 
1661:Generated_Source\PSoC4/VDAC_Synth_UAB.c ****         ( (modbitSrcC &MODBIT_SRC_C_PRESHIFT_MASK) <<VDAC_Synth_UAB_MODBIT1_SRC_SEL_SHIFT ) 
1662:Generated_Source\PSoC4/VDAC_Synth_UAB.c ****       )
1663:Generated_Source\PSoC4/VDAC_Synth_UAB.c ****     );    
1664:Generated_Source\PSoC4/VDAC_Synth_UAB.c **** }
ARM GAS  C:\Users\Jerry\AppData\Local\Temp\cc1IKG0O.s 			page 61


 1689              		.loc 1 1664 0
 1690              		@ sp needed
 1691 001a 30BD     		pop	{r4, r5, pc}
 1692              	.L152:
 1693              		.align	2
 1694              	.L151:
 1695 001c 34033440 		.word	1077150516
 1696 0020 E0E0FFFF 		.word	-7968
 1697              		.cfi_endproc
 1698              	.LFE42:
 1699              		.size	VDAC_Synth_UAB_SetModbitSource, .-VDAC_Synth_UAB_SetModbitSource
 1700              		.section	.text.VDAC_Synth_UAB_SetStrobeMode,"ax",%progbits
 1701              		.align	1
 1702              		.global	VDAC_Synth_UAB_SetStrobeMode
 1703              		.code	16
 1704              		.thumb_func
 1705              		.type	VDAC_Synth_UAB_SetStrobeMode, %function
 1706              	VDAC_Synth_UAB_SetStrobeMode:
 1707              	.LFB43:
1665:Generated_Source\PSoC4/VDAC_Synth_UAB.c **** 
1666:Generated_Source\PSoC4/VDAC_Synth_UAB.c **** 
1667:Generated_Source\PSoC4/VDAC_Synth_UAB.c **** /********************** VDAC_Synth_UAB_SetStrobeMode ************************/
1668:Generated_Source\PSoC4/VDAC_Synth_UAB.c **** /*!
1669:Generated_Source\PSoC4/VDAC_Synth_UAB.c **** * @brief Configure whether strobe is used to load next capacitor values or 
1670:Generated_Source\PSoC4/VDAC_Synth_UAB.c **** * discharge them.
1671:Generated_Source\PSoC4/VDAC_Synth_UAB.c **** * 
1672:Generated_Source\PSoC4/VDAC_Synth_UAB.c **** * @details The strobe signal is used to time when to load the next value
1673:Generated_Source\PSoC4/VDAC_Synth_UAB.c **** * (in the case of DAC usage) or to discharge the capacitors (in the case of DelSig
1674:Generated_Source\PSoC4/VDAC_Synth_UAB.c **** * usage).  This function chooses which of those options the strobe is used for.
1675:Generated_Source\PSoC4/VDAC_Synth_UAB.c **** * 
1676:Generated_Source\PSoC4/VDAC_Synth_UAB.c **** * @internal
1677:Generated_Source\PSoC4/VDAC_Synth_UAB.c **** * @reglist @reg SW_STATIC0 @reg SW_STATIC1
1678:Generated_Source\PSoC4/VDAC_Synth_UAB.c **** * @endinternal
1679:Generated_Source\PSoC4/VDAC_Synth_UAB.c **** * 
1680:Generated_Source\PSoC4/VDAC_Synth_UAB.c **** * @param strobeMode
1681:Generated_Source\PSoC4/VDAC_Synth_UAB.c **** *   @arg @c 0 - Strobe will be used to load next capacitor values (for DAC)
1682:Generated_Source\PSoC4/VDAC_Synth_UAB.c **** *   @arg @c 1 - Strobe will be used to discharge capacitors
1683:Generated_Source\PSoC4/VDAC_Synth_UAB.c **** * 
1684:Generated_Source\PSoC4/VDAC_Synth_UAB.c **** * @see
1685:Generated_Source\PSoC4/VDAC_Synth_UAB.c **** * 
1686:Generated_Source\PSoC4/VDAC_Synth_UAB.c **** * @sideeffect None
1687:Generated_Source\PSoC4/VDAC_Synth_UAB.c **** *******************************************************************************/
1688:Generated_Source\PSoC4/VDAC_Synth_UAB.c **** void VDAC_Synth_UAB_SetStrobeMode(CyUAB_strobe_mode_enum strobeMode)
1689:Generated_Source\PSoC4/VDAC_Synth_UAB.c **** {
 1708              		.loc 1 1689 0
 1709              		.cfi_startproc
 1710              	.LVL101:
 1711 0000 021C     		mov	r2, r0
1690:Generated_Source\PSoC4/VDAC_Synth_UAB.c ****     VDAC_Synth_UAB_SET_FIELD(
 1712              		.loc 1 1690 0
 1713 0002 8021     		mov	r1, #128
1689:Generated_Source\PSoC4/VDAC_Synth_UAB.c ****     VDAC_Synth_UAB_SET_FIELD(
 1714              		.loc 1 1689 0
 1715 0004 10B5     		push	{r4, lr}
 1716              		.cfi_def_cfa_offset 8
 1717              		.cfi_offset 4, -8
 1718              		.cfi_offset 14, -4
ARM GAS  C:\Users\Jerry\AppData\Local\Temp\cc1IKG0O.s 			page 62


 1719              		.loc 1 1690 0
 1720 0006 054C     		ldr	r4, .L154
 1721 0008 054B     		ldr	r3, .L154+4
 1722 000a 2068     		ldr	r0, [r4]
 1723              	.LVL102:
 1724 000c 8905     		lsl	r1, r1, #22
 1725 000e 5207     		lsl	r2, r2, #29
 1726 0010 0A40     		and	r2, r1
 1727 0012 0340     		and	r3, r0
 1728 0014 1A43     		orr	r2, r3
 1729 0016 2260     		str	r2, [r4]
1691:Generated_Source\PSoC4/VDAC_Synth_UAB.c ****       VDAC_Synth_UAB_SW_STATIC_PTR, 
1692:Generated_Source\PSoC4/VDAC_Synth_UAB.c ****       VDAC_Synth_UAB_STRB_RST_EN_MASK, 
1693:Generated_Source\PSoC4/VDAC_Synth_UAB.c ****       ((uint32)strobeMode), 
1694:Generated_Source\PSoC4/VDAC_Synth_UAB.c ****       VDAC_Synth_UAB_STRB_RST_EN_SHIFT
1695:Generated_Source\PSoC4/VDAC_Synth_UAB.c ****     );
1696:Generated_Source\PSoC4/VDAC_Synth_UAB.c **** }
 1730              		.loc 1 1696 0
 1731              		@ sp needed
 1732 0018 10BD     		pop	{r4, pc}
 1733              	.L155:
 1734 001a C046     		.align	2
 1735              	.L154:
 1736 001c 30033440 		.word	1077150512
 1737 0020 FFFFFFDF 		.word	-536870913
 1738              		.cfi_endproc
 1739              	.LFE43:
 1740              		.size	VDAC_Synth_UAB_SetStrobeMode, .-VDAC_Synth_UAB_SetStrobeMode
 1741              		.section	.text.VDAC_Synth_UAB_SetStrobeSource,"ax",%progbits
 1742              		.align	1
 1743              		.global	VDAC_Synth_UAB_SetStrobeSource
 1744              		.code	16
 1745              		.thumb_func
 1746              		.type	VDAC_Synth_UAB_SetStrobeSource, %function
 1747              	VDAC_Synth_UAB_SetStrobeSource:
 1748              	.LFB44:
1697:Generated_Source\PSoC4/VDAC_Synth_UAB.c **** 
1698:Generated_Source\PSoC4/VDAC_Synth_UAB.c **** /*********** VDAC_Synth_UAB_SetStrobeSource *********************************/
1699:Generated_Source\PSoC4/VDAC_Synth_UAB.c **** /*!
1700:Generated_Source\PSoC4/VDAC_Synth_UAB.c **** @brief Select the trigger source that is logically ANDed with STROBE_RST waveform source.  
1701:Generated_Source\PSoC4/VDAC_Synth_UAB.c **** 
1702:Generated_Source\PSoC4/VDAC_Synth_UAB.c **** @details Normally, the positive edge of the STROBE_RST waveform is used to 
1703:Generated_Source\PSoC4/VDAC_Synth_UAB.c **** synchronize the time when to load the "next" caps value (in the case of DAC usage) 
1704:Generated_Source\PSoC4/VDAC_Synth_UAB.c **** or to discharge the capacitors (in the case of DelSig usage). 
1705:Generated_Source\PSoC4/VDAC_Synth_UAB.c **** When STROBE_RST is a modbitted waveform, the trigger source selected by this function 
1706:Generated_Source\PSoC4/VDAC_Synth_UAB.c **** must also be asserted. 
1707:Generated_Source\PSoC4/VDAC_Synth_UAB.c **** Returns @c void.
1708:Generated_Source\PSoC4/VDAC_Synth_UAB.c **** 
1709:Generated_Source\PSoC4/VDAC_Synth_UAB.c **** @internal
1710:Generated_Source\PSoC4/VDAC_Synth_UAB.c **** @reglist @reg VDAC_Synth_UAB_SW_STATIC0_REG.STRB_RST0_SEL or VDAC_Synth_UAB_SW_STATIC1_REG.STRB_RST
1711:Generated_Source\PSoC4/VDAC_Synth_UAB.c **** @endinternal
1712:Generated_Source\PSoC4/VDAC_Synth_UAB.c **** 
1713:Generated_Source\PSoC4/VDAC_Synth_UAB.c **** @param strobeSource
1714:Generated_Source\PSoC4/VDAC_Synth_UAB.c **** * @arg    0    = UAB0 half 0 comparator output
1715:Generated_Source\PSoC4/VDAC_Synth_UAB.c **** * @arg    1    = UAB0 half 1 comparator output
1716:Generated_Source\PSoC4/VDAC_Synth_UAB.c **** * @arg    2    = UAB1 half 0 comparator output
1717:Generated_Source\PSoC4/VDAC_Synth_UAB.c **** * @arg    3    = UAB1 half 1 comparator output
ARM GAS  C:\Users\Jerry\AppData\Local\Temp\cc1IKG0O.s 			page 63


1718:Generated_Source\PSoC4/VDAC_Synth_UAB.c **** * @arg    4    = UAB2 half 0 comparator output
1719:Generated_Source\PSoC4/VDAC_Synth_UAB.c **** * @arg    5    = UAB2 half 1 comparator output
1720:Generated_Source\PSoC4/VDAC_Synth_UAB.c **** * @arg    6    = UAB3 half 0 comparator output
1721:Generated_Source\PSoC4/VDAC_Synth_UAB.c **** * @arg    7    = UAB3 half 1 comparator output
1722:Generated_Source\PSoC4/VDAC_Synth_UAB.c **** * @arg    8-31 = generic trigger inputs 0-23
1723:Generated_Source\PSoC4/VDAC_Synth_UAB.c **** *
1724:Generated_Source\PSoC4/VDAC_Synth_UAB.c **** * For PSoC4400, only values 0-1 and 8-13 are valid.
1725:Generated_Source\PSoC4/VDAC_Synth_UAB.c **** *
1726:Generated_Source\PSoC4/VDAC_Synth_UAB.c **** * @sideeffect None
1727:Generated_Source\PSoC4/VDAC_Synth_UAB.c **** *******************************************************************************/
1728:Generated_Source\PSoC4/VDAC_Synth_UAB.c **** void VDAC_Synth_UAB_SetStrobeSource(uint32 strobeSource)
1729:Generated_Source\PSoC4/VDAC_Synth_UAB.c **** {
 1749              		.loc 1 1729 0
 1750              		.cfi_startproc
 1751              	.LVL103:
 1752 0000 021C     		mov	r2, r0
1730:Generated_Source\PSoC4/VDAC_Synth_UAB.c ****     VDAC_Synth_UAB_SET_FIELD(
 1753              		.loc 1 1730 0
 1754 0002 F821     		mov	r1, #248
1729:Generated_Source\PSoC4/VDAC_Synth_UAB.c ****     VDAC_Synth_UAB_SET_FIELD(
 1755              		.loc 1 1729 0
 1756 0004 10B5     		push	{r4, lr}
 1757              		.cfi_def_cfa_offset 8
 1758              		.cfi_offset 4, -8
 1759              		.cfi_offset 14, -4
 1760              		.loc 1 1730 0
 1761 0006 054C     		ldr	r4, .L157
 1762 0008 054B     		ldr	r3, .L157+4
 1763 000a 2068     		ldr	r0, [r4]
 1764              	.LVL104:
 1765 000c 4905     		lsl	r1, r1, #21
 1766 000e 1206     		lsl	r2, r2, #24
 1767              	.LVL105:
 1768 0010 0A40     		and	r2, r1
 1769 0012 0340     		and	r3, r0
 1770 0014 1A43     		orr	r2, r3
 1771 0016 2260     		str	r2, [r4]
1731:Generated_Source\PSoC4/VDAC_Synth_UAB.c ****       VDAC_Synth_UAB_SW_STATIC_PTR, 
1732:Generated_Source\PSoC4/VDAC_Synth_UAB.c ****       VDAC_Synth_UAB_STRB_RST_SEL_MASK, 
1733:Generated_Source\PSoC4/VDAC_Synth_UAB.c ****       strobeSource, 
1734:Generated_Source\PSoC4/VDAC_Synth_UAB.c ****       VDAC_Synth_UAB_STRB_RST_SEL_SHIFT
1735:Generated_Source\PSoC4/VDAC_Synth_UAB.c ****     );
1736:Generated_Source\PSoC4/VDAC_Synth_UAB.c **** }
 1772              		.loc 1 1736 0
 1773              		@ sp needed
 1774 0018 10BD     		pop	{r4, pc}
 1775              	.L158:
 1776 001a C046     		.align	2
 1777              	.L157:
 1778 001c 30033440 		.word	1077150512
 1779 0020 FFFFFFE0 		.word	-520093697
 1780              		.cfi_endproc
 1781              	.LFE44:
 1782              		.size	VDAC_Synth_UAB_SetStrobeSource, .-VDAC_Synth_UAB_SetStrobeSource
 1783              		.section	.text.VDAC_Synth_UAB_SetFirmwareModbit,"ax",%progbits
 1784              		.align	1
 1785              		.global	VDAC_Synth_UAB_SetFirmwareModbit
ARM GAS  C:\Users\Jerry\AppData\Local\Temp\cc1IKG0O.s 			page 64


 1786              		.code	16
 1787              		.thumb_func
 1788              		.type	VDAC_Synth_UAB_SetFirmwareModbit, %function
 1789              	VDAC_Synth_UAB_SetFirmwareModbit:
 1790              	.LFB45:
1737:Generated_Source\PSoC4/VDAC_Synth_UAB.c **** 
1738:Generated_Source\PSoC4/VDAC_Synth_UAB.c **** 
1739:Generated_Source\PSoC4/VDAC_Synth_UAB.c **** /************ VDAC_Synth_UAB_SetFirmwareModbit() ****************************/
1740:Generated_Source\PSoC4/VDAC_Synth_UAB.c **** /*!
1741:Generated_Source\PSoC4/VDAC_Synth_UAB.c **** * @brief Set the firmware modbit.
1742:Generated_Source\PSoC4/VDAC_Synth_UAB.c **** * 
1743:Generated_Source\PSoC4/VDAC_Synth_UAB.c **** * @details This function sets the firmware modbit. The modbit affects several 
1744:Generated_Source\PSoC4/VDAC_Synth_UAB.c **** * clocks.  If firmware modbit is selected (Use VDAC_Synth_UAB_SetModbitSource() choice 31),
1745:Generated_Source\PSoC4/VDAC_Synth_UAB.c **** * this value will be used.  
1746:Generated_Source\PSoC4/VDAC_Synth_UAB.c **** * 
1747:Generated_Source\PSoC4/VDAC_Synth_UAB.c **** * @see VDAC_Synth_UAB_SetModbitSource()
1748:Generated_Source\PSoC4/VDAC_Synth_UAB.c **** *
1749:Generated_Source\PSoC4/VDAC_Synth_UAB.c **** * @internal
1750:Generated_Source\PSoC4/VDAC_Synth_UAB.c **** * @reglist @reg CAP_AB0_VAL_NXT_REG.SIGN0_VAL @reg CAP_AB1_VAL_NXT_REG.SIGN0_VAL
1751:Generated_Source\PSoC4/VDAC_Synth_UAB.c **** * @endinternal
1752:Generated_Source\PSoC4/VDAC_Synth_UAB.c **** *
1753:Generated_Source\PSoC4/VDAC_Synth_UAB.c **** * 
1754:Generated_Source\PSoC4/VDAC_Synth_UAB.c **** * @sideeffect The firmware modbit is also used as a "sign bit" by the
1755:Generated_Source\PSoC4/VDAC_Synth_UAB.c **** * DAC.
1756:Generated_Source\PSoC4/VDAC_Synth_UAB.c **** *******************************************************************************/
1757:Generated_Source\PSoC4/VDAC_Synth_UAB.c **** void VDAC_Synth_UAB_SetFirmwareModbit(uint32 flag)
1758:Generated_Source\PSoC4/VDAC_Synth_UAB.c **** {
 1791              		.loc 1 1758 0
 1792              		.cfi_startproc
 1793              	.LVL106:
 1794 0000 021C     		mov	r2, r0
1759:Generated_Source\PSoC4/VDAC_Synth_UAB.c ****     VDAC_Synth_UAB_SET_FIELD(
 1795              		.loc 1 1759 0
 1796 0002 8021     		mov	r1, #128
1758:Generated_Source\PSoC4/VDAC_Synth_UAB.c ****     VDAC_Synth_UAB_SET_FIELD(
 1797              		.loc 1 1758 0
 1798 0004 10B5     		push	{r4, lr}
 1799              		.cfi_def_cfa_offset 8
 1800              		.cfi_offset 4, -8
 1801              		.cfi_offset 14, -4
 1802              		.loc 1 1759 0
 1803 0006 054C     		ldr	r4, .L160
 1804 0008 054B     		ldr	r3, .L160+4
 1805 000a 2068     		ldr	r0, [r4]
 1806              	.LVL107:
 1807 000c 4901     		lsl	r1, r1, #5
 1808 000e 1203     		lsl	r2, r2, #12
 1809              	.LVL108:
 1810 0010 0A40     		and	r2, r1
 1811 0012 0340     		and	r3, r0
 1812 0014 1A43     		orr	r2, r3
 1813 0016 2260     		str	r2, [r4]
1760:Generated_Source\PSoC4/VDAC_Synth_UAB.c ****       VDAC_Synth_UAB_CAP_ABCF_VAL_PTR, 
1761:Generated_Source\PSoC4/VDAC_Synth_UAB.c ****       VDAC_Synth_UAB_SIGN_VAL_MASK,
1762:Generated_Source\PSoC4/VDAC_Synth_UAB.c ****       (uint32)flag, 
1763:Generated_Source\PSoC4/VDAC_Synth_UAB.c ****       VDAC_Synth_UAB_SIGN_VAL_SHIFT
1764:Generated_Source\PSoC4/VDAC_Synth_UAB.c ****     );
ARM GAS  C:\Users\Jerry\AppData\Local\Temp\cc1IKG0O.s 			page 65


1765:Generated_Source\PSoC4/VDAC_Synth_UAB.c **** }
 1814              		.loc 1 1765 0
 1815              		@ sp needed
 1816 0018 10BD     		pop	{r4, pc}
 1817              	.L161:
 1818 001a C046     		.align	2
 1819              	.L160:
 1820 001c 08033440 		.word	1077150472
 1821 0020 FFEFFFFF 		.word	-4097
 1822              		.cfi_endproc
 1823              	.LFE45:
 1824              		.size	VDAC_Synth_UAB_SetFirmwareModbit, .-VDAC_Synth_UAB_SetFirmwareModbit
 1825              		.section	.text.VDAC_Synth_UAB_SetInputTrigger,"ax",%progbits
 1826              		.align	1
 1827              		.global	VDAC_Synth_UAB_SetInputTrigger
 1828              		.code	16
 1829              		.thumb_func
 1830              		.type	VDAC_Synth_UAB_SetInputTrigger, %function
 1831              	VDAC_Synth_UAB_SetInputTrigger:
 1832              	.LFB46:
1766:Generated_Source\PSoC4/VDAC_Synth_UAB.c **** 
1767:Generated_Source\PSoC4/VDAC_Synth_UAB.c **** 
1768:Generated_Source\PSoC4/VDAC_Synth_UAB.c **** /************* VDAC_Synth_UAB_SetInputTrigger() *****************************/
1769:Generated_Source\PSoC4/VDAC_Synth_UAB.c **** /*!
1770:Generated_Source\PSoC4/VDAC_Synth_UAB.c **** * @brief Configure UAB-half clock starting trigger.
1771:Generated_Source\PSoC4/VDAC_Synth_UAB.c **** * 
1772:Generated_Source\PSoC4/VDAC_Synth_UAB.c **** * @details The clocks can be configured to start running when a trigger signal 
1773:Generated_Source\PSoC4/VDAC_Synth_UAB.c **** * is received.  This function chooses whether to use the trigger, and if so, 
1774:Generated_Source\PSoC4/VDAC_Synth_UAB.c **** * which trigger to use.  Trigger state is irrelevant if VDAC_Synth_UAB_EnableClocks()
1775:Generated_Source\PSoC4/VDAC_Synth_UAB.c **** * has not been called.
1776:Generated_Source\PSoC4/VDAC_Synth_UAB.c **** * 
1777:Generated_Source\PSoC4/VDAC_Synth_UAB.c **** * @internal
1778:Generated_Source\PSoC4/VDAC_Synth_UAB.c **** * @reglist @reg VDAC_Synth_UAB_SRAM0_CTRL_REG VDAC_Synth_UAB_SRAM1_CTRL_REG
1779:Generated_Source\PSoC4/VDAC_Synth_UAB.c **** * @endinternal
1780:Generated_Source\PSoC4/VDAC_Synth_UAB.c **** * 
1781:Generated_Source\PSoC4/VDAC_Synth_UAB.c **** * @param triggerEn Enables the input trigger.  If 0, trigger signal is ignored,
1782:Generated_Source\PSoC4/VDAC_Synth_UAB.c **** * and the SRAM clocks will start running as soon as the VDAC_Synth_UAB_EnableClocks()
1783:Generated_Source\PSoC4/VDAC_Synth_UAB.c **** * is invoked.  If not 0, the SRAM clocks will start running when the trigger
1784:Generated_Source\PSoC4/VDAC_Synth_UAB.c **** * signal is received.
1785:Generated_Source\PSoC4/VDAC_Synth_UAB.c **** * @param triggerSel Choice for trigger signal. Valid inputs are:
1786:Generated_Source\PSoC4/VDAC_Synth_UAB.c **** * @arg    0    = UAB0 half 0 trigger output
1787:Generated_Source\PSoC4/VDAC_Synth_UAB.c **** * @arg    1    = UAB0 half 1 trigger output
1788:Generated_Source\PSoC4/VDAC_Synth_UAB.c **** * @arg    2    = UAB1 half 0 trigger output
1789:Generated_Source\PSoC4/VDAC_Synth_UAB.c **** * @arg    3    = UAB1 half 1 trigger output
1790:Generated_Source\PSoC4/VDAC_Synth_UAB.c **** * @arg    4    = UAB2 half 0 trigger output
1791:Generated_Source\PSoC4/VDAC_Synth_UAB.c **** * @arg    5    = UAB2 half 1 trigger output
1792:Generated_Source\PSoC4/VDAC_Synth_UAB.c **** * @arg    6    = UAB3 half 0 trigger output
1793:Generated_Source\PSoC4/VDAC_Synth_UAB.c **** * @arg    7    = UAB3 half 1 trigger output
1794:Generated_Source\PSoC4/VDAC_Synth_UAB.c **** * @arg    8-30 = generic trigger inputs 0-22
1795:Generated_Source\PSoC4/VDAC_Synth_UAB.c **** * @arg    31   = SAR trigger output
1796:Generated_Source\PSoC4/VDAC_Synth_UAB.c **** *
1797:Generated_Source\PSoC4/VDAC_Synth_UAB.c **** * For PSoC4400, only values 0-1, 8-13, and 31 are valid.
1798:Generated_Source\PSoC4/VDAC_Synth_UAB.c **** *
1799:Generated_Source\PSoC4/VDAC_Synth_UAB.c **** * @see VDAC_Synth_UAB_EnableClocks()
1800:Generated_Source\PSoC4/VDAC_Synth_UAB.c **** * 
1801:Generated_Source\PSoC4/VDAC_Synth_UAB.c **** * @sideeffect None
1802:Generated_Source\PSoC4/VDAC_Synth_UAB.c **** *******************************************************************************/
ARM GAS  C:\Users\Jerry\AppData\Local\Temp\cc1IKG0O.s 			page 66


1803:Generated_Source\PSoC4/VDAC_Synth_UAB.c **** void VDAC_Synth_UAB_SetInputTrigger(uint32 triggerEn, uint32 triggerSel)
1804:Generated_Source\PSoC4/VDAC_Synth_UAB.c **** {
 1833              		.loc 1 1804 0
 1834              		.cfi_startproc
 1835              	.LVL109:
1805:Generated_Source\PSoC4/VDAC_Synth_UAB.c ****     /*mask input values before shifting to prevent overlap*/
1806:Generated_Source\PSoC4/VDAC_Synth_UAB.c ****     const uint32 TRIG_SEL_PRESHIFT_MASK = VDAC_Synth_UAB_TRIG_SEL_MASK>>VDAC_Synth_UAB_TRIG_SEL_SHI
1807:Generated_Source\PSoC4/VDAC_Synth_UAB.c ****     const uint32 TRIGGER_EN_PRESHIFT_MASK = VDAC_Synth_UAB_TRIGGER_EN_MASK>>VDAC_Synth_UAB_TRIGGER_
1808:Generated_Source\PSoC4/VDAC_Synth_UAB.c ****     VDAC_Synth_UAB_SET_VARIOUS_FIELDS(
 1836              		.loc 1 1808 0
 1837 0000 1F23     		mov	r3, #31
 1838 0002 0A1C     		mov	r2, r1
1804:Generated_Source\PSoC4/VDAC_Synth_UAB.c ****     /*mask input values before shifting to prevent overlap*/
 1839              		.loc 1 1804 0
 1840 0004 30B5     		push	{r4, r5, lr}
 1841              		.cfi_def_cfa_offset 12
 1842              		.cfi_offset 4, -12
 1843              		.cfi_offset 5, -8
 1844              		.cfi_offset 14, -4
 1845              		.loc 1 1808 0
 1846 0006 074C     		ldr	r4, .L163
 1847 0008 1A40     		and	r2, r3
 1848 000a 1E3B     		sub	r3, r3, #30
 1849 000c 2568     		ldr	r5, [r4]
 1850 000e 1840     		and	r0, r3
 1851              	.LVL110:
 1852 0010 4007     		lsl	r0, r0, #29
 1853 0012 1206     		lsl	r2, r2, #24
 1854 0014 0243     		orr	r2, r0
 1855 0016 281C     		mov	r0, r5
 1856 0018 111C     		mov	r1, r2
 1857              	.LVL111:
 1858 001a 034B     		ldr	r3, .L163+4
1809:Generated_Source\PSoC4/VDAC_Synth_UAB.c ****       VDAC_Synth_UAB_SRAM_CTRL_PTR,
1810:Generated_Source\PSoC4/VDAC_Synth_UAB.c ****       VDAC_Synth_UAB_TRIG_SEL_MASK | VDAC_Synth_UAB_TRIGGER_EN_MASK,
1811:Generated_Source\PSoC4/VDAC_Synth_UAB.c ****       ( (triggerSel & TRIG_SEL_PRESHIFT_MASK) <<VDAC_Synth_UAB_TRIG_SEL_SHIFT   ) | 
1812:Generated_Source\PSoC4/VDAC_Synth_UAB.c ****       ( (triggerEn & TRIGGER_EN_PRESHIFT_MASK) <<VDAC_Synth_UAB_TRIGGER_EN_SHIFT )
1813:Generated_Source\PSoC4/VDAC_Synth_UAB.c ****     );
1814:Generated_Source\PSoC4/VDAC_Synth_UAB.c **** }
 1859              		.loc 1 1814 0
 1860              		@ sp needed
1808:Generated_Source\PSoC4/VDAC_Synth_UAB.c ****       VDAC_Synth_UAB_SRAM_CTRL_PTR,
 1861              		.loc 1 1808 0
 1862 001c 1840     		and	r0, r3
 1863 001e 0143     		orr	r1, r0
 1864 0020 2160     		str	r1, [r4]
 1865              		.loc 1 1814 0
 1866 0022 30BD     		pop	{r4, r5, pc}
 1867              	.L164:
 1868              		.align	2
 1869              	.L163:
 1870 0024 78033440 		.word	1077150584
 1871 0028 FFFFFFC0 		.word	-1056964609
 1872              		.cfi_endproc
 1873              	.LFE46:
 1874              		.size	VDAC_Synth_UAB_SetInputTrigger, .-VDAC_Synth_UAB_SetInputTrigger
 1875              		.section	.text.VDAC_Synth_UAB_SetStaticSwitch,"ax",%progbits
ARM GAS  C:\Users\Jerry\AppData\Local\Temp\cc1IKG0O.s 			page 67


 1876              		.align	1
 1877              		.global	VDAC_Synth_UAB_SetStaticSwitch
 1878              		.code	16
 1879              		.thumb_func
 1880              		.type	VDAC_Synth_UAB_SetStaticSwitch, %function
 1881              	VDAC_Synth_UAB_SetStaticSwitch:
 1882              	.LFB47:
1815:Generated_Source\PSoC4/VDAC_Synth_UAB.c **** 
1816:Generated_Source\PSoC4/VDAC_Synth_UAB.c **** 
1817:Generated_Source\PSoC4/VDAC_Synth_UAB.c **** /****************** VDAC_Synth_UAB_SetStaticSwitch() ************************/
1818:Generated_Source\PSoC4/VDAC_Synth_UAB.c **** /*!
1819:Generated_Source\PSoC4/VDAC_Synth_UAB.c **** * @brief Consistent interface for configuring static switches.
1820:Generated_Source\PSoC4/VDAC_Synth_UAB.c **** * 
1821:Generated_Source\PSoC4/VDAC_Synth_UAB.c **** * @details 
1822:Generated_Source\PSoC4/VDAC_Synth_UAB.c **** * Unpacks @p sw_id to get switch control field location (register offset and field 
1823:Generated_Source\PSoC4/VDAC_Synth_UAB.c **** * shift value) and sets that location to @p clk 
1824:Generated_Source\PSoC4/VDAC_Synth_UAB.c **** *
1825:Generated_Source\PSoC4/VDAC_Synth_UAB.c **** * @param sw_id represents a switch encoded with its reg field location
1826:Generated_Source\PSoC4/VDAC_Synth_UAB.c **** * @param clk switch setting (enum converted to single static switch bit field)
1827:Generated_Source\PSoC4/VDAC_Synth_UAB.c **** * CyUAB_SW_OPEN: open switch 
1828:Generated_Source\PSoC4/VDAC_Synth_UAB.c **** * CyUAB_SW_CLOSED and all other non-zero values: close switch 
1829:Generated_Source\PSoC4/VDAC_Synth_UAB.c **** *
1830:Generated_Source\PSoC4/VDAC_Synth_UAB.c **** * @note The exception is the two agnd and ref buffer sharing switches - 
1831:Generated_Source\PSoC4/VDAC_Synth_UAB.c **** * they are set through a different interface.
1832:Generated_Source\PSoC4/VDAC_Synth_UAB.c **** * 
1833:Generated_Source\PSoC4/VDAC_Synth_UAB.c **** * @internal
1834:Generated_Source\PSoC4/VDAC_Synth_UAB.c **** * @reglist @reg MANY
1835:Generated_Source\PSoC4/VDAC_Synth_UAB.c **** * @image html test123.png 
1836:Generated_Source\PSoC4/VDAC_Synth_UAB.c **** * @endinternal
1837:Generated_Source\PSoC4/VDAC_Synth_UAB.c **** * 
1838:Generated_Source\PSoC4/VDAC_Synth_UAB.c **** * @sideeffect None
1839:Generated_Source\PSoC4/VDAC_Synth_UAB.c **** *******************************************************************************/
1840:Generated_Source\PSoC4/VDAC_Synth_UAB.c **** void VDAC_Synth_UAB_SetStaticSwitch(CyUAB_sw_id_enum sw_id, CyUAB_clk_enum clk)
1841:Generated_Source\PSoC4/VDAC_Synth_UAB.c **** {   
 1883              		.loc 1 1841 0
 1884              		.cfi_startproc
 1885              	.LVL112:
 1886 0000 F822     		mov	r2, #248
1842:Generated_Source\PSoC4/VDAC_Synth_UAB.c ****     VDAC_Synth_UAB_SET_FIELD(
 1887              		.loc 1 1842 0
 1888 0002 244B     		ldr	r3, .L184
1841:Generated_Source\PSoC4/VDAC_Synth_UAB.c ****     VDAC_Synth_UAB_SET_FIELD(
 1889              		.loc 1 1841 0
 1890 0004 F0B5     		push	{r4, r5, r6, r7, lr}
 1891              		.cfi_def_cfa_offset 20
 1892              		.cfi_offset 4, -20
 1893              		.cfi_offset 5, -16
 1894              		.cfi_offset 6, -12
 1895              		.cfi_offset 7, -8
 1896              		.cfi_offset 14, -4
 1897 0006 5203     		lsl	r2, r2, #13
 1898              		.loc 1 1842 0
 1899 0008 C6B2     		uxtb	r6, r0
 1900 000a F618     		add	r6, r6, r3
 1901 000c 0502     		lsl	r5, r0, #8
 1902 000e 0240     		and	r2, r0
 1903 0010 3768     		ldr	r7, [r6]
ARM GAS  C:\Users\Jerry\AppData\Local\Temp\cc1IKG0O.s 			page 68


 1904 0012 ED0F     		lsr	r5, r5, #31
 1905 0014 120C     		lsr	r2, r2, #16
 1906 0016 002D     		cmp	r5, #0
 1907 0018 0AD0     		beq	.L166
 1908              		.loc 1 1842 0 is_stmt 0 discriminator 1
 1909 001a 0224     		mov	r4, #2
 1910 001c 002A     		cmp	r2, #0
 1911 001e 0BD0     		beq	.L183
 1912              		.loc 1 1842 0 discriminator 3
 1913 0020 0324     		mov	r4, #3
 1914 0022 012A     		cmp	r2, #1
 1915 0024 08D0     		beq	.L183
 1916              		.loc 1 1842 0 discriminator 5
 1917 0026 0924     		mov	r4, #9
 1918 0028 022A     		cmp	r2, #2
 1919 002a 05D1     		bne	.L183
 1920              		.loc 1 1842 0
 1921 002c 0524     		mov	r4, #5
 1922 002e 03E0     		b	.L183
 1923              	.L166:
 1924              		.loc 1 1842 0 discriminator 2
 1925 0030 0124     		mov	r4, #1
 1926 0032 9440     		lsl	r4, r4, r2
 1927 0034 E443     		mvn	r4, r4
 1928 0036 00E0     		b	.L167
 1929              	.L183:
 1930              		.loc 1 1842 0
 1931 0038 6442     		neg	r4, r4
 1932              	.L167:
 1933              		.loc 1 1842 0 discriminator 16
 1934 003a 4B1E     		sub	r3, r1, #1
 1935 003c 9941     		sbc	r1, r1, r3
 1936              	.LVL113:
 1937 003e F823     		mov	r3, #248
 1938 0040 5B03     		lsl	r3, r3, #13
 1939 0042 3C40     		and	r4, r7
 1940 0044 0340     		and	r3, r0
 1941 0046 002D     		cmp	r5, #0
 1942 0048 0CD0     		beq	.L168
 1943              		.loc 1 1842 0 discriminator 21
 1944 004a 1A0C     		lsr	r2, r3, #16
 1945 004c 0023     		mov	r3, #0
 1946 004e 9A42     		cmp	r2, r3
 1947 0050 09D0     		beq	.L169
 1948              		.loc 1 1842 0 discriminator 23
 1949 0052 131E     		sub	r3, r2, #0
 1950 0054 012B     		cmp	r3, #1
 1951 0056 06D0     		beq	.L169
 1952              		.loc 1 1842 0 discriminator 25
 1953 0058 931E     		sub	r3, r2, #2
 1954 005a 5A42     		neg	r2, r3
 1955 005c 5341     		adc	r3, r3, r2
 1956 005e 0322     		mov	r2, #3
 1957 0060 D31A     		sub	r3, r2, r3
 1958 0062 00E0     		b	.L169
 1959              	.L168:
 1960              		.loc 1 1842 0 discriminator 22
ARM GAS  C:\Users\Jerry\AppData\Local\Temp\cc1IKG0O.s 			page 69


 1961 0064 1B0C     		lsr	r3, r3, #16
 1962              	.L169:
 1963              		.loc 1 1842 0 discriminator 36
 1964 0066 9940     		lsl	r1, r1, r3
 1965 0068 F823     		mov	r3, #248
 1966 006a 5B03     		lsl	r3, r3, #13
 1967 006c 1840     		and	r0, r3
 1968              	.LVL114:
 1969 006e 000C     		lsr	r0, r0, #16
 1970 0070 0123     		mov	r3, #1
 1971 0072 002D     		cmp	r5, #0
 1972 0074 09D0     		beq	.L170
 1973              		.loc 1 1842 0 discriminator 37
 1974 0076 0028     		cmp	r0, #0
 1975 0078 08D0     		beq	.L171
 1976              		.loc 1 1842 0 discriminator 39
 1977 007a DB18     		add	r3, r3, r3
 1978 007c 0128     		cmp	r0, #1
 1979 007e 05D0     		beq	.L171
 1980              		.loc 1 1842 0 discriminator 41
 1981 0080 0233     		add	r3, r3, #2
 1982 0082 0228     		cmp	r0, #2
 1983 0084 02D0     		beq	.L171
 1984              		.loc 1 1842 0
 1985 0086 0433     		add	r3, r3, #4
 1986 0088 00E0     		b	.L171
 1987              	.L170:
 1988              		.loc 1 1842 0 discriminator 38
 1989 008a 8340     		lsl	r3, r3, r0
 1990              	.L171:
 1991              		.loc 1 1842 0 discriminator 52
 1992 008c 0B40     		and	r3, r1
 1993 008e 2343     		orr	r3, r4
 1994 0090 3360     		str	r3, [r6]
1843:Generated_Source\PSoC4/VDAC_Synth_UAB.c ****       VDAC_Synth_UAB_GetStaticSwAddr( (sw_id) ), 
1844:Generated_Source\PSoC4/VDAC_Synth_UAB.c ****       VDAC_Synth_UAB_StaticSwMask( (sw_id) ),
1845:Generated_Source\PSoC4/VDAC_Synth_UAB.c ****       CyUAB_SwIsClosed( (clk) ), 
1846:Generated_Source\PSoC4/VDAC_Synth_UAB.c ****       VDAC_Synth_UAB_StaticSwShift( (sw_id) )
1847:Generated_Source\PSoC4/VDAC_Synth_UAB.c ****     );
1848:Generated_Source\PSoC4/VDAC_Synth_UAB.c **** }
 1995              		.loc 1 1848 0 is_stmt 1 discriminator 52
 1996              		@ sp needed
 1997 0092 F0BD     		pop	{r4, r5, r6, r7, pc}
 1998              	.L185:
 1999              		.align	2
 2000              	.L184:
 2001 0094 00033440 		.word	1077150464
 2002              		.cfi_endproc
 2003              	.LFE47:
 2004              		.size	VDAC_Synth_UAB_SetStaticSwitch, .-VDAC_Synth_UAB_SetStaticSwitch
 2005              		.section	.text.VDAC_Synth_UAB_SetSwitch,"ax",%progbits
 2006              		.align	1
 2007              		.global	VDAC_Synth_UAB_SetSwitch
 2008              		.code	16
 2009              		.thumb_func
 2010              		.type	VDAC_Synth_UAB_SetSwitch, %function
 2011              	VDAC_Synth_UAB_SetSwitch:
ARM GAS  C:\Users\Jerry\AppData\Local\Temp\cc1IKG0O.s 			page 70


 2012              	.LFB48:
1849:Generated_Source\PSoC4/VDAC_Synth_UAB.c **** 
1850:Generated_Source\PSoC4/VDAC_Synth_UAB.c **** 
1851:Generated_Source\PSoC4/VDAC_Synth_UAB.c **** /******************** VDAC_Synth_UAB_SetSwitch() ****************************/
1852:Generated_Source\PSoC4/VDAC_Synth_UAB.c **** /*!
1853:Generated_Source\PSoC4/VDAC_Synth_UAB.c **** * @brief Consistent interface for configuring anything (switches or otherwise) 
1854:Generated_Source\PSoC4/VDAC_Synth_UAB.c **** * that can select one of the 12 UAB clocks or can be statically set open or closed.
1855:Generated_Source\PSoC4/VDAC_Synth_UAB.c **** * 
1856:Generated_Source\PSoC4/VDAC_Synth_UAB.c **** * @details 
1857:Generated_Source\PSoC4/VDAC_Synth_UAB.c **** * Unpacks @p sw_id to get switch control field location (register offset and field 
1858:Generated_Source\PSoC4/VDAC_Synth_UAB.c **** * shift value) and sets that location to @p clk.
1859:Generated_Source\PSoC4/VDAC_Synth_UAB.c **** *
1860:Generated_Source\PSoC4/VDAC_Synth_UAB.c **** * @param sw_id represents a switch encoded with its reg field location
1861:Generated_Source\PSoC4/VDAC_Synth_UAB.c **** * @param clk switch setting
1862:Generated_Source\PSoC4/VDAC_Synth_UAB.c **** * 
1863:Generated_Source\PSoC4/VDAC_Synth_UAB.c **** * @internal
1864:Generated_Source\PSoC4/VDAC_Synth_UAB.c **** * @reglist @reg MANY
1865:Generated_Source\PSoC4/VDAC_Synth_UAB.c **** * @image html test123.png 
1866:Generated_Source\PSoC4/VDAC_Synth_UAB.c **** * @endinternal
1867:Generated_Source\PSoC4/VDAC_Synth_UAB.c **** * 
1868:Generated_Source\PSoC4/VDAC_Synth_UAB.c **** * @sideeffect None
1869:Generated_Source\PSoC4/VDAC_Synth_UAB.c **** *//*==========================================================================*/
1870:Generated_Source\PSoC4/VDAC_Synth_UAB.c **** void VDAC_Synth_UAB_SetSwitch(CyUAB_sw_id_enum sw_id, CyUAB_clk_enum clk)
1871:Generated_Source\PSoC4/VDAC_Synth_UAB.c **** {
 2013              		.loc 1 1871 0
 2014              		.cfi_startproc
 2015              	.LVL115:
 2016 0000 F0B5     		push	{r4, r5, r6, r7, lr}
 2017              		.cfi_def_cfa_offset 20
 2018              		.cfi_offset 4, -20
 2019              		.cfi_offset 5, -16
 2020              		.cfi_offset 6, -12
 2021              		.cfi_offset 7, -8
 2022              		.cfi_offset 14, -4
1872:Generated_Source\PSoC4/VDAC_Synth_UAB.c ****     VDAC_Synth_UAB_SET_FIELD(
 2023              		.loc 1 1872 0
 2024 0002 4428     		cmp	r0, #68
 2025 0004 07D0     		beq	.L194
 2026              		.loc 1 1872 0 is_stmt 0 discriminator 1
 2027 0006 5428     		cmp	r0, #84
 2028 0008 07D0     		beq	.L195
 2029              		.loc 1 1872 0 discriminator 3
 2030 000a 6428     		cmp	r0, #100
 2031 000c 07D0     		beq	.L196
 2032              		.loc 1 1872 0 discriminator 5
 2033 000e 2C4B     		ldr	r3, .L207
 2034 0010 C4B2     		uxtb	r4, r0
 2035 0012 E418     		add	r4, r4, r3
 2036 0014 04E0     		b	.L187
 2037              	.L194:
 2038              		.loc 1 1872 0
 2039 0016 2B4C     		ldr	r4, .L207+4
 2040 0018 02E0     		b	.L187
 2041              	.L195:
 2042 001a 2B4C     		ldr	r4, .L207+8
 2043 001c 00E0     		b	.L187
 2044              	.L196:
ARM GAS  C:\Users\Jerry\AppData\Local\Temp\cc1IKG0O.s 			page 71


 2045 001e 2B4C     		ldr	r4, .L207+12
 2046              	.L187:
 2047 0020 F822     		mov	r2, #248
 2048 0022 5203     		lsl	r2, r2, #13
 2049              		.loc 1 1872 0 discriminator 24
 2050 0024 0502     		lsl	r5, r0, #8
 2051 0026 0240     		and	r2, r0
 2052 0028 2368     		ldr	r3, [r4]
 2053 002a ED0F     		lsr	r5, r5, #31
 2054 002c 120C     		lsr	r2, r2, #16
 2055 002e 002D     		cmp	r5, #0
 2056 0030 09D0     		beq	.L188
 2057              		.loc 1 1872 0 discriminator 25
 2058 0032 032A     		cmp	r2, #3
 2059 0034 0BD9     		bls	.L197
 2060              		.loc 1 1872 0 discriminator 27
 2061 0036 161F     		sub	r6, r2, #4
 2062 0038 032E     		cmp	r6, #3
 2063 003a 0AD9     		bls	.L198
 2064              		.loc 1 1872 0 discriminator 29
 2065 003c 083A     		sub	r2, r2, #8
 2066 003e 032A     		cmp	r2, #3
 2067 0040 0AD9     		bls	.L199
 2068              		.loc 1 1872 0
 2069 0042 234A     		ldr	r2, .L207+16
 2070 0044 09E0     		b	.L189
 2071              	.L188:
 2072              		.loc 1 1872 0 discriminator 26
 2073 0046 0F26     		mov	r6, #15
 2074 0048 9640     		lsl	r6, r6, r2
 2075 004a F243     		mvn	r2, r6
 2076 004c 05E0     		b	.L189
 2077              	.L197:
 2078              		.loc 1 1872 0
 2079 004e 1022     		mov	r2, #16
 2080 0050 00E0     		b	.L206
 2081              	.L198:
 2082 0052 F122     		mov	r2, #241
 2083              	.L206:
 2084 0054 5242     		neg	r2, r2
 2085 0056 00E0     		b	.L189
 2086              	.L199:
 2087 0058 1E4A     		ldr	r2, .L207+20
 2088              	.L189:
 2089 005a F826     		mov	r6, #248
 2090 005c 7603     		lsl	r6, r6, #13
 2091              		.loc 1 1872 0 discriminator 40
 2092 005e 0640     		and	r6, r0
 2093 0060 1A40     		and	r2, r3
 2094 0062 330C     		lsr	r3, r6, #16
 2095 0064 002D     		cmp	r5, #0
 2096 0066 0CD0     		beq	.L191
 2097              		.loc 1 1872 0 discriminator 41
 2098 0068 360C     		lsr	r6, r6, #16
 2099 006a 0023     		mov	r3, #0
 2100 006c 032E     		cmp	r6, #3
 2101 006e 08D9     		bls	.L191
ARM GAS  C:\Users\Jerry\AppData\Local\Temp\cc1IKG0O.s 			page 72


 2102              		.loc 1 1872 0 discriminator 43
 2103 0070 371F     		sub	r7, r6, #4
 2104 0072 0433     		add	r3, r3, #4
 2105 0074 032F     		cmp	r7, #3
 2106 0076 04D9     		bls	.L191
 2107              		.loc 1 1872 0 discriminator 45
 2108 0078 083E     		sub	r6, r6, #8
 2109 007a 0433     		add	r3, r3, #4
 2110 007c 032E     		cmp	r6, #3
 2111 007e 00D9     		bls	.L191
 2112              		.loc 1 1872 0
 2113 0080 0433     		add	r3, r3, #4
 2114              	.L191:
 2115              		.loc 1 1872 0 discriminator 56
 2116 0082 9940     		lsl	r1, r1, r3
 2117              	.LVL116:
 2118 0084 F823     		mov	r3, #248
 2119 0086 5B03     		lsl	r3, r3, #13
 2120 0088 002D     		cmp	r5, #0
 2121 008a 0ED0     		beq	.L192
 2122              		.loc 1 1872 0 discriminator 57
 2123 008c 1840     		and	r0, r3
 2124              	.LVL117:
 2125 008e 000C     		lsr	r0, r0, #16
 2126 0090 0F23     		mov	r3, #15
 2127 0092 0328     		cmp	r0, #3
 2128 0094 10D9     		bls	.L193
 2129              		.loc 1 1872 0 discriminator 59
 2130 0096 051F     		sub	r5, r0, #4
 2131 0098 E133     		add	r3, r3, #225
 2132 009a 032D     		cmp	r5, #3
 2133 009c 0CD9     		bls	.L193
 2134              		.loc 1 1872 0 discriminator 61
 2135 009e 0838     		sub	r0, r0, #8
 2136 00a0 F023     		mov	r3, #240
 2137 00a2 0328     		cmp	r0, #3
 2138 00a4 07D9     		bls	.L205
 2139              		.loc 1 1872 0
 2140 00a6 1B02     		lsl	r3, r3, #8
 2141 00a8 06E0     		b	.L193
 2142              	.LVL118:
 2143              	.L192:
 2144              		.loc 1 1872 0 discriminator 58
 2145 00aa 0340     		and	r3, r0
 2146 00ac 0F20     		mov	r0, #15
 2147              	.LVL119:
 2148 00ae 1B0C     		lsr	r3, r3, #16
 2149 00b0 9840     		lsl	r0, r0, r3
 2150 00b2 031C     		mov	r3, r0
 2151 00b4 00E0     		b	.L193
 2152              	.L205:
 2153              		.loc 1 1872 0
 2154 00b6 1B01     		lsl	r3, r3, #4
 2155              	.L193:
 2156              		.loc 1 1872 0 discriminator 72
 2157 00b8 0B40     		and	r3, r1
 2158 00ba 1343     		orr	r3, r2
ARM GAS  C:\Users\Jerry\AppData\Local\Temp\cc1IKG0O.s 			page 73


 2159 00bc 2360     		str	r3, [r4]
1873:Generated_Source\PSoC4/VDAC_Synth_UAB.c ****       VDAC_Synth_UAB_GetDynamicSwAddr( (sw_id) ),
1874:Generated_Source\PSoC4/VDAC_Synth_UAB.c ****       VDAC_Synth_UAB_DynamicSwMask( (sw_id) ),
1875:Generated_Source\PSoC4/VDAC_Synth_UAB.c ****       ((uint32)((clk))), 
1876:Generated_Source\PSoC4/VDAC_Synth_UAB.c ****       VDAC_Synth_UAB_DynamicSwShift( (sw_id) )
1877:Generated_Source\PSoC4/VDAC_Synth_UAB.c ****     ); 
1878:Generated_Source\PSoC4/VDAC_Synth_UAB.c **** }
 2160              		.loc 1 1878 0 is_stmt 1 discriminator 72
 2161              		@ sp needed
 2162 00be F0BD     		pop	{r4, r5, r6, r7, pc}
 2163              	.L208:
 2164              		.align	2
 2165              	.L207:
 2166 00c0 00033440 		.word	1077150464
 2167 00c4 44023440 		.word	1077150276
 2168 00c8 54023440 		.word	1077150292
 2169 00cc 64023440 		.word	1077150308
 2170 00d0 FF0FFFFF 		.word	-61441
 2171 00d4 FFF0FFFF 		.word	-3841
 2172              		.cfi_endproc
 2173              	.LFE48:
 2174              		.size	VDAC_Synth_UAB_SetSwitch, .-VDAC_Synth_UAB_SetSwitch
 2175              		.global	VDAC_Synth_UAB_config
 2176              		.global	VDAC_Synth_UAB_initPairs
 2177              		.global	VDAC_Synth_UAB_waveConfig
 2178              		.global	VDAC_Synth_UAB_initVar
 2179              		.data
 2180              		.align	2
 2181              		.set	.LANCHOR1,. + 0
 2182              		.type	VDAC_Synth_UAB_config, %object
 2183              		.size	VDAC_Synth_UAB_config, 12
 2184              	VDAC_Synth_UAB_config:
 2185 0000 00000000 		.word	VDAC_Synth_UAB_waveConfig
 2186 0004 00000000 		.word	VDAC_Synth_UAB_initPairs
 2187 0008 0000     		.short	0
 2188 000a 03       		.byte	3
 2189 000b 0E       		.byte	14
 2190              		.type	VDAC_Synth_UAB_initPairs, %object
 2191              		.size	VDAC_Synth_UAB_initPairs, 112
 2192              	VDAC_Synth_UAB_initPairs:
 2193 000c 00033440 		.word	1077150464
 2194 0010 07000000 		.word	7
 2195 0014 30033440 		.word	1077150512
 2196 0018 20300000 		.word	12320
 2197 001c 34033440 		.word	1077150516
 2198 0020 00000000 		.word	0
 2199 0024 78033440 		.word	1077150584
 2200 0028 03000000 		.word	3
 2201 002c 04033440 		.word	1077150468
 2202 0030 200000A0 		.word	-1610612704
 2203 0034 08033440 		.word	1077150472
 2204 0038 0000001F 		.word	520093696
 2205 003c 10033440 		.word	1077150480
 2206 0040 0000009F 		.word	-1627389952
 2207 0044 44033440 		.word	1077150532
 2208 0048 00A00000 		.word	40960
 2209 004c 48033440 		.word	1077150536
ARM GAS  C:\Users\Jerry\AppData\Local\Temp\cc1IKG0O.s 			page 74


 2210 0050 00000F00 		.word	983040
 2211 0054 54033440 		.word	1077150548
 2212 0058 00A00000 		.word	40960
 2213 005c 58033440 		.word	1077150552
 2214 0060 00100F00 		.word	987136
 2215 0064 6C033440 		.word	1077150572
 2216 0068 F0310000 		.word	12784
 2217 006c 70033440 		.word	1077150576
 2218 0070 3000005F 		.word	1593835568
 2219 0074 74033440 		.word	1077150580
 2220 0078 11101100 		.word	1118225
 2221              		.type	VDAC_Synth_UAB_waveConfig, %object
 2222              		.size	VDAC_Synth_UAB_waveConfig, 6
 2223              	VDAC_Synth_UAB_waveConfig:
 2224 007c 113B     		.short	15121
 2225 007e 022E     		.short	11778
 2226 0080 060E     		.short	3590
 2227 0082 0000     		.bss
 2228              		.align	2
 2229              		.set	.LANCHOR0,. + 0
 2230              		.type	VDAC_Synth_UAB_initVar, %object
 2231              		.size	VDAC_Synth_UAB_initVar, 4
 2232              	VDAC_Synth_UAB_initVar:
 2233 0000 00000000 		.space	4
 2234              		.text
 2235              	.Letext0:
 2236              		.file 2 "Generated_Source\\PSoC4\\cytypes.h"
 2237              		.file 3 "Generated_Source\\PSoC4\\VDAC_Synth_UAB_CyUAB_types.h"
 2238              		.file 4 "c:\\program files (x86)\\cypress\\psoc creator\\4.0\\psoc creator\\import\\gnu\\arm\\4.9.
 2239              		.file 5 "Generated_Source\\PSoC4\\VDAC_Synth_UAB_CyUAB.h"
 2240              		.section	.debug_info,"",%progbits
 2241              	.Ldebug_info0:
 2242 0000 4F180000 		.4byte	0x184f
 2243 0004 0400     		.2byte	0x4
 2244 0006 00000000 		.4byte	.Ldebug_abbrev0
 2245 000a 04       		.byte	0x4
 2246 000b 01       		.uleb128 0x1
 2247 000c 021F0000 		.4byte	.LASF587
 2248 0010 01       		.byte	0x1
 2249 0011 ED0F0000 		.4byte	.LASF588
 2250 0015 00000000 		.4byte	.LASF589
 2251 0019 00000000 		.4byte	.Ldebug_ranges0+0
 2252 001d 00000000 		.4byte	0
 2253 0021 00000000 		.4byte	.Ldebug_line0
 2254 0025 02       		.uleb128 0x2
 2255 0026 01       		.byte	0x1
 2256 0027 06       		.byte	0x6
 2257 0028 2A080000 		.4byte	.LASF0
 2258 002c 02       		.uleb128 0x2
 2259 002d 01       		.byte	0x1
 2260 002e 08       		.byte	0x8
 2261 002f FA080000 		.4byte	.LASF1
 2262 0033 02       		.uleb128 0x2
 2263 0034 02       		.byte	0x2
 2264 0035 05       		.byte	0x5
 2265 0036 74220000 		.4byte	.LASF2
 2266 003a 02       		.uleb128 0x2
ARM GAS  C:\Users\Jerry\AppData\Local\Temp\cc1IKG0O.s 			page 75


 2267 003b 02       		.byte	0x2
 2268 003c 07       		.byte	0x7
 2269 003d 0F270000 		.4byte	.LASF3
 2270 0041 02       		.uleb128 0x2
 2271 0042 04       		.byte	0x4
 2272 0043 05       		.byte	0x5
 2273 0044 19060000 		.4byte	.LASF4
 2274 0048 02       		.uleb128 0x2
 2275 0049 04       		.byte	0x4
 2276 004a 07       		.byte	0x7
 2277 004b D7100000 		.4byte	.LASF5
 2278 004f 02       		.uleb128 0x2
 2279 0050 08       		.byte	0x8
 2280 0051 05       		.byte	0x5
 2281 0052 16140000 		.4byte	.LASF6
 2282 0056 02       		.uleb128 0x2
 2283 0057 08       		.byte	0x8
 2284 0058 07       		.byte	0x7
 2285 0059 B71C0000 		.4byte	.LASF7
 2286 005d 03       		.uleb128 0x3
 2287 005e 04       		.byte	0x4
 2288 005f 05       		.byte	0x5
 2289 0060 696E7400 		.ascii	"int\000"
 2290 0064 02       		.uleb128 0x2
 2291 0065 04       		.byte	0x4
 2292 0066 07       		.byte	0x7
 2293 0067 68170000 		.4byte	.LASF8
 2294 006b 04       		.uleb128 0x4
 2295 006c 45220000 		.4byte	.LASF9
 2296 0070 02       		.byte	0x2
 2297 0071 B901     		.2byte	0x1b9
 2298 0073 2C000000 		.4byte	0x2c
 2299 0077 04       		.uleb128 0x4
 2300 0078 0A290000 		.4byte	.LASF10
 2301 007c 02       		.byte	0x2
 2302 007d BA01     		.2byte	0x1ba
 2303 007f 3A000000 		.4byte	0x3a
 2304 0083 04       		.uleb128 0x4
 2305 0084 B4010000 		.4byte	.LASF11
 2306 0088 02       		.byte	0x2
 2307 0089 BB01     		.2byte	0x1bb
 2308 008b 48000000 		.4byte	0x48
 2309 008f 04       		.uleb128 0x4
 2310 0090 BD240000 		.4byte	.LASF12
 2311 0094 02       		.byte	0x2
 2312 0095 BD01     		.2byte	0x1bd
 2313 0097 33000000 		.4byte	0x33
 2314 009b 04       		.uleb128 0x4
 2315 009c 92270000 		.4byte	.LASF13
 2316 00a0 02       		.byte	0x2
 2317 00a1 BE01     		.2byte	0x1be
 2318 00a3 41000000 		.4byte	0x41
 2319 00a7 02       		.uleb128 0x2
 2320 00a8 04       		.byte	0x4
 2321 00a9 04       		.byte	0x4
 2322 00aa 74160000 		.4byte	.LASF14
 2323 00ae 02       		.uleb128 0x2
ARM GAS  C:\Users\Jerry\AppData\Local\Temp\cc1IKG0O.s 			page 76


 2324 00af 08       		.byte	0x8
 2325 00b0 04       		.byte	0x4
 2326 00b1 1D150000 		.4byte	.LASF15
 2327 00b5 02       		.uleb128 0x2
 2328 00b6 01       		.byte	0x1
 2329 00b7 08       		.byte	0x8
 2330 00b8 9A0A0000 		.4byte	.LASF16
 2331 00bc 04       		.uleb128 0x4
 2332 00bd 1D1D0000 		.4byte	.LASF17
 2333 00c1 02       		.byte	0x2
 2334 00c2 6502     		.2byte	0x265
 2335 00c4 C8000000 		.4byte	0xc8
 2336 00c8 05       		.uleb128 0x5
 2337 00c9 83000000 		.4byte	0x83
 2338 00cd 06       		.uleb128 0x6
 2339 00ce 08       		.byte	0x8
 2340 00cf 03       		.byte	0x3
 2341 00d0 44       		.byte	0x44
 2342 00d1 EE000000 		.4byte	0xee
 2343 00d5 07       		.uleb128 0x7
 2344 00d6 CC160000 		.4byte	.LASF18
 2345 00da 03       		.byte	0x3
 2346 00db 45       		.byte	0x45
 2347 00dc EE000000 		.4byte	0xee
 2348 00e0 00       		.byte	0
 2349 00e1 07       		.uleb128 0x7
 2350 00e2 570A0000 		.4byte	.LASF19
 2351 00e6 03       		.byte	0x3
 2352 00e7 46       		.byte	0x46
 2353 00e8 83000000 		.4byte	0x83
 2354 00ec 04       		.byte	0x4
 2355 00ed 00       		.byte	0
 2356 00ee 08       		.uleb128 0x8
 2357 00ef 04       		.byte	0x4
 2358 00f0 BC000000 		.4byte	0xbc
 2359 00f4 09       		.uleb128 0x9
 2360 00f5 EF230000 		.4byte	.LASF20
 2361 00f9 03       		.byte	0x3
 2362 00fa 47       		.byte	0x47
 2363 00fb CD000000 		.4byte	0xcd
 2364 00ff 06       		.uleb128 0x6
 2365 0100 0C       		.byte	0xc
 2366 0101 03       		.byte	0x3
 2367 0102 4E       		.byte	0x4e
 2368 0103 44010000 		.4byte	0x144
 2369 0107 07       		.uleb128 0x7
 2370 0108 47210000 		.4byte	.LASF21
 2371 010c 03       		.byte	0x3
 2372 010d 4F       		.byte	0x4f
 2373 010e 44010000 		.4byte	0x144
 2374 0112 00       		.byte	0
 2375 0113 07       		.uleb128 0x7
 2376 0114 35070000 		.4byte	.LASF22
 2377 0118 03       		.byte	0x3
 2378 0119 50       		.byte	0x50
 2379 011a 4A010000 		.4byte	0x14a
 2380 011e 04       		.byte	0x4
ARM GAS  C:\Users\Jerry\AppData\Local\Temp\cc1IKG0O.s 			page 77


 2381 011f 07       		.uleb128 0x7
 2382 0120 51190000 		.4byte	.LASF23
 2383 0124 03       		.byte	0x3
 2384 0125 51       		.byte	0x51
 2385 0126 77000000 		.4byte	0x77
 2386 012a 08       		.byte	0x8
 2387 012b 07       		.uleb128 0x7
 2388 012c 511A0000 		.4byte	.LASF24
 2389 0130 03       		.byte	0x3
 2390 0131 52       		.byte	0x52
 2391 0132 6B000000 		.4byte	0x6b
 2392 0136 0A       		.byte	0xa
 2393 0137 07       		.uleb128 0x7
 2394 0138 FE1B0000 		.4byte	.LASF25
 2395 013c 03       		.byte	0x3
 2396 013d 53       		.byte	0x53
 2397 013e 6B000000 		.4byte	0x6b
 2398 0142 0B       		.byte	0xb
 2399 0143 00       		.byte	0
 2400 0144 08       		.uleb128 0x8
 2401 0145 04       		.byte	0x4
 2402 0146 77000000 		.4byte	0x77
 2403 014a 08       		.uleb128 0x8
 2404 014b 04       		.byte	0x4
 2405 014c F4000000 		.4byte	0xf4
 2406 0150 09       		.uleb128 0x9
 2407 0151 E7090000 		.4byte	.LASF26
 2408 0155 03       		.byte	0x3
 2409 0156 54       		.byte	0x54
 2410 0157 FF000000 		.4byte	0xff
 2411 015b 0A       		.uleb128 0xa
 2412 015c 01       		.byte	0x1
 2413 015d 03       		.byte	0x3
 2414 015e 92       		.byte	0x92
 2415 015f 71010000 		.4byte	0x171
 2416 0163 0B       		.uleb128 0xb
 2417 0164 71250000 		.4byte	.LASF27
 2418 0168 25       		.sleb128 37
 2419 0169 0B       		.uleb128 0xb
 2420 016a 03020000 		.4byte	.LASF28
 2421 016e C300     		.sleb128 67
 2422 0170 00       		.byte	0
 2423 0171 09       		.uleb128 0x9
 2424 0172 97170000 		.4byte	.LASF29
 2425 0176 03       		.byte	0x3
 2426 0177 96       		.byte	0x96
 2427 0178 5B010000 		.4byte	0x15b
 2428 017c 0A       		.uleb128 0xa
 2429 017d 01       		.byte	0x1
 2430 017e 03       		.byte	0x3
 2431 017f 9E       		.byte	0x9e
 2432 0180 9D010000 		.4byte	0x19d
 2433 0184 0B       		.uleb128 0xb
 2434 0185 8C0F0000 		.4byte	.LASF30
 2435 0189 00       		.sleb128 0
 2436 018a 0B       		.uleb128 0xb
 2437 018b 7D100000 		.4byte	.LASF31
ARM GAS  C:\Users\Jerry\AppData\Local\Temp\cc1IKG0O.s 			page 78


 2438 018f 01       		.sleb128 1
 2439 0190 0B       		.uleb128 0xb
 2440 0191 5D010000 		.4byte	.LASF32
 2441 0195 02       		.sleb128 2
 2442 0196 0B       		.uleb128 0xb
 2443 0197 D1180000 		.4byte	.LASF33
 2444 019b 03       		.sleb128 3
 2445 019c 00       		.byte	0
 2446 019d 09       		.uleb128 0x9
 2447 019e E5190000 		.4byte	.LASF34
 2448 01a2 03       		.byte	0x3
 2449 01a3 A4       		.byte	0xa4
 2450 01a4 7C010000 		.4byte	0x17c
 2451 01a8 0A       		.uleb128 0xa
 2452 01a9 01       		.byte	0x1
 2453 01aa 03       		.byte	0x3
 2454 01ab AB       		.byte	0xab
 2455 01ac BD010000 		.4byte	0x1bd
 2456 01b0 0B       		.uleb128 0xb
 2457 01b1 10010000 		.4byte	.LASF35
 2458 01b5 00       		.sleb128 0
 2459 01b6 0B       		.uleb128 0xb
 2460 01b7 63050000 		.4byte	.LASF36
 2461 01bb 01       		.sleb128 1
 2462 01bc 00       		.byte	0
 2463 01bd 09       		.uleb128 0x9
 2464 01be 02080000 		.4byte	.LASF37
 2465 01c2 03       		.byte	0x3
 2466 01c3 AE       		.byte	0xae
 2467 01c4 A8010000 		.4byte	0x1a8
 2468 01c8 0A       		.uleb128 0xa
 2469 01c9 01       		.byte	0x1
 2470 01ca 03       		.byte	0x3
 2471 01cb C1       		.byte	0xc1
 2472 01cc DD010000 		.4byte	0x1dd
 2473 01d0 0B       		.uleb128 0xb
 2474 01d1 980E0000 		.4byte	.LASF38
 2475 01d5 00       		.sleb128 0
 2476 01d6 0B       		.uleb128 0xb
 2477 01d7 15100000 		.4byte	.LASF39
 2478 01db 01       		.sleb128 1
 2479 01dc 00       		.byte	0
 2480 01dd 09       		.uleb128 0x9
 2481 01de CC1F0000 		.4byte	.LASF40
 2482 01e2 03       		.byte	0x3
 2483 01e3 C4       		.byte	0xc4
 2484 01e4 C8010000 		.4byte	0x1c8
 2485 01e8 0A       		.uleb128 0xa
 2486 01e9 01       		.byte	0x1
 2487 01ea 03       		.byte	0x3
 2488 01eb CB       		.byte	0xcb
 2489 01ec FD010000 		.4byte	0x1fd
 2490 01f0 0B       		.uleb128 0xb
 2491 01f1 13180000 		.4byte	.LASF41
 2492 01f5 00       		.sleb128 0
 2493 01f6 0B       		.uleb128 0xb
 2494 01f7 D80C0000 		.4byte	.LASF42
ARM GAS  C:\Users\Jerry\AppData\Local\Temp\cc1IKG0O.s 			page 79


 2495 01fb 01       		.sleb128 1
 2496 01fc 00       		.byte	0
 2497 01fd 09       		.uleb128 0x9
 2498 01fe 36290000 		.4byte	.LASF43
 2499 0202 03       		.byte	0x3
 2500 0203 CE       		.byte	0xce
 2501 0204 E8010000 		.4byte	0x1e8
 2502 0208 0A       		.uleb128 0xa
 2503 0209 01       		.byte	0x1
 2504 020a 03       		.byte	0x3
 2505 020b D9       		.byte	0xd9
 2506 020c 1D020000 		.4byte	0x21d
 2507 0210 0B       		.uleb128 0xb
 2508 0211 D5080000 		.4byte	.LASF44
 2509 0215 00       		.sleb128 0
 2510 0216 0B       		.uleb128 0xb
 2511 0217 D6260000 		.4byte	.LASF45
 2512 021b 01       		.sleb128 1
 2513 021c 00       		.byte	0
 2514 021d 09       		.uleb128 0x9
 2515 021e E7290000 		.4byte	.LASF46
 2516 0222 03       		.byte	0x3
 2517 0223 DC       		.byte	0xdc
 2518 0224 08020000 		.4byte	0x208
 2519 0228 0A       		.uleb128 0xa
 2520 0229 01       		.byte	0x1
 2521 022a 03       		.byte	0x3
 2522 022b E7       		.byte	0xe7
 2523 022c 3D020000 		.4byte	0x23d
 2524 0230 0B       		.uleb128 0xb
 2525 0231 55170000 		.4byte	.LASF47
 2526 0235 00       		.sleb128 0
 2527 0236 0B       		.uleb128 0xb
 2528 0237 62250000 		.4byte	.LASF48
 2529 023b 01       		.sleb128 1
 2530 023c 00       		.byte	0
 2531 023d 09       		.uleb128 0x9
 2532 023e 8F1E0000 		.4byte	.LASF49
 2533 0242 03       		.byte	0x3
 2534 0243 EA       		.byte	0xea
 2535 0244 28020000 		.4byte	0x228
 2536 0248 0A       		.uleb128 0xa
 2537 0249 01       		.byte	0x1
 2538 024a 03       		.byte	0x3
 2539 024b F5       		.byte	0xf5
 2540 024c 7B020000 		.4byte	0x27b
 2541 0250 0B       		.uleb128 0xb
 2542 0251 6E1E0000 		.4byte	.LASF50
 2543 0255 00       		.sleb128 0
 2544 0256 0B       		.uleb128 0xb
 2545 0257 B2130000 		.4byte	.LASF51
 2546 025b 01       		.sleb128 1
 2547 025c 0B       		.uleb128 0xb
 2548 025d 94250000 		.4byte	.LASF52
 2549 0261 02       		.sleb128 2
 2550 0262 0B       		.uleb128 0xb
 2551 0263 BF020000 		.4byte	.LASF53
ARM GAS  C:\Users\Jerry\AppData\Local\Temp\cc1IKG0O.s 			page 80


 2552 0267 03       		.sleb128 3
 2553 0268 0B       		.uleb128 0xb
 2554 0269 A30B0000 		.4byte	.LASF54
 2555 026d 05       		.sleb128 5
 2556 026e 0B       		.uleb128 0xb
 2557 026f 421D0000 		.4byte	.LASF55
 2558 0273 06       		.sleb128 6
 2559 0274 0B       		.uleb128 0xb
 2560 0275 B0150000 		.4byte	.LASF56
 2561 0279 07       		.sleb128 7
 2562 027a 00       		.byte	0
 2563 027b 09       		.uleb128 0x9
 2564 027c E6130000 		.4byte	.LASF57
 2565 0280 03       		.byte	0x3
 2566 0281 FE       		.byte	0xfe
 2567 0282 48020000 		.4byte	0x248
 2568 0286 0C       		.uleb128 0xc
 2569 0287 01       		.byte	0x1
 2570 0288 03       		.byte	0x3
 2571 0289 0501     		.2byte	0x105
 2572 028b A2020000 		.4byte	0x2a2
 2573 028f 0B       		.uleb128 0xb
 2574 0290 381B0000 		.4byte	.LASF58
 2575 0294 00       		.sleb128 0
 2576 0295 0B       		.uleb128 0xb
 2577 0296 F6140000 		.4byte	.LASF59
 2578 029a 01       		.sleb128 1
 2579 029b 0B       		.uleb128 0xb
 2580 029c B6200000 		.4byte	.LASF60
 2581 02a0 02       		.sleb128 2
 2582 02a1 00       		.byte	0
 2583 02a2 04       		.uleb128 0x4
 2584 02a3 E1040000 		.4byte	.LASF61
 2585 02a7 03       		.byte	0x3
 2586 02a8 0A01     		.2byte	0x10a
 2587 02aa 86020000 		.4byte	0x286
 2588 02ae 0C       		.uleb128 0xc
 2589 02af 01       		.byte	0x1
 2590 02b0 03       		.byte	0x3
 2591 02b1 1201     		.2byte	0x112
 2592 02b3 C4020000 		.4byte	0x2c4
 2593 02b7 0B       		.uleb128 0xb
 2594 02b8 24210000 		.4byte	.LASF62
 2595 02bc 00       		.sleb128 0
 2596 02bd 0B       		.uleb128 0xb
 2597 02be 1A0B0000 		.4byte	.LASF63
 2598 02c2 01       		.sleb128 1
 2599 02c3 00       		.byte	0
 2600 02c4 04       		.uleb128 0x4
 2601 02c5 A9020000 		.4byte	.LASF64
 2602 02c9 03       		.byte	0x3
 2603 02ca 1501     		.2byte	0x115
 2604 02cc AE020000 		.4byte	0x2ae
 2605 02d0 0C       		.uleb128 0xc
 2606 02d1 01       		.byte	0x1
 2607 02d2 03       		.byte	0x3
 2608 02d3 1C01     		.2byte	0x11c
ARM GAS  C:\Users\Jerry\AppData\Local\Temp\cc1IKG0O.s 			page 81


 2609 02d5 E6020000 		.4byte	0x2e6
 2610 02d9 0B       		.uleb128 0xb
 2611 02da C5000000 		.4byte	.LASF65
 2612 02de 00       		.sleb128 0
 2613 02df 0B       		.uleb128 0xb
 2614 02e0 F1270000 		.4byte	.LASF66
 2615 02e4 01       		.sleb128 1
 2616 02e5 00       		.byte	0
 2617 02e6 04       		.uleb128 0x4
 2618 02e7 EB1A0000 		.4byte	.LASF67
 2619 02eb 03       		.byte	0x3
 2620 02ec 2101     		.2byte	0x121
 2621 02ee D0020000 		.4byte	0x2d0
 2622 02f2 0C       		.uleb128 0xc
 2623 02f3 01       		.byte	0x1
 2624 02f4 03       		.byte	0x3
 2625 02f5 2901     		.2byte	0x129
 2626 02f7 0E030000 		.4byte	0x30e
 2627 02fb 0B       		.uleb128 0xb
 2628 02fc 0A1A0000 		.4byte	.LASF68
 2629 0300 00       		.sleb128 0
 2630 0301 0B       		.uleb128 0xb
 2631 0302 DE200000 		.4byte	.LASF69
 2632 0306 01       		.sleb128 1
 2633 0307 0B       		.uleb128 0xb
 2634 0308 6F190000 		.4byte	.LASF70
 2635 030c 02       		.sleb128 2
 2636 030d 00       		.byte	0
 2637 030e 04       		.uleb128 0x4
 2638 030f 04200000 		.4byte	.LASF71
 2639 0313 03       		.byte	0x3
 2640 0314 3F01     		.2byte	0x13f
 2641 0316 F2020000 		.4byte	0x2f2
 2642 031a 0C       		.uleb128 0xc
 2643 031b 01       		.byte	0x1
 2644 031c 03       		.byte	0x3
 2645 031d 4201     		.2byte	0x142
 2646 031f 30030000 		.4byte	0x330
 2647 0323 0B       		.uleb128 0xb
 2648 0324 59040000 		.4byte	.LASF72
 2649 0328 00       		.sleb128 0
 2650 0329 0B       		.uleb128 0xb
 2651 032a 18200000 		.4byte	.LASF73
 2652 032e 01       		.sleb128 1
 2653 032f 00       		.byte	0
 2654 0330 04       		.uleb128 0x4
 2655 0331 5E020000 		.4byte	.LASF74
 2656 0335 03       		.byte	0x3
 2657 0336 4901     		.2byte	0x149
 2658 0338 1A030000 		.4byte	0x31a
 2659 033c 0C       		.uleb128 0xc
 2660 033d 01       		.byte	0x1
 2661 033e 03       		.byte	0x3
 2662 033f 5201     		.2byte	0x152
 2663 0341 52030000 		.4byte	0x352
 2664 0345 0B       		.uleb128 0xb
 2665 0346 0E210000 		.4byte	.LASF75
ARM GAS  C:\Users\Jerry\AppData\Local\Temp\cc1IKG0O.s 			page 82


 2666 034a 00       		.sleb128 0
 2667 034b 0B       		.uleb128 0xb
 2668 034c 7F1C0000 		.4byte	.LASF76
 2669 0350 01       		.sleb128 1
 2670 0351 00       		.byte	0
 2671 0352 04       		.uleb128 0x4
 2672 0353 BF150000 		.4byte	.LASF77
 2673 0357 03       		.byte	0x3
 2674 0358 5501     		.2byte	0x155
 2675 035a 3C030000 		.4byte	0x33c
 2676 035e 0C       		.uleb128 0xc
 2677 035f 01       		.byte	0x1
 2678 0360 03       		.byte	0x3
 2679 0361 5901     		.2byte	0x159
 2680 0363 74030000 		.4byte	0x374
 2681 0367 0B       		.uleb128 0xb
 2682 0368 5D0A0000 		.4byte	.LASF78
 2683 036c 00       		.sleb128 0
 2684 036d 0B       		.uleb128 0xb
 2685 036e 4B220000 		.4byte	.LASF79
 2686 0372 01       		.sleb128 1
 2687 0373 00       		.byte	0
 2688 0374 04       		.uleb128 0x4
 2689 0375 D31E0000 		.4byte	.LASF80
 2690 0379 03       		.byte	0x3
 2691 037a 5D01     		.2byte	0x15d
 2692 037c 5E030000 		.4byte	0x35e
 2693 0380 0C       		.uleb128 0xc
 2694 0381 01       		.byte	0x1
 2695 0382 03       		.byte	0x3
 2696 0383 7001     		.2byte	0x170
 2697 0385 DE030000 		.4byte	0x3de
 2698 0389 0B       		.uleb128 0xb
 2699 038a 9F0A0000 		.4byte	.LASF81
 2700 038e 00       		.sleb128 0
 2701 038f 0B       		.uleb128 0xb
 2702 0390 9C290000 		.4byte	.LASF82
 2703 0394 01       		.sleb128 1
 2704 0395 0B       		.uleb128 0xb
 2705 0396 AB290000 		.4byte	.LASF83
 2706 039a 02       		.sleb128 2
 2707 039b 0B       		.uleb128 0xb
 2708 039c BA290000 		.4byte	.LASF84
 2709 03a0 03       		.sleb128 3
 2710 03a1 0B       		.uleb128 0xb
 2711 03a2 C9290000 		.4byte	.LASF85
 2712 03a6 04       		.sleb128 4
 2713 03a7 0B       		.uleb128 0xb
 2714 03a8 D8290000 		.4byte	.LASF86
 2715 03ac 05       		.sleb128 5
 2716 03ad 0B       		.uleb128 0xb
 2717 03ae A31A0000 		.4byte	.LASF87
 2718 03b2 06       		.sleb128 6
 2719 03b3 0B       		.uleb128 0xb
 2720 03b4 FC290000 		.4byte	.LASF88
 2721 03b8 07       		.sleb128 7
 2722 03b9 0B       		.uleb128 0xb
ARM GAS  C:\Users\Jerry\AppData\Local\Temp\cc1IKG0O.s 			page 83


 2723 03ba 0B2A0000 		.4byte	.LASF89
 2724 03be 08       		.sleb128 8
 2725 03bf 0B       		.uleb128 0xb
 2726 03c0 1A2A0000 		.4byte	.LASF90
 2727 03c4 09       		.sleb128 9
 2728 03c5 0B       		.uleb128 0xb
 2729 03c6 A0150000 		.4byte	.LASF91
 2730 03ca 0A       		.sleb128 10
 2731 03cb 0B       		.uleb128 0xb
 2732 03cc 8C030000 		.4byte	.LASF92
 2733 03d0 0B       		.sleb128 11
 2734 03d1 0B       		.uleb128 0xb
 2735 03d2 9C030000 		.4byte	.LASF93
 2736 03d6 0C       		.sleb128 12
 2737 03d7 0B       		.uleb128 0xb
 2738 03d8 201E0000 		.4byte	.LASF94
 2739 03dc 0F       		.sleb128 15
 2740 03dd 00       		.byte	0
 2741 03de 04       		.uleb128 0x4
 2742 03df F1170000 		.4byte	.LASF95
 2743 03e3 03       		.byte	0x3
 2744 03e4 8601     		.2byte	0x186
 2745 03e6 80030000 		.4byte	0x380
 2746 03ea 0C       		.uleb128 0xc
 2747 03eb 04       		.byte	0x4
 2748 03ec 03       		.byte	0x3
 2749 03ed CD01     		.2byte	0x1cd
 2750 03ef 31060000 		.4byte	0x631
 2751 03f3 0B       		.uleb128 0xb
 2752 03f4 45030000 		.4byte	.LASF96
 2753 03f8 B0808004 		.sleb128 8388656
 2754 03fc 0B       		.uleb128 0xb
 2755 03fd 52030000 		.4byte	.LASF97
 2756 0401 B0808404 		.sleb128 8454192
 2757 0405 0B       		.uleb128 0xb
 2758 0406 5F030000 		.4byte	.LASF98
 2759 040a B0808804 		.sleb128 8519728
 2760 040e 0B       		.uleb128 0xb
 2761 040f 6C030000 		.4byte	.LASF99
 2762 0413 B0808C04 		.sleb128 8585264
 2763 0417 0B       		.uleb128 0xb
 2764 0418 C1120000 		.4byte	.LASF100
 2765 041c B08010   		.sleb128 262192
 2766 041f 0B       		.uleb128 0xb
 2767 0420 74040000 		.4byte	.LASF101
 2768 0424 B08014   		.sleb128 327728
 2769 0427 0B       		.uleb128 0xb
 2770 0428 15130000 		.4byte	.LASF102
 2771 042c B08020   		.sleb128 524336
 2772 042f 0B       		.uleb128 0xb
 2773 0430 C2040000 		.4byte	.LASF103
 2774 0434 B08024   		.sleb128 589872
 2775 0437 0B       		.uleb128 0xb
 2776 0438 08120000 		.4byte	.LASF104
 2777 043c B08028   		.sleb128 655408
 2778 043f 0B       		.uleb128 0xb
 2779 0440 DA1D0000 		.4byte	.LASF105
ARM GAS  C:\Users\Jerry\AppData\Local\Temp\cc1IKG0O.s 			page 84


 2780 0444 C0808004 		.sleb128 8388672
 2781 0448 0B       		.uleb128 0xb
 2782 0449 030E0000 		.4byte	.LASF106
 2783 044d C0809004 		.sleb128 8650816
 2784 0451 0B       		.uleb128 0xb
 2785 0452 11290000 		.4byte	.LASF107
 2786 0456 C080A004 		.sleb128 8912960
 2787 045a 0B       		.uleb128 0xb
 2788 045b 5B190000 		.4byte	.LASF108
 2789 045f C080B004 		.sleb128 9175104
 2790 0463 0B       		.uleb128 0xb
 2791 0464 BE260000 		.4byte	.LASF109
 2792 0468 C080C000 		.sleb128 1048640
 2793 046c 0B       		.uleb128 0xb
 2794 046d CA260000 		.4byte	.LASF110
 2795 0471 C080D000 		.sleb128 1310784
 2796 0475 0B       		.uleb128 0xb
 2797 0476 57260000 		.4byte	.LASF111
 2798 047a C400     		.sleb128 68
 2799 047c 0B       		.uleb128 0xb
 2800 047d 97240000 		.4byte	.LASF112
 2801 0481 C48010   		.sleb128 262212
 2802 0484 0B       		.uleb128 0xb
 2803 0485 D1160000 		.4byte	.LASF113
 2804 0489 C48020   		.sleb128 524356
 2805 048c 0B       		.uleb128 0xb
 2806 048d A81F0000 		.4byte	.LASF114
 2807 0491 C48030   		.sleb128 786500
 2808 0494 0B       		.uleb128 0xb
 2809 0495 F3060000 		.4byte	.LASF115
 2810 0499 C800     		.sleb128 72
 2811 049b 0B       		.uleb128 0xb
 2812 049c EA1E0000 		.4byte	.LASF116
 2813 04a0 C88010   		.sleb128 262216
 2814 04a3 0B       		.uleb128 0xb
 2815 04a4 1B050000 		.4byte	.LASF117
 2816 04a8 C88020   		.sleb128 524360
 2817 04ab 0B       		.uleb128 0xb
 2818 04ac 62140000 		.4byte	.LASF118
 2819 04b0 C880C000 		.sleb128 1048648
 2820 04b4 0B       		.uleb128 0xb
 2821 04b5 E3150000 		.4byte	.LASF119
 2822 04b9 D0808004 		.sleb128 8388688
 2823 04bd 0B       		.uleb128 0xb
 2824 04be C4060000 		.4byte	.LASF120
 2825 04c2 D0809004 		.sleb128 8650832
 2826 04c6 0B       		.uleb128 0xb
 2827 04c7 31220000 		.4byte	.LASF121
 2828 04cb D080A004 		.sleb128 8912976
 2829 04cf 0B       		.uleb128 0xb
 2830 04d0 BD110000 		.4byte	.LASF122
 2831 04d4 D080B004 		.sleb128 9175120
 2832 04d8 0B       		.uleb128 0xb
 2833 04d9 D9270000 		.4byte	.LASF123
 2834 04dd D080C000 		.sleb128 1048656
 2835 04e1 0B       		.uleb128 0xb
 2836 04e2 E5270000 		.4byte	.LASF124
ARM GAS  C:\Users\Jerry\AppData\Local\Temp\cc1IKG0O.s 			page 85


 2837 04e6 D080D000 		.sleb128 1310800
 2838 04ea 0B       		.uleb128 0xb
 2839 04eb BC270000 		.4byte	.LASF125
 2840 04ef D400     		.sleb128 84
 2841 04f1 0B       		.uleb128 0xb
 2842 04f2 AC030000 		.4byte	.LASF126
 2843 04f6 D48010   		.sleb128 262228
 2844 04f9 0B       		.uleb128 0xb
 2845 04fa FB200000 		.4byte	.LASF127
 2846 04fe D48020   		.sleb128 524372
 2847 0501 0B       		.uleb128 0xb
 2848 0502 2A280000 		.4byte	.LASF128
 2849 0506 D48030   		.sleb128 786516
 2850 0509 0B       		.uleb128 0xb
 2851 050a 08050000 		.4byte	.LASF129
 2852 050e D800     		.sleb128 88
 2853 0510 0B       		.uleb128 0xb
 2854 0511 F71C0000 		.4byte	.LASF130
 2855 0515 D88010   		.sleb128 262232
 2856 0518 0B       		.uleb128 0xb
 2857 0519 46000000 		.4byte	.LASF131
 2858 051d D88020   		.sleb128 524376
 2859 0520 0B       		.uleb128 0xb
 2860 0521 2E160000 		.4byte	.LASF132
 2861 0525 D88030   		.sleb128 786520
 2862 0528 0B       		.uleb128 0xb
 2863 0529 6E140000 		.4byte	.LASF133
 2864 052d D880C000 		.sleb128 1048664
 2865 0531 0B       		.uleb128 0xb
 2866 0532 170E0000 		.4byte	.LASF134
 2867 0536 E0808004 		.sleb128 8388704
 2868 053a 0B       		.uleb128 0xb
 2869 053b 51290000 		.4byte	.LASF135
 2870 053f E0809004 		.sleb128 8650848
 2871 0543 0B       		.uleb128 0xb
 2872 0544 87190000 		.4byte	.LASF136
 2873 0548 E080A004 		.sleb128 8912992
 2874 054c 0B       		.uleb128 0xb
 2875 054d 35140000 		.4byte	.LASF137
 2876 0551 E080B004 		.sleb128 9175136
 2877 0555 0B       		.uleb128 0xb
 2878 0556 FE280000 		.4byte	.LASF138
 2879 055a E080C000 		.sleb128 1048672
 2880 055e 0B       		.uleb128 0xb
 2881 055f 141E0000 		.4byte	.LASF139
 2882 0563 E080D000 		.sleb128 1310816
 2883 0567 0B       		.uleb128 0xb
 2884 0568 D7280000 		.4byte	.LASF140
 2885 056c E400     		.sleb128 100
 2886 056e 0B       		.uleb128 0xb
 2887 056f 7B0C0000 		.4byte	.LASF141
 2888 0573 E48010   		.sleb128 262244
 2889 0576 0B       		.uleb128 0xb
 2890 0577 89290000 		.4byte	.LASF142
 2891 057b E48020   		.sleb128 524388
 2892 057e 0B       		.uleb128 0xb
 2893 057f 81070000 		.4byte	.LASF143
ARM GAS  C:\Users\Jerry\AppData\Local\Temp\cc1IKG0O.s 			page 86


 2894 0583 E48030   		.sleb128 786532
 2895 0586 0B       		.uleb128 0xb
 2896 0587 A3200000 		.4byte	.LASF144
 2897 058b E800     		.sleb128 104
 2898 058d 0B       		.uleb128 0xb
 2899 058e 400D0000 		.4byte	.LASF145
 2900 0592 E88010   		.sleb128 262248
 2901 0595 0B       		.uleb128 0xb
 2902 0596 901A0000 		.4byte	.LASF146
 2903 059a E88020   		.sleb128 524392
 2904 059d 0B       		.uleb128 0xb
 2905 059e 3A160000 		.4byte	.LASF147
 2906 05a2 E88030   		.sleb128 786536
 2907 05a5 0B       		.uleb128 0xb
 2908 05a6 7A140000 		.4byte	.LASF148
 2909 05aa E880C000 		.sleb128 1048680
 2910 05ae 0B       		.uleb128 0xb
 2911 05af C71E0000 		.4byte	.LASF149
 2912 05b3 E880D000 		.sleb128 1310824
 2913 05b7 0B       		.uleb128 0xb
 2914 05b8 81280000 		.4byte	.LASF150
 2915 05bc EC00     		.sleb128 108
 2916 05be 0B       		.uleb128 0xb
 2917 05bf 71100000 		.4byte	.LASF151
 2918 05c3 EC8010   		.sleb128 262252
 2919 05c6 0B       		.uleb128 0xb
 2920 05c7 CB100000 		.4byte	.LASF152
 2921 05cb EC8020   		.sleb128 524396
 2922 05ce 0B       		.uleb128 0xb
 2923 05cf AC100000 		.4byte	.LASF153
 2924 05d3 EC8030   		.sleb128 786540
 2925 05d6 0B       		.uleb128 0xb
 2926 05d7 53150000 		.4byte	.LASF154
 2927 05db F000     		.sleb128 112
 2928 05dd 0B       		.uleb128 0xb
 2929 05de 55180000 		.4byte	.LASF155
 2930 05e2 F08010   		.sleb128 262256
 2931 05e5 0B       		.uleb128 0xb
 2932 05e6 A21D0000 		.4byte	.LASF156
 2933 05ea F08020   		.sleb128 524400
 2934 05ed 0B       		.uleb128 0xb
 2935 05ee C6230000 		.4byte	.LASF157
 2936 05f2 F080E000 		.sleb128 1572976
 2937 05f6 0B       		.uleb128 0xb
 2938 05f7 941F0000 		.4byte	.LASF158
 2939 05fb F080F000 		.sleb128 1835120
 2940 05ff 0B       		.uleb128 0xb
 2941 0600 32130000 		.4byte	.LASF159
 2942 0604 F400     		.sleb128 116
 2943 0606 0B       		.uleb128 0xb
 2944 0607 D2150000 		.4byte	.LASF160
 2945 060b F48010   		.sleb128 262260
 2946 060e 0B       		.uleb128 0xb
 2947 060f 25180000 		.4byte	.LASF161
 2948 0613 F48020   		.sleb128 524404
 2949 0616 0B       		.uleb128 0xb
 2950 0617 A31E0000 		.4byte	.LASF162
ARM GAS  C:\Users\Jerry\AppData\Local\Temp\cc1IKG0O.s 			page 87


 2951 061b F48030   		.sleb128 786548
 2952 061e 0B       		.uleb128 0xb
 2953 061f E3280000 		.4byte	.LASF163
 2954 0623 F480C000 		.sleb128 1048692
 2955 0627 0B       		.uleb128 0xb
 2956 0628 B41D0000 		.4byte	.LASF164
 2957 062c F480D000 		.sleb128 1310836
 2958 0630 00       		.byte	0
 2959 0631 04       		.uleb128 0x4
 2960 0632 94070000 		.4byte	.LASF165
 2961 0636 03       		.byte	0x3
 2962 0637 2702     		.2byte	0x227
 2963 0639 EA030000 		.4byte	0x3ea
 2964 063d 0C       		.uleb128 0xc
 2965 063e 01       		.byte	0x1
 2966 063f 03       		.byte	0x3
 2967 0640 3502     		.2byte	0x235
 2968 0642 41090000 		.4byte	0x941
 2969 0646 0B       		.uleb128 0xb
 2970 0647 5F230000 		.4byte	.LASF166
 2971 064b 00       		.sleb128 0
 2972 064c 0B       		.uleb128 0xb
 2973 064d 2F0D0000 		.4byte	.LASF167
 2974 0651 01       		.sleb128 1
 2975 0652 0B       		.uleb128 0xb
 2976 0653 6C1A0000 		.4byte	.LASF168
 2977 0657 02       		.sleb128 2
 2978 0658 0B       		.uleb128 0xb
 2979 0659 301E0000 		.4byte	.LASF169
 2980 065d 03       		.sleb128 3
 2981 065e 0B       		.uleb128 0xb
 2982 065f A1130000 		.4byte	.LASF170
 2983 0663 04       		.sleb128 4
 2984 0664 0B       		.uleb128 0xb
 2985 0665 A3000000 		.4byte	.LASF171
 2986 0669 05       		.sleb128 5
 2987 066a 0B       		.uleb128 0xb
 2988 066b 9F0D0000 		.4byte	.LASF172
 2989 066f 06       		.sleb128 6
 2990 0670 0B       		.uleb128 0xb
 2991 0671 48240000 		.4byte	.LASF173
 2992 0675 07       		.sleb128 7
 2993 0676 0B       		.uleb128 0xb
 2994 0677 70070000 		.4byte	.LASF174
 2995 067b 08       		.sleb128 8
 2996 067c 0B       		.uleb128 0xb
 2997 067d E0250000 		.4byte	.LASF175
 2998 0681 09       		.sleb128 9
 2999 0682 0B       		.uleb128 0xb
 3000 0683 EC000000 		.4byte	.LASF176
 3001 0687 0A       		.sleb128 10
 3002 0688 0B       		.uleb128 0xb
 3003 0689 1E170000 		.4byte	.LASF177
 3004 068d 0B       		.sleb128 11
 3005 068e 0B       		.uleb128 0xb
 3006 068f 86240000 		.4byte	.LASF178
 3007 0693 0C       		.sleb128 12
ARM GAS  C:\Users\Jerry\AppData\Local\Temp\cc1IKG0O.s 			page 88


 3008 0694 0B       		.uleb128 0xb
 3009 0695 C90F0000 		.4byte	.LASF179
 3010 0699 0D       		.sleb128 13
 3011 069a 0B       		.uleb128 0xb
 3012 069b 031E0000 		.4byte	.LASF180
 3013 069f 0E       		.sleb128 14
 3014 06a0 0B       		.uleb128 0xb
 3015 06a1 99090000 		.4byte	.LASF181
 3016 06a5 0F       		.sleb128 15
 3017 06a6 0B       		.uleb128 0xb
 3018 06a7 86170000 		.4byte	.LASF182
 3019 06ab 10       		.sleb128 16
 3020 06ac 0B       		.uleb128 0xb
 3021 06ad CD120000 		.4byte	.LASF183
 3022 06b1 11       		.sleb128 17
 3023 06b2 0B       		.uleb128 0xb
 3024 06b3 93100000 		.4byte	.LASF184
 3025 06b7 12       		.sleb128 18
 3026 06b8 0B       		.uleb128 0xb
 3027 06b9 48270000 		.4byte	.LASF185
 3028 06bd 13       		.sleb128 19
 3029 06be 0B       		.uleb128 0xb
 3030 06bf 1E110000 		.4byte	.LASF186
 3031 06c3 14       		.sleb128 20
 3032 06c4 0B       		.uleb128 0xb
 3033 06c5 521C0000 		.4byte	.LASF187
 3034 06c9 15       		.sleb128 21
 3035 06ca 0B       		.uleb128 0xb
 3036 06cb 760A0000 		.4byte	.LASF188
 3037 06cf 16       		.sleb128 22
 3038 06d0 0B       		.uleb128 0xb
 3039 06d1 88210000 		.4byte	.LASF189
 3040 06d5 17       		.sleb128 23
 3041 06d6 0B       		.uleb128 0xb
 3042 06d7 39040000 		.4byte	.LASF190
 3043 06db 18       		.sleb128 24
 3044 06dc 0B       		.uleb128 0xb
 3045 06dd F9190000 		.4byte	.LASF191
 3046 06e1 19       		.sleb128 25
 3047 06e2 0B       		.uleb128 0xb
 3048 06e3 06280000 		.4byte	.LASF192
 3049 06e7 1A       		.sleb128 26
 3050 06e8 0B       		.uleb128 0xb
 3051 06e9 21130000 		.4byte	.LASF193
 3052 06ed 1B       		.sleb128 27
 3053 06ee 0B       		.uleb128 0xb
 3054 06ef F1210000 		.4byte	.LASF194
 3055 06f3 1C       		.sleb128 28
 3056 06f4 0B       		.uleb128 0xb
 3057 06f5 EE0C0000 		.4byte	.LASF195
 3058 06f9 1D       		.sleb128 29
 3059 06fa 0B       		.uleb128 0xb
 3060 06fb 5B1A0000 		.4byte	.LASF196
 3061 06ff 1E       		.sleb128 30
 3062 0700 0B       		.uleb128 0xb
 3063 0701 52050000 		.4byte	.LASF197
 3064 0705 1F       		.sleb128 31
ARM GAS  C:\Users\Jerry\AppData\Local\Temp\cc1IKG0O.s 			page 89


 3065 0706 0B       		.uleb128 0xb
 3066 0707 7D130000 		.4byte	.LASF198
 3067 070b 20       		.sleb128 32
 3068 070c 0B       		.uleb128 0xb
 3069 070d 7F000000 		.4byte	.LASF199
 3070 0711 21       		.sleb128 33
 3071 0712 0B       		.uleb128 0xb
 3072 0713 660D0000 		.4byte	.LASF200
 3073 0717 22       		.sleb128 34
 3074 0718 0B       		.uleb128 0xb
 3075 0719 24240000 		.4byte	.LASF201
 3076 071d 23       		.sleb128 35
 3077 071e 0B       		.uleb128 0xb
 3078 071f 5F070000 		.4byte	.LASF202
 3079 0723 24       		.sleb128 36
 3080 0724 0B       		.uleb128 0xb
 3081 0725 761D0000 		.4byte	.LASF203
 3082 0729 25       		.sleb128 37
 3083 072a 0B       		.uleb128 0xb
 3084 072b DB000000 		.4byte	.LASF204
 3085 072f 26       		.sleb128 38
 3086 0730 0B       		.uleb128 0xb
 3087 0731 B1080000 		.4byte	.LASF205
 3088 0735 27       		.sleb128 39
 3089 0736 0B       		.uleb128 0xb
 3090 0737 20010000 		.4byte	.LASF206
 3091 073b 28       		.sleb128 40
 3092 073c 0B       		.uleb128 0xb
 3093 073d 75170000 		.4byte	.LASF207
 3094 0741 29       		.sleb128 41
 3095 0742 0B       		.uleb128 0xb
 3096 0743 FC240000 		.4byte	.LASF208
 3097 0747 2A       		.sleb128 42
 3098 0748 0B       		.uleb128 0xb
 3099 0749 60100000 		.4byte	.LASF209
 3100 074d 2B       		.sleb128 43
 3101 074e 0B       		.uleb128 0xb
 3102 074f E1010000 		.4byte	.LASF210
 3103 0753 2C       		.sleb128 44
 3104 0754 0B       		.uleb128 0xb
 3105 0755 F4090000 		.4byte	.LASF211
 3106 0759 2D       		.sleb128 45
 3107 075a 0B       		.uleb128 0xb
 3108 075b CD170000 		.4byte	.LASF212
 3109 075f 2E       		.sleb128 46
 3110 0760 0B       		.uleb128 0xb
 3111 0761 BF030000 		.4byte	.LASF213
 3112 0765 2F       		.sleb128 47
 3113 0766 0B       		.uleb128 0xb
 3114 0767 E9100000 		.4byte	.LASF214
 3115 076b 30       		.sleb128 48
 3116 076c 0B       		.uleb128 0xb
 3117 076d 98270000 		.4byte	.LASF215
 3118 0771 31       		.sleb128 49
 3119 0772 0B       		.uleb128 0xb
 3120 0773 460A0000 		.4byte	.LASF216
 3121 0777 32       		.sleb128 50
ARM GAS  C:\Users\Jerry\AppData\Local\Temp\cc1IKG0O.s 			page 90


 3122 0778 0B       		.uleb128 0xb
 3123 0779 64210000 		.4byte	.LASF217
 3124 077d 33       		.sleb128 51
 3125 077e 0B       		.uleb128 0xb
 3126 077f 02040000 		.4byte	.LASF218
 3127 0783 34       		.sleb128 52
 3128 0784 0B       		.uleb128 0xb
 3129 0785 C1190000 		.4byte	.LASF219
 3130 0789 35       		.sleb128 53
 3131 078a 0B       		.uleb128 0xb
 3132 078b C8270000 		.4byte	.LASF220
 3133 078f 36       		.sleb128 54
 3134 0790 0B       		.uleb128 0xb
 3135 0791 F1120000 		.4byte	.LASF221
 3136 0795 37       		.sleb128 55
 3137 0796 0B       		.uleb128 0xb
 3138 0797 D5210000 		.4byte	.LASF222
 3139 079b 38       		.sleb128 56
 3140 079c 0B       		.uleb128 0xb
 3141 079d A10C0000 		.4byte	.LASF223
 3142 07a1 39       		.sleb128 57
 3143 07a2 0B       		.uleb128 0xb
 3144 07a3 401A0000 		.4byte	.LASF224
 3145 07a7 3A       		.sleb128 58
 3146 07a8 0B       		.uleb128 0xb
 3147 07a9 A0060000 		.4byte	.LASF225
 3148 07ad 3B       		.sleb128 59
 3149 07ae 0B       		.uleb128 0xb
 3150 07af B21A0000 		.4byte	.LASF226
 3151 07b3 3C       		.sleb128 60
 3152 07b4 0B       		.uleb128 0xb
 3153 07b5 4E070000 		.4byte	.LASF227
 3154 07b9 3D       		.sleb128 61
 3155 07ba 0B       		.uleb128 0xb
 3156 07bb 24140000 		.4byte	.LASF228
 3157 07bf 3E       		.sleb128 62
 3158 07c0 0B       		.uleb128 0xb
 3159 07c1 B4000000 		.4byte	.LASF229
 3160 07c5 3F       		.sleb128 63
 3161 07c6 0B       		.uleb128 0xb
 3162 07c7 99110000 		.4byte	.LASF230
 3163 07cb 01       		.sleb128 1
 3164 07cc 0B       		.uleb128 0xb
 3165 07cd F60A0000 		.4byte	.LASF231
 3166 07d1 02       		.sleb128 2
 3167 07d2 0B       		.uleb128 0xb
 3168 07d3 2E050000 		.4byte	.LASF232
 3169 07d7 03       		.sleb128 3
 3170 07d8 0B       		.uleb128 0xb
 3171 07d9 A0280000 		.4byte	.LASF233
 3172 07dd 04       		.sleb128 4
 3173 07de 0B       		.uleb128 0xb
 3174 07df 7E220000 		.4byte	.LASF234
 3175 07e3 05       		.sleb128 5
 3176 07e4 0B       		.uleb128 0xb
 3177 07e5 491B0000 		.4byte	.LASF235
 3178 07e9 06       		.sleb128 6
ARM GAS  C:\Users\Jerry\AppData\Local\Temp\cc1IKG0O.s 			page 91


 3179 07ea 0B       		.uleb128 0xb
 3180 07eb BF140000 		.4byte	.LASF236
 3181 07ef 07       		.sleb128 7
 3182 07f0 0B       		.uleb128 0xb
 3183 07f1 610E0000 		.4byte	.LASF237
 3184 07f5 08       		.sleb128 8
 3185 07f6 0B       		.uleb128 0xb
 3186 07f7 F1070000 		.4byte	.LASF238
 3187 07fb 09       		.sleb128 9
 3188 07fc 0B       		.uleb128 0xb
 3189 07fd 6D080000 		.4byte	.LASF239
 3190 0801 0A       		.sleb128 10
 3191 0802 0B       		.uleb128 0xb
 3192 0803 19020000 		.4byte	.LASF240
 3193 0807 0B       		.sleb128 11
 3194 0808 0B       		.uleb128 0xb
 3195 0809 CF250000 		.4byte	.LASF241
 3196 080d 0C       		.sleb128 12
 3197 080e 0B       		.uleb128 0xb
 3198 080f E61F0000 		.4byte	.LASF242
 3199 0813 0D       		.sleb128 13
 3200 0814 0B       		.uleb128 0xb
 3201 0815 8F180000 		.4byte	.LASF243
 3202 0819 0E       		.sleb128 14
 3203 081a 0B       		.uleb128 0xb
 3204 081b 88110000 		.4byte	.LASF244
 3205 081f 0F       		.sleb128 15
 3206 0820 0B       		.uleb128 0xb
 3207 0821 D20A0000 		.4byte	.LASF245
 3208 0825 10       		.sleb128 16
 3209 0826 0B       		.uleb128 0xb
 3210 0827 F7040000 		.4byte	.LASF246
 3211 082b 11       		.sleb128 17
 3212 082c 0B       		.uleb128 0xb
 3213 082d 70280000 		.4byte	.LASF247
 3214 0831 12       		.sleb128 18
 3215 0832 0B       		.uleb128 0xb
 3216 0833 63220000 		.4byte	.LASF248
 3217 0837 13       		.sleb128 19
 3218 0838 0B       		.uleb128 0xb
 3219 0839 EE220000 		.4byte	.LASF249
 3220 083d 14       		.sleb128 20
 3221 083e 0B       		.uleb128 0xb
 3222 083f CE1B0000 		.4byte	.LASF250
 3223 0843 15       		.sleb128 21
 3224 0844 0B       		.uleb128 0xb
 3225 0845 2A020000 		.4byte	.LASF251
 3226 0849 16       		.sleb128 22
 3227 084a 0B       		.uleb128 0xb
 3228 084b A90E0000 		.4byte	.LASF252
 3229 084f 17       		.sleb128 23
 3230 0850 0B       		.uleb128 0xb
 3231 0851 49080000 		.4byte	.LASF253
 3232 0855 18       		.sleb128 24
 3233 0856 0B       		.uleb128 0xb
 3234 0857 F2010000 		.4byte	.LASF254
 3235 085b 19       		.sleb128 25
ARM GAS  C:\Users\Jerry\AppData\Local\Temp\cc1IKG0O.s 			page 92


 3236 085c 0B       		.uleb128 0xb
 3237 085d AB250000 		.4byte	.LASF255
 3238 0861 1A       		.sleb128 26
 3239 0862 0B       		.uleb128 0xb
 3240 0863 BB1F0000 		.4byte	.LASF256
 3241 0867 1B       		.sleb128 27
 3242 0868 0B       		.uleb128 0xb
 3243 0869 64180000 		.4byte	.LASF257
 3244 086d 1C       		.sleb128 28
 3245 086e 0B       		.uleb128 0xb
 3246 086f 77110000 		.4byte	.LASF258
 3247 0873 1D       		.sleb128 29
 3248 0874 0B       		.uleb128 0xb
 3249 0875 E4110000 		.4byte	.LASF259
 3250 0879 1E       		.sleb128 30
 3251 087a 0B       		.uleb128 0xb
 3252 087b 1C190000 		.4byte	.LASF260
 3253 087f 1F       		.sleb128 31
 3254 0880 0B       		.uleb128 0xb
 3255 0881 66120000 		.4byte	.LASF261
 3256 0885 20       		.sleb128 32
 3257 0886 0B       		.uleb128 0xb
 3258 0887 B10B0000 		.4byte	.LASF262
 3259 088b 21       		.sleb128 33
 3260 088c 0B       		.uleb128 0xb
 3261 088d CE050000 		.4byte	.LASF263
 3262 0891 22       		.sleb128 34
 3263 0892 0B       		.uleb128 0xb
 3264 0893 78290000 		.4byte	.LASF264
 3265 0897 23       		.sleb128 35
 3266 0898 0B       		.uleb128 0xb
 3267 0899 4E230000 		.4byte	.LASF265
 3268 089d 24       		.sleb128 36
 3269 089e 0B       		.uleb128 0xb
 3270 089f 411C0000 		.4byte	.LASF266
 3271 08a3 25       		.sleb128 37
 3272 08a4 0B       		.uleb128 0xb
 3273 08a5 8A150000 		.4byte	.LASF267
 3274 08a9 26       		.sleb128 38
 3275 08aa 0B       		.uleb128 0xb
 3276 08ab BA0E0000 		.4byte	.LASF268
 3277 08af 27       		.sleb128 39
 3278 08b0 0B       		.uleb128 0xb
 3279 08b1 680F0000 		.4byte	.LASF269
 3280 08b5 28       		.sleb128 40
 3281 08b6 0B       		.uleb128 0xb
 3282 08b7 E9080000 		.4byte	.LASF270
 3283 08bb 29       		.sleb128 41
 3284 08bc 0B       		.uleb128 0xb
 3285 08bd 98020000 		.4byte	.LASF271
 3286 08c1 2A       		.sleb128 42
 3287 08c2 0B       		.uleb128 0xb
 3288 08c3 9A260000 		.4byte	.LASF272
 3289 08c7 2B       		.sleb128 43
 3290 08c8 0B       		.uleb128 0xb
 3291 08c9 6C200000 		.4byte	.LASF273
 3292 08cd 2C       		.sleb128 44
ARM GAS  C:\Users\Jerry\AppData\Local\Temp\cc1IKG0O.s 			page 93


 3293 08ce 0B       		.uleb128 0xb
 3294 08cf F8180000 		.4byte	.LASF274
 3295 08d3 2D       		.sleb128 45
 3296 08d4 0B       		.uleb128 0xb
 3297 08d5 42120000 		.4byte	.LASF275
 3298 08d9 2E       		.sleb128 46
 3299 08da 0B       		.uleb128 0xb
 3300 08db 590B0000 		.4byte	.LASF276
 3301 08df 2F       		.sleb128 47
 3302 08e0 0B       		.uleb128 0xb
 3303 08e1 AA050000 		.4byte	.LASF277
 3304 08e5 30       		.sleb128 48
 3305 08e6 0B       		.uleb128 0xb
 3306 08e7 25290000 		.4byte	.LASF278
 3307 08eb 31       		.sleb128 49
 3308 08ec 0B       		.uleb128 0xb
 3309 08ed 0A230000 		.4byte	.LASF279
 3310 08f1 32       		.sleb128 50
 3311 08f2 0B       		.uleb128 0xb
 3312 08f3 94230000 		.4byte	.LASF280
 3313 08f7 33       		.sleb128 51
 3314 08f8 0B       		.uleb128 0xb
 3315 08f9 A61C0000 		.4byte	.LASF281
 3316 08fd 34       		.sleb128 52
 3317 08fe 0B       		.uleb128 0xb
 3318 08ff 0A160000 		.4byte	.LASF282
 3319 0903 35       		.sleb128 53
 3320 0904 0B       		.uleb128 0xb
 3321 0905 140F0000 		.4byte	.LASF283
 3322 0909 36       		.sleb128 54
 3323 090a 0B       		.uleb128 0xb
 3324 090b A0080000 		.4byte	.LASF284
 3325 090f 37       		.sleb128 55
 3326 0910 0B       		.uleb128 0xb
 3327 0911 74020000 		.4byte	.LASF285
 3328 0915 38       		.sleb128 56
 3329 0916 0B       		.uleb128 0xb
 3330 0917 76260000 		.4byte	.LASF286
 3331 091b 39       		.sleb128 57
 3332 091c 0B       		.uleb128 0xb
 3333 091d 35200000 		.4byte	.LASF287
 3334 0921 3A       		.sleb128 58
 3335 0922 0B       		.uleb128 0xb
 3336 0923 F00E0000 		.4byte	.LASF288
 3337 0927 3B       		.sleb128 59
 3338 0928 0B       		.uleb128 0xb
 3339 0929 2D190000 		.4byte	.LASF289
 3340 092d 3C       		.sleb128 60
 3341 092e 0B       		.uleb128 0xb
 3342 092f 77120000 		.4byte	.LASF290
 3343 0933 3D       		.sleb128 61
 3344 0934 0B       		.uleb128 0xb
 3345 0935 1E0C0000 		.4byte	.LASF291
 3346 0939 3E       		.sleb128 62
 3347 093a 0B       		.uleb128 0xb
 3348 093b 22060000 		.4byte	.LASF292
 3349 093f 3F       		.sleb128 63
ARM GAS  C:\Users\Jerry\AppData\Local\Temp\cc1IKG0O.s 			page 94


 3350 0940 00       		.byte	0
 3351 0941 04       		.uleb128 0x4
 3352 0942 4A040000 		.4byte	.LASF293
 3353 0946 03       		.byte	0x3
 3354 0947 B602     		.2byte	0x2b6
 3355 0949 3D060000 		.4byte	0x63d
 3356 094d 0C       		.uleb128 0xc
 3357 094e 01       		.byte	0x1
 3358 094f 03       		.byte	0x3
 3359 0950 C002     		.2byte	0x2c0
 3360 0952 5F0C0000 		.4byte	0xc5f
 3361 0956 0B       		.uleb128 0xb
 3362 0957 88090000 		.4byte	.LASF294
 3363 095b 00       		.sleb128 0
 3364 095c 0B       		.uleb128 0xb
 3365 095d 86140000 		.4byte	.LASF295
 3366 0961 01       		.sleb128 1
 3367 0962 0B       		.uleb128 0xb
 3368 0963 D2220000 		.4byte	.LASF296
 3369 0967 02       		.sleb128 2
 3370 0968 0B       		.uleb128 0xb
 3371 0969 AC140000 		.4byte	.LASF297
 3372 096d 03       		.sleb128 3
 3373 096e 0B       		.uleb128 0xb
 3374 096f BB1B0000 		.4byte	.LASF298
 3375 0973 04       		.sleb128 4
 3376 0974 0B       		.uleb128 0xb
 3377 0975 DE070000 		.4byte	.LASF299
 3378 0979 05       		.sleb128 5
 3379 097a 0B       		.uleb128 0xb
 3380 097b 0A150000 		.4byte	.LASF300
 3381 097f 06       		.sleb128 6
 3382 0980 0B       		.uleb128 0xb
 3383 0981 8E010000 		.4byte	.LASF301
 3384 0985 07       		.sleb128 7
 3385 0986 0B       		.uleb128 0xb
 3386 0987 63260000 		.4byte	.LASF302
 3387 098b 08       		.sleb128 8
 3388 098c 0B       		.uleb128 0xb
 3389 098d 38250000 		.4byte	.LASF303
 3390 0991 09       		.sleb128 9
 3391 0992 0B       		.uleb128 0xb
 3392 0993 36080000 		.4byte	.LASF304
 3393 0997 0A       		.sleb128 10
 3394 0998 0B       		.uleb128 0xb
 3395 0999 B41E0000 		.4byte	.LASF305
 3396 099d 0B       		.sleb128 11
 3397 099e 0B       		.uleb128 0xb
 3398 099f CE010000 		.4byte	.LASF306
 3399 09a3 0C       		.sleb128 12
 3400 09a4 0B       		.uleb128 0xb
 3401 09a5 DE170000 		.4byte	.LASF307
 3402 09a9 0D       		.sleb128 13
 3403 09aa 0B       		.uleb128 0xb
 3404 09ab 81250000 		.4byte	.LASF308
 3405 09af 0E       		.sleb128 14
 3406 09b0 0B       		.uleb128 0xb
ARM GAS  C:\Users\Jerry\AppData\Local\Temp\cc1IKG0O.s 			page 95


 3407 09b1 2F110000 		.4byte	.LASF309
 3408 09b5 0F       		.sleb128 15
 3409 09b6 0B       		.uleb128 0xb
 3410 09b7 5F130000 		.4byte	.LASF310
 3411 09bb 10       		.sleb128 16
 3412 09bc 0B       		.uleb128 0xb
 3413 09bd 870A0000 		.4byte	.LASF311
 3414 09c1 11       		.sleb128 17
 3415 09c2 0B       		.uleb128 0xb
 3416 09c3 E9240000 		.4byte	.LASF312
 3417 09c7 12       		.sleb128 18
 3418 09c8 0B       		.uleb128 0xb
 3419 09c9 C31A0000 		.4byte	.LASF313
 3420 09cd 13       		.sleb128 19
 3421 09ce 0B       		.uleb128 0xb
 3422 09cf AB260000 		.4byte	.LASF314
 3423 09d3 14       		.sleb128 20
 3424 09d4 0B       		.uleb128 0xb
 3425 09d5 F5110000 		.4byte	.LASF315
 3426 09d9 15       		.sleb128 21
 3427 09da 0B       		.uleb128 0xb
 3428 09db 7D200000 		.4byte	.LASF316
 3429 09df 16       		.sleb128 22
 3430 09e0 0B       		.uleb128 0xb
 3431 09e1 850E0000 		.4byte	.LASF317
 3432 09e5 17       		.sleb128 23
 3433 09e6 0B       		.uleb128 0xb
 3434 09e7 09190000 		.4byte	.LASF318
 3435 09eb 18       		.sleb128 24
 3436 09ec 0B       		.uleb128 0xb
 3437 09ed 78050000 		.4byte	.LASF319
 3438 09f1 19       		.sleb128 25
 3439 09f2 0B       		.uleb128 0xb
 3440 09f3 53120000 		.4byte	.LASF320
 3441 09f7 1A       		.sleb128 26
 3442 09f8 0B       		.uleb128 0xb
 3443 09f9 DF050000 		.4byte	.LASF321
 3444 09fd 1B       		.sleb128 27
 3445 09fe 0B       		.uleb128 0xb
 3446 09ff 7D0B0000 		.4byte	.LASF322
 3447 0a03 1C       		.sleb128 28
 3448 0a04 0B       		.uleb128 0xb
 3449 0a05 A2220000 		.4byte	.LASF323
 3450 0a09 1D       		.sleb128 29
 3451 0a0a 0B       		.uleb128 0xb
 3452 0a0b BB050000 		.4byte	.LASF324
 3453 0a0f 1E       		.sleb128 30
 3454 0a10 0B       		.uleb128 0xb
 3455 0a11 891B0000 		.4byte	.LASF325
 3456 0a15 1F       		.sleb128 31
 3457 0a16 0B       		.uleb128 0xb
 3458 0a17 65290000 		.4byte	.LASF326
 3459 0a1b 20       		.sleb128 32
 3460 0a1c 0B       		.uleb128 0xb
 3461 0a1d FF0C0000 		.4byte	.LASF327
 3462 0a21 21       		.sleb128 33
 3463 0a22 0B       		.uleb128 0xb
ARM GAS  C:\Users\Jerry\AppData\Local\Temp\cc1IKG0O.s 			page 96


 3464 0a23 1B230000 		.4byte	.LASF328
 3465 0a27 22       		.sleb128 34
 3466 0a28 0B       		.uleb128 0xb
 3467 0a29 7A060000 		.4byte	.LASF329
 3468 0a2d 23       		.sleb128 35
 3469 0a2e 0B       		.uleb128 0xb
 3470 0a2f 1B1C0000 		.4byte	.LASF330
 3471 0a33 24       		.sleb128 36
 3472 0a34 0B       		.uleb128 0xb
 3473 0a35 17080000 		.4byte	.LASF331
 3474 0a39 25       		.sleb128 37
 3475 0a3a 0B       		.uleb128 0xb
 3476 0a3b 63150000 		.4byte	.LASF332
 3477 0a3f 26       		.sleb128 38
 3478 0a40 0B       		.uleb128 0xb
 3479 0a41 BB010000 		.4byte	.LASF333
 3480 0a45 27       		.sleb128 39
 3481 0a46 0B       		.uleb128 0xb
 3482 0a47 1B160000 		.4byte	.LASF334
 3483 0a4b 28       		.sleb128 40
 3484 0a4c 0B       		.uleb128 0xb
 3485 0a4d 3B020000 		.4byte	.LASF335
 3486 0a51 29       		.sleb128 41
 3487 0a52 0B       		.uleb128 0xb
 3488 0a53 3A0F0000 		.4byte	.LASF336
 3489 0a57 2A       		.sleb128 42
 3490 0a58 0B       		.uleb128 0xb
 3491 0a59 17260000 		.4byte	.LASF337
 3492 0a5d 2B       		.sleb128 43
 3493 0a5e 0B       		.uleb128 0xb
 3494 0a5f C2080000 		.4byte	.LASF338
 3495 0a63 2C       		.sleb128 44
 3496 0a64 0B       		.uleb128 0xb
 3497 0a65 26040000 		.4byte	.LASF339
 3498 0a69 2D       		.sleb128 45
 3499 0a6a 0B       		.uleb128 0xb
 3500 0a6b 85020000 		.4byte	.LASF340
 3501 0a6f 2E       		.sleb128 46
 3502 0a70 0B       		.uleb128 0xb
 3503 0a71 B3180000 		.4byte	.LASF341
 3504 0a75 2F       		.sleb128 47
 3505 0a76 0B       		.uleb128 0xb
 3506 0a77 87260000 		.4byte	.LASF342
 3507 0a7b 30       		.sleb128 48
 3508 0a7c 0B       		.uleb128 0xb
 3509 0a7d AA110000 		.4byte	.LASF343
 3510 0a81 31       		.sleb128 49
 3511 0a82 0B       		.uleb128 0xb
 3512 0a83 59200000 		.4byte	.LASF344
 3513 0a87 32       		.sleb128 50
 3514 0a88 0B       		.uleb128 0xb
 3515 0a89 070B0000 		.4byte	.LASF345
 3516 0a8d 33       		.sleb128 51
 3517 0a8e 0B       		.uleb128 0xb
 3518 0a8f E5180000 		.4byte	.LASF346
 3519 0a93 34       		.sleb128 52
 3520 0a94 0B       		.uleb128 0xb
ARM GAS  C:\Users\Jerry\AppData\Local\Temp\cc1IKG0O.s 			page 97


 3521 0a95 3F050000 		.4byte	.LASF347
 3522 0a99 35       		.sleb128 53
 3523 0a9a 0B       		.uleb128 0xb
 3524 0a9b 2F120000 		.4byte	.LASF348
 3525 0a9f 36       		.sleb128 54
 3526 0aa0 0B       		.uleb128 0xb
 3527 0aa1 B1280000 		.4byte	.LASF349
 3528 0aa5 37       		.sleb128 55
 3529 0aa6 0B       		.uleb128 0xb
 3530 0aa7 330B0000 		.4byte	.LASF350
 3531 0aab 38       		.sleb128 56
 3532 0aac 0B       		.uleb128 0xb
 3533 0aad 8F220000 		.4byte	.LASF351
 3534 0ab1 39       		.sleb128 57
 3535 0ab2 0B       		.uleb128 0xb
 3536 0ab3 97050000 		.4byte	.LASF352
 3537 0ab7 3A       		.sleb128 58
 3538 0ab8 0B       		.uleb128 0xb
 3539 0ab9 5A1B0000 		.4byte	.LASF353
 3540 0abd 3B       		.sleb128 59
 3541 0abe 0B       		.uleb128 0xb
 3542 0abf 33060000 		.4byte	.LASF354
 3543 0ac3 3C       		.sleb128 60
 3544 0ac4 0B       		.uleb128 0xb
 3545 0ac5 081C0000 		.4byte	.LASF355
 3546 0ac9 3D       		.sleb128 61
 3547 0aca 0B       		.uleb128 0xb
 3548 0acb 460B0000 		.4byte	.LASF356
 3549 0acf 3E       		.sleb128 62
 3550 0ad0 0B       		.uleb128 0xb
 3551 0ad1 40150000 		.4byte	.LASF357
 3552 0ad5 3F       		.sleb128 63
 3553 0ad6 0B       		.uleb128 0xb
 3554 0ad7 6E230000 		.4byte	.LASF358
 3555 0adb C000     		.sleb128 64
 3556 0add 0B       		.uleb128 0xb
 3557 0ade 3E190000 		.4byte	.LASF359
 3558 0ae2 01       		.sleb128 1
 3559 0ae3 0B       		.uleb128 0xb
 3560 0ae4 88120000 		.4byte	.LASF360
 3561 0ae8 02       		.sleb128 2
 3562 0ae9 0B       		.uleb128 0xb
 3563 0aea 2F0C0000 		.4byte	.LASF361
 3564 0aee 03       		.sleb128 3
 3565 0aef 0B       		.uleb128 0xb
 3566 0af0 46060000 		.4byte	.LASF362
 3567 0af4 04       		.sleb128 4
 3568 0af5 0B       		.uleb128 0xb
 3569 0af6 420C0000 		.4byte	.LASF363
 3570 0afa 05       		.sleb128 5
 3571 0afb 0B       		.uleb128 0xb
 3572 0afc 81230000 		.4byte	.LASF364
 3573 0b00 06       		.sleb128 6
 3574 0b01 0B       		.uleb128 0xb
 3575 0b02 931C0000 		.4byte	.LASF365
 3576 0b06 07       		.sleb128 7
 3577 0b07 0B       		.uleb128 0xb
ARM GAS  C:\Users\Jerry\AppData\Local\Temp\cc1IKG0O.s 			page 98


 3578 0b08 F7150000 		.4byte	.LASF366
 3579 0b0c 08       		.sleb128 8
 3580 0b0d 0B       		.uleb128 0xb
 3581 0b0e 010F0000 		.4byte	.LASF367
 3582 0b12 09       		.sleb128 9
 3583 0b13 0B       		.uleb128 0xb
 3584 0b14 C71D0000 		.4byte	.LASF368
 3585 0b18 0A       		.sleb128 10
 3586 0b19 0B       		.uleb128 0xb
 3587 0b1a 2F170000 		.4byte	.LASF369
 3588 0b1e 0B       		.sleb128 11
 3589 0b1f 0B       		.uleb128 0xb
 3590 0b20 DA0F0000 		.4byte	.LASF370
 3591 0b24 0C       		.sleb128 12
 3592 0b25 0B       		.uleb128 0xb
 3593 0b26 AA090000 		.4byte	.LASF371
 3594 0b2a 0D       		.sleb128 13
 3595 0b2b 0B       		.uleb128 0xb
 3596 0b2c 79030000 		.4byte	.LASF372
 3597 0b30 0E       		.sleb128 14
 3598 0b31 0B       		.uleb128 0xb
 3599 0b32 59270000 		.4byte	.LASF373
 3600 0b36 0F       		.sleb128 15
 3601 0b37 0B       		.uleb128 0xb
 3602 0b38 34210000 		.4byte	.LASF374
 3603 0b3c 10       		.sleb128 16
 3604 0b3d 0B       		.uleb128 0xb
 3605 0b3e 9B190000 		.4byte	.LASF375
 3606 0b42 11       		.sleb128 17
 3607 0b43 0B       		.uleb128 0xb
 3608 0b44 AE120000 		.4byte	.LASF376
 3609 0b48 12       		.sleb128 18
 3610 0b49 0B       		.uleb128 0xb
 3611 0b4a 680C0000 		.4byte	.LASF377
 3612 0b4e 13       		.sleb128 19
 3613 0b4f 0B       		.uleb128 0xb
 3614 0b50 170D0000 		.4byte	.LASF378
 3615 0b54 14       		.sleb128 20
 3616 0b55 0B       		.uleb128 0xb
 3617 0b56 22070000 		.4byte	.LASF379
 3618 0b5a 15       		.sleb128 21
 3619 0b5b 0B       		.uleb128 0xb
 3620 0b5c 90000000 		.4byte	.LASF380
 3621 0b60 16       		.sleb128 22
 3622 0b61 0B       		.uleb128 0xb
 3623 0b62 35240000 		.4byte	.LASF381
 3624 0b66 17       		.sleb128 23
 3625 0b67 0B       		.uleb128 0xb
 3626 0b68 871D0000 		.4byte	.LASF382
 3627 0b6c 18       		.sleb128 24
 3628 0b6d 0B       		.uleb128 0xb
 3629 0b6e EE160000 		.4byte	.LASF383
 3630 0b72 19       		.sleb128 25
 3631 0b73 0B       		.uleb128 0xb
 3632 0b74 A30F0000 		.4byte	.LASF384
 3633 0b78 1A       		.sleb128 26
 3634 0b79 0B       		.uleb128 0xb
ARM GAS  C:\Users\Jerry\AppData\Local\Temp\cc1IKG0O.s 			page 99


 3635 0b7a 62090000 		.4byte	.LASF385
 3636 0b7e 1B       		.sleb128 27
 3637 0b7f 0B       		.uleb128 0xb
 3638 0b80 1F030000 		.4byte	.LASF386
 3639 0b84 1C       		.sleb128 28
 3640 0b85 0B       		.uleb128 0xb
 3641 0b86 22270000 		.4byte	.LASF387
 3642 0b8a 1D       		.sleb128 29
 3643 0b8b 0B       		.uleb128 0xb
 3644 0b8c A9270000 		.4byte	.LASF388
 3645 0b90 1E       		.sleb128 30
 3646 0b91 0B       		.uleb128 0xb
 3647 0b92 75210000 		.4byte	.LASF389
 3648 0b96 1F       		.sleb128 31
 3649 0b97 0B       		.uleb128 0xb
 3650 0b98 D2190000 		.4byte	.LASF390
 3651 0b9c 20       		.sleb128 32
 3652 0b9d 0B       		.uleb128 0xb
 3653 0b9e 02130000 		.4byte	.LASF391
 3654 0ba2 21       		.sleb128 33
 3655 0ba3 0B       		.uleb128 0xb
 3656 0ba4 B20C0000 		.4byte	.LASF392
 3657 0ba8 22       		.sleb128 34
 3658 0ba9 0B       		.uleb128 0xb
 3659 0baa B1060000 		.4byte	.LASF393
 3660 0bae 23       		.sleb128 35
 3661 0baf 0B       		.uleb128 0xb
 3662 0bb0 59000000 		.4byte	.LASF394
 3663 0bb4 24       		.sleb128 36
 3664 0bb5 0B       		.uleb128 0xb
 3665 0bb6 FE230000 		.4byte	.LASF395
 3666 0bba 25       		.sleb128 37
 3667 0bbb 0B       		.uleb128 0xb
 3668 0bbc 501D0000 		.4byte	.LASF396
 3669 0bc0 26       		.sleb128 38
 3670 0bc1 0B       		.uleb128 0xb
 3671 0bc2 A6160000 		.4byte	.LASF397
 3672 0bc6 27       		.sleb128 39
 3673 0bc7 0B       		.uleb128 0xb
 3674 0bc8 46200000 		.4byte	.LASF398
 3675 0bcc 28       		.sleb128 40
 3676 0bcd 0B       		.uleb128 0xb
 3677 0bce 00180000 		.4byte	.LASF399
 3678 0bd2 29       		.sleb128 41
 3679 0bd3 0B       		.uleb128 0xb
 3680 0bd4 7A160000 		.4byte	.LASF400
 3681 0bd8 2A       		.sleb128 42
 3682 0bd9 0B       		.uleb128 0xb
 3683 0bda 6C270000 		.4byte	.LASF401
 3684 0bde 2B       		.sleb128 43
 3685 0bdf 0B       		.uleb128 0xb
 3686 0be0 530D0000 		.4byte	.LASF402
 3687 0be4 2C       		.sleb128 44
 3688 0be5 0B       		.uleb128 0xb
 3689 0be6 DD0D0000 		.4byte	.LASF403
 3690 0bea 2D       		.sleb128 45
 3691 0beb 0B       		.uleb128 0xb
ARM GAS  C:\Users\Jerry\AppData\Local\Temp\cc1IKG0O.s 			page 100


 3692 0bec CE040000 		.4byte	.LASF404
 3693 0bf0 2E       		.sleb128 46
 3694 0bf1 0B       		.uleb128 0xb
 3695 0bf2 E3140000 		.4byte	.LASF405
 3696 0bf6 2F       		.sleb128 47
 3697 0bf7 0B       		.uleb128 0xb
 3698 0bf8 2A260000 		.4byte	.LASF406
 3699 0bfc 30       		.sleb128 48
 3700 0bfd 0B       		.uleb128 0xb
 3701 0bfe 900B0000 		.4byte	.LASF407
 3702 0c02 31       		.sleb128 49
 3703 0c03 0B       		.uleb128 0xb
 3704 0c04 93040000 		.4byte	.LASF408
 3705 0c08 32       		.sleb128 50
 3706 0c09 0B       		.uleb128 0xb
 3707 0c0a CA0D0000 		.4byte	.LASF409
 3708 0c0e 33       		.sleb128 51
 3709 0c0f 0B       		.uleb128 0xb
 3710 0c10 A5070000 		.4byte	.LASF410
 3711 0c14 34       		.sleb128 52
 3712 0c15 0B       		.uleb128 0xb
 3713 0c16 FD000000 		.4byte	.LASF411
 3714 0c1a 35       		.sleb128 53
 3715 0c1b 0B       		.uleb128 0xb
 3716 0c1c C3240000 		.4byte	.LASF412
 3717 0c20 36       		.sleb128 54
 3718 0c21 0B       		.uleb128 0xb
 3719 0c22 411E0000 		.4byte	.LASF413
 3720 0c26 37       		.sleb128 55
 3721 0c27 0B       		.uleb128 0xb
 3722 0c28 A7170000 		.4byte	.LASF414
 3723 0c2c 38       		.sleb128 56
 3724 0c2d 0B       		.uleb128 0xb
 3725 0c2e B8100000 		.4byte	.LASF415
 3726 0c32 39       		.sleb128 57
 3727 0c33 0B       		.uleb128 0xb
 3728 0c34 200A0000 		.4byte	.LASF416
 3729 0c38 3A       		.sleb128 58
 3730 0c39 0B       		.uleb128 0xb
 3731 0c3a EF030000 		.4byte	.LASF417
 3732 0c3e 3B       		.sleb128 59
 3733 0c3f 0B       		.uleb128 0xb
 3734 0c40 80040000 		.4byte	.LASF418
 3735 0c44 3C       		.sleb128 60
 3736 0c45 0B       		.uleb128 0xb
 3737 0c46 17280000 		.4byte	.LASF419
 3738 0c4a 3D       		.sleb128 61
 3739 0c4b 0B       		.uleb128 0xb
 3740 0c4c 1E220000 		.4byte	.LASF420
 3741 0c50 3E       		.sleb128 62
 3742 0c51 0B       		.uleb128 0xb
 3743 0c52 7D1A0000 		.4byte	.LASF421
 3744 0c56 3F       		.sleb128 63
 3745 0c57 0B       		.uleb128 0xb
 3746 0c58 C0130000 		.4byte	.LASF422
 3747 0c5c C000     		.sleb128 64
 3748 0c5e 00       		.byte	0
ARM GAS  C:\Users\Jerry\AppData\Local\Temp\cc1IKG0O.s 			page 101


 3749 0c5f 04       		.uleb128 0x4
 3750 0c60 FA100000 		.4byte	.LASF423
 3751 0c64 03       		.byte	0x3
 3752 0c65 4303     		.2byte	0x343
 3753 0c67 4D090000 		.4byte	0x94d
 3754 0c6b 0C       		.uleb128 0xc
 3755 0c6c 01       		.byte	0x1
 3756 0c6d 03       		.byte	0x3
 3757 0c6e 4D03     		.2byte	0x34d
 3758 0c70 F50D0000 		.4byte	0xdf5
 3759 0c74 0B       		.uleb128 0xb
 3760 0c75 01170000 		.4byte	.LASF424
 3761 0c79 00       		.sleb128 0
 3762 0c7a 0B       		.uleb128 0xb
 3763 0c7b B60F0000 		.4byte	.LASF425
 3764 0c7f 01       		.sleb128 1
 3765 0c80 0B       		.uleb128 0xb
 3766 0c81 75090000 		.4byte	.LASF426
 3767 0c85 02       		.sleb128 2
 3768 0c86 0B       		.uleb128 0xb
 3769 0c87 32030000 		.4byte	.LASF427
 3770 0c8b 03       		.sleb128 3
 3771 0c8c 0B       		.uleb128 0xb
 3772 0c8d 35270000 		.4byte	.LASF428
 3773 0c91 04       		.sleb128 4
 3774 0c92 0B       		.uleb128 0xb
 3775 0c93 4D100000 		.4byte	.LASF429
 3776 0c97 05       		.sleb128 5
 3777 0c98 0B       		.uleb128 0xb
 3778 0c99 C4280000 		.4byte	.LASF430
 3779 0c9d 06       		.sleb128 6
 3780 0c9e 0B       		.uleb128 0xb
 3781 0c9f 9B120000 		.4byte	.LASF431
 3782 0ca3 07       		.sleb128 7
 3783 0ca4 0B       		.uleb128 0xb
 3784 0ca5 550C0000 		.4byte	.LASF432
 3785 0ca9 08       		.sleb128 8
 3786 0caa 0B       		.uleb128 0xb
 3787 0cab C50C0000 		.4byte	.LASF433
 3788 0caf 09       		.sleb128 9
 3789 0cb0 0B       		.uleb128 0xb
 3790 0cb1 C2210000 		.4byte	.LASF434
 3791 0cb5 0A       		.sleb128 10
 3792 0cb6 0B       		.uleb128 0xb
 3793 0cb7 6C000000 		.4byte	.LASF435
 3794 0cbb 0B       		.sleb128 11
 3795 0cbc 0B       		.uleb128 0xb
 3796 0cbd 11240000 		.4byte	.LASF436
 3797 0cc1 0C       		.sleb128 12
 3798 0cc2 0B       		.uleb128 0xb
 3799 0cc3 631D0000 		.4byte	.LASF437
 3800 0cc7 0D       		.sleb128 13
 3801 0cc8 0B       		.uleb128 0xb
 3802 0cc9 B9160000 		.4byte	.LASF438
 3803 0ccd 0E       		.sleb128 14
 3804 0cce 0B       		.uleb128 0xb
 3805 0ccf 790F0000 		.4byte	.LASF439
ARM GAS  C:\Users\Jerry\AppData\Local\Temp\cc1IKG0O.s 			page 102


 3806 0cd3 0F       		.sleb128 15
 3807 0cd4 0B       		.uleb128 0xb
 3808 0cd5 4F090000 		.4byte	.LASF440
 3809 0cd9 10       		.sleb128 16
 3810 0cda 0B       		.uleb128 0xb
 3811 0cdb EF020000 		.4byte	.LASF441
 3812 0cdf 11       		.sleb128 17
 3813 0ce0 0B       		.uleb128 0xb
 3814 0ce1 FC260000 		.4byte	.LASF442
 3815 0ce5 12       		.sleb128 18
 3816 0ce6 0B       		.uleb128 0xb
 3817 0ce7 7F270000 		.4byte	.LASF443
 3818 0ceb 13       		.sleb128 19
 3819 0cec 0B       		.uleb128 0xb
 3820 0ced 51210000 		.4byte	.LASF444
 3821 0cf1 14       		.sleb128 20
 3822 0cf2 0B       		.uleb128 0xb
 3823 0cf3 AE190000 		.4byte	.LASF445
 3824 0cf7 15       		.sleb128 21
 3825 0cf8 0B       		.uleb128 0xb
 3826 0cf9 DE120000 		.4byte	.LASF446
 3827 0cfd 16       		.sleb128 22
 3828 0cfe 0B       		.uleb128 0xb
 3829 0cff 8E0C0000 		.4byte	.LASF447
 3830 0d03 17       		.sleb128 23
 3831 0d04 0B       		.uleb128 0xb
 3832 0d05 8D060000 		.4byte	.LASF448
 3833 0d09 18       		.sleb128 24
 3834 0d0a 0B       		.uleb128 0xb
 3835 0d0b 2C000000 		.4byte	.LASF449
 3836 0d0f 19       		.sleb128 25
 3837 0d10 0B       		.uleb128 0xb
 3838 0d11 D0140000 		.4byte	.LASF450
 3839 0d15 1A       		.sleb128 26
 3840 0d16 0B       		.uleb128 0xb
 3841 0d17 04260000 		.4byte	.LASF451
 3842 0d1b 1B       		.sleb128 27
 3843 0d1c 0B       		.uleb128 0xb
 3844 0d1d 6A0B0000 		.4byte	.LASF452
 3845 0d21 1C       		.sleb128 28
 3846 0d22 0B       		.uleb128 0xb
 3847 0d23 42170000 		.4byte	.LASF453
 3848 0d27 1D       		.sleb128 29
 3849 0d28 0B       		.uleb128 0xb
 3850 0d29 99140000 		.4byte	.LASF454
 3851 0d2d 1E       		.sleb128 30
 3852 0d2e 0B       		.uleb128 0xb
 3853 0d2f D4090000 		.4byte	.LASF455
 3854 0d33 1F       		.sleb128 31
 3855 0d34 0B       		.uleb128 0xb
 3856 0d35 B8070000 		.4byte	.LASF456
 3857 0d39 00       		.sleb128 0
 3858 0d3a 0B       		.uleb128 0xb
 3859 0d3b D6240000 		.4byte	.LASF457
 3860 0d3f 01       		.sleb128 1
 3861 0d40 0B       		.uleb128 0xb
 3862 0d41 BA170000 		.4byte	.LASF458
ARM GAS  C:\Users\Jerry\AppData\Local\Temp\cc1IKG0O.s 			page 103


 3863 0d45 02       		.sleb128 2
 3864 0d46 0B       		.uleb128 0xb
 3865 0d47 330A0000 		.4byte	.LASF459
 3866 0d4b 03       		.sleb128 3
 3867 0d4c 0B       		.uleb128 0xb
 3868 0d4d 0A1D0000 		.4byte	.LASF460
 3869 0d51 04       		.sleb128 4
 3870 0d52 0B       		.uleb128 0xb
 3871 0d53 CB070000 		.4byte	.LASF461
 3872 0d57 05       		.sleb128 5
 3873 0d58 0B       		.uleb128 0xb
 3874 0d59 D3130000 		.4byte	.LASF462
 3875 0d5d 06       		.sleb128 6
 3876 0d5e 0B       		.uleb128 0xb
 3877 0d5f CB200000 		.4byte	.LASF463
 3878 0d63 07       		.sleb128 7
 3879 0d64 0B       		.uleb128 0xb
 3880 0d65 AA240000 		.4byte	.LASF464
 3881 0d69 08       		.sleb128 8
 3882 0d6a 0B       		.uleb128 0xb
 3883 0d6b 90200000 		.4byte	.LASF465
 3884 0d6f 09       		.sleb128 9
 3885 0d70 0B       		.uleb128 0xb
 3886 0d71 2E1C0000 		.4byte	.LASF466
 3887 0d75 0A       		.sleb128 10
 3888 0d76 0B       		.uleb128 0xb
 3889 0d77 8C0D0000 		.4byte	.LASF467
 3890 0d7b 0B       		.sleb128 11
 3891 0d7c 0B       		.uleb128 0xb
 3892 0d7d 0B220000 		.4byte	.LASF468
 3893 0d81 0C       		.sleb128 12
 3894 0d82 0B       		.uleb128 0xb
 3895 0d83 8E130000 		.4byte	.LASF469
 3896 0d87 0D       		.sleb128 13
 3897 0d88 0B       		.uleb128 0xb
 3898 0d89 F00D0000 		.4byte	.LASF470
 3899 0d8d 0E       		.sleb128 14
 3900 0d8e 0B       		.uleb128 0xb
 3901 0d8f 31010000 		.4byte	.LASF471
 3902 0d93 0F       		.sleb128 15
 3903 0d94 0B       		.uleb128 0xb
 3904 0d95 7C1E0000 		.4byte	.LASF472
 3905 0d99 10       		.sleb128 16
 3906 0d9a 0B       		.uleb128 0xb
 3907 0d9b 0B110000 		.4byte	.LASF473
 3908 0d9f 11       		.sleb128 17
 3909 0da0 0B       		.uleb128 0xb
 3910 0da1 13040000 		.4byte	.LASF474
 3911 0da5 12       		.sleb128 18
 3912 0da6 0B       		.uleb128 0xb
 3913 0da7 5D280000 		.4byte	.LASF475
 3914 0dab 13       		.sleb128 19
 3915 0dac 0B       		.uleb128 0xb
 3916 0dad 46160000 		.4byte	.LASF476
 3917 0db1 14       		.sleb128 20
 3918 0db2 0B       		.uleb128 0xb
 3919 0db3 3B070000 		.4byte	.LASF477
ARM GAS  C:\Users\Jerry\AppData\Local\Temp\cc1IKG0O.s 			page 104


 3920 0db7 15       		.sleb128 21
 3921 0db8 0B       		.uleb128 0xb
 3922 0db9 720E0000 		.4byte	.LASF478
 3923 0dbd 16       		.sleb128 22
 3924 0dbe 0B       		.uleb128 0xb
 3925 0dbf A1010000 		.4byte	.LASF479
 3926 0dc3 17       		.sleb128 23
 3927 0dc4 0B       		.uleb128 0xb
 3928 0dc5 F1250000 		.4byte	.LASF480
 3929 0dc9 18       		.sleb128 24
 3930 0dca 0B       		.uleb128 0xb
 3931 0dcb A0180000 		.4byte	.LASF481
 3932 0dcf 19       		.sleb128 25
 3933 0dd0 0B       		.uleb128 0xb
 3934 0dd1 E30A0000 		.4byte	.LASF482
 3935 0dd5 1A       		.sleb128 26
 3936 0dd6 0B       		.uleb128 0xb
 3937 0dd7 8D280000 		.4byte	.LASF483
 3938 0ddb 1B       		.sleb128 27
 3939 0ddc 0B       		.uleb128 0xb
 3940 0ddd 1B1B0000 		.4byte	.LASF484
 3941 0de1 1C       		.sleb128 28
 3942 0de2 0B       		.uleb128 0xb
 3943 0de3 24150000 		.4byte	.LASF485
 3944 0de7 1D       		.sleb128 29
 3945 0de8 0B       		.uleb128 0xb
 3946 0de9 5A080000 		.4byte	.LASF486
 3947 0ded 1E       		.sleb128 30
 3948 0dee 0B       		.uleb128 0xb
 3949 0def BC250000 		.4byte	.LASF487
 3950 0df3 1F       		.sleb128 31
 3951 0df4 00       		.byte	0
 3952 0df5 04       		.uleb128 0x4
 3953 0df6 DF0E0000 		.4byte	.LASF488
 3954 0dfa 03       		.byte	0x3
 3955 0dfb 8F03     		.2byte	0x38f
 3956 0dfd 6B0C0000 		.4byte	0xc6b
 3957 0e01 09       		.uleb128 0x9
 3958 0e02 3F000000 		.4byte	.LASF489
 3959 0e06 04       		.byte	0x4
 3960 0e07 D4       		.byte	0xd4
 3961 0e08 64000000 		.4byte	0x64
 3962 0e0c 02       		.uleb128 0x2
 3963 0e0d 04       		.byte	0x4
 3964 0e0e 07       		.byte	0x7
 3965 0e0f 02220000 		.4byte	.LASF490
 3966 0e13 0D       		.uleb128 0xd
 3967 0e14 2B0E0000 		.4byte	.LASF491
 3968 0e18 01       		.byte	0x1
 3969 0e19 0E01     		.2byte	0x10e
 3970 0e1b 00000000 		.4byte	.LFB3
 3971 0e1f 16000000 		.4byte	.LFE3-.LFB3
 3972 0e23 01       		.uleb128 0x1
 3973 0e24 9C       		.byte	0x9c
 3974 0e25 540E0000 		.4byte	0xe54
 3975 0e29 0E       		.uleb128 0xe
 3976 0e2a 35070000 		.4byte	.LASF22
ARM GAS  C:\Users\Jerry\AppData\Local\Temp\cc1IKG0O.s 			page 105


 3977 0e2e 01       		.byte	0x1
 3978 0e2f 0E01     		.2byte	0x10e
 3979 0e31 540E0000 		.4byte	0xe54
 3980 0e35 00000000 		.4byte	.LLST0
 3981 0e39 0F       		.uleb128 0xf
 3982 0e3a 6E00     		.ascii	"n\000"
 3983 0e3c 01       		.byte	0x1
 3984 0e3d 0E01     		.2byte	0x10e
 3985 0e3f 010E0000 		.4byte	0xe01
 3986 0e43 01       		.uleb128 0x1
 3987 0e44 51       		.byte	0x51
 3988 0e45 10       		.uleb128 0x10
 3989 0e46 6900     		.ascii	"i\000"
 3990 0e48 01       		.byte	0x1
 3991 0e49 1001     		.2byte	0x110
 3992 0e4b 83000000 		.4byte	0x83
 3993 0e4f 21000000 		.4byte	.LLST1
 3994 0e53 00       		.byte	0
 3995 0e54 08       		.uleb128 0x8
 3996 0e55 04       		.byte	0x4
 3997 0e56 5A0E0000 		.4byte	0xe5a
 3998 0e5a 11       		.uleb128 0x11
 3999 0e5b F4000000 		.4byte	0xf4
 4000 0e5f 12       		.uleb128 0x12
 4001 0e60 E6260000 		.4byte	.LASF590
 4002 0e64 01       		.byte	0x1
 4003 0e65 8401     		.2byte	0x184
 4004 0e67 00000000 		.4byte	.LFB5
 4005 0e6b 14000000 		.4byte	.LFE5-.LFB5
 4006 0e6f 01       		.uleb128 0x1
 4007 0e70 9C       		.byte	0x9c
 4008 0e71 0D       		.uleb128 0xd
 4009 0e72 76150000 		.4byte	.LASF492
 4010 0e76 01       		.byte	0x1
 4011 0e77 3401     		.2byte	0x134
 4012 0e79 00000000 		.4byte	.LFB4
 4013 0e7d 38000000 		.4byte	.LFE4-.LFB4
 4014 0e81 01       		.uleb128 0x1
 4015 0e82 9C       		.byte	0x9c
 4016 0e83 D40E0000 		.4byte	0xed4
 4017 0e87 13       		.uleb128 0x13
 4018 0e88 63666700 		.ascii	"cfg\000"
 4019 0e8c 01       		.byte	0x1
 4020 0e8d 3401     		.2byte	0x134
 4021 0e8f D40E0000 		.4byte	0xed4
 4022 0e93 40000000 		.4byte	.LLST2
 4023 0e97 14       		.uleb128 0x14
 4024 0e98 08000000 		.4byte	.LVL4
 4025 0e9c 5F0E0000 		.4byte	0xe5f
 4026 0ea0 15       		.uleb128 0x15
 4027 0ea1 12000000 		.4byte	.LVL5
 4028 0ea5 11180000 		.4byte	0x1811
 4029 0ea9 B70E0000 		.4byte	0xeb7
 4030 0ead 16       		.uleb128 0x16
 4031 0eae 01       		.uleb128 0x1
 4032 0eaf 50       		.byte	0x50
 4033 0eb0 05       		.uleb128 0x5
ARM GAS  C:\Users\Jerry\AppData\Local\Temp\cc1IKG0O.s 			page 106


 4034 0eb1 0C       		.byte	0xc
 4035 0eb2 80033440 		.4byte	0x40340380
 4036 0eb6 00       		.byte	0
 4037 0eb7 15       		.uleb128 0x15
 4038 0eb8 26000000 		.4byte	.LVL6
 4039 0ebc 37180000 		.4byte	0x1837
 4040 0ec0 CA0E0000 		.4byte	0xeca
 4041 0ec4 16       		.uleb128 0x16
 4042 0ec5 01       		.uleb128 0x1
 4043 0ec6 51       		.byte	0x51
 4044 0ec7 01       		.uleb128 0x1
 4045 0ec8 30       		.byte	0x30
 4046 0ec9 00       		.byte	0
 4047 0eca 14       		.uleb128 0x14
 4048 0ecb 2E000000 		.4byte	.LVL7
 4049 0ecf 130E0000 		.4byte	0xe13
 4050 0ed3 00       		.byte	0
 4051 0ed4 08       		.uleb128 0x8
 4052 0ed5 04       		.byte	0x4
 4053 0ed6 DA0E0000 		.4byte	0xeda
 4054 0eda 11       		.uleb128 0x11
 4055 0edb 50010000 		.4byte	0x150
 4056 0edf 0D       		.uleb128 0xd
 4057 0ee0 A4210000 		.4byte	.LASF493
 4058 0ee4 01       		.byte	0x1
 4059 0ee5 A401     		.2byte	0x1a4
 4060 0ee7 00000000 		.4byte	.LFB6
 4061 0eeb 20000000 		.4byte	.LFE6-.LFB6
 4062 0eef 01       		.uleb128 0x1
 4063 0ef0 9C       		.byte	0x9c
 4064 0ef1 140F0000 		.4byte	0xf14
 4065 0ef5 17       		.uleb128 0x17
 4066 0ef6 73050000 		.4byte	.LASF494
 4067 0efa 01       		.byte	0x1
 4068 0efb A401     		.2byte	0x1a4
 4069 0efd 71010000 		.4byte	0x171
 4070 0f01 01       		.uleb128 0x1
 4071 0f02 50       		.byte	0x50
 4072 0f03 18       		.uleb128 0x18
 4073 0f04 9B150000 		.4byte	.LASF495
 4074 0f08 01       		.byte	0x1
 4075 0f09 A901     		.2byte	0x1a9
 4076 0f0b 83000000 		.4byte	0x83
 4077 0f0f 6C000000 		.4byte	.LLST3
 4078 0f13 00       		.byte	0
 4079 0f14 0D       		.uleb128 0xd
 4080 0f15 241A0000 		.4byte	.LASF496
 4081 0f19 01       		.byte	0x1
 4082 0f1a C801     		.2byte	0x1c8
 4083 0f1c 00000000 		.4byte	.LFB7
 4084 0f20 20000000 		.4byte	.LFE7-.LFB7
 4085 0f24 01       		.uleb128 0x1
 4086 0f25 9C       		.byte	0x9c
 4087 0f26 490F0000 		.4byte	0xf49
 4088 0f2a 17       		.uleb128 0x17
 4089 0f2b 73050000 		.4byte	.LASF494
 4090 0f2f 01       		.byte	0x1
ARM GAS  C:\Users\Jerry\AppData\Local\Temp\cc1IKG0O.s 			page 107


 4091 0f30 C801     		.2byte	0x1c8
 4092 0f32 71010000 		.4byte	0x171
 4093 0f36 01       		.uleb128 0x1
 4094 0f37 50       		.byte	0x50
 4095 0f38 18       		.uleb128 0x18
 4096 0f39 9B150000 		.4byte	.LASF495
 4097 0f3d 01       		.byte	0x1
 4098 0f3e CD01     		.2byte	0x1cd
 4099 0f40 83000000 		.4byte	0x83
 4100 0f44 7F000000 		.4byte	.LLST4
 4101 0f48 00       		.byte	0
 4102 0f49 0D       		.uleb128 0xd
 4103 0f4a 3D280000 		.4byte	.LASF497
 4104 0f4e 01       		.byte	0x1
 4105 0f4f EC01     		.2byte	0x1ec
 4106 0f51 00000000 		.4byte	.LFB8
 4107 0f55 20000000 		.4byte	.LFE8-.LFB8
 4108 0f59 01       		.uleb128 0x1
 4109 0f5a 9C       		.byte	0x9c
 4110 0f5b 7E0F0000 		.4byte	0xf7e
 4111 0f5f 17       		.uleb128 0x17
 4112 0f60 73050000 		.4byte	.LASF494
 4113 0f64 01       		.byte	0x1
 4114 0f65 EC01     		.2byte	0x1ec
 4115 0f67 71010000 		.4byte	0x171
 4116 0f6b 01       		.uleb128 0x1
 4117 0f6c 50       		.byte	0x50
 4118 0f6d 18       		.uleb128 0x18
 4119 0f6e 9B150000 		.4byte	.LASF495
 4120 0f72 01       		.byte	0x1
 4121 0f73 F101     		.2byte	0x1f1
 4122 0f75 83000000 		.4byte	0x83
 4123 0f79 92000000 		.4byte	.LLST5
 4124 0f7d 00       		.byte	0
 4125 0f7e 0D       		.uleb128 0xd
 4126 0f7f 7E080000 		.4byte	.LASF498
 4127 0f83 01       		.byte	0x1
 4128 0f84 1002     		.2byte	0x210
 4129 0f86 00000000 		.4byte	.LFB9
 4130 0f8a 24000000 		.4byte	.LFE9-.LFB9
 4131 0f8e 01       		.uleb128 0x1
 4132 0f8f 9C       		.byte	0x9c
 4133 0f90 B30F0000 		.4byte	0xfb3
 4134 0f94 17       		.uleb128 0x17
 4135 0f95 73050000 		.4byte	.LASF494
 4136 0f99 01       		.byte	0x1
 4137 0f9a 1002     		.2byte	0x210
 4138 0f9c 71010000 		.4byte	0x171
 4139 0fa0 01       		.uleb128 0x1
 4140 0fa1 50       		.byte	0x50
 4141 0fa2 18       		.uleb128 0x18
 4142 0fa3 9B150000 		.4byte	.LASF495
 4143 0fa7 01       		.byte	0x1
 4144 0fa8 1502     		.2byte	0x215
 4145 0faa 83000000 		.4byte	0x83
 4146 0fae A5000000 		.4byte	.LLST6
 4147 0fb2 00       		.byte	0
ARM GAS  C:\Users\Jerry\AppData\Local\Temp\cc1IKG0O.s 			page 108


 4148 0fb3 19       		.uleb128 0x19
 4149 0fb4 2B090000 		.4byte	.LASF543
 4150 0fb8 01       		.byte	0x1
 4151 0fb9 3502     		.2byte	0x235
 4152 0fbb 83000000 		.4byte	0x83
 4153 0fbf 00000000 		.4byte	.LFB10
 4154 0fc3 24000000 		.4byte	.LFE10-.LFB10
 4155 0fc7 01       		.uleb128 0x1
 4156 0fc8 9C       		.byte	0x9c
 4157 0fc9 FC0F0000 		.4byte	0xffc
 4158 0fcd 0E       		.uleb128 0xe
 4159 0fce 73050000 		.4byte	.LASF494
 4160 0fd2 01       		.byte	0x1
 4161 0fd3 3502     		.2byte	0x235
 4162 0fd5 71010000 		.4byte	0x171
 4163 0fd9 B8000000 		.4byte	.LLST7
 4164 0fdd 10       		.uleb128 0x10
 4165 0fde 7200     		.ascii	"r\000"
 4166 0fe0 01       		.byte	0x1
 4167 0fe1 3702     		.2byte	0x237
 4168 0fe3 83000000 		.4byte	0x83
 4169 0fe7 F2000000 		.4byte	.LLST8
 4170 0feb 18       		.uleb128 0x18
 4171 0fec 9B150000 		.4byte	.LASF495
 4172 0ff0 01       		.byte	0x1
 4173 0ff1 3B02     		.2byte	0x23b
 4174 0ff3 83000000 		.4byte	0x83
 4175 0ff7 0F010000 		.4byte	.LLST9
 4176 0ffb 00       		.byte	0
 4177 0ffc 0D       		.uleb128 0xd
 4178 0ffd 050A0000 		.4byte	.LASF499
 4179 1001 01       		.byte	0x1
 4180 1002 5A02     		.2byte	0x25a
 4181 1004 00000000 		.4byte	.LFB11
 4182 1008 14000000 		.4byte	.LFE11-.LFB11
 4183 100c 01       		.uleb128 0x1
 4184 100d 9C       		.byte	0x9c
 4185 100e 23100000 		.4byte	0x1023
 4186 1012 0E       		.uleb128 0xe
 4187 1013 57140000 		.4byte	.LASF500
 4188 1017 01       		.byte	0x1
 4189 1018 5A02     		.2byte	0x25a
 4190 101a A2020000 		.4byte	0x2a2
 4191 101e 22010000 		.4byte	.LLST10
 4192 1022 00       		.byte	0
 4193 1023 0D       		.uleb128 0xd
 4194 1024 75180000 		.4byte	.LASF501
 4195 1028 01       		.byte	0x1
 4196 1029 7402     		.2byte	0x274
 4197 102b 00000000 		.4byte	.LFB12
 4198 102f 14000000 		.4byte	.LFE12-.LFB12
 4199 1033 01       		.uleb128 0x1
 4200 1034 9C       		.byte	0x9c
 4201 1035 4A100000 		.4byte	0x104a
 4202 1039 0E       		.uleb128 0xe
 4203 103a 57140000 		.4byte	.LASF500
 4204 103e 01       		.byte	0x1
ARM GAS  C:\Users\Jerry\AppData\Local\Temp\cc1IKG0O.s 			page 109


 4205 103f 7402     		.2byte	0x274
 4206 1041 7B020000 		.4byte	0x27b
 4207 1045 43010000 		.4byte	.LLST11
 4208 1049 00       		.byte	0
 4209 104a 0D       		.uleb128 0xd
 4210 104b 5E060000 		.4byte	.LASF502
 4211 104f 01       		.byte	0x1
 4212 1050 8F02     		.2byte	0x28f
 4213 1052 00000000 		.4byte	.LFB13
 4214 1056 24000000 		.4byte	.LFE13-.LFB13
 4215 105a 01       		.uleb128 0x1
 4216 105b 9C       		.byte	0x9c
 4217 105c 71100000 		.4byte	0x1071
 4218 1060 0E       		.uleb128 0xe
 4219 1061 57140000 		.4byte	.LASF500
 4220 1065 01       		.byte	0x1
 4221 1066 8F02     		.2byte	0x28f
 4222 1068 7B020000 		.4byte	0x27b
 4223 106c 64010000 		.4byte	.LLST12
 4224 1070 00       		.byte	0
 4225 1071 0D       		.uleb128 0xd
 4226 1072 59160000 		.4byte	.LASF503
 4227 1076 01       		.byte	0x1
 4228 1077 AB02     		.2byte	0x2ab
 4229 1079 00000000 		.4byte	.LFB14
 4230 107d 24000000 		.4byte	.LFE14-.LFB14
 4231 1081 01       		.uleb128 0x1
 4232 1082 9C       		.byte	0x9c
 4233 1083 98100000 		.4byte	0x1098
 4234 1087 0E       		.uleb128 0xe
 4235 1088 57140000 		.4byte	.LASF500
 4236 108c 01       		.byte	0x1
 4237 108d AB02     		.2byte	0x2ab
 4238 108f 7B020000 		.4byte	0x27b
 4239 1093 85010000 		.4byte	.LLST13
 4240 1097 00       		.byte	0
 4241 1098 0D       		.uleb128 0xd
 4242 1099 631C0000 		.4byte	.LASF504
 4243 109d 01       		.byte	0x1
 4244 109e C702     		.2byte	0x2c7
 4245 10a0 00000000 		.4byte	.LFB15
 4246 10a4 24000000 		.4byte	.LFE15-.LFB15
 4247 10a8 01       		.uleb128 0x1
 4248 10a9 9C       		.byte	0x9c
 4249 10aa BF100000 		.4byte	0x10bf
 4250 10ae 0E       		.uleb128 0xe
 4251 10af 57140000 		.4byte	.LASF500
 4252 10b3 01       		.byte	0x1
 4253 10b4 C702     		.2byte	0x2c7
 4254 10b6 7B020000 		.4byte	0x27b
 4255 10ba A6010000 		.4byte	.LLST14
 4256 10be 00       		.byte	0
 4257 10bf 0D       		.uleb128 0xd
 4258 10c0 B00D0000 		.4byte	.LASF505
 4259 10c4 01       		.byte	0x1
 4260 10c5 E302     		.2byte	0x2e3
 4261 10c7 00000000 		.4byte	.LFB16
ARM GAS  C:\Users\Jerry\AppData\Local\Temp\cc1IKG0O.s 			page 110


 4262 10cb 24000000 		.4byte	.LFE16-.LFB16
 4263 10cf 01       		.uleb128 0x1
 4264 10d0 9C       		.byte	0x9c
 4265 10d1 E6100000 		.4byte	0x10e6
 4266 10d5 0E       		.uleb128 0xe
 4267 10d6 AD0A0000 		.4byte	.LASF506
 4268 10da 01       		.byte	0x1
 4269 10db E302     		.2byte	0x2e3
 4270 10dd DD010000 		.4byte	0x1dd
 4271 10e1 C7010000 		.4byte	.LLST15
 4272 10e5 00       		.byte	0
 4273 10e6 0D       		.uleb128 0xd
 4274 10e7 14120000 		.4byte	.LASF507
 4275 10eb 01       		.byte	0x1
 4276 10ec FF02     		.2byte	0x2ff
 4277 10ee 00000000 		.4byte	.LFB17
 4278 10f2 24000000 		.4byte	.LFE17-.LFB17
 4279 10f6 01       		.uleb128 0x1
 4280 10f7 9C       		.byte	0x9c
 4281 10f8 0D110000 		.4byte	0x110d
 4282 10fc 0E       		.uleb128 0xe
 4283 10fd AD0A0000 		.4byte	.LASF506
 4284 1101 01       		.byte	0x1
 4285 1102 FF02     		.2byte	0x2ff
 4286 1104 FD010000 		.4byte	0x1fd
 4287 1108 E8010000 		.4byte	.LLST16
 4288 110c 00       		.byte	0
 4289 110d 0D       		.uleb128 0xd
 4290 110e 3D260000 		.4byte	.LASF508
 4291 1112 01       		.byte	0x1
 4292 1113 2203     		.2byte	0x322
 4293 1115 00000000 		.4byte	.LFB18
 4294 1119 24000000 		.4byte	.LFE18-.LFB18
 4295 111d 01       		.uleb128 0x1
 4296 111e 9C       		.byte	0x9c
 4297 111f 34110000 		.4byte	0x1134
 4298 1123 0E       		.uleb128 0xe
 4299 1124 A4100000 		.4byte	.LASF509
 4300 1128 01       		.byte	0x1
 4301 1129 2203     		.2byte	0x322
 4302 112b 3D020000 		.4byte	0x23d
 4303 112f 09020000 		.4byte	.LLST17
 4304 1133 00       		.byte	0
 4305 1134 0D       		.uleb128 0xd
 4306 1135 4D0F0000 		.4byte	.LASF510
 4307 1139 01       		.byte	0x1
 4308 113a 4403     		.2byte	0x344
 4309 113c 00000000 		.4byte	.LFB19
 4310 1140 24000000 		.4byte	.LFE19-.LFB19
 4311 1144 01       		.uleb128 0x1
 4312 1145 9C       		.byte	0x9c
 4313 1146 5B110000 		.4byte	0x115b
 4314 114a 0E       		.uleb128 0xe
 4315 114b A2250000 		.4byte	.LASF511
 4316 114f 01       		.byte	0x1
 4317 1150 4403     		.2byte	0x344
 4318 1152 1D020000 		.4byte	0x21d
ARM GAS  C:\Users\Jerry\AppData\Local\Temp\cc1IKG0O.s 			page 111


 4319 1156 2A020000 		.4byte	.LLST18
 4320 115a 00       		.byte	0
 4321 115b 0D       		.uleb128 0xd
 4322 115c C20B0000 		.4byte	.LASF512
 4323 1160 01       		.byte	0x1
 4324 1161 6C03     		.2byte	0x36c
 4325 1163 00000000 		.4byte	.LFB20
 4326 1167 30000000 		.4byte	.LFE20-.LFB20
 4327 116b 01       		.uleb128 0x1
 4328 116c 9C       		.byte	0x9c
 4329 116d 82110000 		.4byte	0x1182
 4330 1171 0E       		.uleb128 0xe
 4331 1172 120D0000 		.4byte	.LASF513
 4332 1176 01       		.byte	0x1
 4333 1177 6C03     		.2byte	0x36c
 4334 1179 41090000 		.4byte	0x941
 4335 117d 4B020000 		.4byte	.LLST19
 4336 1181 00       		.byte	0
 4337 1182 0D       		.uleb128 0xd
 4338 1183 D90B0000 		.4byte	.LASF514
 4339 1187 01       		.byte	0x1
 4340 1188 9803     		.2byte	0x398
 4341 118a 00000000 		.4byte	.LFB21
 4342 118e 3C000000 		.4byte	.LFE21-.LFB21
 4343 1192 01       		.uleb128 0x1
 4344 1193 9C       		.byte	0x9c
 4345 1194 D4110000 		.4byte	0x11d4
 4346 1198 0E       		.uleb128 0xe
 4347 1199 FD1E0000 		.4byte	.LASF515
 4348 119d 01       		.byte	0x1
 4349 119e 9803     		.2byte	0x398
 4350 11a0 5F0C0000 		.4byte	0xc5f
 4351 11a4 6C020000 		.4byte	.LLST20
 4352 11a8 1A       		.uleb128 0x1a
 4353 11a9 8B050000 		.4byte	.LASF516
 4354 11ad 01       		.byte	0x1
 4355 11ae 9A03     		.2byte	0x39a
 4356 11b0 D4110000 		.4byte	0x11d4
 4357 11b4 40       		.byte	0x40
 4358 11b5 1B       		.uleb128 0x1b
 4359 11b6 62363400 		.ascii	"b64\000"
 4360 11ba 01       		.byte	0x1
 4361 11bb 9B03     		.2byte	0x39b
 4362 11bd D4110000 		.4byte	0x11d4
 4363 11c1 3F20     		.2byte	0x203f
 4364 11c3 18       		.uleb128 0x18
 4365 11c4 36180000 		.4byte	.LASF517
 4366 11c8 01       		.byte	0x1
 4367 11c9 9C03     		.2byte	0x39c
 4368 11cb 83000000 		.4byte	0x83
 4369 11cf 8D020000 		.4byte	.LLST21
 4370 11d3 00       		.byte	0
 4371 11d4 11       		.uleb128 0x11
 4372 11d5 83000000 		.4byte	0x83
 4373 11d9 0D       		.uleb128 0xd
 4374 11da F00B0000 		.4byte	.LASF518
 4375 11de 01       		.byte	0x1
ARM GAS  C:\Users\Jerry\AppData\Local\Temp\cc1IKG0O.s 			page 112


 4376 11df C803     		.2byte	0x3c8
 4377 11e1 00000000 		.4byte	.LFB22
 4378 11e5 30000000 		.4byte	.LFE22-.LFB22
 4379 11e9 01       		.uleb128 0x1
 4380 11ea 9C       		.byte	0x9c
 4381 11eb 00120000 		.4byte	0x1200
 4382 11ef 0E       		.uleb128 0xe
 4383 11f0 2A0D0000 		.4byte	.LASF519
 4384 11f4 01       		.byte	0x1
 4385 11f5 C803     		.2byte	0x3c8
 4386 11f7 41090000 		.4byte	0x941
 4387 11fb A0020000 		.4byte	.LLST22
 4388 11ff 00       		.byte	0
 4389 1200 0D       		.uleb128 0xd
 4390 1201 070C0000 		.4byte	.LASF520
 4391 1205 01       		.byte	0x1
 4392 1206 F403     		.2byte	0x3f4
 4393 1208 00000000 		.4byte	.LFB23
 4394 120c 30000000 		.4byte	.LFE23-.LFB23
 4395 1210 01       		.uleb128 0x1
 4396 1211 9C       		.byte	0x9c
 4397 1212 27120000 		.4byte	0x1227
 4398 1216 0E       		.uleb128 0xe
 4399 1217 59060000 		.4byte	.LASF521
 4400 121b 01       		.byte	0x1
 4401 121c F403     		.2byte	0x3f4
 4402 121e F50D0000 		.4byte	0xdf5
 4403 1222 C1020000 		.4byte	.LLST23
 4404 1226 00       		.byte	0
 4405 1227 0D       		.uleb128 0xd
 4406 1228 08090000 		.4byte	.LASF522
 4407 122c 01       		.byte	0x1
 4408 122d 2604     		.2byte	0x426
 4409 122f 00000000 		.4byte	.LFB24
 4410 1233 20000000 		.4byte	.LFE24-.LFB24
 4411 1237 01       		.uleb128 0x1
 4412 1238 9C       		.byte	0x9c
 4413 1239 BF120000 		.4byte	0x12bf
 4414 123d 0E       		.uleb128 0xe
 4415 123e 120D0000 		.4byte	.LASF513
 4416 1242 01       		.byte	0x1
 4417 1243 2604     		.2byte	0x426
 4418 1245 41090000 		.4byte	0x941
 4419 1249 E2020000 		.4byte	.LLST24
 4420 124d 0E       		.uleb128 0xe
 4421 124e FD1E0000 		.4byte	.LASF515
 4422 1252 01       		.byte	0x1
 4423 1253 2604     		.2byte	0x426
 4424 1255 5F0C0000 		.4byte	0xc5f
 4425 1259 03030000 		.4byte	.LLST25
 4426 125d 0E       		.uleb128 0xe
 4427 125e 2A0D0000 		.4byte	.LASF519
 4428 1262 01       		.byte	0x1
 4429 1263 2704     		.2byte	0x427
 4430 1265 41090000 		.4byte	0x941
 4431 1269 24030000 		.4byte	.LLST26
 4432 126d 0E       		.uleb128 0xe
ARM GAS  C:\Users\Jerry\AppData\Local\Temp\cc1IKG0O.s 			page 113


 4433 126e 59060000 		.4byte	.LASF521
 4434 1272 01       		.byte	0x1
 4435 1273 2704     		.2byte	0x427
 4436 1275 F50D0000 		.4byte	0xdf5
 4437 1279 45030000 		.4byte	.LLST27
 4438 127d 14       		.uleb128 0x14
 4439 127e 0C000000 		.4byte	.LVL56
 4440 1282 5B110000 		.4byte	0x115b
 4441 1286 15       		.uleb128 0x15
 4442 1287 12000000 		.4byte	.LVL57
 4443 128b 82110000 		.4byte	0x1182
 4444 128f 9A120000 		.4byte	0x129a
 4445 1293 16       		.uleb128 0x16
 4446 1294 01       		.uleb128 0x1
 4447 1295 50       		.byte	0x50
 4448 1296 02       		.uleb128 0x2
 4449 1297 76       		.byte	0x76
 4450 1298 00       		.sleb128 0
 4451 1299 00       		.byte	0
 4452 129a 15       		.uleb128 0x15
 4453 129b 18000000 		.4byte	.LVL58
 4454 129f D9110000 		.4byte	0x11d9
 4455 12a3 AE120000 		.4byte	0x12ae
 4456 12a7 16       		.uleb128 0x16
 4457 12a8 01       		.uleb128 0x1
 4458 12a9 50       		.byte	0x50
 4459 12aa 02       		.uleb128 0x2
 4460 12ab 75       		.byte	0x75
 4461 12ac 00       		.sleb128 0
 4462 12ad 00       		.byte	0
 4463 12ae 1C       		.uleb128 0x1c
 4464 12af 1E000000 		.4byte	.LVL59
 4465 12b3 00120000 		.4byte	0x1200
 4466 12b7 16       		.uleb128 0x16
 4467 12b8 01       		.uleb128 0x1
 4468 12b9 50       		.byte	0x50
 4469 12ba 02       		.uleb128 0x2
 4470 12bb 74       		.byte	0x74
 4471 12bc 00       		.sleb128 0
 4472 12bd 00       		.byte	0
 4473 12be 00       		.byte	0
 4474 12bf 0D       		.uleb128 0xd
 4475 12c0 DF1B0000 		.4byte	.LASF523
 4476 12c4 01       		.byte	0x1
 4477 12c5 4604     		.2byte	0x446
 4478 12c7 00000000 		.4byte	.LFB25
 4479 12cb 20000000 		.4byte	.LFE25-.LFB25
 4480 12cf 01       		.uleb128 0x1
 4481 12d0 9C       		.byte	0x9c
 4482 12d1 1B130000 		.4byte	0x131b
 4483 12d5 17       		.uleb128 0x17
 4484 12d6 D9230000 		.4byte	.LASF524
 4485 12da 01       		.byte	0x1
 4486 12db 4604     		.2byte	0x446
 4487 12dd C4020000 		.4byte	0x2c4
 4488 12e1 01       		.uleb128 0x1
 4489 12e2 50       		.byte	0x50
ARM GAS  C:\Users\Jerry\AppData\Local\Temp\cc1IKG0O.s 			page 114


 4490 12e3 0E       		.uleb128 0xe
 4491 12e4 E4230000 		.4byte	.LASF525
 4492 12e8 01       		.byte	0x1
 4493 12e9 4604     		.2byte	0x446
 4494 12eb C4020000 		.4byte	0x2c4
 4495 12ef 66030000 		.4byte	.LLST28
 4496 12f3 1A       		.uleb128 0x1a
 4497 12f4 250F0000 		.4byte	.LASF526
 4498 12f8 01       		.byte	0x1
 4499 12f9 4A04     		.2byte	0x44a
 4500 12fb D4110000 		.4byte	0x11d4
 4501 12ff 01       		.byte	0x1
 4502 1300 1A       		.uleb128 0x1a
 4503 1301 770D0000 		.4byte	.LASF527
 4504 1305 01       		.byte	0x1
 4505 1306 4B04     		.2byte	0x44b
 4506 1308 D4110000 		.4byte	0x11d4
 4507 130c 01       		.byte	0x1
 4508 130d 1A       		.uleb128 0x1a
 4509 130e 9B150000 		.4byte	.LASF495
 4510 1312 01       		.byte	0x1
 4511 1313 4C04     		.2byte	0x44c
 4512 1315 D4110000 		.4byte	0x11d4
 4513 1319 60       		.byte	0x60
 4514 131a 00       		.byte	0
 4515 131b 0D       		.uleb128 0xd
 4516 131c 06070000 		.4byte	.LASF528
 4517 1320 01       		.byte	0x1
 4518 1321 7004     		.2byte	0x470
 4519 1323 00000000 		.4byte	.LFB26
 4520 1327 24000000 		.4byte	.LFE26-.LFB26
 4521 132b 01       		.uleb128 0x1
 4522 132c 9C       		.byte	0x9c
 4523 132d 42130000 		.4byte	0x1342
 4524 1331 0E       		.uleb128 0xe
 4525 1332 2E1B0000 		.4byte	.LASF529
 4526 1336 01       		.byte	0x1
 4527 1337 7004     		.2byte	0x470
 4528 1339 E6020000 		.4byte	0x2e6
 4529 133d 87030000 		.4byte	.LLST29
 4530 1341 00       		.byte	0
 4531 1342 0D       		.uleb128 0xd
 4532 1343 541E0000 		.4byte	.LASF530
 4533 1347 01       		.byte	0x1
 4534 1348 8C04     		.2byte	0x48c
 4535 134a 00000000 		.4byte	.LFB27
 4536 134e 14000000 		.4byte	.LFE27-.LFB27
 4537 1352 01       		.uleb128 0x1
 4538 1353 9C       		.byte	0x9c
 4539 1354 69130000 		.4byte	0x1369
 4540 1358 0E       		.uleb128 0xe
 4541 1359 9A1D0000 		.4byte	.LASF531
 4542 135d 01       		.byte	0x1
 4543 135e 8C04     		.2byte	0x48c
 4544 1360 0E030000 		.4byte	0x30e
 4545 1364 A8030000 		.4byte	.LLST30
 4546 1368 00       		.byte	0
ARM GAS  C:\Users\Jerry\AppData\Local\Temp\cc1IKG0O.s 			page 115


 4547 1369 0D       		.uleb128 0xd
 4548 136a 74010000 		.4byte	.LASF532
 4549 136e 01       		.byte	0x1
 4550 136f AC04     		.2byte	0x4ac
 4551 1371 00000000 		.4byte	.LFB28
 4552 1375 18000000 		.4byte	.LFE28-.LFB28
 4553 1379 01       		.uleb128 0x1
 4554 137a 9C       		.byte	0x9c
 4555 137b A0130000 		.4byte	0x13a0
 4556 137f 0E       		.uleb128 0xe
 4557 1380 72130000 		.4byte	.LASF533
 4558 1384 01       		.byte	0x1
 4559 1385 AC04     		.2byte	0x4ac
 4560 1387 8F000000 		.4byte	0x8f
 4561 138b C9030000 		.4byte	.LLST31
 4562 138f 10       		.uleb128 0x10
 4563 1390 76616C00 		.ascii	"val\000"
 4564 1394 01       		.byte	0x1
 4565 1395 B104     		.2byte	0x4b1
 4566 1397 83000000 		.4byte	0x83
 4567 139b EA030000 		.4byte	.LLST32
 4568 139f 00       		.byte	0
 4569 13a0 0D       		.uleb128 0xd
 4570 13a1 43130000 		.4byte	.LASF534
 4571 13a5 01       		.byte	0x1
 4572 13a6 CF04     		.2byte	0x4cf
 4573 13a8 00000000 		.4byte	.LFB29
 4574 13ac 2C000000 		.4byte	.LFE29-.LFB29
 4575 13b0 01       		.uleb128 0x1
 4576 13b1 9C       		.byte	0x9c
 4577 13b2 02140000 		.4byte	0x1402
 4578 13b6 0E       		.uleb128 0xe
 4579 13b7 E5220000 		.4byte	.LASF535
 4580 13bb 01       		.byte	0x1
 4581 13bc CF04     		.2byte	0x4cf
 4582 13be 41090000 		.4byte	0x941
 4583 13c2 1D040000 		.4byte	.LLST33
 4584 13c6 0E       		.uleb128 0xe
 4585 13c7 F2050000 		.4byte	.LASF536
 4586 13cb 01       		.byte	0x1
 4587 13cc CF04     		.2byte	0x4cf
 4588 13ce F50D0000 		.4byte	0xdf5
 4589 13d2 3E040000 		.4byte	.LLST34
 4590 13d6 1A       		.uleb128 0x1a
 4591 13d7 3B180000 		.4byte	.LASF537
 4592 13db 01       		.byte	0x1
 4593 13dc D104     		.2byte	0x4d1
 4594 13de D4110000 		.4byte	0x11d4
 4595 13e2 1F       		.byte	0x1f
 4596 13e3 1A       		.uleb128 0x1a
 4597 13e4 EE1D0000 		.4byte	.LASF538
 4598 13e8 01       		.byte	0x1
 4599 13e9 D204     		.2byte	0x4d2
 4600 13eb D4110000 		.4byte	0x11d4
 4601 13ef 3F       		.byte	0x3f
 4602 13f0 1D       		.uleb128 0x1d
 4603 13f1 9B150000 		.4byte	.LASF495
ARM GAS  C:\Users\Jerry\AppData\Local\Temp\cc1IKG0O.s 			page 116


 4604 13f5 01       		.byte	0x1
 4605 13f6 D304     		.2byte	0x4d3
 4606 13f8 D4110000 		.4byte	0x11d4
 4607 13fc 8080FCF9 		.sleb128 -549519360
 4607      7D
 4608 1401 00       		.byte	0
 4609 1402 0D       		.uleb128 0xd
 4610 1403 A5230000 		.4byte	.LASF539
 4611 1407 01       		.byte	0x1
 4612 1408 F904     		.2byte	0x4f9
 4613 140a 00000000 		.4byte	.LFB30
 4614 140e 24000000 		.4byte	.LFE30-.LFB30
 4615 1412 01       		.uleb128 0x1
 4616 1413 9C       		.byte	0x9c
 4617 1414 29140000 		.4byte	0x1429
 4618 1418 0E       		.uleb128 0xe
 4619 1419 C6180000 		.4byte	.LASF540
 4620 141d 01       		.byte	0x1
 4621 141e F904     		.2byte	0x4f9
 4622 1420 9D010000 		.4byte	0x19d
 4623 1424 5F040000 		.4byte	.LLST35
 4624 1428 00       		.byte	0
 4625 1429 0D       		.uleb128 0xd
 4626 142a 42110000 		.4byte	.LASF541
 4627 142e 01       		.byte	0x1
 4628 142f 1705     		.2byte	0x517
 4629 1431 00000000 		.4byte	.LFB31
 4630 1435 24000000 		.4byte	.LFE31-.LFB31
 4631 1439 01       		.uleb128 0x1
 4632 143a 9C       		.byte	0x9c
 4633 143b 50140000 		.4byte	0x1450
 4634 143f 0E       		.uleb128 0xe
 4635 1440 F6280000 		.4byte	.LASF542
 4636 1444 01       		.byte	0x1
 4637 1445 1705     		.2byte	0x517
 4638 1447 BD010000 		.4byte	0x1bd
 4639 144b 80040000 		.4byte	.LLST36
 4640 144f 00       		.byte	0
 4641 1450 19       		.uleb128 0x19
 4642 1451 B5220000 		.4byte	.LASF544
 4643 1455 01       		.byte	0x1
 4644 1456 3405     		.2byte	0x534
 4645 1458 83000000 		.4byte	0x83
 4646 145c 00000000 		.4byte	.LFB32
 4647 1460 10000000 		.4byte	.LFE32-.LFB32
 4648 1464 01       		.uleb128 0x1
 4649 1465 9C       		.byte	0x9c
 4650 1466 79140000 		.4byte	0x1479
 4651 146a 10       		.uleb128 0x10
 4652 146b 7200     		.ascii	"r\000"
 4653 146d 01       		.byte	0x1
 4654 146e 3705     		.2byte	0x537
 4655 1470 83000000 		.4byte	0x83
 4656 1474 A1040000 		.4byte	.LLST37
 4657 1478 00       		.byte	0
 4658 1479 0D       		.uleb128 0xd
 4659 147a 490E0000 		.4byte	.LASF545
ARM GAS  C:\Users\Jerry\AppData\Local\Temp\cc1IKG0O.s 			page 117


 4660 147e 01       		.byte	0x1
 4661 147f 5105     		.2byte	0x551
 4662 1481 00000000 		.4byte	.LFB33
 4663 1485 48000000 		.4byte	.LFE33-.LFB33
 4664 1489 01       		.uleb128 0x1
 4665 148a 9C       		.byte	0x9c
 4666 148b B0140000 		.4byte	0x14b0
 4667 148f 0E       		.uleb128 0xe
 4668 1490 32250000 		.4byte	.LASF546
 4669 1494 01       		.byte	0x1
 4670 1495 5105     		.2byte	0x551
 4671 1497 31060000 		.4byte	0x631
 4672 149b BD040000 		.4byte	.LLST38
 4673 149f 0E       		.uleb128 0xe
 4674 14a0 2B0B0000 		.4byte	.LASF547
 4675 14a4 01       		.byte	0x1
 4676 14a5 5105     		.2byte	0x551
 4677 14a7 52030000 		.4byte	0x352
 4678 14ab F7040000 		.4byte	.LLST39
 4679 14af 00       		.byte	0
 4680 14b0 0D       		.uleb128 0xd
 4681 14b1 D1110000 		.4byte	.LASF548
 4682 14b5 01       		.byte	0x1
 4683 14b6 8905     		.2byte	0x589
 4684 14b8 00000000 		.4byte	.LFB34
 4685 14bc 14000000 		.4byte	.LFE34-.LFB34
 4686 14c0 01       		.uleb128 0x1
 4687 14c1 9C       		.byte	0x9c
 4688 14c2 D7140000 		.4byte	0x14d7
 4689 14c6 0E       		.uleb128 0xe
 4690 14c7 50180000 		.4byte	.LASF549
 4691 14cb 01       		.byte	0x1
 4692 14cc 8905     		.2byte	0x589
 4693 14ce 83000000 		.4byte	0x83
 4694 14d2 31050000 		.4byte	.LLST40
 4695 14d6 00       		.byte	0
 4696 14d7 1E       		.uleb128 0x1e
 4697 14d8 D61A0000 		.4byte	.LASF550
 4698 14dc 01       		.byte	0x1
 4699 14dd E5       		.byte	0xe5
 4700 14de 00000000 		.4byte	.LFB1
 4701 14e2 24000000 		.4byte	.LFE1-.LFB1
 4702 14e6 01       		.uleb128 0x1
 4703 14e7 9C       		.byte	0x9c
 4704 14e8 13150000 		.4byte	0x1513
 4705 14ec 15       		.uleb128 0x15
 4706 14ed 10000000 		.4byte	.LVL85
 4707 14f1 710E0000 		.4byte	0xe71
 4708 14f5 03150000 		.4byte	0x1503
 4709 14f9 16       		.uleb128 0x16
 4710 14fa 01       		.uleb128 0x1
 4711 14fb 50       		.byte	0x50
 4712 14fc 05       		.uleb128 0x5
 4713 14fd 03       		.byte	0x3
 4714 14fe 00000000 		.4byte	.LANCHOR1
 4715 1502 00       		.byte	0
 4716 1503 1C       		.uleb128 0x1c
ARM GAS  C:\Users\Jerry\AppData\Local\Temp\cc1IKG0O.s 			page 118


 4717 1504 1A000000 		.4byte	.LVL86
 4718 1508 B0140000 		.4byte	0x14b0
 4719 150c 16       		.uleb128 0x16
 4720 150d 01       		.uleb128 0x1
 4721 150e 50       		.byte	0x50
 4722 150f 01       		.uleb128 0x1
 4723 1510 31       		.byte	0x31
 4724 1511 00       		.byte	0
 4725 1512 00       		.byte	0
 4726 1513 0D       		.uleb128 0xd
 4727 1514 CB0E0000 		.4byte	.LASF551
 4728 1518 01       		.byte	0x1
 4729 1519 0501     		.2byte	0x105
 4730 151b 00000000 		.4byte	.LFB2
 4731 151f 0A000000 		.4byte	.LFE2-.LFB2
 4732 1523 01       		.uleb128 0x1
 4733 1524 9C       		.byte	0x9c
 4734 1525 39150000 		.4byte	0x1539
 4735 1529 1C       		.uleb128 0x1c
 4736 152a 08000000 		.4byte	.LVL87
 4737 152e B0140000 		.4byte	0x14b0
 4738 1532 16       		.uleb128 0x16
 4739 1533 01       		.uleb128 0x1
 4740 1534 50       		.byte	0x50
 4741 1535 01       		.uleb128 0x1
 4742 1536 30       		.byte	0x30
 4743 1537 00       		.byte	0
 4744 1538 00       		.byte	0
 4745 1539 0D       		.uleb128 0xd
 4746 153a D8060000 		.4byte	.LASF552
 4747 153e 01       		.byte	0x1
 4748 153f A505     		.2byte	0x5a5
 4749 1541 00000000 		.4byte	.LFB35
 4750 1545 14000000 		.4byte	.LFE35-.LFB35
 4751 1549 01       		.uleb128 0x1
 4752 154a 9C       		.byte	0x9c
 4753 154b 60150000 		.4byte	0x1560
 4754 154f 0E       		.uleb128 0xe
 4755 1550 37150000 		.4byte	.LASF553
 4756 1554 01       		.byte	0x1
 4757 1555 A505     		.2byte	0x5a5
 4758 1557 83000000 		.4byte	0x83
 4759 155b 52050000 		.4byte	.LLST41
 4760 155f 00       		.byte	0
 4761 1560 0D       		.uleb128 0xd
 4762 1561 D0030000 		.4byte	.LASF554
 4763 1565 01       		.byte	0x1
 4764 1566 C105     		.2byte	0x5c1
 4765 1568 00000000 		.4byte	.LFB36
 4766 156c 14000000 		.4byte	.LFE36-.LFB36
 4767 1570 01       		.uleb128 0x1
 4768 1571 9C       		.byte	0x9c
 4769 1572 87150000 		.4byte	0x1587
 4770 1576 0E       		.uleb128 0xe
 4771 1577 99210000 		.4byte	.LASF555
 4772 157b 01       		.byte	0x1
 4773 157c C105     		.2byte	0x5c1
ARM GAS  C:\Users\Jerry\AppData\Local\Temp\cc1IKG0O.s 			page 119


 4774 157e 77000000 		.4byte	0x77
 4775 1582 73050000 		.4byte	.LLST42
 4776 1586 00       		.byte	0
 4777 1587 0D       		.uleb128 0xd
 4778 1588 FA130000 		.4byte	.LASF556
 4779 158c 01       		.byte	0x1
 4780 158d D805     		.2byte	0x5d8
 4781 158f 00000000 		.4byte	.LFB37
 4782 1593 24000000 		.4byte	.LFE37-.LFB37
 4783 1597 01       		.uleb128 0x1
 4784 1598 9C       		.byte	0x9c
 4785 1599 AE150000 		.4byte	0x15ae
 4786 159d 0E       		.uleb128 0xe
 4787 159e E4160000 		.4byte	.LASF557
 4788 15a2 01       		.byte	0x1
 4789 15a3 D805     		.2byte	0x5d8
 4790 15a5 30030000 		.4byte	0x330
 4791 15a9 94050000 		.4byte	.LLST43
 4792 15ad 00       		.byte	0
 4793 15ae 0D       		.uleb128 0xd
 4794 15af 6D1B0000 		.4byte	.LASF558
 4795 15b3 01       		.byte	0x1
 4796 15b4 F505     		.2byte	0x5f5
 4797 15b6 00000000 		.4byte	.LFB38
 4798 15ba 14000000 		.4byte	.LFE38-.LFB38
 4799 15be 01       		.uleb128 0x1
 4800 15bf 9C       		.byte	0x9c
 4801 15c0 D5150000 		.4byte	0x15d5
 4802 15c4 0E       		.uleb128 0xe
 4803 15c5 14170000 		.4byte	.LASF559
 4804 15c9 01       		.byte	0x1
 4805 15ca F505     		.2byte	0x5f5
 4806 15cc 6B000000 		.4byte	0x6b
 4807 15d0 B5050000 		.4byte	.LLST44
 4808 15d4 00       		.byte	0
 4809 15d5 0D       		.uleb128 0xd
 4810 15d6 2E230000 		.4byte	.LASF560
 4811 15da 01       		.byte	0x1
 4812 15db 1206     		.2byte	0x612
 4813 15dd 00000000 		.4byte	.LFB39
 4814 15e1 18000000 		.4byte	.LFE39-.LFB39
 4815 15e5 01       		.uleb128 0x1
 4816 15e6 9C       		.byte	0x9c
 4817 15e7 FC150000 		.4byte	0x15fc
 4818 15eb 0E       		.uleb128 0xe
 4819 15ec 49140000 		.4byte	.LASF561
 4820 15f0 01       		.byte	0x1
 4821 15f1 1206     		.2byte	0x612
 4822 15f3 6B000000 		.4byte	0x6b
 4823 15f7 D6050000 		.4byte	.LLST45
 4824 15fb 00       		.byte	0
 4825 15fc 1F       		.uleb128 0x1f
 4826 15fd 2A100000 		.4byte	.LASF562
 4827 1601 01       		.byte	0x1
 4828 1602 2B06     		.2byte	0x62b
 4829 1604 83000000 		.4byte	0x83
 4830 1608 00000000 		.4byte	.LFB40
ARM GAS  C:\Users\Jerry\AppData\Local\Temp\cc1IKG0O.s 			page 120


 4831 160c 0C000000 		.4byte	.LFE40-.LFB40
 4832 1610 01       		.uleb128 0x1
 4833 1611 9C       		.byte	0x9c
 4834 1612 1F       		.uleb128 0x1f
 4835 1613 FB050000 		.4byte	.LASF563
 4836 1617 01       		.byte	0x1
 4837 1618 4206     		.2byte	0x642
 4838 161a 83000000 		.4byte	0x83
 4839 161e 00000000 		.4byte	.LFB41
 4840 1622 10000000 		.4byte	.LFE41-.LFB41
 4841 1626 01       		.uleb128 0x1
 4842 1627 9C       		.byte	0x9c
 4843 1628 0D       		.uleb128 0xd
 4844 1629 231D0000 		.4byte	.LASF564
 4845 162d 01       		.byte	0x1
 4846 162e 7306     		.2byte	0x673
 4847 1630 00000000 		.4byte	.LFB42
 4848 1634 24000000 		.4byte	.LFE42-.LFB42
 4849 1638 01       		.uleb128 0x1
 4850 1639 9C       		.byte	0x9c
 4851 163a 79160000 		.4byte	0x1679
 4852 163e 0E       		.uleb128 0xe
 4853 163f 1F090000 		.4byte	.LASF565
 4854 1643 01       		.byte	0x1
 4855 1644 7306     		.2byte	0x673
 4856 1646 83000000 		.4byte	0x83
 4857 164a F7050000 		.4byte	.LLST46
 4858 164e 0E       		.uleb128 0xe
 4859 164f E6210000 		.4byte	.LASF566
 4860 1653 01       		.byte	0x1
 4861 1654 7306     		.2byte	0x673
 4862 1656 83000000 		.4byte	0x83
 4863 165a 18060000 		.4byte	.LLST47
 4864 165e 1A       		.uleb128 0x1a
 4865 165f A6040000 		.4byte	.LASF567
 4866 1663 01       		.byte	0x1
 4867 1664 7606     		.2byte	0x676
 4868 1666 D4110000 		.4byte	0x11d4
 4869 166a 1F       		.byte	0x1f
 4870 166b 1A       		.uleb128 0x1a
 4871 166c B70A0000 		.4byte	.LASF568
 4872 1670 01       		.byte	0x1
 4873 1671 7706     		.2byte	0x677
 4874 1673 D4110000 		.4byte	0x11d4
 4875 1677 1F       		.byte	0x1f
 4876 1678 00       		.byte	0
 4877 1679 0D       		.uleb128 0xd
 4878 167a 02030000 		.4byte	.LASF569
 4879 167e 01       		.byte	0x1
 4880 167f 9806     		.2byte	0x698
 4881 1681 00000000 		.4byte	.LFB43
 4882 1685 24000000 		.4byte	.LFE43-.LFB43
 4883 1689 01       		.uleb128 0x1
 4884 168a 9C       		.byte	0x9c
 4885 168b A0160000 		.4byte	0x16a0
 4886 168f 0E       		.uleb128 0xe
 4887 1690 27250000 		.4byte	.LASF570
ARM GAS  C:\Users\Jerry\AppData\Local\Temp\cc1IKG0O.s 			page 121


 4888 1694 01       		.byte	0x1
 4889 1695 9806     		.2byte	0x698
 4890 1697 74030000 		.4byte	0x374
 4891 169b 39060000 		.4byte	.LLST48
 4892 169f 00       		.byte	0
 4893 16a0 0D       		.uleb128 0xd
 4894 16a1 9C1B0000 		.4byte	.LASF571
 4895 16a5 01       		.byte	0x1
 4896 16a6 C006     		.2byte	0x6c0
 4897 16a8 00000000 		.4byte	.LFB44
 4898 16ac 24000000 		.4byte	.LFE44-.LFB44
 4899 16b0 01       		.uleb128 0x1
 4900 16b1 9C       		.byte	0x9c
 4901 16b2 C7160000 		.4byte	0x16c7
 4902 16b6 0E       		.uleb128 0xe
 4903 16b7 F71F0000 		.4byte	.LASF572
 4904 16bb 01       		.byte	0x1
 4905 16bc C006     		.2byte	0x6c0
 4906 16be 83000000 		.4byte	0x83
 4907 16c2 5A060000 		.4byte	.LLST49
 4908 16c6 00       		.byte	0
 4909 16c7 0D       		.uleb128 0xd
 4910 16c8 CE020000 		.4byte	.LASF573
 4911 16cc 01       		.byte	0x1
 4912 16cd DD06     		.2byte	0x6dd
 4913 16cf 00000000 		.4byte	.LFB45
 4914 16d3 24000000 		.4byte	.LFE45-.LFB45
 4915 16d7 01       		.uleb128 0x1
 4916 16d8 9C       		.byte	0x9c
 4917 16d9 EE160000 		.4byte	0x16ee
 4918 16dd 0E       		.uleb128 0xe
 4919 16de 50180000 		.4byte	.LASF549
 4920 16e2 01       		.byte	0x1
 4921 16e3 DD06     		.2byte	0x6dd
 4922 16e5 83000000 		.4byte	0x83
 4923 16e9 86060000 		.4byte	.LLST50
 4924 16ed 00       		.byte	0
 4925 16ee 0D       		.uleb128 0xd
 4926 16ef 67240000 		.4byte	.LASF574
 4927 16f3 01       		.byte	0x1
 4928 16f4 0B07     		.2byte	0x70b
 4929 16f6 00000000 		.4byte	.LFB46
 4930 16fa 2C000000 		.4byte	.LFE46-.LFB46
 4931 16fe 01       		.uleb128 0x1
 4932 16ff 9C       		.byte	0x9c
 4933 1700 3F170000 		.4byte	0x173f
 4934 1704 0E       		.uleb128 0xe
 4935 1705 ED1C0000 		.4byte	.LASF575
 4936 1709 01       		.byte	0x1
 4937 170a 0B07     		.2byte	0x70b
 4938 170c 83000000 		.4byte	0x83
 4939 1710 B2060000 		.4byte	.LLST51
 4940 1714 0E       		.uleb128 0xe
 4941 1715 FF220000 		.4byte	.LASF576
 4942 1719 01       		.byte	0x1
 4943 171a 0B07     		.2byte	0x70b
 4944 171c 83000000 		.4byte	0x83
ARM GAS  C:\Users\Jerry\AppData\Local\Temp\cc1IKG0O.s 			page 122


 4945 1720 D3060000 		.4byte	.LLST52
 4946 1724 1A       		.uleb128 0x1a
 4947 1725 BD090000 		.4byte	.LASF577
 4948 1729 01       		.byte	0x1
 4949 172a 0E07     		.2byte	0x70e
 4950 172c D4110000 		.4byte	0x11d4
 4951 1730 1F       		.byte	0x1f
 4952 1731 1A       		.uleb128 0x1a
 4953 1732 44010000 		.4byte	.LASF578
 4954 1736 01       		.byte	0x1
 4955 1737 0F07     		.2byte	0x70f
 4956 1739 D4110000 		.4byte	0x11d4
 4957 173d 01       		.byte	0x1
 4958 173e 00       		.byte	0
 4959 173f 0D       		.uleb128 0xd
 4960 1740 CE1C0000 		.4byte	.LASF579
 4961 1744 01       		.byte	0x1
 4962 1745 3007     		.2byte	0x730
 4963 1747 00000000 		.4byte	.LFB47
 4964 174b 98000000 		.4byte	.LFE47-.LFB47
 4965 174f 01       		.uleb128 0x1
 4966 1750 9C       		.byte	0x9c
 4967 1751 76170000 		.4byte	0x1776
 4968 1755 0E       		.uleb128 0xe
 4969 1756 32250000 		.4byte	.LASF546
 4970 175a 01       		.byte	0x1
 4971 175b 3007     		.2byte	0x730
 4972 175d 31060000 		.4byte	0x631
 4973 1761 F4060000 		.4byte	.LLST53
 4974 1765 13       		.uleb128 0x13
 4975 1766 636C6B00 		.ascii	"clk\000"
 4976 176a 01       		.byte	0x1
 4977 176b 3007     		.2byte	0x730
 4978 176d DE030000 		.4byte	0x3de
 4979 1771 15070000 		.4byte	.LLST54
 4980 1775 00       		.byte	0
 4981 1776 0D       		.uleb128 0xd
 4982 1777 021B0000 		.4byte	.LASF580
 4983 177b 01       		.byte	0x1
 4984 177c 4E07     		.2byte	0x74e
 4985 177e 00000000 		.4byte	.LFB48
 4986 1782 D8000000 		.4byte	.LFE48-.LFB48
 4987 1786 01       		.uleb128 0x1
 4988 1787 9C       		.byte	0x9c
 4989 1788 AD170000 		.4byte	0x17ad
 4990 178c 0E       		.uleb128 0xe
 4991 178d 32250000 		.4byte	.LASF546
 4992 1791 01       		.byte	0x1
 4993 1792 4E07     		.2byte	0x74e
 4994 1794 31060000 		.4byte	0x631
 4995 1798 36070000 		.4byte	.LLST55
 4996 179c 13       		.uleb128 0x13
 4997 179d 636C6B00 		.ascii	"clk\000"
 4998 17a1 01       		.byte	0x1
 4999 17a2 4E07     		.2byte	0x74e
 5000 17a4 DE030000 		.4byte	0x3de
 5001 17a8 70070000 		.4byte	.LLST56
ARM GAS  C:\Users\Jerry\AppData\Local\Temp\cc1IKG0O.s 			page 123


 5002 17ac 00       		.byte	0
 5003 17ad 20       		.uleb128 0x20
 5004 17ae 4B250000 		.4byte	.LASF581
 5005 17b2 01       		.byte	0x1
 5006 17b3 33       		.byte	0x33
 5007 17b4 83000000 		.4byte	0x83
 5008 17b8 05       		.uleb128 0x5
 5009 17b9 03       		.byte	0x3
 5010 17ba 00000000 		.4byte	VDAC_Synth_UAB_initVar
 5011 17be 20       		.uleb128 0x20
 5012 17bf 61110000 		.4byte	.LASF582
 5013 17c3 01       		.byte	0x1
 5014 17c4 C1       		.byte	0xc1
 5015 17c5 50010000 		.4byte	0x150
 5016 17c9 05       		.uleb128 0x5
 5017 17ca 03       		.byte	0x3
 5018 17cb 00000000 		.4byte	VDAC_Synth_UAB_config
 5019 17cf 21       		.uleb128 0x21
 5020 17d0 77000000 		.4byte	0x77
 5021 17d4 DF170000 		.4byte	0x17df
 5022 17d8 22       		.uleb128 0x22
 5023 17d9 0C0E0000 		.4byte	0xe0c
 5024 17dd 02       		.byte	0x2
 5025 17de 00       		.byte	0
 5026 17df 20       		.uleb128 0x20
 5027 17e0 0D250000 		.4byte	.LASF583
 5028 17e4 01       		.byte	0x1
 5029 17e5 3B       		.byte	0x3b
 5030 17e6 CF170000 		.4byte	0x17cf
 5031 17ea 05       		.uleb128 0x5
 5032 17eb 03       		.byte	0x3
 5033 17ec 00000000 		.4byte	VDAC_Synth_UAB_waveConfig
 5034 17f0 21       		.uleb128 0x21
 5035 17f1 F4000000 		.4byte	0xf4
 5036 17f5 00180000 		.4byte	0x1800
 5037 17f9 22       		.uleb128 0x22
 5038 17fa 0C0E0000 		.4byte	0xe0c
 5039 17fe 0D       		.byte	0xd
 5040 17ff 00       		.byte	0
 5041 1800 20       		.uleb128 0x20
 5042 1801 8D160000 		.4byte	.LASF584
 5043 1805 01       		.byte	0x1
 5044 1806 6F       		.byte	0x6f
 5045 1807 F0170000 		.4byte	0x17f0
 5046 180b 05       		.uleb128 0x5
 5047 180c 03       		.byte	0x3
 5048 180d 00000000 		.4byte	VDAC_Synth_UAB_initPairs
 5049 1811 23       		.uleb128 0x23
 5050 1812 4E020000 		.4byte	.LASF585
 5051 1816 05       		.byte	0x5
 5052 1817 4D       		.byte	0x4d
 5053 1818 2C180000 		.4byte	0x182c
 5054 181c 24       		.uleb128 0x24
 5055 181d EE000000 		.4byte	0xee
 5056 1821 24       		.uleb128 0x24
 5057 1822 010E0000 		.4byte	0xe01
 5058 1826 24       		.uleb128 0x24
ARM GAS  C:\Users\Jerry\AppData\Local\Temp\cc1IKG0O.s 			page 124


 5059 1827 2C180000 		.4byte	0x182c
 5060 182b 00       		.byte	0
 5061 182c 08       		.uleb128 0x8
 5062 182d 04       		.byte	0x4
 5063 182e 32180000 		.4byte	0x1832
 5064 1832 11       		.uleb128 0x11
 5065 1833 77000000 		.4byte	0x77
 5066 1837 25       		.uleb128 0x25
 5067 1838 59240000 		.4byte	.LASF586
 5068 183c 05       		.byte	0x5
 5069 183d 54       		.byte	0x54
 5070 183e EE000000 		.4byte	0xee
 5071 1842 24       		.uleb128 0x24
 5072 1843 EE000000 		.4byte	0xee
 5073 1847 24       		.uleb128 0x24
 5074 1848 83000000 		.4byte	0x83
 5075 184c 24       		.uleb128 0x24
 5076 184d 010E0000 		.4byte	0xe01
 5077 1851 00       		.byte	0
 5078 1852 00       		.byte	0
 5079              		.section	.debug_abbrev,"",%progbits
 5080              	.Ldebug_abbrev0:
 5081 0000 01       		.uleb128 0x1
 5082 0001 11       		.uleb128 0x11
 5083 0002 01       		.byte	0x1
 5084 0003 25       		.uleb128 0x25
 5085 0004 0E       		.uleb128 0xe
 5086 0005 13       		.uleb128 0x13
 5087 0006 0B       		.uleb128 0xb
 5088 0007 03       		.uleb128 0x3
 5089 0008 0E       		.uleb128 0xe
 5090 0009 1B       		.uleb128 0x1b
 5091 000a 0E       		.uleb128 0xe
 5092 000b 55       		.uleb128 0x55
 5093 000c 17       		.uleb128 0x17
 5094 000d 11       		.uleb128 0x11
 5095 000e 01       		.uleb128 0x1
 5096 000f 10       		.uleb128 0x10
 5097 0010 17       		.uleb128 0x17
 5098 0011 00       		.byte	0
 5099 0012 00       		.byte	0
 5100 0013 02       		.uleb128 0x2
 5101 0014 24       		.uleb128 0x24
 5102 0015 00       		.byte	0
 5103 0016 0B       		.uleb128 0xb
 5104 0017 0B       		.uleb128 0xb
 5105 0018 3E       		.uleb128 0x3e
 5106 0019 0B       		.uleb128 0xb
 5107 001a 03       		.uleb128 0x3
 5108 001b 0E       		.uleb128 0xe
 5109 001c 00       		.byte	0
 5110 001d 00       		.byte	0
 5111 001e 03       		.uleb128 0x3
 5112 001f 24       		.uleb128 0x24
 5113 0020 00       		.byte	0
 5114 0021 0B       		.uleb128 0xb
 5115 0022 0B       		.uleb128 0xb
ARM GAS  C:\Users\Jerry\AppData\Local\Temp\cc1IKG0O.s 			page 125


 5116 0023 3E       		.uleb128 0x3e
 5117 0024 0B       		.uleb128 0xb
 5118 0025 03       		.uleb128 0x3
 5119 0026 08       		.uleb128 0x8
 5120 0027 00       		.byte	0
 5121 0028 00       		.byte	0
 5122 0029 04       		.uleb128 0x4
 5123 002a 16       		.uleb128 0x16
 5124 002b 00       		.byte	0
 5125 002c 03       		.uleb128 0x3
 5126 002d 0E       		.uleb128 0xe
 5127 002e 3A       		.uleb128 0x3a
 5128 002f 0B       		.uleb128 0xb
 5129 0030 3B       		.uleb128 0x3b
 5130 0031 05       		.uleb128 0x5
 5131 0032 49       		.uleb128 0x49
 5132 0033 13       		.uleb128 0x13
 5133 0034 00       		.byte	0
 5134 0035 00       		.byte	0
 5135 0036 05       		.uleb128 0x5
 5136 0037 35       		.uleb128 0x35
 5137 0038 00       		.byte	0
 5138 0039 49       		.uleb128 0x49
 5139 003a 13       		.uleb128 0x13
 5140 003b 00       		.byte	0
 5141 003c 00       		.byte	0
 5142 003d 06       		.uleb128 0x6
 5143 003e 13       		.uleb128 0x13
 5144 003f 01       		.byte	0x1
 5145 0040 0B       		.uleb128 0xb
 5146 0041 0B       		.uleb128 0xb
 5147 0042 3A       		.uleb128 0x3a
 5148 0043 0B       		.uleb128 0xb
 5149 0044 3B       		.uleb128 0x3b
 5150 0045 0B       		.uleb128 0xb
 5151 0046 01       		.uleb128 0x1
 5152 0047 13       		.uleb128 0x13
 5153 0048 00       		.byte	0
 5154 0049 00       		.byte	0
 5155 004a 07       		.uleb128 0x7
 5156 004b 0D       		.uleb128 0xd
 5157 004c 00       		.byte	0
 5158 004d 03       		.uleb128 0x3
 5159 004e 0E       		.uleb128 0xe
 5160 004f 3A       		.uleb128 0x3a
 5161 0050 0B       		.uleb128 0xb
 5162 0051 3B       		.uleb128 0x3b
 5163 0052 0B       		.uleb128 0xb
 5164 0053 49       		.uleb128 0x49
 5165 0054 13       		.uleb128 0x13
 5166 0055 38       		.uleb128 0x38
 5167 0056 0B       		.uleb128 0xb
 5168 0057 00       		.byte	0
 5169 0058 00       		.byte	0
 5170 0059 08       		.uleb128 0x8
 5171 005a 0F       		.uleb128 0xf
 5172 005b 00       		.byte	0
ARM GAS  C:\Users\Jerry\AppData\Local\Temp\cc1IKG0O.s 			page 126


 5173 005c 0B       		.uleb128 0xb
 5174 005d 0B       		.uleb128 0xb
 5175 005e 49       		.uleb128 0x49
 5176 005f 13       		.uleb128 0x13
 5177 0060 00       		.byte	0
 5178 0061 00       		.byte	0
 5179 0062 09       		.uleb128 0x9
 5180 0063 16       		.uleb128 0x16
 5181 0064 00       		.byte	0
 5182 0065 03       		.uleb128 0x3
 5183 0066 0E       		.uleb128 0xe
 5184 0067 3A       		.uleb128 0x3a
 5185 0068 0B       		.uleb128 0xb
 5186 0069 3B       		.uleb128 0x3b
 5187 006a 0B       		.uleb128 0xb
 5188 006b 49       		.uleb128 0x49
 5189 006c 13       		.uleb128 0x13
 5190 006d 00       		.byte	0
 5191 006e 00       		.byte	0
 5192 006f 0A       		.uleb128 0xa
 5193 0070 04       		.uleb128 0x4
 5194 0071 01       		.byte	0x1
 5195 0072 0B       		.uleb128 0xb
 5196 0073 0B       		.uleb128 0xb
 5197 0074 3A       		.uleb128 0x3a
 5198 0075 0B       		.uleb128 0xb
 5199 0076 3B       		.uleb128 0x3b
 5200 0077 0B       		.uleb128 0xb
 5201 0078 01       		.uleb128 0x1
 5202 0079 13       		.uleb128 0x13
 5203 007a 00       		.byte	0
 5204 007b 00       		.byte	0
 5205 007c 0B       		.uleb128 0xb
 5206 007d 28       		.uleb128 0x28
 5207 007e 00       		.byte	0
 5208 007f 03       		.uleb128 0x3
 5209 0080 0E       		.uleb128 0xe
 5210 0081 1C       		.uleb128 0x1c
 5211 0082 0D       		.uleb128 0xd
 5212 0083 00       		.byte	0
 5213 0084 00       		.byte	0
 5214 0085 0C       		.uleb128 0xc
 5215 0086 04       		.uleb128 0x4
 5216 0087 01       		.byte	0x1
 5217 0088 0B       		.uleb128 0xb
 5218 0089 0B       		.uleb128 0xb
 5219 008a 3A       		.uleb128 0x3a
 5220 008b 0B       		.uleb128 0xb
 5221 008c 3B       		.uleb128 0x3b
 5222 008d 05       		.uleb128 0x5
 5223 008e 01       		.uleb128 0x1
 5224 008f 13       		.uleb128 0x13
 5225 0090 00       		.byte	0
 5226 0091 00       		.byte	0
 5227 0092 0D       		.uleb128 0xd
 5228 0093 2E       		.uleb128 0x2e
 5229 0094 01       		.byte	0x1
ARM GAS  C:\Users\Jerry\AppData\Local\Temp\cc1IKG0O.s 			page 127


 5230 0095 3F       		.uleb128 0x3f
 5231 0096 19       		.uleb128 0x19
 5232 0097 03       		.uleb128 0x3
 5233 0098 0E       		.uleb128 0xe
 5234 0099 3A       		.uleb128 0x3a
 5235 009a 0B       		.uleb128 0xb
 5236 009b 3B       		.uleb128 0x3b
 5237 009c 05       		.uleb128 0x5
 5238 009d 27       		.uleb128 0x27
 5239 009e 19       		.uleb128 0x19
 5240 009f 11       		.uleb128 0x11
 5241 00a0 01       		.uleb128 0x1
 5242 00a1 12       		.uleb128 0x12
 5243 00a2 06       		.uleb128 0x6
 5244 00a3 40       		.uleb128 0x40
 5245 00a4 18       		.uleb128 0x18
 5246 00a5 9742     		.uleb128 0x2117
 5247 00a7 19       		.uleb128 0x19
 5248 00a8 01       		.uleb128 0x1
 5249 00a9 13       		.uleb128 0x13
 5250 00aa 00       		.byte	0
 5251 00ab 00       		.byte	0
 5252 00ac 0E       		.uleb128 0xe
 5253 00ad 05       		.uleb128 0x5
 5254 00ae 00       		.byte	0
 5255 00af 03       		.uleb128 0x3
 5256 00b0 0E       		.uleb128 0xe
 5257 00b1 3A       		.uleb128 0x3a
 5258 00b2 0B       		.uleb128 0xb
 5259 00b3 3B       		.uleb128 0x3b
 5260 00b4 05       		.uleb128 0x5
 5261 00b5 49       		.uleb128 0x49
 5262 00b6 13       		.uleb128 0x13
 5263 00b7 02       		.uleb128 0x2
 5264 00b8 17       		.uleb128 0x17
 5265 00b9 00       		.byte	0
 5266 00ba 00       		.byte	0
 5267 00bb 0F       		.uleb128 0xf
 5268 00bc 05       		.uleb128 0x5
 5269 00bd 00       		.byte	0
 5270 00be 03       		.uleb128 0x3
 5271 00bf 08       		.uleb128 0x8
 5272 00c0 3A       		.uleb128 0x3a
 5273 00c1 0B       		.uleb128 0xb
 5274 00c2 3B       		.uleb128 0x3b
 5275 00c3 05       		.uleb128 0x5
 5276 00c4 49       		.uleb128 0x49
 5277 00c5 13       		.uleb128 0x13
 5278 00c6 02       		.uleb128 0x2
 5279 00c7 18       		.uleb128 0x18
 5280 00c8 00       		.byte	0
 5281 00c9 00       		.byte	0
 5282 00ca 10       		.uleb128 0x10
 5283 00cb 34       		.uleb128 0x34
 5284 00cc 00       		.byte	0
 5285 00cd 03       		.uleb128 0x3
 5286 00ce 08       		.uleb128 0x8
ARM GAS  C:\Users\Jerry\AppData\Local\Temp\cc1IKG0O.s 			page 128


 5287 00cf 3A       		.uleb128 0x3a
 5288 00d0 0B       		.uleb128 0xb
 5289 00d1 3B       		.uleb128 0x3b
 5290 00d2 05       		.uleb128 0x5
 5291 00d3 49       		.uleb128 0x49
 5292 00d4 13       		.uleb128 0x13
 5293 00d5 02       		.uleb128 0x2
 5294 00d6 17       		.uleb128 0x17
 5295 00d7 00       		.byte	0
 5296 00d8 00       		.byte	0
 5297 00d9 11       		.uleb128 0x11
 5298 00da 26       		.uleb128 0x26
 5299 00db 00       		.byte	0
 5300 00dc 49       		.uleb128 0x49
 5301 00dd 13       		.uleb128 0x13
 5302 00de 00       		.byte	0
 5303 00df 00       		.byte	0
 5304 00e0 12       		.uleb128 0x12
 5305 00e1 2E       		.uleb128 0x2e
 5306 00e2 00       		.byte	0
 5307 00e3 3F       		.uleb128 0x3f
 5308 00e4 19       		.uleb128 0x19
 5309 00e5 03       		.uleb128 0x3
 5310 00e6 0E       		.uleb128 0xe
 5311 00e7 3A       		.uleb128 0x3a
 5312 00e8 0B       		.uleb128 0xb
 5313 00e9 3B       		.uleb128 0x3b
 5314 00ea 05       		.uleb128 0x5
 5315 00eb 27       		.uleb128 0x27
 5316 00ec 19       		.uleb128 0x19
 5317 00ed 11       		.uleb128 0x11
 5318 00ee 01       		.uleb128 0x1
 5319 00ef 12       		.uleb128 0x12
 5320 00f0 06       		.uleb128 0x6
 5321 00f1 40       		.uleb128 0x40
 5322 00f2 18       		.uleb128 0x18
 5323 00f3 9742     		.uleb128 0x2117
 5324 00f5 19       		.uleb128 0x19
 5325 00f6 00       		.byte	0
 5326 00f7 00       		.byte	0
 5327 00f8 13       		.uleb128 0x13
 5328 00f9 05       		.uleb128 0x5
 5329 00fa 00       		.byte	0
 5330 00fb 03       		.uleb128 0x3
 5331 00fc 08       		.uleb128 0x8
 5332 00fd 3A       		.uleb128 0x3a
 5333 00fe 0B       		.uleb128 0xb
 5334 00ff 3B       		.uleb128 0x3b
 5335 0100 05       		.uleb128 0x5
 5336 0101 49       		.uleb128 0x49
 5337 0102 13       		.uleb128 0x13
 5338 0103 02       		.uleb128 0x2
 5339 0104 17       		.uleb128 0x17
 5340 0105 00       		.byte	0
 5341 0106 00       		.byte	0
 5342 0107 14       		.uleb128 0x14
 5343 0108 898201   		.uleb128 0x4109
ARM GAS  C:\Users\Jerry\AppData\Local\Temp\cc1IKG0O.s 			page 129


 5344 010b 00       		.byte	0
 5345 010c 11       		.uleb128 0x11
 5346 010d 01       		.uleb128 0x1
 5347 010e 31       		.uleb128 0x31
 5348 010f 13       		.uleb128 0x13
 5349 0110 00       		.byte	0
 5350 0111 00       		.byte	0
 5351 0112 15       		.uleb128 0x15
 5352 0113 898201   		.uleb128 0x4109
 5353 0116 01       		.byte	0x1
 5354 0117 11       		.uleb128 0x11
 5355 0118 01       		.uleb128 0x1
 5356 0119 31       		.uleb128 0x31
 5357 011a 13       		.uleb128 0x13
 5358 011b 01       		.uleb128 0x1
 5359 011c 13       		.uleb128 0x13
 5360 011d 00       		.byte	0
 5361 011e 00       		.byte	0
 5362 011f 16       		.uleb128 0x16
 5363 0120 8A8201   		.uleb128 0x410a
 5364 0123 00       		.byte	0
 5365 0124 02       		.uleb128 0x2
 5366 0125 18       		.uleb128 0x18
 5367 0126 9142     		.uleb128 0x2111
 5368 0128 18       		.uleb128 0x18
 5369 0129 00       		.byte	0
 5370 012a 00       		.byte	0
 5371 012b 17       		.uleb128 0x17
 5372 012c 05       		.uleb128 0x5
 5373 012d 00       		.byte	0
 5374 012e 03       		.uleb128 0x3
 5375 012f 0E       		.uleb128 0xe
 5376 0130 3A       		.uleb128 0x3a
 5377 0131 0B       		.uleb128 0xb
 5378 0132 3B       		.uleb128 0x3b
 5379 0133 05       		.uleb128 0x5
 5380 0134 49       		.uleb128 0x49
 5381 0135 13       		.uleb128 0x13
 5382 0136 02       		.uleb128 0x2
 5383 0137 18       		.uleb128 0x18
 5384 0138 00       		.byte	0
 5385 0139 00       		.byte	0
 5386 013a 18       		.uleb128 0x18
 5387 013b 34       		.uleb128 0x34
 5388 013c 00       		.byte	0
 5389 013d 03       		.uleb128 0x3
 5390 013e 0E       		.uleb128 0xe
 5391 013f 3A       		.uleb128 0x3a
 5392 0140 0B       		.uleb128 0xb
 5393 0141 3B       		.uleb128 0x3b
 5394 0142 05       		.uleb128 0x5
 5395 0143 49       		.uleb128 0x49
 5396 0144 13       		.uleb128 0x13
 5397 0145 02       		.uleb128 0x2
 5398 0146 17       		.uleb128 0x17
 5399 0147 00       		.byte	0
 5400 0148 00       		.byte	0
ARM GAS  C:\Users\Jerry\AppData\Local\Temp\cc1IKG0O.s 			page 130


 5401 0149 19       		.uleb128 0x19
 5402 014a 2E       		.uleb128 0x2e
 5403 014b 01       		.byte	0x1
 5404 014c 3F       		.uleb128 0x3f
 5405 014d 19       		.uleb128 0x19
 5406 014e 03       		.uleb128 0x3
 5407 014f 0E       		.uleb128 0xe
 5408 0150 3A       		.uleb128 0x3a
 5409 0151 0B       		.uleb128 0xb
 5410 0152 3B       		.uleb128 0x3b
 5411 0153 05       		.uleb128 0x5
 5412 0154 27       		.uleb128 0x27
 5413 0155 19       		.uleb128 0x19
 5414 0156 49       		.uleb128 0x49
 5415 0157 13       		.uleb128 0x13
 5416 0158 11       		.uleb128 0x11
 5417 0159 01       		.uleb128 0x1
 5418 015a 12       		.uleb128 0x12
 5419 015b 06       		.uleb128 0x6
 5420 015c 40       		.uleb128 0x40
 5421 015d 18       		.uleb128 0x18
 5422 015e 9742     		.uleb128 0x2117
 5423 0160 19       		.uleb128 0x19
 5424 0161 01       		.uleb128 0x1
 5425 0162 13       		.uleb128 0x13
 5426 0163 00       		.byte	0
 5427 0164 00       		.byte	0
 5428 0165 1A       		.uleb128 0x1a
 5429 0166 34       		.uleb128 0x34
 5430 0167 00       		.byte	0
 5431 0168 03       		.uleb128 0x3
 5432 0169 0E       		.uleb128 0xe
 5433 016a 3A       		.uleb128 0x3a
 5434 016b 0B       		.uleb128 0xb
 5435 016c 3B       		.uleb128 0x3b
 5436 016d 05       		.uleb128 0x5
 5437 016e 49       		.uleb128 0x49
 5438 016f 13       		.uleb128 0x13
 5439 0170 1C       		.uleb128 0x1c
 5440 0171 0B       		.uleb128 0xb
 5441 0172 00       		.byte	0
 5442 0173 00       		.byte	0
 5443 0174 1B       		.uleb128 0x1b
 5444 0175 34       		.uleb128 0x34
 5445 0176 00       		.byte	0
 5446 0177 03       		.uleb128 0x3
 5447 0178 08       		.uleb128 0x8
 5448 0179 3A       		.uleb128 0x3a
 5449 017a 0B       		.uleb128 0xb
 5450 017b 3B       		.uleb128 0x3b
 5451 017c 05       		.uleb128 0x5
 5452 017d 49       		.uleb128 0x49
 5453 017e 13       		.uleb128 0x13
 5454 017f 1C       		.uleb128 0x1c
 5455 0180 05       		.uleb128 0x5
 5456 0181 00       		.byte	0
 5457 0182 00       		.byte	0
ARM GAS  C:\Users\Jerry\AppData\Local\Temp\cc1IKG0O.s 			page 131


 5458 0183 1C       		.uleb128 0x1c
 5459 0184 898201   		.uleb128 0x4109
 5460 0187 01       		.byte	0x1
 5461 0188 11       		.uleb128 0x11
 5462 0189 01       		.uleb128 0x1
 5463 018a 31       		.uleb128 0x31
 5464 018b 13       		.uleb128 0x13
 5465 018c 00       		.byte	0
 5466 018d 00       		.byte	0
 5467 018e 1D       		.uleb128 0x1d
 5468 018f 34       		.uleb128 0x34
 5469 0190 00       		.byte	0
 5470 0191 03       		.uleb128 0x3
 5471 0192 0E       		.uleb128 0xe
 5472 0193 3A       		.uleb128 0x3a
 5473 0194 0B       		.uleb128 0xb
 5474 0195 3B       		.uleb128 0x3b
 5475 0196 05       		.uleb128 0x5
 5476 0197 49       		.uleb128 0x49
 5477 0198 13       		.uleb128 0x13
 5478 0199 1C       		.uleb128 0x1c
 5479 019a 0D       		.uleb128 0xd
 5480 019b 00       		.byte	0
 5481 019c 00       		.byte	0
 5482 019d 1E       		.uleb128 0x1e
 5483 019e 2E       		.uleb128 0x2e
 5484 019f 01       		.byte	0x1
 5485 01a0 3F       		.uleb128 0x3f
 5486 01a1 19       		.uleb128 0x19
 5487 01a2 03       		.uleb128 0x3
 5488 01a3 0E       		.uleb128 0xe
 5489 01a4 3A       		.uleb128 0x3a
 5490 01a5 0B       		.uleb128 0xb
 5491 01a6 3B       		.uleb128 0x3b
 5492 01a7 0B       		.uleb128 0xb
 5493 01a8 27       		.uleb128 0x27
 5494 01a9 19       		.uleb128 0x19
 5495 01aa 11       		.uleb128 0x11
 5496 01ab 01       		.uleb128 0x1
 5497 01ac 12       		.uleb128 0x12
 5498 01ad 06       		.uleb128 0x6
 5499 01ae 40       		.uleb128 0x40
 5500 01af 18       		.uleb128 0x18
 5501 01b0 9742     		.uleb128 0x2117
 5502 01b2 19       		.uleb128 0x19
 5503 01b3 01       		.uleb128 0x1
 5504 01b4 13       		.uleb128 0x13
 5505 01b5 00       		.byte	0
 5506 01b6 00       		.byte	0
 5507 01b7 1F       		.uleb128 0x1f
 5508 01b8 2E       		.uleb128 0x2e
 5509 01b9 00       		.byte	0
 5510 01ba 3F       		.uleb128 0x3f
 5511 01bb 19       		.uleb128 0x19
 5512 01bc 03       		.uleb128 0x3
 5513 01bd 0E       		.uleb128 0xe
 5514 01be 3A       		.uleb128 0x3a
ARM GAS  C:\Users\Jerry\AppData\Local\Temp\cc1IKG0O.s 			page 132


 5515 01bf 0B       		.uleb128 0xb
 5516 01c0 3B       		.uleb128 0x3b
 5517 01c1 05       		.uleb128 0x5
 5518 01c2 27       		.uleb128 0x27
 5519 01c3 19       		.uleb128 0x19
 5520 01c4 49       		.uleb128 0x49
 5521 01c5 13       		.uleb128 0x13
 5522 01c6 11       		.uleb128 0x11
 5523 01c7 01       		.uleb128 0x1
 5524 01c8 12       		.uleb128 0x12
 5525 01c9 06       		.uleb128 0x6
 5526 01ca 40       		.uleb128 0x40
 5527 01cb 18       		.uleb128 0x18
 5528 01cc 9742     		.uleb128 0x2117
 5529 01ce 19       		.uleb128 0x19
 5530 01cf 00       		.byte	0
 5531 01d0 00       		.byte	0
 5532 01d1 20       		.uleb128 0x20
 5533 01d2 34       		.uleb128 0x34
 5534 01d3 00       		.byte	0
 5535 01d4 03       		.uleb128 0x3
 5536 01d5 0E       		.uleb128 0xe
 5537 01d6 3A       		.uleb128 0x3a
 5538 01d7 0B       		.uleb128 0xb
 5539 01d8 3B       		.uleb128 0x3b
 5540 01d9 0B       		.uleb128 0xb
 5541 01da 49       		.uleb128 0x49
 5542 01db 13       		.uleb128 0x13
 5543 01dc 3F       		.uleb128 0x3f
 5544 01dd 19       		.uleb128 0x19
 5545 01de 02       		.uleb128 0x2
 5546 01df 18       		.uleb128 0x18
 5547 01e0 00       		.byte	0
 5548 01e1 00       		.byte	0
 5549 01e2 21       		.uleb128 0x21
 5550 01e3 01       		.uleb128 0x1
 5551 01e4 01       		.byte	0x1
 5552 01e5 49       		.uleb128 0x49
 5553 01e6 13       		.uleb128 0x13
 5554 01e7 01       		.uleb128 0x1
 5555 01e8 13       		.uleb128 0x13
 5556 01e9 00       		.byte	0
 5557 01ea 00       		.byte	0
 5558 01eb 22       		.uleb128 0x22
 5559 01ec 21       		.uleb128 0x21
 5560 01ed 00       		.byte	0
 5561 01ee 49       		.uleb128 0x49
 5562 01ef 13       		.uleb128 0x13
 5563 01f0 2F       		.uleb128 0x2f
 5564 01f1 0B       		.uleb128 0xb
 5565 01f2 00       		.byte	0
 5566 01f3 00       		.byte	0
 5567 01f4 23       		.uleb128 0x23
 5568 01f5 2E       		.uleb128 0x2e
 5569 01f6 01       		.byte	0x1
 5570 01f7 3F       		.uleb128 0x3f
 5571 01f8 19       		.uleb128 0x19
ARM GAS  C:\Users\Jerry\AppData\Local\Temp\cc1IKG0O.s 			page 133


 5572 01f9 03       		.uleb128 0x3
 5573 01fa 0E       		.uleb128 0xe
 5574 01fb 3A       		.uleb128 0x3a
 5575 01fc 0B       		.uleb128 0xb
 5576 01fd 3B       		.uleb128 0x3b
 5577 01fe 0B       		.uleb128 0xb
 5578 01ff 27       		.uleb128 0x27
 5579 0200 19       		.uleb128 0x19
 5580 0201 3C       		.uleb128 0x3c
 5581 0202 19       		.uleb128 0x19
 5582 0203 01       		.uleb128 0x1
 5583 0204 13       		.uleb128 0x13
 5584 0205 00       		.byte	0
 5585 0206 00       		.byte	0
 5586 0207 24       		.uleb128 0x24
 5587 0208 05       		.uleb128 0x5
 5588 0209 00       		.byte	0
 5589 020a 49       		.uleb128 0x49
 5590 020b 13       		.uleb128 0x13
 5591 020c 00       		.byte	0
 5592 020d 00       		.byte	0
 5593 020e 25       		.uleb128 0x25
 5594 020f 2E       		.uleb128 0x2e
 5595 0210 01       		.byte	0x1
 5596 0211 3F       		.uleb128 0x3f
 5597 0212 19       		.uleb128 0x19
 5598 0213 03       		.uleb128 0x3
 5599 0214 0E       		.uleb128 0xe
 5600 0215 3A       		.uleb128 0x3a
 5601 0216 0B       		.uleb128 0xb
 5602 0217 3B       		.uleb128 0x3b
 5603 0218 0B       		.uleb128 0xb
 5604 0219 27       		.uleb128 0x27
 5605 021a 19       		.uleb128 0x19
 5606 021b 49       		.uleb128 0x49
 5607 021c 13       		.uleb128 0x13
 5608 021d 3C       		.uleb128 0x3c
 5609 021e 19       		.uleb128 0x19
 5610 021f 00       		.byte	0
 5611 0220 00       		.byte	0
 5612 0221 00       		.byte	0
 5613              		.section	.debug_loc,"",%progbits
 5614              	.Ldebug_loc0:
 5615              	.LLST0:
 5616 0000 00000000 		.4byte	.LVL0
 5617 0004 04000000 		.4byte	.LVL1
 5618 0008 0100     		.2byte	0x1
 5619 000a 50       		.byte	0x50
 5620 000b 04000000 		.4byte	.LVL1
 5621 000f 16000000 		.4byte	.LFE3
 5622 0013 0400     		.2byte	0x4
 5623 0015 F3       		.byte	0xf3
 5624 0016 01       		.uleb128 0x1
 5625 0017 50       		.byte	0x50
 5626 0018 9F       		.byte	0x9f
 5627 0019 00000000 		.4byte	0
 5628 001d 00000000 		.4byte	0
ARM GAS  C:\Users\Jerry\AppData\Local\Temp\cc1IKG0O.s 			page 134


 5629              	.LLST1:
 5630 0021 00000000 		.4byte	.LVL0
 5631 0025 04000000 		.4byte	.LVL1
 5632 0029 0200     		.2byte	0x2
 5633 002b 30       		.byte	0x30
 5634 002c 9F       		.byte	0x9f
 5635 002d 04000000 		.4byte	.LVL1
 5636 0031 16000000 		.4byte	.LFE3
 5637 0035 0100     		.2byte	0x1
 5638 0037 53       		.byte	0x53
 5639 0038 00000000 		.4byte	0
 5640 003c 00000000 		.4byte	0
 5641              	.LLST2:
 5642 0040 00000000 		.4byte	.LVL3
 5643 0044 07000000 		.4byte	.LVL4-1
 5644 0048 0100     		.2byte	0x1
 5645 004a 50       		.byte	0x50
 5646 004b 07000000 		.4byte	.LVL4-1
 5647 004f 2E000000 		.4byte	.LVL8
 5648 0053 0100     		.2byte	0x1
 5649 0055 54       		.byte	0x54
 5650 0056 2E000000 		.4byte	.LVL8
 5651 005a 38000000 		.4byte	.LFE4
 5652 005e 0400     		.2byte	0x4
 5653 0060 F3       		.byte	0xf3
 5654 0061 01       		.uleb128 0x1
 5655 0062 50       		.byte	0x50
 5656 0063 9F       		.byte	0x9f
 5657 0064 00000000 		.4byte	0
 5658 0068 00000000 		.4byte	0
 5659              	.LLST3:
 5660 006c 12000000 		.4byte	.LVL10
 5661 0070 1A000000 		.4byte	.LVL11
 5662 0074 0100     		.2byte	0x1
 5663 0076 51       		.byte	0x51
 5664 0077 00000000 		.4byte	0
 5665 007b 00000000 		.4byte	0
 5666              	.LLST4:
 5667 007f 12000000 		.4byte	.LVL13
 5668 0083 1A000000 		.4byte	.LVL14
 5669 0087 0100     		.2byte	0x1
 5670 0089 51       		.byte	0x51
 5671 008a 00000000 		.4byte	0
 5672 008e 00000000 		.4byte	0
 5673              	.LLST5:
 5674 0092 12000000 		.4byte	.LVL16
 5675 0096 1A000000 		.4byte	.LVL17
 5676 009a 0100     		.2byte	0x1
 5677 009c 51       		.byte	0x51
 5678 009d 00000000 		.4byte	0
 5679 00a1 00000000 		.4byte	0
 5680              	.LLST6:
 5681 00a5 0E000000 		.4byte	.LVL19
 5682 00a9 14000000 		.4byte	.LVL20
 5683 00ad 0100     		.2byte	0x1
 5684 00af 53       		.byte	0x53
 5685 00b0 00000000 		.4byte	0
ARM GAS  C:\Users\Jerry\AppData\Local\Temp\cc1IKG0O.s 			page 135


 5686 00b4 00000000 		.4byte	0
 5687              	.LLST7:
 5688 00b8 00000000 		.4byte	.LVL21
 5689 00bc 06000000 		.4byte	.LVL22
 5690 00c0 0100     		.2byte	0x1
 5691 00c2 50       		.byte	0x50
 5692 00c3 06000000 		.4byte	.LVL22
 5693 00c7 0E000000 		.4byte	.LVL23
 5694 00cb 0400     		.2byte	0x4
 5695 00cd F3       		.byte	0xf3
 5696 00ce 01       		.uleb128 0x1
 5697 00cf 50       		.byte	0x50
 5698 00d0 9F       		.byte	0x9f
 5699 00d1 0E000000 		.4byte	.LVL23
 5700 00d5 10000000 		.4byte	.LVL24
 5701 00d9 0100     		.2byte	0x1
 5702 00db 50       		.byte	0x50
 5703 00dc 10000000 		.4byte	.LVL24
 5704 00e0 24000000 		.4byte	.LFE10
 5705 00e4 0400     		.2byte	0x4
 5706 00e6 F3       		.byte	0xf3
 5707 00e7 01       		.uleb128 0x1
 5708 00e8 50       		.byte	0x50
 5709 00e9 9F       		.byte	0x9f
 5710 00ea 00000000 		.4byte	0
 5711 00ee 00000000 		.4byte	0
 5712              	.LLST8:
 5713 00f2 16000000 		.4byte	.LVL26
 5714 00f6 18000000 		.4byte	.LVL27
 5715 00fa 0B00     		.2byte	0xb
 5716 00fc 70       		.byte	0x70
 5717 00fd 00       		.sleb128 0
 5718 00fe 73       		.byte	0x73
 5719 00ff 00       		.sleb128 0
 5720 0100 1A       		.byte	0x1a
 5721 0101 30       		.byte	0x30
 5722 0102 2E       		.byte	0x2e
 5723 0103 08       		.byte	0x8
 5724 0104 FF       		.byte	0xff
 5725 0105 1A       		.byte	0x1a
 5726 0106 9F       		.byte	0x9f
 5727 0107 00000000 		.4byte	0
 5728 010b 00000000 		.4byte	0
 5729              	.LLST9:
 5730 010f 12000000 		.4byte	.LVL25
 5731 0113 18000000 		.4byte	.LVL27
 5732 0117 0100     		.2byte	0x1
 5733 0119 50       		.byte	0x50
 5734 011a 00000000 		.4byte	0
 5735 011e 00000000 		.4byte	0
 5736              	.LLST10:
 5737 0122 00000000 		.4byte	.LVL28
 5738 0126 04000000 		.4byte	.LVL29
 5739 012a 0100     		.2byte	0x1
 5740 012c 50       		.byte	0x50
 5741 012d 04000000 		.4byte	.LVL29
 5742 0131 14000000 		.4byte	.LFE11
ARM GAS  C:\Users\Jerry\AppData\Local\Temp\cc1IKG0O.s 			page 136


 5743 0135 0400     		.2byte	0x4
 5744 0137 F3       		.byte	0xf3
 5745 0138 01       		.uleb128 0x1
 5746 0139 50       		.byte	0x50
 5747 013a 9F       		.byte	0x9f
 5748 013b 00000000 		.4byte	0
 5749 013f 00000000 		.4byte	0
 5750              	.LLST11:
 5751 0143 00000000 		.4byte	.LVL30
 5752 0147 06000000 		.4byte	.LVL31
 5753 014b 0100     		.2byte	0x1
 5754 014d 50       		.byte	0x50
 5755 014e 06000000 		.4byte	.LVL31
 5756 0152 14000000 		.4byte	.LFE12
 5757 0156 0400     		.2byte	0x4
 5758 0158 F3       		.byte	0xf3
 5759 0159 01       		.uleb128 0x1
 5760 015a 50       		.byte	0x50
 5761 015b 9F       		.byte	0x9f
 5762 015c 00000000 		.4byte	0
 5763 0160 00000000 		.4byte	0
 5764              	.LLST12:
 5765 0164 00000000 		.4byte	.LVL32
 5766 0168 0C000000 		.4byte	.LVL33
 5767 016c 0100     		.2byte	0x1
 5768 016e 50       		.byte	0x50
 5769 016f 0C000000 		.4byte	.LVL33
 5770 0173 24000000 		.4byte	.LFE13
 5771 0177 0400     		.2byte	0x4
 5772 0179 F3       		.byte	0xf3
 5773 017a 01       		.uleb128 0x1
 5774 017b 50       		.byte	0x50
 5775 017c 9F       		.byte	0x9f
 5776 017d 00000000 		.4byte	0
 5777 0181 00000000 		.4byte	0
 5778              	.LLST13:
 5779 0185 00000000 		.4byte	.LVL34
 5780 0189 0C000000 		.4byte	.LVL35
 5781 018d 0100     		.2byte	0x1
 5782 018f 50       		.byte	0x50
 5783 0190 0C000000 		.4byte	.LVL35
 5784 0194 24000000 		.4byte	.LFE14
 5785 0198 0400     		.2byte	0x4
 5786 019a F3       		.byte	0xf3
 5787 019b 01       		.uleb128 0x1
 5788 019c 50       		.byte	0x50
 5789 019d 9F       		.byte	0x9f
 5790 019e 00000000 		.4byte	0
 5791 01a2 00000000 		.4byte	0
 5792              	.LLST14:
 5793 01a6 00000000 		.4byte	.LVL36
 5794 01aa 0C000000 		.4byte	.LVL37
 5795 01ae 0100     		.2byte	0x1
 5796 01b0 50       		.byte	0x50
 5797 01b1 0C000000 		.4byte	.LVL37
 5798 01b5 24000000 		.4byte	.LFE15
 5799 01b9 0400     		.2byte	0x4
ARM GAS  C:\Users\Jerry\AppData\Local\Temp\cc1IKG0O.s 			page 137


 5800 01bb F3       		.byte	0xf3
 5801 01bc 01       		.uleb128 0x1
 5802 01bd 50       		.byte	0x50
 5803 01be 9F       		.byte	0x9f
 5804 01bf 00000000 		.4byte	0
 5805 01c3 00000000 		.4byte	0
 5806              	.LLST15:
 5807 01c7 00000000 		.4byte	.LVL38
 5808 01cb 0C000000 		.4byte	.LVL39
 5809 01cf 0100     		.2byte	0x1
 5810 01d1 50       		.byte	0x50
 5811 01d2 0C000000 		.4byte	.LVL39
 5812 01d6 24000000 		.4byte	.LFE16
 5813 01da 0400     		.2byte	0x4
 5814 01dc F3       		.byte	0xf3
 5815 01dd 01       		.uleb128 0x1
 5816 01de 50       		.byte	0x50
 5817 01df 9F       		.byte	0x9f
 5818 01e0 00000000 		.4byte	0
 5819 01e4 00000000 		.4byte	0
 5820              	.LLST16:
 5821 01e8 00000000 		.4byte	.LVL40
 5822 01ec 0C000000 		.4byte	.LVL41
 5823 01f0 0100     		.2byte	0x1
 5824 01f2 50       		.byte	0x50
 5825 01f3 0C000000 		.4byte	.LVL41
 5826 01f7 24000000 		.4byte	.LFE17
 5827 01fb 0400     		.2byte	0x4
 5828 01fd F3       		.byte	0xf3
 5829 01fe 01       		.uleb128 0x1
 5830 01ff 50       		.byte	0x50
 5831 0200 9F       		.byte	0x9f
 5832 0201 00000000 		.4byte	0
 5833 0205 00000000 		.4byte	0
 5834              	.LLST17:
 5835 0209 00000000 		.4byte	.LVL42
 5836 020d 0C000000 		.4byte	.LVL43
 5837 0211 0100     		.2byte	0x1
 5838 0213 50       		.byte	0x50
 5839 0214 0C000000 		.4byte	.LVL43
 5840 0218 24000000 		.4byte	.LFE18
 5841 021c 0400     		.2byte	0x4
 5842 021e F3       		.byte	0xf3
 5843 021f 01       		.uleb128 0x1
 5844 0220 50       		.byte	0x50
 5845 0221 9F       		.byte	0x9f
 5846 0222 00000000 		.4byte	0
 5847 0226 00000000 		.4byte	0
 5848              	.LLST18:
 5849 022a 00000000 		.4byte	.LVL44
 5850 022e 0C000000 		.4byte	.LVL45
 5851 0232 0100     		.2byte	0x1
 5852 0234 50       		.byte	0x50
 5853 0235 0C000000 		.4byte	.LVL45
 5854 0239 24000000 		.4byte	.LFE19
 5855 023d 0400     		.2byte	0x4
 5856 023f F3       		.byte	0xf3
ARM GAS  C:\Users\Jerry\AppData\Local\Temp\cc1IKG0O.s 			page 138


 5857 0240 01       		.uleb128 0x1
 5858 0241 50       		.byte	0x50
 5859 0242 9F       		.byte	0x9f
 5860 0243 00000000 		.4byte	0
 5861 0247 00000000 		.4byte	0
 5862              	.LLST19:
 5863 024b 00000000 		.4byte	.LVL46
 5864 024f 0E000000 		.4byte	.LVL47
 5865 0253 0100     		.2byte	0x1
 5866 0255 50       		.byte	0x50
 5867 0256 0E000000 		.4byte	.LVL47
 5868 025a 30000000 		.4byte	.LFE20
 5869 025e 0400     		.2byte	0x4
 5870 0260 F3       		.byte	0xf3
 5871 0261 01       		.uleb128 0x1
 5872 0262 50       		.byte	0x50
 5873 0263 9F       		.byte	0x9f
 5874 0264 00000000 		.4byte	0
 5875 0268 00000000 		.4byte	0
 5876              	.LLST20:
 5877 026c 00000000 		.4byte	.LVL48
 5878 0270 0A000000 		.4byte	.LVL49
 5879 0274 0100     		.2byte	0x1
 5880 0276 50       		.byte	0x50
 5881 0277 0A000000 		.4byte	.LVL49
 5882 027b 3C000000 		.4byte	.LFE21
 5883 027f 0400     		.2byte	0x4
 5884 0281 F3       		.byte	0xf3
 5885 0282 01       		.uleb128 0x1
 5886 0283 50       		.byte	0x50
 5887 0284 9F       		.byte	0x9f
 5888 0285 00000000 		.4byte	0
 5889 0289 00000000 		.4byte	0
 5890              	.LLST21:
 5891 028d 0A000000 		.4byte	.LVL49
 5892 0291 22000000 		.4byte	.LVL50
 5893 0295 0100     		.2byte	0x1
 5894 0297 50       		.byte	0x50
 5895 0298 00000000 		.4byte	0
 5896 029c 00000000 		.4byte	0
 5897              	.LLST22:
 5898 02a0 00000000 		.4byte	.LVL51
 5899 02a4 0E000000 		.4byte	.LVL52
 5900 02a8 0100     		.2byte	0x1
 5901 02aa 50       		.byte	0x50
 5902 02ab 0E000000 		.4byte	.LVL52
 5903 02af 30000000 		.4byte	.LFE22
 5904 02b3 0400     		.2byte	0x4
 5905 02b5 F3       		.byte	0xf3
 5906 02b6 01       		.uleb128 0x1
 5907 02b7 50       		.byte	0x50
 5908 02b8 9F       		.byte	0x9f
 5909 02b9 00000000 		.4byte	0
 5910 02bd 00000000 		.4byte	0
 5911              	.LLST23:
 5912 02c1 00000000 		.4byte	.LVL53
 5913 02c5 0E000000 		.4byte	.LVL54
ARM GAS  C:\Users\Jerry\AppData\Local\Temp\cc1IKG0O.s 			page 139


 5914 02c9 0100     		.2byte	0x1
 5915 02cb 50       		.byte	0x50
 5916 02cc 0E000000 		.4byte	.LVL54
 5917 02d0 30000000 		.4byte	.LFE23
 5918 02d4 0400     		.2byte	0x4
 5919 02d6 F3       		.byte	0xf3
 5920 02d7 01       		.uleb128 0x1
 5921 02d8 50       		.byte	0x50
 5922 02d9 9F       		.byte	0x9f
 5923 02da 00000000 		.4byte	0
 5924 02de 00000000 		.4byte	0
 5925              	.LLST24:
 5926 02e2 00000000 		.4byte	.LVL55
 5927 02e6 0B000000 		.4byte	.LVL56-1
 5928 02ea 0100     		.2byte	0x1
 5929 02ec 50       		.byte	0x50
 5930 02ed 0B000000 		.4byte	.LVL56-1
 5931 02f1 20000000 		.4byte	.LFE24
 5932 02f5 0400     		.2byte	0x4
 5933 02f7 F3       		.byte	0xf3
 5934 02f8 01       		.uleb128 0x1
 5935 02f9 50       		.byte	0x50
 5936 02fa 9F       		.byte	0x9f
 5937 02fb 00000000 		.4byte	0
 5938 02ff 00000000 		.4byte	0
 5939              	.LLST25:
 5940 0303 00000000 		.4byte	.LVL55
 5941 0307 0B000000 		.4byte	.LVL56-1
 5942 030b 0100     		.2byte	0x1
 5943 030d 51       		.byte	0x51
 5944 030e 0B000000 		.4byte	.LVL56-1
 5945 0312 20000000 		.4byte	.LFE24
 5946 0316 0400     		.2byte	0x4
 5947 0318 F3       		.byte	0xf3
 5948 0319 01       		.uleb128 0x1
 5949 031a 51       		.byte	0x51
 5950 031b 9F       		.byte	0x9f
 5951 031c 00000000 		.4byte	0
 5952 0320 00000000 		.4byte	0
 5953              	.LLST26:
 5954 0324 00000000 		.4byte	.LVL55
 5955 0328 0B000000 		.4byte	.LVL56-1
 5956 032c 0100     		.2byte	0x1
 5957 032e 52       		.byte	0x52
 5958 032f 0B000000 		.4byte	.LVL56-1
 5959 0333 20000000 		.4byte	.LFE24
 5960 0337 0400     		.2byte	0x4
 5961 0339 F3       		.byte	0xf3
 5962 033a 01       		.uleb128 0x1
 5963 033b 52       		.byte	0x52
 5964 033c 9F       		.byte	0x9f
 5965 033d 00000000 		.4byte	0
 5966 0341 00000000 		.4byte	0
 5967              	.LLST27:
 5968 0345 00000000 		.4byte	.LVL55
 5969 0349 0B000000 		.4byte	.LVL56-1
 5970 034d 0100     		.2byte	0x1
ARM GAS  C:\Users\Jerry\AppData\Local\Temp\cc1IKG0O.s 			page 140


 5971 034f 53       		.byte	0x53
 5972 0350 0B000000 		.4byte	.LVL56-1
 5973 0354 20000000 		.4byte	.LFE24
 5974 0358 0400     		.2byte	0x4
 5975 035a F3       		.byte	0xf3
 5976 035b 01       		.uleb128 0x1
 5977 035c 53       		.byte	0x53
 5978 035d 9F       		.byte	0x9f
 5979 035e 00000000 		.4byte	0
 5980 0362 00000000 		.4byte	0
 5981              	.LLST28:
 5982 0366 00000000 		.4byte	.LVL60
 5983 036a 04000000 		.4byte	.LVL61
 5984 036e 0100     		.2byte	0x1
 5985 0370 51       		.byte	0x51
 5986 0371 04000000 		.4byte	.LVL61
 5987 0375 20000000 		.4byte	.LFE25
 5988 0379 0400     		.2byte	0x4
 5989 037b F3       		.byte	0xf3
 5990 037c 01       		.uleb128 0x1
 5991 037d 51       		.byte	0x51
 5992 037e 9F       		.byte	0x9f
 5993 037f 00000000 		.4byte	0
 5994 0383 00000000 		.4byte	0
 5995              	.LLST29:
 5996 0387 00000000 		.4byte	.LVL62
 5997 038b 0C000000 		.4byte	.LVL63
 5998 038f 0100     		.2byte	0x1
 5999 0391 50       		.byte	0x50
 6000 0392 0C000000 		.4byte	.LVL63
 6001 0396 24000000 		.4byte	.LFE26
 6002 039a 0400     		.2byte	0x4
 6003 039c F3       		.byte	0xf3
 6004 039d 01       		.uleb128 0x1
 6005 039e 50       		.byte	0x50
 6006 039f 9F       		.byte	0x9f
 6007 03a0 00000000 		.4byte	0
 6008 03a4 00000000 		.4byte	0
 6009              	.LLST30:
 6010 03a8 00000000 		.4byte	.LVL64
 6011 03ac 04000000 		.4byte	.LVL65
 6012 03b0 0100     		.2byte	0x1
 6013 03b2 50       		.byte	0x50
 6014 03b3 04000000 		.4byte	.LVL65
 6015 03b7 14000000 		.4byte	.LFE27
 6016 03bb 0400     		.2byte	0x4
 6017 03bd F3       		.byte	0xf3
 6018 03be 01       		.uleb128 0x1
 6019 03bf 50       		.byte	0x50
 6020 03c0 9F       		.byte	0x9f
 6021 03c1 00000000 		.4byte	0
 6022 03c5 00000000 		.4byte	0
 6023              	.LLST31:
 6024 03c9 00000000 		.4byte	.LVL66
 6025 03cd 04000000 		.4byte	.LVL67
 6026 03d1 0100     		.2byte	0x1
 6027 03d3 50       		.byte	0x50
ARM GAS  C:\Users\Jerry\AppData\Local\Temp\cc1IKG0O.s 			page 141


 6028 03d4 04000000 		.4byte	.LVL67
 6029 03d8 18000000 		.4byte	.LFE28
 6030 03dc 0400     		.2byte	0x4
 6031 03de F3       		.byte	0xf3
 6032 03df 01       		.uleb128 0x1
 6033 03e0 50       		.byte	0x50
 6034 03e1 9F       		.byte	0x9f
 6035 03e2 00000000 		.4byte	0
 6036 03e6 00000000 		.4byte	0
 6037              	.LLST32:
 6038 03ea 00000000 		.4byte	.LVL66
 6039 03ee 04000000 		.4byte	.LVL67
 6040 03f2 0B00     		.2byte	0xb
 6041 03f4 70       		.byte	0x70
 6042 03f5 00       		.sleb128 0
 6043 03f6 0A       		.byte	0xa
 6044 03f7 FF1F     		.2byte	0x1fff
 6045 03f9 1A       		.byte	0x1a
 6046 03fa 0A       		.byte	0xa
 6047 03fb FFFF     		.2byte	0xffff
 6048 03fd 1A       		.byte	0x1a
 6049 03fe 9F       		.byte	0x9f
 6050 03ff 04000000 		.4byte	.LVL67
 6051 0403 18000000 		.4byte	.LFE28
 6052 0407 0C00     		.2byte	0xc
 6053 0409 F3       		.byte	0xf3
 6054 040a 01       		.uleb128 0x1
 6055 040b 50       		.byte	0x50
 6056 040c 0A       		.byte	0xa
 6057 040d FF1F     		.2byte	0x1fff
 6058 040f 1A       		.byte	0x1a
 6059 0410 0A       		.byte	0xa
 6060 0411 FFFF     		.2byte	0xffff
 6061 0413 1A       		.byte	0x1a
 6062 0414 9F       		.byte	0x9f
 6063 0415 00000000 		.4byte	0
 6064 0419 00000000 		.4byte	0
 6065              	.LLST33:
 6066 041d 00000000 		.4byte	.LVL68
 6067 0421 18000000 		.4byte	.LVL70
 6068 0425 0100     		.2byte	0x1
 6069 0427 50       		.byte	0x50
 6070 0428 18000000 		.4byte	.LVL70
 6071 042c 2C000000 		.4byte	.LFE29
 6072 0430 0400     		.2byte	0x4
 6073 0432 F3       		.byte	0xf3
 6074 0433 01       		.uleb128 0x1
 6075 0434 50       		.byte	0x50
 6076 0435 9F       		.byte	0x9f
 6077 0436 00000000 		.4byte	0
 6078 043a 00000000 		.4byte	0
 6079              	.LLST34:
 6080 043e 00000000 		.4byte	.LVL68
 6081 0442 14000000 		.4byte	.LVL69
 6082 0446 0100     		.2byte	0x1
 6083 0448 51       		.byte	0x51
 6084 0449 14000000 		.4byte	.LVL69
ARM GAS  C:\Users\Jerry\AppData\Local\Temp\cc1IKG0O.s 			page 142


 6085 044d 2C000000 		.4byte	.LFE29
 6086 0451 0400     		.2byte	0x4
 6087 0453 F3       		.byte	0xf3
 6088 0454 01       		.uleb128 0x1
 6089 0455 51       		.byte	0x51
 6090 0456 9F       		.byte	0x9f
 6091 0457 00000000 		.4byte	0
 6092 045b 00000000 		.4byte	0
 6093              	.LLST35:
 6094 045f 00000000 		.4byte	.LVL71
 6095 0463 0C000000 		.4byte	.LVL72
 6096 0467 0100     		.2byte	0x1
 6097 0469 50       		.byte	0x50
 6098 046a 0C000000 		.4byte	.LVL72
 6099 046e 24000000 		.4byte	.LFE30
 6100 0472 0400     		.2byte	0x4
 6101 0474 F3       		.byte	0xf3
 6102 0475 01       		.uleb128 0x1
 6103 0476 50       		.byte	0x50
 6104 0477 9F       		.byte	0x9f
 6105 0478 00000000 		.4byte	0
 6106 047c 00000000 		.4byte	0
 6107              	.LLST36:
 6108 0480 00000000 		.4byte	.LVL73
 6109 0484 0C000000 		.4byte	.LVL74
 6110 0488 0100     		.2byte	0x1
 6111 048a 50       		.byte	0x50
 6112 048b 0C000000 		.4byte	.LVL74
 6113 048f 24000000 		.4byte	.LFE31
 6114 0493 0400     		.2byte	0x4
 6115 0495 F3       		.byte	0xf3
 6116 0496 01       		.uleb128 0x1
 6117 0497 50       		.byte	0x50
 6118 0498 9F       		.byte	0x9f
 6119 0499 00000000 		.4byte	0
 6120 049d 00000000 		.4byte	0
 6121              	.LLST37:
 6122 04a1 04000000 		.4byte	.LVL75
 6123 04a5 06000000 		.4byte	.LVL76
 6124 04a9 0A00     		.2byte	0xa
 6125 04ab 70       		.byte	0x70
 6126 04ac 00       		.sleb128 0
 6127 04ad 40       		.byte	0x40
 6128 04ae 1A       		.byte	0x1a
 6129 04af 30       		.byte	0x30
 6130 04b0 2E       		.byte	0x2e
 6131 04b1 08       		.byte	0x8
 6132 04b2 FF       		.byte	0xff
 6133 04b3 1A       		.byte	0x1a
 6134 04b4 9F       		.byte	0x9f
 6135 04b5 00000000 		.4byte	0
 6136 04b9 00000000 		.4byte	0
 6137              	.LLST38:
 6138 04bd 00000000 		.4byte	.LVL77
 6139 04c1 0C000000 		.4byte	.LVL78
 6140 04c5 0100     		.2byte	0x1
 6141 04c7 50       		.byte	0x50
ARM GAS  C:\Users\Jerry\AppData\Local\Temp\cc1IKG0O.s 			page 143


 6142 04c8 0C000000 		.4byte	.LVL78
 6143 04cc 18000000 		.4byte	.LVL80
 6144 04d0 0400     		.2byte	0x4
 6145 04d2 F3       		.byte	0xf3
 6146 04d3 01       		.uleb128 0x1
 6147 04d4 50       		.byte	0x50
 6148 04d5 9F       		.byte	0x9f
 6149 04d6 18000000 		.4byte	.LVL80
 6150 04da 22000000 		.4byte	.LVL81
 6151 04de 0100     		.2byte	0x1
 6152 04e0 50       		.byte	0x50
 6153 04e1 22000000 		.4byte	.LVL81
 6154 04e5 48000000 		.4byte	.LFE33
 6155 04e9 0400     		.2byte	0x4
 6156 04eb F3       		.byte	0xf3
 6157 04ec 01       		.uleb128 0x1
 6158 04ed 50       		.byte	0x50
 6159 04ee 9F       		.byte	0x9f
 6160 04ef 00000000 		.4byte	0
 6161 04f3 00000000 		.4byte	0
 6162              	.LLST39:
 6163 04f7 00000000 		.4byte	.LVL77
 6164 04fb 0E000000 		.4byte	.LVL79
 6165 04ff 0100     		.2byte	0x1
 6166 0501 51       		.byte	0x51
 6167 0502 0E000000 		.4byte	.LVL79
 6168 0506 18000000 		.4byte	.LVL80
 6169 050a 0400     		.2byte	0x4
 6170 050c F3       		.byte	0xf3
 6171 050d 01       		.uleb128 0x1
 6172 050e 51       		.byte	0x51
 6173 050f 9F       		.byte	0x9f
 6174 0510 18000000 		.4byte	.LVL80
 6175 0514 24000000 		.4byte	.LVL82
 6176 0518 0100     		.2byte	0x1
 6177 051a 51       		.byte	0x51
 6178 051b 24000000 		.4byte	.LVL82
 6179 051f 48000000 		.4byte	.LFE33
 6180 0523 0400     		.2byte	0x4
 6181 0525 F3       		.byte	0xf3
 6182 0526 01       		.uleb128 0x1
 6183 0527 51       		.byte	0x51
 6184 0528 9F       		.byte	0x9f
 6185 0529 00000000 		.4byte	0
 6186 052d 00000000 		.4byte	0
 6187              	.LLST40:
 6188 0531 00000000 		.4byte	.LVL83
 6189 0535 04000000 		.4byte	.LVL84
 6190 0539 0100     		.2byte	0x1
 6191 053b 50       		.byte	0x50
 6192 053c 04000000 		.4byte	.LVL84
 6193 0540 14000000 		.4byte	.LFE34
 6194 0544 0400     		.2byte	0x4
 6195 0546 F3       		.byte	0xf3
 6196 0547 01       		.uleb128 0x1
 6197 0548 50       		.byte	0x50
 6198 0549 9F       		.byte	0x9f
ARM GAS  C:\Users\Jerry\AppData\Local\Temp\cc1IKG0O.s 			page 144


 6199 054a 00000000 		.4byte	0
 6200 054e 00000000 		.4byte	0
 6201              	.LLST41:
 6202 0552 00000000 		.4byte	.LVL88
 6203 0556 06000000 		.4byte	.LVL89
 6204 055a 0100     		.2byte	0x1
 6205 055c 50       		.byte	0x50
 6206 055d 06000000 		.4byte	.LVL89
 6207 0561 14000000 		.4byte	.LFE35
 6208 0565 0400     		.2byte	0x4
 6209 0567 F3       		.byte	0xf3
 6210 0568 01       		.uleb128 0x1
 6211 0569 50       		.byte	0x50
 6212 056a 9F       		.byte	0x9f
 6213 056b 00000000 		.4byte	0
 6214 056f 00000000 		.4byte	0
 6215              	.LLST42:
 6216 0573 00000000 		.4byte	.LVL90
 6217 0577 0A000000 		.4byte	.LVL91
 6218 057b 0100     		.2byte	0x1
 6219 057d 50       		.byte	0x50
 6220 057e 0A000000 		.4byte	.LVL91
 6221 0582 14000000 		.4byte	.LFE36
 6222 0586 0400     		.2byte	0x4
 6223 0588 F3       		.byte	0xf3
 6224 0589 01       		.uleb128 0x1
 6225 058a 50       		.byte	0x50
 6226 058b 9F       		.byte	0x9f
 6227 058c 00000000 		.4byte	0
 6228 0590 00000000 		.4byte	0
 6229              	.LLST43:
 6230 0594 00000000 		.4byte	.LVL92
 6231 0598 0C000000 		.4byte	.LVL93
 6232 059c 0100     		.2byte	0x1
 6233 059e 50       		.byte	0x50
 6234 059f 0C000000 		.4byte	.LVL93
 6235 05a3 24000000 		.4byte	.LFE37
 6236 05a7 0400     		.2byte	0x4
 6237 05a9 F3       		.byte	0xf3
 6238 05aa 01       		.uleb128 0x1
 6239 05ab 50       		.byte	0x50
 6240 05ac 9F       		.byte	0x9f
 6241 05ad 00000000 		.4byte	0
 6242 05b1 00000000 		.4byte	0
 6243              	.LLST44:
 6244 05b5 00000000 		.4byte	.LVL94
 6245 05b9 0A000000 		.4byte	.LVL95
 6246 05bd 0100     		.2byte	0x1
 6247 05bf 50       		.byte	0x50
 6248 05c0 0A000000 		.4byte	.LVL95
 6249 05c4 14000000 		.4byte	.LFE38
 6250 05c8 0400     		.2byte	0x4
 6251 05ca F3       		.byte	0xf3
 6252 05cb 01       		.uleb128 0x1
 6253 05cc 50       		.byte	0x50
 6254 05cd 9F       		.byte	0x9f
 6255 05ce 00000000 		.4byte	0
ARM GAS  C:\Users\Jerry\AppData\Local\Temp\cc1IKG0O.s 			page 145


 6256 05d2 00000000 		.4byte	0
 6257              	.LLST45:
 6258 05d6 00000000 		.4byte	.LVL96
 6259 05da 08000000 		.4byte	.LVL97
 6260 05de 0100     		.2byte	0x1
 6261 05e0 50       		.byte	0x50
 6262 05e1 08000000 		.4byte	.LVL97
 6263 05e5 18000000 		.4byte	.LFE39
 6264 05e9 0400     		.2byte	0x4
 6265 05eb F3       		.byte	0xf3
 6266 05ec 01       		.uleb128 0x1
 6267 05ed 50       		.byte	0x50
 6268 05ee 9F       		.byte	0x9f
 6269 05ef 00000000 		.4byte	0
 6270 05f3 00000000 		.4byte	0
 6271              	.LLST46:
 6272 05f7 00000000 		.4byte	.LVL98
 6273 05fb 0E000000 		.4byte	.LVL100
 6274 05ff 0100     		.2byte	0x1
 6275 0601 50       		.byte	0x50
 6276 0602 0E000000 		.4byte	.LVL100
 6277 0606 24000000 		.4byte	.LFE42
 6278 060a 0400     		.2byte	0x4
 6279 060c F3       		.byte	0xf3
 6280 060d 01       		.uleb128 0x1
 6281 060e 50       		.byte	0x50
 6282 060f 9F       		.byte	0x9f
 6283 0610 00000000 		.4byte	0
 6284 0614 00000000 		.4byte	0
 6285              	.LLST47:
 6286 0618 00000000 		.4byte	.LVL98
 6287 061c 08000000 		.4byte	.LVL99
 6288 0620 0100     		.2byte	0x1
 6289 0622 51       		.byte	0x51
 6290 0623 08000000 		.4byte	.LVL99
 6291 0627 24000000 		.4byte	.LFE42
 6292 062b 0400     		.2byte	0x4
 6293 062d F3       		.byte	0xf3
 6294 062e 01       		.uleb128 0x1
 6295 062f 51       		.byte	0x51
 6296 0630 9F       		.byte	0x9f
 6297 0631 00000000 		.4byte	0
 6298 0635 00000000 		.4byte	0
 6299              	.LLST48:
 6300 0639 00000000 		.4byte	.LVL101
 6301 063d 0C000000 		.4byte	.LVL102
 6302 0641 0100     		.2byte	0x1
 6303 0643 50       		.byte	0x50
 6304 0644 0C000000 		.4byte	.LVL102
 6305 0648 24000000 		.4byte	.LFE43
 6306 064c 0400     		.2byte	0x4
 6307 064e F3       		.byte	0xf3
 6308 064f 01       		.uleb128 0x1
 6309 0650 50       		.byte	0x50
 6310 0651 9F       		.byte	0x9f
 6311 0652 00000000 		.4byte	0
 6312 0656 00000000 		.4byte	0
ARM GAS  C:\Users\Jerry\AppData\Local\Temp\cc1IKG0O.s 			page 146


 6313              	.LLST49:
 6314 065a 00000000 		.4byte	.LVL103
 6315 065e 0C000000 		.4byte	.LVL104
 6316 0662 0100     		.2byte	0x1
 6317 0664 50       		.byte	0x50
 6318 0665 0C000000 		.4byte	.LVL104
 6319 0669 10000000 		.4byte	.LVL105
 6320 066d 0100     		.2byte	0x1
 6321 066f 52       		.byte	0x52
 6322 0670 10000000 		.4byte	.LVL105
 6323 0674 24000000 		.4byte	.LFE44
 6324 0678 0400     		.2byte	0x4
 6325 067a F3       		.byte	0xf3
 6326 067b 01       		.uleb128 0x1
 6327 067c 50       		.byte	0x50
 6328 067d 9F       		.byte	0x9f
 6329 067e 00000000 		.4byte	0
 6330 0682 00000000 		.4byte	0
 6331              	.LLST50:
 6332 0686 00000000 		.4byte	.LVL106
 6333 068a 0C000000 		.4byte	.LVL107
 6334 068e 0100     		.2byte	0x1
 6335 0690 50       		.byte	0x50
 6336 0691 0C000000 		.4byte	.LVL107
 6337 0695 10000000 		.4byte	.LVL108
 6338 0699 0100     		.2byte	0x1
 6339 069b 52       		.byte	0x52
 6340 069c 10000000 		.4byte	.LVL108
 6341 06a0 24000000 		.4byte	.LFE45
 6342 06a4 0400     		.2byte	0x4
 6343 06a6 F3       		.byte	0xf3
 6344 06a7 01       		.uleb128 0x1
 6345 06a8 50       		.byte	0x50
 6346 06a9 9F       		.byte	0x9f
 6347 06aa 00000000 		.4byte	0
 6348 06ae 00000000 		.4byte	0
 6349              	.LLST51:
 6350 06b2 00000000 		.4byte	.LVL109
 6351 06b6 10000000 		.4byte	.LVL110
 6352 06ba 0100     		.2byte	0x1
 6353 06bc 50       		.byte	0x50
 6354 06bd 10000000 		.4byte	.LVL110
 6355 06c1 2C000000 		.4byte	.LFE46
 6356 06c5 0400     		.2byte	0x4
 6357 06c7 F3       		.byte	0xf3
 6358 06c8 01       		.uleb128 0x1
 6359 06c9 50       		.byte	0x50
 6360 06ca 9F       		.byte	0x9f
 6361 06cb 00000000 		.4byte	0
 6362 06cf 00000000 		.4byte	0
 6363              	.LLST52:
 6364 06d3 00000000 		.4byte	.LVL109
 6365 06d7 1A000000 		.4byte	.LVL111
 6366 06db 0100     		.2byte	0x1
 6367 06dd 51       		.byte	0x51
 6368 06de 1A000000 		.4byte	.LVL111
 6369 06e2 2C000000 		.4byte	.LFE46
ARM GAS  C:\Users\Jerry\AppData\Local\Temp\cc1IKG0O.s 			page 147


 6370 06e6 0400     		.2byte	0x4
 6371 06e8 F3       		.byte	0xf3
 6372 06e9 01       		.uleb128 0x1
 6373 06ea 51       		.byte	0x51
 6374 06eb 9F       		.byte	0x9f
 6375 06ec 00000000 		.4byte	0
 6376 06f0 00000000 		.4byte	0
 6377              	.LLST53:
 6378 06f4 00000000 		.4byte	.LVL112
 6379 06f8 6E000000 		.4byte	.LVL114
 6380 06fc 0100     		.2byte	0x1
 6381 06fe 50       		.byte	0x50
 6382 06ff 6E000000 		.4byte	.LVL114
 6383 0703 98000000 		.4byte	.LFE47
 6384 0707 0400     		.2byte	0x4
 6385 0709 F3       		.byte	0xf3
 6386 070a 01       		.uleb128 0x1
 6387 070b 50       		.byte	0x50
 6388 070c 9F       		.byte	0x9f
 6389 070d 00000000 		.4byte	0
 6390 0711 00000000 		.4byte	0
 6391              	.LLST54:
 6392 0715 00000000 		.4byte	.LVL112
 6393 0719 3E000000 		.4byte	.LVL113
 6394 071d 0100     		.2byte	0x1
 6395 071f 51       		.byte	0x51
 6396 0720 3E000000 		.4byte	.LVL113
 6397 0724 98000000 		.4byte	.LFE47
 6398 0728 0400     		.2byte	0x4
 6399 072a F3       		.byte	0xf3
 6400 072b 01       		.uleb128 0x1
 6401 072c 51       		.byte	0x51
 6402 072d 9F       		.byte	0x9f
 6403 072e 00000000 		.4byte	0
 6404 0732 00000000 		.4byte	0
 6405              	.LLST55:
 6406 0736 00000000 		.4byte	.LVL115
 6407 073a 8E000000 		.4byte	.LVL117
 6408 073e 0100     		.2byte	0x1
 6409 0740 50       		.byte	0x50
 6410 0741 8E000000 		.4byte	.LVL117
 6411 0745 AA000000 		.4byte	.LVL118
 6412 0749 0400     		.2byte	0x4
 6413 074b F3       		.byte	0xf3
 6414 074c 01       		.uleb128 0x1
 6415 074d 50       		.byte	0x50
 6416 074e 9F       		.byte	0x9f
 6417 074f AA000000 		.4byte	.LVL118
 6418 0753 AE000000 		.4byte	.LVL119
 6419 0757 0100     		.2byte	0x1
 6420 0759 50       		.byte	0x50
 6421 075a AE000000 		.4byte	.LVL119
 6422 075e D8000000 		.4byte	.LFE48
 6423 0762 0400     		.2byte	0x4
 6424 0764 F3       		.byte	0xf3
 6425 0765 01       		.uleb128 0x1
 6426 0766 50       		.byte	0x50
ARM GAS  C:\Users\Jerry\AppData\Local\Temp\cc1IKG0O.s 			page 148


 6427 0767 9F       		.byte	0x9f
 6428 0768 00000000 		.4byte	0
 6429 076c 00000000 		.4byte	0
 6430              	.LLST56:
 6431 0770 00000000 		.4byte	.LVL115
 6432 0774 84000000 		.4byte	.LVL116
 6433 0778 0100     		.2byte	0x1
 6434 077a 51       		.byte	0x51
 6435 077b 84000000 		.4byte	.LVL116
 6436 077f D8000000 		.4byte	.LFE48
 6437 0783 0400     		.2byte	0x4
 6438 0785 F3       		.byte	0xf3
 6439 0786 01       		.uleb128 0x1
 6440 0787 51       		.byte	0x51
 6441 0788 9F       		.byte	0x9f
 6442 0789 00000000 		.4byte	0
 6443 078d 00000000 		.4byte	0
 6444              		.section	.debug_aranges,"",%progbits
 6445 0000 94010000 		.4byte	0x194
 6446 0004 0200     		.2byte	0x2
 6447 0006 00000000 		.4byte	.Ldebug_info0
 6448 000a 04       		.byte	0x4
 6449 000b 00       		.byte	0
 6450 000c 0000     		.2byte	0
 6451 000e 0000     		.2byte	0
 6452 0010 00000000 		.4byte	.LFB3
 6453 0014 16000000 		.4byte	.LFE3-.LFB3
 6454 0018 00000000 		.4byte	.LFB5
 6455 001c 14000000 		.4byte	.LFE5-.LFB5
 6456 0020 00000000 		.4byte	.LFB4
 6457 0024 38000000 		.4byte	.LFE4-.LFB4
 6458 0028 00000000 		.4byte	.LFB6
 6459 002c 20000000 		.4byte	.LFE6-.LFB6
 6460 0030 00000000 		.4byte	.LFB7
 6461 0034 20000000 		.4byte	.LFE7-.LFB7
 6462 0038 00000000 		.4byte	.LFB8
 6463 003c 20000000 		.4byte	.LFE8-.LFB8
 6464 0040 00000000 		.4byte	.LFB9
 6465 0044 24000000 		.4byte	.LFE9-.LFB9
 6466 0048 00000000 		.4byte	.LFB10
 6467 004c 24000000 		.4byte	.LFE10-.LFB10
 6468 0050 00000000 		.4byte	.LFB11
 6469 0054 14000000 		.4byte	.LFE11-.LFB11
 6470 0058 00000000 		.4byte	.LFB12
 6471 005c 14000000 		.4byte	.LFE12-.LFB12
 6472 0060 00000000 		.4byte	.LFB13
 6473 0064 24000000 		.4byte	.LFE13-.LFB13
 6474 0068 00000000 		.4byte	.LFB14
 6475 006c 24000000 		.4byte	.LFE14-.LFB14
 6476 0070 00000000 		.4byte	.LFB15
 6477 0074 24000000 		.4byte	.LFE15-.LFB15
 6478 0078 00000000 		.4byte	.LFB16
 6479 007c 24000000 		.4byte	.LFE16-.LFB16
 6480 0080 00000000 		.4byte	.LFB17
 6481 0084 24000000 		.4byte	.LFE17-.LFB17
 6482 0088 00000000 		.4byte	.LFB18
 6483 008c 24000000 		.4byte	.LFE18-.LFB18
ARM GAS  C:\Users\Jerry\AppData\Local\Temp\cc1IKG0O.s 			page 149


 6484 0090 00000000 		.4byte	.LFB19
 6485 0094 24000000 		.4byte	.LFE19-.LFB19
 6486 0098 00000000 		.4byte	.LFB20
 6487 009c 30000000 		.4byte	.LFE20-.LFB20
 6488 00a0 00000000 		.4byte	.LFB21
 6489 00a4 3C000000 		.4byte	.LFE21-.LFB21
 6490 00a8 00000000 		.4byte	.LFB22
 6491 00ac 30000000 		.4byte	.LFE22-.LFB22
 6492 00b0 00000000 		.4byte	.LFB23
 6493 00b4 30000000 		.4byte	.LFE23-.LFB23
 6494 00b8 00000000 		.4byte	.LFB24
 6495 00bc 20000000 		.4byte	.LFE24-.LFB24
 6496 00c0 00000000 		.4byte	.LFB25
 6497 00c4 20000000 		.4byte	.LFE25-.LFB25
 6498 00c8 00000000 		.4byte	.LFB26
 6499 00cc 24000000 		.4byte	.LFE26-.LFB26
 6500 00d0 00000000 		.4byte	.LFB27
 6501 00d4 14000000 		.4byte	.LFE27-.LFB27
 6502 00d8 00000000 		.4byte	.LFB28
 6503 00dc 18000000 		.4byte	.LFE28-.LFB28
 6504 00e0 00000000 		.4byte	.LFB29
 6505 00e4 2C000000 		.4byte	.LFE29-.LFB29
 6506 00e8 00000000 		.4byte	.LFB30
 6507 00ec 24000000 		.4byte	.LFE30-.LFB30
 6508 00f0 00000000 		.4byte	.LFB31
 6509 00f4 24000000 		.4byte	.LFE31-.LFB31
 6510 00f8 00000000 		.4byte	.LFB32
 6511 00fc 10000000 		.4byte	.LFE32-.LFB32
 6512 0100 00000000 		.4byte	.LFB33
 6513 0104 48000000 		.4byte	.LFE33-.LFB33
 6514 0108 00000000 		.4byte	.LFB34
 6515 010c 14000000 		.4byte	.LFE34-.LFB34
 6516 0110 00000000 		.4byte	.LFB1
 6517 0114 24000000 		.4byte	.LFE1-.LFB1
 6518 0118 00000000 		.4byte	.LFB2
 6519 011c 0A000000 		.4byte	.LFE2-.LFB2
 6520 0120 00000000 		.4byte	.LFB35
 6521 0124 14000000 		.4byte	.LFE35-.LFB35
 6522 0128 00000000 		.4byte	.LFB36
 6523 012c 14000000 		.4byte	.LFE36-.LFB36
 6524 0130 00000000 		.4byte	.LFB37
 6525 0134 24000000 		.4byte	.LFE37-.LFB37
 6526 0138 00000000 		.4byte	.LFB38
 6527 013c 14000000 		.4byte	.LFE38-.LFB38
 6528 0140 00000000 		.4byte	.LFB39
 6529 0144 18000000 		.4byte	.LFE39-.LFB39
 6530 0148 00000000 		.4byte	.LFB40
 6531 014c 0C000000 		.4byte	.LFE40-.LFB40
 6532 0150 00000000 		.4byte	.LFB41
 6533 0154 10000000 		.4byte	.LFE41-.LFB41
 6534 0158 00000000 		.4byte	.LFB42
 6535 015c 24000000 		.4byte	.LFE42-.LFB42
 6536 0160 00000000 		.4byte	.LFB43
 6537 0164 24000000 		.4byte	.LFE43-.LFB43
 6538 0168 00000000 		.4byte	.LFB44
 6539 016c 24000000 		.4byte	.LFE44-.LFB44
 6540 0170 00000000 		.4byte	.LFB45
ARM GAS  C:\Users\Jerry\AppData\Local\Temp\cc1IKG0O.s 			page 150


 6541 0174 24000000 		.4byte	.LFE45-.LFB45
 6542 0178 00000000 		.4byte	.LFB46
 6543 017c 2C000000 		.4byte	.LFE46-.LFB46
 6544 0180 00000000 		.4byte	.LFB47
 6545 0184 98000000 		.4byte	.LFE47-.LFB47
 6546 0188 00000000 		.4byte	.LFB48
 6547 018c D8000000 		.4byte	.LFE48-.LFB48
 6548 0190 00000000 		.4byte	0
 6549 0194 00000000 		.4byte	0
 6550              		.section	.debug_ranges,"",%progbits
 6551              	.Ldebug_ranges0:
 6552 0000 00000000 		.4byte	.LFB3
 6553 0004 16000000 		.4byte	.LFE3
 6554 0008 00000000 		.4byte	.LFB5
 6555 000c 14000000 		.4byte	.LFE5
 6556 0010 00000000 		.4byte	.LFB4
 6557 0014 38000000 		.4byte	.LFE4
 6558 0018 00000000 		.4byte	.LFB6
 6559 001c 20000000 		.4byte	.LFE6
 6560 0020 00000000 		.4byte	.LFB7
 6561 0024 20000000 		.4byte	.LFE7
 6562 0028 00000000 		.4byte	.LFB8
 6563 002c 20000000 		.4byte	.LFE8
 6564 0030 00000000 		.4byte	.LFB9
 6565 0034 24000000 		.4byte	.LFE9
 6566 0038 00000000 		.4byte	.LFB10
 6567 003c 24000000 		.4byte	.LFE10
 6568 0040 00000000 		.4byte	.LFB11
 6569 0044 14000000 		.4byte	.LFE11
 6570 0048 00000000 		.4byte	.LFB12
 6571 004c 14000000 		.4byte	.LFE12
 6572 0050 00000000 		.4byte	.LFB13
 6573 0054 24000000 		.4byte	.LFE13
 6574 0058 00000000 		.4byte	.LFB14
 6575 005c 24000000 		.4byte	.LFE14
 6576 0060 00000000 		.4byte	.LFB15
 6577 0064 24000000 		.4byte	.LFE15
 6578 0068 00000000 		.4byte	.LFB16
 6579 006c 24000000 		.4byte	.LFE16
 6580 0070 00000000 		.4byte	.LFB17
 6581 0074 24000000 		.4byte	.LFE17
 6582 0078 00000000 		.4byte	.LFB18
 6583 007c 24000000 		.4byte	.LFE18
 6584 0080 00000000 		.4byte	.LFB19
 6585 0084 24000000 		.4byte	.LFE19
 6586 0088 00000000 		.4byte	.LFB20
 6587 008c 30000000 		.4byte	.LFE20
 6588 0090 00000000 		.4byte	.LFB21
 6589 0094 3C000000 		.4byte	.LFE21
 6590 0098 00000000 		.4byte	.LFB22
 6591 009c 30000000 		.4byte	.LFE22
 6592 00a0 00000000 		.4byte	.LFB23
 6593 00a4 30000000 		.4byte	.LFE23
 6594 00a8 00000000 		.4byte	.LFB24
 6595 00ac 20000000 		.4byte	.LFE24
 6596 00b0 00000000 		.4byte	.LFB25
 6597 00b4 20000000 		.4byte	.LFE25
ARM GAS  C:\Users\Jerry\AppData\Local\Temp\cc1IKG0O.s 			page 151


 6598 00b8 00000000 		.4byte	.LFB26
 6599 00bc 24000000 		.4byte	.LFE26
 6600 00c0 00000000 		.4byte	.LFB27
 6601 00c4 14000000 		.4byte	.LFE27
 6602 00c8 00000000 		.4byte	.LFB28
 6603 00cc 18000000 		.4byte	.LFE28
 6604 00d0 00000000 		.4byte	.LFB29
 6605 00d4 2C000000 		.4byte	.LFE29
 6606 00d8 00000000 		.4byte	.LFB30
 6607 00dc 24000000 		.4byte	.LFE30
 6608 00e0 00000000 		.4byte	.LFB31
 6609 00e4 24000000 		.4byte	.LFE31
 6610 00e8 00000000 		.4byte	.LFB32
 6611 00ec 10000000 		.4byte	.LFE32
 6612 00f0 00000000 		.4byte	.LFB33
 6613 00f4 48000000 		.4byte	.LFE33
 6614 00f8 00000000 		.4byte	.LFB34
 6615 00fc 14000000 		.4byte	.LFE34
 6616 0100 00000000 		.4byte	.LFB1
 6617 0104 24000000 		.4byte	.LFE1
 6618 0108 00000000 		.4byte	.LFB2
 6619 010c 0A000000 		.4byte	.LFE2
 6620 0110 00000000 		.4byte	.LFB35
 6621 0114 14000000 		.4byte	.LFE35
 6622 0118 00000000 		.4byte	.LFB36
 6623 011c 14000000 		.4byte	.LFE36
 6624 0120 00000000 		.4byte	.LFB37
 6625 0124 24000000 		.4byte	.LFE37
 6626 0128 00000000 		.4byte	.LFB38
 6627 012c 14000000 		.4byte	.LFE38
 6628 0130 00000000 		.4byte	.LFB39
 6629 0134 18000000 		.4byte	.LFE39
 6630 0138 00000000 		.4byte	.LFB40
 6631 013c 0C000000 		.4byte	.LFE40
 6632 0140 00000000 		.4byte	.LFB41
 6633 0144 10000000 		.4byte	.LFE41
 6634 0148 00000000 		.4byte	.LFB42
 6635 014c 24000000 		.4byte	.LFE42
 6636 0150 00000000 		.4byte	.LFB43
 6637 0154 24000000 		.4byte	.LFE43
 6638 0158 00000000 		.4byte	.LFB44
 6639 015c 24000000 		.4byte	.LFE44
 6640 0160 00000000 		.4byte	.LFB45
 6641 0164 24000000 		.4byte	.LFE45
 6642 0168 00000000 		.4byte	.LFB46
 6643 016c 2C000000 		.4byte	.LFE46
 6644 0170 00000000 		.4byte	.LFB47
 6645 0174 98000000 		.4byte	.LFE47
 6646 0178 00000000 		.4byte	.LFB48
 6647 017c D8000000 		.4byte	.LFE48
 6648 0180 00000000 		.4byte	0
 6649 0184 00000000 		.4byte	0
 6650              		.section	.debug_line,"",%progbits
 6651              	.Ldebug_line0:
 6652 0000 0E060000 		.section	.debug_str,"MS",%progbits,1
 6652      02000701 
 6652      00000201 
ARM GAS  C:\Users\Jerry\AppData\Local\Temp\cc1IKG0O.s 			page 152


 6652      FB0E0D00 
 6652      01010101 
 6653              	.LASF589:
 6654 0000 433A5C63 		.ascii	"C:\\cypress\\TalkingClock\\Talking_Clock.cydsn\000"
 6654      79707265 
 6654      73735C54 
 6654      616C6B69 
 6654      6E67436C 
 6655              	.LASF449:
 6656 002c 43795541 		.ascii	"CyUAB_F_CAP_2600fF\000"
 6656      425F465F 
 6656      4341505F 
 6656      32363030 
 6656      664600
 6657              	.LASF489:
 6658 003f 73697A65 		.ascii	"size_t\000"
 6658      5F7400
 6659              	.LASF131:
 6660 0046 43795541 		.ascii	"CyUAB_SW_VB_MODBIT\000"
 6660      425F5357 
 6660      5F56425F 
 6660      4D4F4442 
 6660      495400
 6661              	.LASF394:
 6662 0059 43795541 		.ascii	"CyUAB_B_CAP_36UNIT\000"
 6662      425F425F 
 6662      4341505F 
 6662      3336554E 
 6662      495400
 6663              	.LASF435:
 6664 006c 43795541 		.ascii	"CyUAB_F_CAP_1200fF\000"
 6664      425F465F 
 6664      4341505F 
 6664      31323030 
 6664      664600
 6665              	.LASF199:
 6666 007f 43795541 		.ascii	"CyUAB_CAP_1650fF\000"
 6666      425F4341 
 6666      505F3136 
 6666      35306646 
 6666      00
 6667              	.LASF380:
 6668 0090 43795541 		.ascii	"CyUAB_B_CAP_22UNIT\000"
 6668      425F425F 
 6668      4341505F 
 6668      3232554E 
 6668      495400
 6669              	.LASF171:
 6670 00a3 43795541 		.ascii	"CyUAB_CAP_0250fF\000"
 6670      425F4341 
 6670      505F3032 
 6670      35306646 
 6670      00
 6671              	.LASF229:
 6672 00b4 43795541 		.ascii	"CyUAB_CAP_3150fF\000"
 6672      425F4341 
 6672      505F3331 
ARM GAS  C:\Users\Jerry\AppData\Local\Temp\cc1IKG0O.s 			page 153


 6672      35306646 
 6672      00
 6673              	.LASF65:
 6674 00c5 43795541 		.ascii	"CyUAB_DAC_MODE_EN_OFF\000"
 6674      425F4441 
 6674      435F4D4F 
 6674      44455F45 
 6674      4E5F4F46 
 6675              	.LASF204:
 6676 00db 43795541 		.ascii	"CyUAB_CAP_1900fF\000"
 6676      425F4341 
 6676      505F3139 
 6676      30306646 
 6676      00
 6677              	.LASF176:
 6678 00ec 43795541 		.ascii	"CyUAB_CAP_0500fF\000"
 6678      425F4341 
 6678      505F3035 
 6678      30306646 
 6678      00
 6679              	.LASF411:
 6680 00fd 43795541 		.ascii	"CyUAB_B_CAP_53UNIT\000"
 6680      425F425F 
 6680      4341505F 
 6680      3533554E 
 6680      495400
 6681              	.LASF35:
 6682 0110 43795541 		.ascii	"CyUAB_CMP_PULSE\000"
 6682      425F434D 
 6682      505F5055 
 6682      4C534500 
 6683              	.LASF206:
 6684 0120 43795541 		.ascii	"CyUAB_CAP_2000fF\000"
 6684      425F4341 
 6684      505F3230 
 6684      30306646 
 6684      00
 6685              	.LASF471:
 6686 0131 43795541 		.ascii	"CyUAB_F_CAP_32UNIT\000"
 6686      425F465F 
 6686      4341505F 
 6686      3332554E 
 6686      495400
 6687              	.LASF578:
 6688 0144 54524947 		.ascii	"TRIGGER_EN_PRESHIFT_MASK\000"
 6688      4745525F 
 6688      454E5F50 
 6688      52455348 
 6688      4946545F 
 6689              	.LASF32:
 6690 015d 43795541 		.ascii	"CyUAB_CMP_EDGE_FALLING\000"
 6690      425F434D 
 6690      505F4544 
 6690      47455F46 
 6690      414C4C49 
 6691              	.LASF532:
 6692 0174 56444143 		.ascii	"VDAC_Synth_UAB_SetDacNext\000"
ARM GAS  C:\Users\Jerry\AppData\Local\Temp\cc1IKG0O.s 			page 154


 6692      5F53796E 
 6692      74685F55 
 6692      41425F53 
 6692      65744461 
 6693              	.LASF301:
 6694 018e 43795541 		.ascii	"CyUAB_B_CAP_0350fF\000"
 6694      425F425F 
 6694      4341505F 
 6694      30333530 
 6694      664600
 6695              	.LASF479:
 6696 01a1 43795541 		.ascii	"CyUAB_F_CAP_48UNIT\000"
 6696      425F465F 
 6696      4341505F 
 6696      3438554E 
 6696      495400
 6697              	.LASF11:
 6698 01b4 75696E74 		.ascii	"uint32\000"
 6698      333200
 6699              	.LASF333:
 6700 01bb 43795541 		.ascii	"CyUAB_B_CAP_1950fF\000"
 6700      425F425F 
 6700      4341505F 
 6700      31393530 
 6700      664600
 6701              	.LASF306:
 6702 01ce 43795541 		.ascii	"CyUAB_B_CAP_0600fF\000"
 6702      425F425F 
 6702      4341505F 
 6702      30363030 
 6702      664600
 6703              	.LASF210:
 6704 01e1 43795541 		.ascii	"CyUAB_CAP_2200fF\000"
 6704      425F4341 
 6704      505F3232 
 6704      30306646 
 6704      00
 6705              	.LASF254:
 6706 01f2 43795541 		.ascii	"CyUAB_CAP_25UNIT\000"
 6706      425F4341 
 6706      505F3235 
 6706      554E4954 
 6706      00
 6707              	.LASF28:
 6708 0203 43795541 		.ascii	"CyUAB_INTR_VDAC_EMPTY\000"
 6708      425F494E 
 6708      54525F56 
 6708      4441435F 
 6708      454D5054 
 6709              	.LASF240:
 6710 0219 43795541 		.ascii	"CyUAB_CAP_11UNIT\000"
 6710      425F4341 
 6710      505F3131 
 6710      554E4954 
 6710      00
 6711              	.LASF251:
 6712 022a 43795541 		.ascii	"CyUAB_CAP_22UNIT\000"
ARM GAS  C:\Users\Jerry\AppData\Local\Temp\cc1IKG0O.s 			page 155


 6712      425F4341 
 6712      505F3232 
 6712      554E4954 
 6712      00
 6713              	.LASF335:
 6714 023b 43795541 		.ascii	"CyUAB_B_CAP_2050fF\000"
 6714      425F425F 
 6714      4341505F 
 6714      32303530 
 6714      664600
 6715              	.LASF585:
 6716 024e 43795541 		.ascii	"CyUAB_SetNSteps\000"
 6716      425F5365 
 6716      744E5374 
 6716      65707300 
 6717              	.LASF74:
 6718 025e 43795541 		.ascii	"CyUAB_align_mode_enum\000"
 6718      425F616C 
 6718      69676E5F 
 6718      6D6F6465 
 6718      5F656E75 
 6719              	.LASF285:
 6720 0274 43795541 		.ascii	"CyUAB_CAP_56UNIT\000"
 6720      425F4341 
 6720      505F3536 
 6720      554E4954 
 6720      00
 6721              	.LASF340:
 6722 0285 43795541 		.ascii	"CyUAB_B_CAP_2300fF\000"
 6722      425F425F 
 6722      4341505F 
 6722      32333030 
 6722      664600
 6723              	.LASF271:
 6724 0298 43795541 		.ascii	"CyUAB_CAP_42UNIT\000"
 6724      425F4341 
 6724      505F3432 
 6724      554E4954 
 6724      00
 6725              	.LASF64:
 6726 02a9 43795541 		.ascii	"CyUAB_gnd_unused_enum\000"
 6726      425F676E 
 6726      645F756E 
 6726      75736564 
 6726      5F656E75 
 6727              	.LASF53:
 6728 02bf 43795541 		.ascii	"CyUAB_PWR_HALF\000"
 6728      425F5057 
 6728      525F4841 
 6728      4C4600
 6729              	.LASF573:
 6730 02ce 56444143 		.ascii	"VDAC_Synth_UAB_SetFirmwareModbit\000"
 6730      5F53796E 
 6730      74685F55 
 6730      41425F53 
 6730      65744669 
 6731              	.LASF441:
ARM GAS  C:\Users\Jerry\AppData\Local\Temp\cc1IKG0O.s 			page 156


 6732 02ef 43795541 		.ascii	"CyUAB_F_CAP_1800fF\000"
 6732      425F465F 
 6732      4341505F 
 6732      31383030 
 6732      664600
 6733              	.LASF569:
 6734 0302 56444143 		.ascii	"VDAC_Synth_UAB_SetStrobeMode\000"
 6734      5F53796E 
 6734      74685F55 
 6734      41425F53 
 6734      65745374 
 6735              	.LASF386:
 6736 031f 43795541 		.ascii	"CyUAB_B_CAP_28UNIT\000"
 6736      425F425F 
 6736      4341505F 
 6736      3238554E 
 6736      495400
 6737              	.LASF427:
 6738 0332 43795541 		.ascii	"CyUAB_F_CAP_0400fF\000"
 6738      425F465F 
 6738      4341505F 
 6738      30343030 
 6738      664600
 6739              	.LASF96:
 6740 0345 43795541 		.ascii	"CyUAB_SW_GX0\000"
 6740      425F5357 
 6740      5F475830 
 6740      00
 6741              	.LASF97:
 6742 0352 43795541 		.ascii	"CyUAB_SW_GX1\000"
 6742      425F5357 
 6742      5F475831 
 6742      00
 6743              	.LASF98:
 6744 035f 43795541 		.ascii	"CyUAB_SW_GX2\000"
 6744      425F5357 
 6744      5F475832 
 6744      00
 6745              	.LASF99:
 6746 036c 43795541 		.ascii	"CyUAB_SW_GX3\000"
 6746      425F5357 
 6746      5F475833 
 6746      00
 6747              	.LASF372:
 6748 0379 43795541 		.ascii	"CyUAB_B_CAP_14UNIT\000"
 6748      425F425F 
 6748      4341505F 
 6748      3134554E 
 6748      495400
 6749              	.LASF92:
 6750 038c 43795541 		.ascii	"CyUAB_CLK_PHI11\000"
 6750      425F434C 
 6750      4B5F5048 
 6750      49313100 
 6751              	.LASF93:
 6752 039c 43795541 		.ascii	"CyUAB_CLK_PHI12\000"
 6752      425F434C 
ARM GAS  C:\Users\Jerry\AppData\Local\Temp\cc1IKG0O.s 			page 157


 6752      4B5F5048 
 6752      49313200 
 6753              	.LASF126:
 6754 03ac 43795541 		.ascii	"CyUAB_SW_BR_MODBIT\000"
 6754      425F5357 
 6754      5F42525F 
 6754      4D4F4442 
 6754      495400
 6755              	.LASF213:
 6756 03bf 43795541 		.ascii	"CyUAB_CAP_2350fF\000"
 6756      425F4341 
 6756      505F3233 
 6756      35306646 
 6756      00
 6757              	.LASF554:
 6758 03d0 56444143 		.ascii	"VDAC_Synth_UAB_SetStartupDelay\000"
 6758      5F53796E 
 6758      74685F55 
 6758      41425F53 
 6758      65745374 
 6759              	.LASF417:
 6760 03ef 43795541 		.ascii	"CyUAB_B_CAP_59UNIT\000"
 6760      425F425F 
 6760      4341505F 
 6760      3539554E 
 6760      495400
 6761              	.LASF218:
 6762 0402 43795541 		.ascii	"CyUAB_CAP_2600fF\000"
 6762      425F4341 
 6762      505F3236 
 6762      30306646 
 6762      00
 6763              	.LASF474:
 6764 0413 43795541 		.ascii	"CyUAB_F_CAP_38UNIT\000"
 6764      425F465F 
 6764      4341505F 
 6764      3338554E 
 6764      495400
 6765              	.LASF339:
 6766 0426 43795541 		.ascii	"CyUAB_B_CAP_2250fF\000"
 6766      425F425F 
 6766      4341505F 
 6766      32323530 
 6766      664600
 6767              	.LASF190:
 6768 0439 43795541 		.ascii	"CyUAB_CAP_1200fF\000"
 6768      425F4341 
 6768      505F3132 
 6768      30306646 
 6768      00
 6769              	.LASF293:
 6770 044a 43795541 		.ascii	"CyUAB_cap_enum\000"
 6770      425F6361 
 6770      705F656E 
 6770      756D00
 6771              	.LASF72:
 6772 0459 43795541 		.ascii	"CyUAB_ALIGN_MODE_SCHEDULED\000"
ARM GAS  C:\Users\Jerry\AppData\Local\Temp\cc1IKG0O.s 			page 158


 6772      425F414C 
 6772      49474E5F 
 6772      4D4F4445 
 6772      5F534348 
 6773              	.LASF101:
 6774 0474 43795541 		.ascii	"CyUAB_SW_GG\000"
 6774      425F5357 
 6774      5F474700 
 6775              	.LASF418:
 6776 0480 43795541 		.ascii	"CyUAB_B_CAP_60UNIT\000"
 6776      425F425F 
 6776      4341505F 
 6776      3630554E 
 6776      495400
 6777              	.LASF408:
 6778 0493 43795541 		.ascii	"CyUAB_B_CAP_50UNIT\000"
 6778      425F425F 
 6778      4341505F 
 6778      3530554E 
 6778      495400
 6779              	.LASF567:
 6780 04a6 4D4F4442 		.ascii	"MODBIT_SRC_AB_PRESHIFT_MASK\000"
 6780      49545F53 
 6780      52435F41 
 6780      425F5052 
 6780      45534849 
 6781              	.LASF103:
 6782 04c2 43795541 		.ascii	"CyUAB_SW_GT\000"
 6782      425F5357 
 6782      5F475400 
 6783              	.LASF404:
 6784 04ce 43795541 		.ascii	"CyUAB_B_CAP_46UNIT\000"
 6784      425F425F 
 6784      4341505F 
 6784      3436554E 
 6784      495400
 6785              	.LASF61:
 6786 04e1 43795541 		.ascii	"CyUAB_coarse_pwr_enum\000"
 6786      425F636F 
 6786      61727365 
 6786      5F707772 
 6786      5F656E75 
 6787              	.LASF246:
 6788 04f7 43795541 		.ascii	"CyUAB_CAP_17UNIT\000"
 6788      425F4341 
 6788      505F3137 
 6788      554E4954 
 6788      00
 6789              	.LASF129:
 6790 0508 43795541 		.ascii	"CyUAB_SW_RB_MODBIT\000"
 6790      425F5357 
 6790      5F52425F 
 6790      4D4F4442 
 6790      495400
 6791              	.LASF117:
 6792 051b 43795541 		.ascii	"CyUAB_SW_VA_MODBIT\000"
 6792      425F5357 
ARM GAS  C:\Users\Jerry\AppData\Local\Temp\cc1IKG0O.s 			page 159


 6792      5F56415F 
 6792      4D4F4442 
 6792      495400
 6793              	.LASF232:
 6794 052e 43795541 		.ascii	"CyUAB_CAP_03UNIT\000"
 6794      425F4341 
 6794      505F3033 
 6794      554E4954 
 6794      00
 6795              	.LASF347:
 6796 053f 43795541 		.ascii	"CyUAB_B_CAP_2650fF\000"
 6796      425F425F 
 6796      4341505F 
 6796      32363530 
 6796      664600
 6797              	.LASF197:
 6798 0552 43795541 		.ascii	"CyUAB_CAP_1550fF\000"
 6798      425F4341 
 6798      505F3135 
 6798      35306646 
 6798      00
 6799              	.LASF36:
 6800 0563 43795541 		.ascii	"CyUAB_CMP_LEVEL\000"
 6800      425F434D 
 6800      505F4C45 
 6800      56454C00 
 6801              	.LASF494:
 6802 0573 696E7472 		.ascii	"intr\000"
 6802      00
 6803              	.LASF319:
 6804 0578 43795541 		.ascii	"CyUAB_B_CAP_1250fF\000"
 6804      425F425F 
 6804      4341505F 
 6804      31323530 
 6804      664600
 6805              	.LASF516:
 6806 058b 74687265 		.ascii	"threshold64\000"
 6806      73686F6C 
 6806      64363400 
 6807              	.LASF352:
 6808 0597 43795541 		.ascii	"CyUAB_B_CAP_2900fF\000"
 6808      425F425F 
 6808      4341505F 
 6808      32393030 
 6808      664600
 6809              	.LASF277:
 6810 05aa 43795541 		.ascii	"CyUAB_CAP_48UNIT\000"
 6810      425F4341 
 6810      505F3438 
 6810      554E4954 
 6810      00
 6811              	.LASF324:
 6812 05bb 43795541 		.ascii	"CyUAB_B_CAP_1500fF\000"
 6812      425F425F 
 6812      4341505F 
 6812      31353030 
 6812      664600
ARM GAS  C:\Users\Jerry\AppData\Local\Temp\cc1IKG0O.s 			page 160


 6813              	.LASF263:
 6814 05ce 43795541 		.ascii	"CyUAB_CAP_34UNIT\000"
 6814      425F4341 
 6814      505F3334 
 6814      554E4954 
 6814      00
 6815              	.LASF321:
 6816 05df 43795541 		.ascii	"CyUAB_B_CAP_1350fF\000"
 6816      425F425F 
 6816      4341505F 
 6816      31333530 
 6816      664600
 6817              	.LASF536:
 6818 05f2 6E657874 		.ascii	"nextCapF\000"
 6818      43617046 
 6818      00
 6819              	.LASF563:
 6820 05fb 56444143 		.ascii	"VDAC_Synth_UAB_GetCurrentStep\000"
 6820      5F53796E 
 6820      74685F55 
 6820      41425F47 
 6820      65744375 
 6821              	.LASF4:
 6822 0619 6C6F6E67 		.ascii	"long int\000"
 6822      20696E74 
 6822      00
 6823              	.LASF292:
 6824 0622 43795541 		.ascii	"CyUAB_CAP_63UNIT\000"
 6824      425F4341 
 6824      505F3633 
 6824      554E4954 
 6824      00
 6825              	.LASF354:
 6826 0633 43795541 		.ascii	"CyUAB_B_CAP_3000fF\000"
 6826      425F425F 
 6826      4341505F 
 6826      33303030 
 6826      664600
 6827              	.LASF362:
 6828 0646 43795541 		.ascii	"CyUAB_B_CAP_04UNIT\000"
 6828      425F425F 
 6828      4341505F 
 6828      3034554E 
 6828      495400
 6829              	.LASF521:
 6830 0659 63617046 		.ascii	"capF\000"
 6830      00
 6831              	.LASF502:
 6832 065e 56444143 		.ascii	"VDAC_Synth_UAB_SetCompPower\000"
 6832      5F53796E 
 6832      74685F55 
 6832      41425F53 
 6832      6574436F 
 6833              	.LASF329:
 6834 067a 43795541 		.ascii	"CyUAB_B_CAP_1750fF\000"
 6834      425F425F 
 6834      4341505F 
ARM GAS  C:\Users\Jerry\AppData\Local\Temp\cc1IKG0O.s 			page 161


 6834      31373530 
 6834      664600
 6835              	.LASF448:
 6836 068d 43795541 		.ascii	"CyUAB_F_CAP_2500fF\000"
 6836      425F465F 
 6836      4341505F 
 6836      32353030 
 6836      664600
 6837              	.LASF225:
 6838 06a0 43795541 		.ascii	"CyUAB_CAP_2950fF\000"
 6838      425F4341 
 6838      505F3239 
 6838      35306646 
 6838      00
 6839              	.LASF393:
 6840 06b1 43795541 		.ascii	"CyUAB_B_CAP_35UNIT\000"
 6840      425F425F 
 6840      4341505F 
 6840      3335554E 
 6840      495400
 6841              	.LASF120:
 6842 06c4 43795541 		.ascii	"CyUAB_SW_BX1_MODBIT\000"
 6842      425F5357 
 6842      5F425831 
 6842      5F4D4F44 
 6842      42495400 
 6843              	.LASF552:
 6844 06d8 56444143 		.ascii	"VDAC_Synth_UAB_SetLastStep\000"
 6844      5F53796E 
 6844      74685F55 
 6844      41425F53 
 6844      65744C61 
 6845              	.LASF115:
 6846 06f3 43795541 		.ascii	"CyUAB_SW_RA_MODBIT\000"
 6846      425F5357 
 6846      5F52415F 
 6846      4D4F4442 
 6846      495400
 6847              	.LASF528:
 6848 0706 56444143 		.ascii	"VDAC_Synth_UAB_SetDacModeEn\000"
 6848      5F53796E 
 6848      74685F55 
 6848      41425F53 
 6848      65744461 
 6849              	.LASF379:
 6850 0722 43795541 		.ascii	"CyUAB_B_CAP_21UNIT\000"
 6850      425F425F 
 6850      4341505F 
 6850      3231554E 
 6850      495400
 6851              	.LASF22:
 6852 0735 70616972 		.ascii	"pairs\000"
 6852      7300
 6853              	.LASF477:
 6854 073b 43795541 		.ascii	"CyUAB_F_CAP_44UNIT\000"
 6854      425F465F 
 6854      4341505F 
ARM GAS  C:\Users\Jerry\AppData\Local\Temp\cc1IKG0O.s 			page 162


 6854      3434554E 
 6854      495400
 6855              	.LASF227:
 6856 074e 43795541 		.ascii	"CyUAB_CAP_3050fF\000"
 6856      425F4341 
 6856      505F3330 
 6856      35306646 
 6856      00
 6857              	.LASF202:
 6858 075f 43795541 		.ascii	"CyUAB_CAP_1800fF\000"
 6858      425F4341 
 6858      505F3138 
 6858      30306646 
 6858      00
 6859              	.LASF174:
 6860 0770 43795541 		.ascii	"CyUAB_CAP_0400fF\000"
 6860      425F4341 
 6860      505F3034 
 6860      30306646 
 6860      00
 6861              	.LASF143:
 6862 0781 43795541 		.ascii	"CyUAB_SW_CV_MODBIT\000"
 6862      425F5357 
 6862      5F43565F 
 6862      4D4F4442 
 6862      495400
 6863              	.LASF165:
 6864 0794 43795541 		.ascii	"CyUAB_sw_id_enum\000"
 6864      425F7377 
 6864      5F69645F 
 6864      656E756D 
 6864      00
 6865              	.LASF410:
 6866 07a5 43795541 		.ascii	"CyUAB_B_CAP_52UNIT\000"
 6866      425F425F 
 6866      4341505F 
 6866      3532554E 
 6866      495400
 6867              	.LASF456:
 6868 07b8 43795541 		.ascii	"CyUAB_F_CAP_02UNIT\000"
 6868      425F465F 
 6868      4341505F 
 6868      3032554E 
 6868      495400
 6869              	.LASF461:
 6870 07cb 43795541 		.ascii	"CyUAB_F_CAP_12UNIT\000"
 6870      425F465F 
 6870      4341505F 
 6870      3132554E 
 6870      495400
 6871              	.LASF299:
 6872 07de 43795541 		.ascii	"CyUAB_B_CAP_0250fF\000"
 6872      425F425F 
 6872      4341505F 
 6872      30323530 
 6872      664600
 6873              	.LASF238:
ARM GAS  C:\Users\Jerry\AppData\Local\Temp\cc1IKG0O.s 			page 163


 6874 07f1 43795541 		.ascii	"CyUAB_CAP_09UNIT\000"
 6874      425F4341 
 6874      505F3039 
 6874      554E4954 
 6874      00
 6875              	.LASF37:
 6876 0802 43795541 		.ascii	"CyUAB_cmp_level_enum\000"
 6876      425F636D 
 6876      705F6C65 
 6876      76656C5F 
 6876      656E756D 
 6877              	.LASF331:
 6878 0817 43795541 		.ascii	"CyUAB_B_CAP_1850fF\000"
 6878      425F425F 
 6878      4341505F 
 6878      31383530 
 6878      664600
 6879              	.LASF0:
 6880 082a 7369676E 		.ascii	"signed char\000"
 6880      65642063 
 6880      68617200 
 6881              	.LASF304:
 6882 0836 43795541 		.ascii	"CyUAB_B_CAP_0500fF\000"
 6882      425F425F 
 6882      4341505F 
 6882      30353030 
 6882      664600
 6883              	.LASF253:
 6884 0849 43795541 		.ascii	"CyUAB_CAP_24UNIT\000"
 6884      425F4341 
 6884      505F3234 
 6884      554E4954 
 6884      00
 6885              	.LASF486:
 6886 085a 43795541 		.ascii	"CyUAB_F_CAP_62UNIT\000"
 6886      425F465F 
 6886      4341505F 
 6886      3632554E 
 6886      495400
 6887              	.LASF239:
 6888 086d 43795541 		.ascii	"CyUAB_CAP_10UNIT\000"
 6888      425F4341 
 6888      505F3130 
 6888      554E4954 
 6888      00
 6889              	.LASF498:
 6890 087e 56444143 		.ascii	"VDAC_Synth_UAB_ClearInterruptMask\000"
 6890      5F53796E 
 6890      74685F55 
 6890      41425F43 
 6890      6C656172 
 6891              	.LASF284:
 6892 08a0 43795541 		.ascii	"CyUAB_CAP_55UNIT\000"
 6892      425F4341 
 6892      505F3535 
 6892      554E4954 
 6892      00
ARM GAS  C:\Users\Jerry\AppData\Local\Temp\cc1IKG0O.s 			page 164


 6893              	.LASF205:
 6894 08b1 43795541 		.ascii	"CyUAB_CAP_1950fF\000"
 6894      425F4341 
 6894      505F3139 
 6894      35306646 
 6894      00
 6895              	.LASF338:
 6896 08c2 43795541 		.ascii	"CyUAB_B_CAP_2200fF\000"
 6896      425F425F 
 6896      4341505F 
 6896      32323030 
 6896      664600
 6897              	.LASF44:
 6898 08d5 43795541 		.ascii	"CyUAB_AGND_SEPARATE\000"
 6898      425F4147 
 6898      4E445F53 
 6898      45504152 
 6898      41544500 
 6899              	.LASF270:
 6900 08e9 43795541 		.ascii	"CyUAB_CAP_41UNIT\000"
 6900      425F4341 
 6900      505F3431 
 6900      554E4954 
 6900      00
 6901              	.LASF1:
 6902 08fa 756E7369 		.ascii	"unsigned char\000"
 6902      676E6564 
 6902      20636861 
 6902      7200
 6903              	.LASF522:
 6904 0908 56444143 		.ascii	"VDAC_Synth_UAB_SetCaps\000"
 6904      5F53796E 
 6904      74685F55 
 6904      41425F53 
 6904      65744361 
 6905              	.LASF565:
 6906 091f 6D6F6462 		.ascii	"modbitSrcAB\000"
 6906      69745372 
 6906      63414200 
 6907              	.LASF543:
 6908 092b 56444143 		.ascii	"VDAC_Synth_UAB_GetInterruptIsMasked\000"
 6908      5F53796E 
 6908      74685F55 
 6908      41425F47 
 6908      6574496E 
 6909              	.LASF440:
 6910 094f 43795541 		.ascii	"CyUAB_F_CAP_1700fF\000"
 6910      425F465F 
 6910      4341505F 
 6910      31373030 
 6910      664600
 6911              	.LASF385:
 6912 0962 43795541 		.ascii	"CyUAB_B_CAP_27UNIT\000"
 6912      425F425F 
 6912      4341505F 
 6912      3237554E 
 6912      495400
ARM GAS  C:\Users\Jerry\AppData\Local\Temp\cc1IKG0O.s 			page 165


 6913              	.LASF426:
 6914 0975 43795541 		.ascii	"CyUAB_F_CAP_0300fF\000"
 6914      425F465F 
 6914      4341505F 
 6914      30333030 
 6914      664600
 6915              	.LASF294:
 6916 0988 43795541 		.ascii	"CyUAB_B_CAP_OPEN\000"
 6916      425F425F 
 6916      4341505F 
 6916      4F50454E 
 6916      00
 6917              	.LASF181:
 6918 0999 43795541 		.ascii	"CyUAB_CAP_0750fF\000"
 6918      425F4341 
 6918      505F3037 
 6918      35306646 
 6918      00
 6919              	.LASF371:
 6920 09aa 43795541 		.ascii	"CyUAB_B_CAP_13UNIT\000"
 6920      425F425F 
 6920      4341505F 
 6920      3133554E 
 6920      495400
 6921              	.LASF577:
 6922 09bd 54524947 		.ascii	"TRIG_SEL_PRESHIFT_MASK\000"
 6922      5F53454C 
 6922      5F505245 
 6922      53484946 
 6922      545F4D41 
 6923              	.LASF455:
 6924 09d4 43795541 		.ascii	"CyUAB_F_CAP_3200fF\000"
 6924      425F465F 
 6924      4341505F 
 6924      33323030 
 6924      664600
 6925              	.LASF26:
 6926 09e7 43795541 		.ascii	"CyUAB_config\000"
 6926      425F636F 
 6926      6E666967 
 6926      00
 6927              	.LASF211:
 6928 09f4 43795541 		.ascii	"CyUAB_CAP_2250fF\000"
 6928      425F4341 
 6928      505F3232 
 6928      35306646 
 6928      00
 6929              	.LASF499:
 6930 0a05 56444143 		.ascii	"VDAC_Synth_UAB_SetUABPower\000"
 6930      5F53796E 
 6930      74685F55 
 6930      41425F53 
 6930      65745541 
 6931              	.LASF416:
 6932 0a20 43795541 		.ascii	"CyUAB_B_CAP_58UNIT\000"
 6932      425F425F 
 6932      4341505F 
ARM GAS  C:\Users\Jerry\AppData\Local\Temp\cc1IKG0O.s 			page 166


 6932      3538554E 
 6932      495400
 6933              	.LASF459:
 6934 0a33 43795541 		.ascii	"CyUAB_F_CAP_08UNIT\000"
 6934      425F465F 
 6934      4341505F 
 6934      3038554E 
 6934      495400
 6935              	.LASF216:
 6936 0a46 43795541 		.ascii	"CyUAB_CAP_2500fF\000"
 6936      425F4341 
 6936      505F3235 
 6936      30306646 
 6936      00
 6937              	.LASF19:
 6938 0a57 76616C75 		.ascii	"value\000"
 6938      6500
 6939              	.LASF78:
 6940 0a5d 43795541 		.ascii	"CyUAB_STROBE_MODE_STROBE\000"
 6940      425F5354 
 6940      524F4245 
 6940      5F4D4F44 
 6940      455F5354 
 6941              	.LASF188:
 6942 0a76 43795541 		.ascii	"CyUAB_CAP_1100fF\000"
 6942      425F4341 
 6942      505F3131 
 6942      30306646 
 6942      00
 6943              	.LASF311:
 6944 0a87 43795541 		.ascii	"CyUAB_B_CAP_0850fF\000"
 6944      425F425F 
 6944      4341505F 
 6944      30383530 
 6944      664600
 6945              	.LASF16:
 6946 0a9a 63686172 		.ascii	"char\000"
 6946      00
 6947              	.LASF81:
 6948 0a9f 43795541 		.ascii	"CyUAB_SW_OPEN\000"
 6948      425F5357 
 6948      5F4F5045 
 6948      4E00
 6949              	.LASF506:
 6950 0aad 666F7263 		.ascii	"forceVdda\000"
 6950      65566464 
 6950      6100
 6951              	.LASF568:
 6952 0ab7 4D4F4442 		.ascii	"MODBIT_SRC_C_PRESHIFT_MASK\000"
 6952      49545F53 
 6952      52435F43 
 6952      5F505245 
 6952      53484946 
 6953              	.LASF245:
 6954 0ad2 43795541 		.ascii	"CyUAB_CAP_16UNIT\000"
 6954      425F4341 
 6954      505F3136 
ARM GAS  C:\Users\Jerry\AppData\Local\Temp\cc1IKG0O.s 			page 167


 6954      554E4954 
 6954      00
 6955              	.LASF482:
 6956 0ae3 43795541 		.ascii	"CyUAB_F_CAP_54UNIT\000"
 6956      425F465F 
 6956      4341505F 
 6956      3534554E 
 6956      495400
 6957              	.LASF231:
 6958 0af6 43795541 		.ascii	"CyUAB_CAP_02UNIT\000"
 6958      425F4341 
 6958      505F3032 
 6958      554E4954 
 6958      00
 6959              	.LASF345:
 6960 0b07 43795541 		.ascii	"CyUAB_B_CAP_2550fF\000"
 6960      425F425F 
 6960      4341505F 
 6960      32353530 
 6960      664600
 6961              	.LASF63:
 6962 0b1a 43795541 		.ascii	"CyUAB_CAP_GROUND\000"
 6962      425F4341 
 6962      505F4752 
 6962      4F554E44 
 6962      00
 6963              	.LASF547:
 6964 0b2b 69734561 		.ascii	"isEarly\000"
 6964      726C7900 
 6965              	.LASF350:
 6966 0b33 43795541 		.ascii	"CyUAB_B_CAP_2800fF\000"
 6966      425F425F 
 6966      4341505F 
 6966      32383030 
 6966      664600
 6967              	.LASF356:
 6968 0b46 43795541 		.ascii	"CyUAB_B_CAP_3100fF\000"
 6968      425F425F 
 6968      4341505F 
 6968      33313030 
 6968      664600
 6969              	.LASF276:
 6970 0b59 43795541 		.ascii	"CyUAB_CAP_47UNIT\000"
 6970      425F4341 
 6970      505F3437 
 6970      554E4954 
 6970      00
 6971              	.LASF452:
 6972 0b6a 43795541 		.ascii	"CyUAB_F_CAP_2900fF\000"
 6972      425F465F 
 6972      4341505F 
 6972      32393030 
 6972      664600
 6973              	.LASF322:
 6974 0b7d 43795541 		.ascii	"CyUAB_B_CAP_1400fF\000"
 6974      425F425F 
 6974      4341505F 
ARM GAS  C:\Users\Jerry\AppData\Local\Temp\cc1IKG0O.s 			page 168


 6974      31343030 
 6974      664600
 6975              	.LASF407:
 6976 0b90 43795541 		.ascii	"CyUAB_B_CAP_49UNIT\000"
 6976      425F425F 
 6976      4341505F 
 6976      3439554E 
 6976      495400
 6977              	.LASF54:
 6978 0ba3 43795541 		.ascii	"CyUAB_PWR_5_8\000"
 6978      425F5057 
 6978      525F355F 
 6978      3800
 6979              	.LASF262:
 6980 0bb1 43795541 		.ascii	"CyUAB_CAP_33UNIT\000"
 6980      425F4341 
 6980      505F3333 
 6980      554E4954 
 6980      00
 6981              	.LASF512:
 6982 0bc2 56444143 		.ascii	"VDAC_Synth_UAB_SetCapA\000"
 6982      5F53796E 
 6982      74685F55 
 6982      41425F53 
 6982      65744361 
 6983              	.LASF514:
 6984 0bd9 56444143 		.ascii	"VDAC_Synth_UAB_SetCapB\000"
 6984      5F53796E 
 6984      74685F55 
 6984      41425F53 
 6984      65744361 
 6985              	.LASF518:
 6986 0bf0 56444143 		.ascii	"VDAC_Synth_UAB_SetCapC\000"
 6986      5F53796E 
 6986      74685F55 
 6986      41425F53 
 6986      65744361 
 6987              	.LASF520:
 6988 0c07 56444143 		.ascii	"VDAC_Synth_UAB_SetCapF\000"
 6988      5F53796E 
 6988      74685F55 
 6988      41425F53 
 6988      65744361 
 6989              	.LASF291:
 6990 0c1e 43795541 		.ascii	"CyUAB_CAP_62UNIT\000"
 6990      425F4341 
 6990      505F3632 
 6990      554E4954 
 6990      00
 6991              	.LASF361:
 6992 0c2f 43795541 		.ascii	"CyUAB_B_CAP_03UNIT\000"
 6992      425F425F 
 6992      4341505F 
 6992      3033554E 
 6992      495400
 6993              	.LASF363:
 6994 0c42 43795541 		.ascii	"CyUAB_B_CAP_05UNIT\000"
ARM GAS  C:\Users\Jerry\AppData\Local\Temp\cc1IKG0O.s 			page 169


 6994      425F425F 
 6994      4341505F 
 6994      3035554E 
 6994      495400
 6995              	.LASF432:
 6996 0c55 43795541 		.ascii	"CyUAB_F_CAP_0900fF\000"
 6996      425F465F 
 6996      4341505F 
 6996      30393030 
 6996      664600
 6997              	.LASF377:
 6998 0c68 43795541 		.ascii	"CyUAB_B_CAP_19UNIT\000"
 6998      425F425F 
 6998      4341505F 
 6998      3139554E 
 6998      495400
 6999              	.LASF141:
 7000 0c7b 43795541 		.ascii	"CyUAB_SW_CR_MODBIT\000"
 7000      425F5357 
 7000      5F43525F 
 7000      4D4F4442 
 7000      495400
 7001              	.LASF447:
 7002 0c8e 43795541 		.ascii	"CyUAB_F_CAP_2400fF\000"
 7002      425F465F 
 7002      4341505F 
 7002      32343030 
 7002      664600
 7003              	.LASF223:
 7004 0ca1 43795541 		.ascii	"CyUAB_CAP_2850fF\000"
 7004      425F4341 
 7004      505F3238 
 7004      35306646 
 7004      00
 7005              	.LASF392:
 7006 0cb2 43795541 		.ascii	"CyUAB_B_CAP_34UNIT\000"
 7006      425F425F 
 7006      4341505F 
 7006      3334554E 
 7006      495400
 7007              	.LASF433:
 7008 0cc5 43795541 		.ascii	"CyUAB_F_CAP_1000fF\000"
 7008      425F465F 
 7008      4341505F 
 7008      31303030 
 7008      664600
 7009              	.LASF42:
 7010 0cd8 43795541 		.ascii	"CyUAB_AGND_FORCE_VDDA\000"
 7010      425F4147 
 7010      4E445F46 
 7010      4F524345 
 7010      5F564444 
 7011              	.LASF195:
 7012 0cee 43795541 		.ascii	"CyUAB_CAP_1450fF\000"
 7012      425F4341 
 7012      505F3134 
 7012      35306646 
ARM GAS  C:\Users\Jerry\AppData\Local\Temp\cc1IKG0O.s 			page 170


 7012      00
 7013              	.LASF327:
 7014 0cff 43795541 		.ascii	"CyUAB_B_CAP_1650fF\000"
 7014      425F425F 
 7014      4341505F 
 7014      31363530 
 7014      664600
 7015              	.LASF513:
 7016 0d12 63617041 		.ascii	"capA\000"
 7016      00
 7017              	.LASF378:
 7018 0d17 43795541 		.ascii	"CyUAB_B_CAP_20UNIT\000"
 7018      425F425F 
 7018      4341505F 
 7018      3230554E 
 7018      495400
 7019              	.LASF519:
 7020 0d2a 63617043 		.ascii	"capC\000"
 7020      00
 7021              	.LASF167:
 7022 0d2f 43795541 		.ascii	"CyUAB_CAP_0050fF\000"
 7022      425F4341 
 7022      505F3030 
 7022      35306646 
 7022      00
 7023              	.LASF145:
 7024 0d40 43795541 		.ascii	"CyUAB_SW_GC_MODBIT\000"
 7024      425F5357 
 7024      5F47435F 
 7024      4D4F4442 
 7024      495400
 7025              	.LASF402:
 7026 0d53 43795541 		.ascii	"CyUAB_B_CAP_44UNIT\000"
 7026      425F425F 
 7026      4341505F 
 7026      3434554E 
 7026      495400
 7027              	.LASF200:
 7028 0d66 43795541 		.ascii	"CyUAB_CAP_1700fF\000"
 7028      425F4341 
 7028      505F3137 
 7028      30306646 
 7028      00
 7029              	.LASF527:
 7030 0d77 43435F47 		.ascii	"CC_GND_PRESHIFT_MASK\000"
 7030      4E445F50 
 7030      52455348 
 7030      4946545F 
 7030      4D41534B 
 7031              	.LASF467:
 7032 0d8c 43795541 		.ascii	"CyUAB_F_CAP_24UNIT\000"
 7032      425F465F 
 7032      4341505F 
 7032      3234554E 
 7032      495400
 7033              	.LASF172:
 7034 0d9f 43795541 		.ascii	"CyUAB_CAP_0300fF\000"
ARM GAS  C:\Users\Jerry\AppData\Local\Temp\cc1IKG0O.s 			page 171


 7034      425F4341 
 7034      505F3033 
 7034      30306646 
 7034      00
 7035              	.LASF505:
 7036 0db0 56444143 		.ascii	"VDAC_Synth_UAB_SetRefVdda\000"
 7036      5F53796E 
 7036      74685F55 
 7036      41425F53 
 7036      65745265 
 7037              	.LASF409:
 7038 0dca 43795541 		.ascii	"CyUAB_B_CAP_51UNIT\000"
 7038      425F425F 
 7038      4341505F 
 7038      3531554E 
 7038      495400
 7039              	.LASF403:
 7040 0ddd 43795541 		.ascii	"CyUAB_B_CAP_45UNIT\000"
 7040      425F425F 
 7040      4341505F 
 7040      3435554E 
 7040      495400
 7041              	.LASF470:
 7042 0df0 43795541 		.ascii	"CyUAB_F_CAP_30UNIT\000"
 7042      425F465F 
 7042      4341505F 
 7042      3330554E 
 7042      495400
 7043              	.LASF106:
 7044 0e03 43795541 		.ascii	"CyUAB_SW_AX1_MODBIT\000"
 7044      425F5357 
 7044      5F415831 
 7044      5F4D4F44 
 7044      42495400 
 7045              	.LASF134:
 7046 0e17 43795541 		.ascii	"CyUAB_SW_CX0_MODBIT\000"
 7046      425F5357 
 7046      5F435830 
 7046      5F4D4F44 
 7046      42495400 
 7047              	.LASF491:
 7048 0e2b 56444143 		.ascii	"VDAC_Synth_UAB_WriteInitPairs\000"
 7048      5F53796E 
 7048      74685F55 
 7048      41425F57 
 7048      72697465 
 7049              	.LASF545:
 7050 0e49 56444143 		.ascii	"VDAC_Synth_UAB_SetEarly\000"
 7050      5F53796E 
 7050      74685F55 
 7050      41425F53 
 7050      65744561 
 7051              	.LASF237:
 7052 0e61 43795541 		.ascii	"CyUAB_CAP_08UNIT\000"
 7052      425F4341 
 7052      505F3038 
 7052      554E4954 
ARM GAS  C:\Users\Jerry\AppData\Local\Temp\cc1IKG0O.s 			page 172


 7052      00
 7053              	.LASF478:
 7054 0e72 43795541 		.ascii	"CyUAB_F_CAP_46UNIT\000"
 7054      425F465F 
 7054      4341505F 
 7054      3436554E 
 7054      495400
 7055              	.LASF317:
 7056 0e85 43795541 		.ascii	"CyUAB_B_CAP_1150fF\000"
 7056      425F425F 
 7056      4341505F 
 7056      31313530 
 7056      664600
 7057              	.LASF38:
 7058 0e98 43795541 		.ascii	"CyUAB_REF_NORMAL\000"
 7058      425F5245 
 7058      465F4E4F 
 7058      524D414C 
 7058      00
 7059              	.LASF252:
 7060 0ea9 43795541 		.ascii	"CyUAB_CAP_23UNIT\000"
 7060      425F4341 
 7060      505F3233 
 7060      554E4954 
 7060      00
 7061              	.LASF268:
 7062 0eba 43795541 		.ascii	"CyUAB_CAP_39UNIT\000"
 7062      425F4341 
 7062      505F3339 
 7062      554E4954 
 7062      00
 7063              	.LASF551:
 7064 0ecb 56444143 		.ascii	"VDAC_Synth_UAB_Stop\000"
 7064      5F53796E 
 7064      74685F55 
 7064      41425F53 
 7064      746F7000 
 7065              	.LASF488:
 7066 0edf 43795541 		.ascii	"CyUAB_f_cap_enum\000"
 7066      425F665F 
 7066      6361705F 
 7066      656E756D 
 7066      00
 7067              	.LASF288:
 7068 0ef0 43795541 		.ascii	"CyUAB_CAP_59UNIT\000"
 7068      425F4341 
 7068      505F3539 
 7068      554E4954 
 7068      00
 7069              	.LASF367:
 7070 0f01 43795541 		.ascii	"CyUAB_B_CAP_09UNIT\000"
 7070      425F425F 
 7070      4341505F 
 7070      3039554E 
 7070      495400
 7071              	.LASF283:
 7072 0f14 43795541 		.ascii	"CyUAB_CAP_54UNIT\000"
ARM GAS  C:\Users\Jerry\AppData\Local\Temp\cc1IKG0O.s 			page 173


 7072      425F4341 
 7072      505F3534 
 7072      554E4954 
 7072      00
 7073              	.LASF526:
 7074 0f25 43425F47 		.ascii	"CB_GND_PRESHIFT_MASK\000"
 7074      4E445F50 
 7074      52455348 
 7074      4946545F 
 7074      4D41534B 
 7075              	.LASF336:
 7076 0f3a 43795541 		.ascii	"CyUAB_B_CAP_2100fF\000"
 7076      425F425F 
 7076      4341505F 
 7076      32313030 
 7076      664600
 7077              	.LASF510:
 7078 0f4d 56444143 		.ascii	"VDAC_Synth_UAB_SetAgndTied\000"
 7078      5F53796E 
 7078      74685F55 
 7078      41425F53 
 7078      65744167 
 7079              	.LASF269:
 7080 0f68 43795541 		.ascii	"CyUAB_CAP_40UNIT\000"
 7080      425F4341 
 7080      505F3430 
 7080      554E4954 
 7080      00
 7081              	.LASF439:
 7082 0f79 43795541 		.ascii	"CyUAB_F_CAP_1600fF\000"
 7082      425F465F 
 7082      4341505F 
 7082      31363030 
 7082      664600
 7083              	.LASF30:
 7084 0f8c 43795541 		.ascii	"CyUAB_CMP_EDGE_DISABLE\000"
 7084      425F434D 
 7084      505F4544 
 7084      47455F44 
 7084      49534142 
 7085              	.LASF384:
 7086 0fa3 43795541 		.ascii	"CyUAB_B_CAP_26UNIT\000"
 7086      425F425F 
 7086      4341505F 
 7086      3236554E 
 7086      495400
 7087              	.LASF425:
 7088 0fb6 43795541 		.ascii	"CyUAB_F_CAP_0200fF\000"
 7088      425F465F 
 7088      4341505F 
 7088      30323030 
 7088      664600
 7089              	.LASF179:
 7090 0fc9 43795541 		.ascii	"CyUAB_CAP_0650fF\000"
 7090      425F4341 
 7090      505F3036 
 7090      35306646 
ARM GAS  C:\Users\Jerry\AppData\Local\Temp\cc1IKG0O.s 			page 174


 7090      00
 7091              	.LASF370:
 7092 0fda 43795541 		.ascii	"CyUAB_B_CAP_12UNIT\000"
 7092      425F425F 
 7092      4341505F 
 7092      3132554E 
 7092      495400
 7093              	.LASF588:
 7094 0fed 47656E65 		.ascii	"Generated_Source\\PSoC4\\VDAC_Synth_UAB.c\000"
 7094      72617465 
 7094      645F536F 
 7094      75726365 
 7094      5C50536F 
 7095              	.LASF39:
 7096 1015 43795541 		.ascii	"CyUAB_REF_FORCE_VDDA\000"
 7096      425F5245 
 7096      465F464F 
 7096      5243455F 
 7096      56444441 
 7097              	.LASF562:
 7098 102a 56444143 		.ascii	"VDAC_Synth_UAB_GetCurrentSubsample\000"
 7098      5F53796E 
 7098      74685F55 
 7098      41425F47 
 7098      65744375 
 7099              	.LASF429:
 7100 104d 43795541 		.ascii	"CyUAB_F_CAP_0600fF\000"
 7100      425F465F 
 7100      4341505F 
 7100      30363030 
 7100      664600
 7101              	.LASF209:
 7102 1060 43795541 		.ascii	"CyUAB_CAP_2150fF\000"
 7102      425F4341 
 7102      505F3231 
 7102      35306646 
 7102      00
 7103              	.LASF151:
 7104 1071 43795541 		.ascii	"CyUAB_SW_PF\000"
 7104      425F5357 
 7104      5F504600 
 7105              	.LASF31:
 7106 107d 43795541 		.ascii	"CyUAB_CMP_EDGE_RISING\000"
 7106      425F434D 
 7106      505F4544 
 7106      47455F52 
 7106      4953494E 
 7107              	.LASF184:
 7108 1093 43795541 		.ascii	"CyUAB_CAP_0900fF\000"
 7108      425F4341 
 7108      505F3039 
 7108      30306646 
 7108      00
 7109              	.LASF509:
 7110 10a4 72656654 		.ascii	"refTied\000"
 7110      69656400 
 7111              	.LASF153:
ARM GAS  C:\Users\Jerry\AppData\Local\Temp\cc1IKG0O.s 			page 175


 7112 10ac 43795541 		.ascii	"CyUAB_SW_PO\000"
 7112      425F5357 
 7112      5F504F00 
 7113              	.LASF415:
 7114 10b8 43795541 		.ascii	"CyUAB_B_CAP_57UNIT\000"
 7114      425F425F 
 7114      4341505F 
 7114      3537554E 
 7114      495400
 7115              	.LASF152:
 7116 10cb 43795541 		.ascii	"CyUAB_SW_PS\000"
 7116      425F5357 
 7116      5F505300 
 7117              	.LASF5:
 7118 10d7 6C6F6E67 		.ascii	"long unsigned int\000"
 7118      20756E73 
 7118      69676E65 
 7118      6420696E 
 7118      7400
 7119              	.LASF214:
 7120 10e9 43795541 		.ascii	"CyUAB_CAP_2400fF\000"
 7120      425F4341 
 7120      505F3234 
 7120      30306646 
 7120      00
 7121              	.LASF423:
 7122 10fa 43795541 		.ascii	"CyUAB_b_cap_enum\000"
 7122      425F625F 
 7122      6361705F 
 7122      656E756D 
 7122      00
 7123              	.LASF473:
 7124 110b 43795541 		.ascii	"CyUAB_F_CAP_36UNIT\000"
 7124      425F465F 
 7124      4341505F 
 7124      3336554E 
 7124      495400
 7125              	.LASF186:
 7126 111e 43795541 		.ascii	"CyUAB_CAP_1000fF\000"
 7126      425F4341 
 7126      505F3130 
 7126      30306646 
 7126      00
 7127              	.LASF309:
 7128 112f 43795541 		.ascii	"CyUAB_B_CAP_0750fF\000"
 7128      425F425F 
 7128      4341505F 
 7128      30373530 
 7128      664600
 7129              	.LASF541:
 7130 1142 56444143 		.ascii	"VDAC_Synth_UAB_SetCompOutLevel\000"
 7130      5F53796E 
 7130      74685F55 
 7130      41425F53 
 7130      6574436F 
 7131              	.LASF582:
 7132 1161 56444143 		.ascii	"VDAC_Synth_UAB_config\000"
ARM GAS  C:\Users\Jerry\AppData\Local\Temp\cc1IKG0O.s 			page 176


 7132      5F53796E 
 7132      74685F55 
 7132      41425F63 
 7132      6F6E6669 
 7133              	.LASF258:
 7134 1177 43795541 		.ascii	"CyUAB_CAP_29UNIT\000"
 7134      425F4341 
 7134      505F3239 
 7134      554E4954 
 7134      00
 7135              	.LASF244:
 7136 1188 43795541 		.ascii	"CyUAB_CAP_15UNIT\000"
 7136      425F4341 
 7136      505F3135 
 7136      554E4954 
 7136      00
 7137              	.LASF230:
 7138 1199 43795541 		.ascii	"CyUAB_CAP_01UNIT\000"
 7138      425F4341 
 7138      505F3031 
 7138      554E4954 
 7138      00
 7139              	.LASF343:
 7140 11aa 43795541 		.ascii	"CyUAB_B_CAP_2450fF\000"
 7140      425F425F 
 7140      4341505F 
 7140      32343530 
 7140      664600
 7141              	.LASF122:
 7142 11bd 43795541 		.ascii	"CyUAB_SW_BX3_MODBIT\000"
 7142      425F5357 
 7142      5F425833 
 7142      5F4D4F44 
 7142      42495400 
 7143              	.LASF548:
 7144 11d1 56444143 		.ascii	"VDAC_Synth_UAB_Run\000"
 7144      5F53796E 
 7144      74685F55 
 7144      41425F52 
 7144      756E00
 7145              	.LASF259:
 7146 11e4 43795541 		.ascii	"CyUAB_CAP_30UNIT\000"
 7146      425F4341 
 7146      505F3330 
 7146      554E4954 
 7146      00
 7147              	.LASF315:
 7148 11f5 43795541 		.ascii	"CyUAB_B_CAP_1050fF\000"
 7148      425F425F 
 7148      4341505F 
 7148      31303530 
 7148      664600
 7149              	.LASF104:
 7150 1208 43795541 		.ascii	"CyUAB_SW_QT\000"
 7150      425F5357 
 7150      5F515400 
 7151              	.LASF507:
ARM GAS  C:\Users\Jerry\AppData\Local\Temp\cc1IKG0O.s 			page 177


 7152 1214 56444143 		.ascii	"VDAC_Synth_UAB_SetAgndVdda\000"
 7152      5F53796E 
 7152      74685F55 
 7152      41425F53 
 7152      65744167 
 7153              	.LASF348:
 7154 122f 43795541 		.ascii	"CyUAB_B_CAP_2700fF\000"
 7154      425F425F 
 7154      4341505F 
 7154      32373030 
 7154      664600
 7155              	.LASF275:
 7156 1242 43795541 		.ascii	"CyUAB_CAP_46UNIT\000"
 7156      425F4341 
 7156      505F3436 
 7156      554E4954 
 7156      00
 7157              	.LASF320:
 7158 1253 43795541 		.ascii	"CyUAB_B_CAP_1300fF\000"
 7158      425F425F 
 7158      4341505F 
 7158      31333030 
 7158      664600
 7159              	.LASF261:
 7160 1266 43795541 		.ascii	"CyUAB_CAP_32UNIT\000"
 7160      425F4341 
 7160      505F3332 
 7160      554E4954 
 7160      00
 7161              	.LASF290:
 7162 1277 43795541 		.ascii	"CyUAB_CAP_61UNIT\000"
 7162      425F4341 
 7162      505F3631 
 7162      554E4954 
 7162      00
 7163              	.LASF360:
 7164 1288 43795541 		.ascii	"CyUAB_B_CAP_02UNIT\000"
 7164      425F425F 
 7164      4341505F 
 7164      3032554E 
 7164      495400
 7165              	.LASF431:
 7166 129b 43795541 		.ascii	"CyUAB_F_CAP_0800fF\000"
 7166      425F465F 
 7166      4341505F 
 7166      30383030 
 7166      664600
 7167              	.LASF376:
 7168 12ae 43795541 		.ascii	"CyUAB_B_CAP_18UNIT\000"
 7168      425F425F 
 7168      4341505F 
 7168      3138554E 
 7168      495400
 7169              	.LASF100:
 7170 12c1 43795541 		.ascii	"CyUAB_SW_RG\000"
 7170      425F5357 
 7170      5F524700 
ARM GAS  C:\Users\Jerry\AppData\Local\Temp\cc1IKG0O.s 			page 178


 7171              	.LASF183:
 7172 12cd 43795541 		.ascii	"CyUAB_CAP_0850fF\000"
 7172      425F4341 
 7172      505F3038 
 7172      35306646 
 7172      00
 7173              	.LASF446:
 7174 12de 43795541 		.ascii	"CyUAB_F_CAP_2300fF\000"
 7174      425F465F 
 7174      4341505F 
 7174      32333030 
 7174      664600
 7175              	.LASF221:
 7176 12f1 43795541 		.ascii	"CyUAB_CAP_2750fF\000"
 7176      425F4341 
 7176      505F3237 
 7176      35306646 
 7176      00
 7177              	.LASF391:
 7178 1302 43795541 		.ascii	"CyUAB_B_CAP_33UNIT\000"
 7178      425F425F 
 7178      4341505F 
 7178      3333554E 
 7178      495400
 7179              	.LASF102:
 7180 1315 43795541 		.ascii	"CyUAB_SW_RT\000"
 7180      425F5357 
 7180      5F525400 
 7181              	.LASF193:
 7182 1321 43795541 		.ascii	"CyUAB_CAP_1350fF\000"
 7182      425F4341 
 7182      505F3133 
 7182      35306646 
 7182      00
 7183              	.LASF159:
 7184 1332 43795541 		.ascii	"CyUAB_SW_A_BOOST\000"
 7184      425F5357 
 7184      5F415F42 
 7184      4F4F5354 
 7184      00
 7185              	.LASF534:
 7186 1343 56444143 		.ascii	"VDAC_Synth_UAB_SetCapCFNext\000"
 7186      5F53796E 
 7186      74685F55 
 7186      41425F53 
 7186      65744361 
 7187              	.LASF310:
 7188 135f 43795541 		.ascii	"CyUAB_B_CAP_0800fF\000"
 7188      425F425F 
 7188      4341505F 
 7188      30383030 
 7188      664600
 7189              	.LASF533:
 7190 1372 6E657874 		.ascii	"nextDACVal\000"
 7190      44414356 
 7190      616C00
 7191              	.LASF198:
ARM GAS  C:\Users\Jerry\AppData\Local\Temp\cc1IKG0O.s 			page 179


 7192 137d 43795541 		.ascii	"CyUAB_CAP_1600fF\000"
 7192      425F4341 
 7192      505F3136 
 7192      30306646 
 7192      00
 7193              	.LASF469:
 7194 138e 43795541 		.ascii	"CyUAB_F_CAP_28UNIT\000"
 7194      425F465F 
 7194      4341505F 
 7194      3238554E 
 7194      495400
 7195              	.LASF170:
 7196 13a1 43795541 		.ascii	"CyUAB_CAP_0200fF\000"
 7196      425F4341 
 7196      505F3032 
 7196      30306646 
 7196      00
 7197              	.LASF51:
 7198 13b2 43795541 		.ascii	"CyUAB_PWR_1_8\000"
 7198      425F5057 
 7198      525F315F 
 7198      3800
 7199              	.LASF422:
 7200 13c0 43795541 		.ascii	"CyUAB_B_CAP_64UNIT\000"
 7200      425F425F 
 7200      4341505F 
 7200      3634554E 
 7200      495400
 7201              	.LASF462:
 7202 13d3 43795541 		.ascii	"CyUAB_F_CAP_14UNIT\000"
 7202      425F465F 
 7202      4341505F 
 7202      3134554E 
 7202      495400
 7203              	.LASF57:
 7204 13e6 43795541 		.ascii	"CyUAB_fine_pwr_enum\000"
 7204      425F6669 
 7204      6E655F70 
 7204      77725F65 
 7204      6E756D00 
 7205              	.LASF556:
 7206 13fa 56444143 		.ascii	"VDAC_Synth_UAB_SetAlignMode\000"
 7206      5F53796E 
 7206      74685F55 
 7206      41425F53 
 7206      6574416C 
 7207              	.LASF6:
 7208 1416 6C6F6E67 		.ascii	"long long int\000"
 7208      206C6F6E 
 7208      6720696E 
 7208      7400
 7209              	.LASF228:
 7210 1424 43795541 		.ascii	"CyUAB_CAP_3100fF\000"
 7210      425F4341 
 7210      505F3331 
 7210      30306646 
 7210      00
ARM GAS  C:\Users\Jerry\AppData\Local\Temp\cc1IKG0O.s 			page 180


 7211              	.LASF137:
 7212 1435 43795541 		.ascii	"CyUAB_SW_CX3_MODBIT\000"
 7212      425F5357 
 7212      5F435833 
 7212      5F4D4F44 
 7212      42495400 
 7213              	.LASF561:
 7214 1449 73756273 		.ascii	"subsampleInit\000"
 7214      616D706C 
 7214      65496E69 
 7214      7400
 7215              	.LASF500:
 7216 1457 706F7765 		.ascii	"powerLevel\000"
 7216      724C6576 
 7216      656C00
 7217              	.LASF118:
 7218 1462 43795541 		.ascii	"CyUAB_SW_SA\000"
 7218      425F5357 
 7218      5F534100 
 7219              	.LASF133:
 7220 146e 43795541 		.ascii	"CyUAB_SW_SB\000"
 7220      425F5357 
 7220      5F534200 
 7221              	.LASF148:
 7222 147a 43795541 		.ascii	"CyUAB_SW_SC\000"
 7222      425F5357 
 7222      5F534300 
 7223              	.LASF295:
 7224 1486 43795541 		.ascii	"CyUAB_B_CAP_0050fF\000"
 7224      425F425F 
 7224      4341505F 
 7224      30303530 
 7224      664600
 7225              	.LASF454:
 7226 1499 43795541 		.ascii	"CyUAB_F_CAP_3100fF\000"
 7226      425F465F 
 7226      4341505F 
 7226      33313030 
 7226      664600
 7227              	.LASF297:
 7228 14ac 43795541 		.ascii	"CyUAB_B_CAP_0150fF\000"
 7228      425F425F 
 7228      4341505F 
 7228      30313530 
 7228      664600
 7229              	.LASF236:
 7230 14bf 43795541 		.ascii	"CyUAB_CAP_07UNIT\000"
 7230      425F4341 
 7230      505F3037 
 7230      554E4954 
 7230      00
 7231              	.LASF450:
 7232 14d0 43795541 		.ascii	"CyUAB_F_CAP_2700fF\000"
 7232      425F465F 
 7232      4341505F 
 7232      32373030 
 7232      664600
ARM GAS  C:\Users\Jerry\AppData\Local\Temp\cc1IKG0O.s 			page 181


 7233              	.LASF405:
 7234 14e3 43795541 		.ascii	"CyUAB_B_CAP_47UNIT\000"
 7234      425F425F 
 7234      4341505F 
 7234      3437554E 
 7234      495400
 7235              	.LASF59:
 7236 14f6 43795541 		.ascii	"CyUAB_PWR_ULTRA_LOW\000"
 7236      425F5057 
 7236      525F554C 
 7236      5452415F 
 7236      4C4F5700 
 7237              	.LASF300:
 7238 150a 43795541 		.ascii	"CyUAB_B_CAP_0300fF\000"
 7238      425F425F 
 7238      4341505F 
 7238      30333030 
 7238      664600
 7239              	.LASF15:
 7240 151d 646F7562 		.ascii	"double\000"
 7240      6C6500
 7241              	.LASF485:
 7242 1524 43795541 		.ascii	"CyUAB_F_CAP_60UNIT\000"
 7242      425F465F 
 7242      4341505F 
 7242      3630554E 
 7242      495400
 7243              	.LASF553:
 7244 1537 6C617374 		.ascii	"lastStep\000"
 7244      53746570 
 7244      00
 7245              	.LASF357:
 7246 1540 43795541 		.ascii	"CyUAB_B_CAP_3150fF\000"
 7246      425F425F 
 7246      4341505F 
 7246      33313530 
 7246      664600
 7247              	.LASF154:
 7248 1553 43795541 		.ascii	"CyUAB_SW_CMP_FF\000"
 7248      425F5357 
 7248      5F434D50 
 7248      5F464600 
 7249              	.LASF332:
 7250 1563 43795541 		.ascii	"CyUAB_B_CAP_1900fF\000"
 7250      425F425F 
 7250      4341505F 
 7250      31393030 
 7250      664600
 7251              	.LASF492:
 7252 1576 56444143 		.ascii	"VDAC_Synth_UAB_Init\000"
 7252      5F53796E 
 7252      74685F55 
 7252      41425F49 
 7252      6E697400 
 7253              	.LASF267:
 7254 158a 43795541 		.ascii	"CyUAB_CAP_38UNIT\000"
 7254      425F4341 
ARM GAS  C:\Users\Jerry\AppData\Local\Temp\cc1IKG0O.s 			page 182


 7254      505F3338 
 7254      554E4954 
 7254      00
 7255              	.LASF495:
 7256 159b 6D61736B 		.ascii	"mask\000"
 7256      00
 7257              	.LASF91:
 7258 15a0 43795541 		.ascii	"CyUAB_CLK_PHI10\000"
 7258      425F434C 
 7258      4B5F5048 
 7258      49313000 
 7259              	.LASF56:
 7260 15b0 43795541 		.ascii	"CyUAB_PWR_HIGH\000"
 7260      425F5057 
 7260      525F4849 
 7260      474800
 7261              	.LASF77:
 7262 15bf 43795541 		.ascii	"CyUAB_clk_adj_enum\000"
 7262      425F636C 
 7262      6B5F6164 
 7262      6A5F656E 
 7262      756D00
 7263              	.LASF160:
 7264 15d2 43795541 		.ascii	"CyUAB_SW_B_BOOST\000"
 7264      425F5357 
 7264      5F425F42 
 7264      4F4F5354 
 7264      00
 7265              	.LASF119:
 7266 15e3 43795541 		.ascii	"CyUAB_SW_BX0_MODBIT\000"
 7266      425F5357 
 7266      5F425830 
 7266      5F4D4F44 
 7266      42495400 
 7267              	.LASF366:
 7268 15f7 43795541 		.ascii	"CyUAB_B_CAP_08UNIT\000"
 7268      425F425F 
 7268      4341505F 
 7268      3038554E 
 7268      495400
 7269              	.LASF282:
 7270 160a 43795541 		.ascii	"CyUAB_CAP_53UNIT\000"
 7270      425F4341 
 7270      505F3533 
 7270      554E4954 
 7270      00
 7271              	.LASF334:
 7272 161b 43795541 		.ascii	"CyUAB_B_CAP_2000fF\000"
 7272      425F425F 
 7272      4341505F 
 7272      32303030 
 7272      664600
 7273              	.LASF132:
 7274 162e 43795541 		.ascii	"CyUAB_SW_TB\000"
 7274      425F5357 
 7274      5F544200 
 7275              	.LASF147:
ARM GAS  C:\Users\Jerry\AppData\Local\Temp\cc1IKG0O.s 			page 183


 7276 163a 43795541 		.ascii	"CyUAB_SW_TC\000"
 7276      425F5357 
 7276      5F544300 
 7277              	.LASF476:
 7278 1646 43795541 		.ascii	"CyUAB_F_CAP_42UNIT\000"
 7278      425F465F 
 7278      4341505F 
 7278      3432554E 
 7278      495400
 7279              	.LASF503:
 7280 1659 56444143 		.ascii	"VDAC_Synth_UAB_SetRefPower\000"
 7280      5F53796E 
 7280      74685F55 
 7280      41425F53 
 7280      65745265 
 7281              	.LASF14:
 7282 1674 666C6F61 		.ascii	"float\000"
 7282      7400
 7283              	.LASF400:
 7284 167a 43795541 		.ascii	"CyUAB_B_CAP_42UNIT\000"
 7284      425F425F 
 7284      4341505F 
 7284      3432554E 
 7284      495400
 7285              	.LASF584:
 7286 168d 56444143 		.ascii	"VDAC_Synth_UAB_initPairs\000"
 7286      5F53796E 
 7286      74685F55 
 7286      41425F69 
 7286      6E697450 
 7287              	.LASF397:
 7288 16a6 43795541 		.ascii	"CyUAB_B_CAP_39UNIT\000"
 7288      425F425F 
 7288      4341505F 
 7288      3339554E 
 7288      495400
 7289              	.LASF438:
 7290 16b9 43795541 		.ascii	"CyUAB_F_CAP_1500fF\000"
 7290      425F465F 
 7290      4341505F 
 7290      31353030 
 7290      664600
 7291              	.LASF18:
 7292 16cc 61646472 		.ascii	"addr\000"
 7292      00
 7293              	.LASF113:
 7294 16d1 43795541 		.ascii	"CyUAB_SW_AG_MODBIT\000"
 7294      425F5357 
 7294      5F41475F 
 7294      4D4F4442 
 7294      495400
 7295              	.LASF557:
 7296 16e4 616C6967 		.ascii	"alignMode\000"
 7296      6E4D6F64 
 7296      6500
 7297              	.LASF383:
 7298 16ee 43795541 		.ascii	"CyUAB_B_CAP_25UNIT\000"
ARM GAS  C:\Users\Jerry\AppData\Local\Temp\cc1IKG0O.s 			page 184


 7298      425F425F 
 7298      4341505F 
 7298      3235554E 
 7298      495400
 7299              	.LASF424:
 7300 1701 43795541 		.ascii	"CyUAB_F_CAP_0100fF\000"
 7300      425F465F 
 7300      4341505F 
 7300      30313030 
 7300      664600
 7301              	.LASF559:
 7302 1714 73756273 		.ascii	"subsample\000"
 7302      616D706C 
 7302      6500
 7303              	.LASF177:
 7304 171e 43795541 		.ascii	"CyUAB_CAP_0550fF\000"
 7304      425F4341 
 7304      505F3035 
 7304      35306646 
 7304      00
 7305              	.LASF369:
 7306 172f 43795541 		.ascii	"CyUAB_B_CAP_11UNIT\000"
 7306      425F425F 
 7306      4341505F 
 7306      3131554E 
 7306      495400
 7307              	.LASF453:
 7308 1742 43795541 		.ascii	"CyUAB_F_CAP_3000fF\000"
 7308      425F465F 
 7308      4341505F 
 7308      33303030 
 7308      664600
 7309              	.LASF47:
 7310 1755 43795541 		.ascii	"CyUAB_REF_SEPARATE\000"
 7310      425F5245 
 7310      465F5345 
 7310      50415241 
 7310      544500
 7311              	.LASF8:
 7312 1768 756E7369 		.ascii	"unsigned int\000"
 7312      676E6564 
 7312      20696E74 
 7312      00
 7313              	.LASF207:
 7314 1775 43795541 		.ascii	"CyUAB_CAP_2050fF\000"
 7314      425F4341 
 7314      505F3230 
 7314      35306646 
 7314      00
 7315              	.LASF182:
 7316 1786 43795541 		.ascii	"CyUAB_CAP_0800fF\000"
 7316      425F4341 
 7316      505F3038 
 7316      30306646 
 7316      00
 7317              	.LASF29:
 7318 1797 43795541 		.ascii	"CyUAB_intr_enum\000"
ARM GAS  C:\Users\Jerry\AppData\Local\Temp\cc1IKG0O.s 			page 185


 7318      425F696E 
 7318      74725F65 
 7318      6E756D00 
 7319              	.LASF414:
 7320 17a7 43795541 		.ascii	"CyUAB_B_CAP_56UNIT\000"
 7320      425F425F 
 7320      4341505F 
 7320      3536554E 
 7320      495400
 7321              	.LASF458:
 7322 17ba 43795541 		.ascii	"CyUAB_F_CAP_06UNIT\000"
 7322      425F465F 
 7322      4341505F 
 7322      3036554E 
 7322      495400
 7323              	.LASF212:
 7324 17cd 43795541 		.ascii	"CyUAB_CAP_2300fF\000"
 7324      425F4341 
 7324      505F3233 
 7324      30306646 
 7324      00
 7325              	.LASF307:
 7326 17de 43795541 		.ascii	"CyUAB_B_CAP_0650fF\000"
 7326      425F425F 
 7326      4341505F 
 7326      30363530 
 7326      664600
 7327              	.LASF95:
 7328 17f1 43795541 		.ascii	"CyUAB_clk_enum\000"
 7328      425F636C 
 7328      6B5F656E 
 7328      756D00
 7329              	.LASF399:
 7330 1800 43795541 		.ascii	"CyUAB_B_CAP_41UNIT\000"
 7330      425F425F 
 7330      4341505F 
 7330      3431554E 
 7330      495400
 7331              	.LASF41:
 7332 1813 43795541 		.ascii	"CyUAB_AGND_NORMAL\000"
 7332      425F4147 
 7332      4E445F4E 
 7332      4F524D41 
 7332      4C00
 7333              	.LASF161:
 7334 1825 43795541 		.ascii	"CyUAB_SW_C_BOOST\000"
 7334      425F5357 
 7334      5F435F42 
 7334      4F4F5354 
 7334      00
 7335              	.LASF517:
 7336 1836 6276616C 		.ascii	"bval\000"
 7336      00
 7337              	.LASF537:
 7338 183b 43465F56 		.ascii	"CF_VAL_PRESHIFT_MASK\000"
 7338      414C5F50 
 7338      52455348 
ARM GAS  C:\Users\Jerry\AppData\Local\Temp\cc1IKG0O.s 			page 186


 7338      4946545F 
 7338      4D41534B 
 7339              	.LASF549:
 7340 1850 666C6167 		.ascii	"flag\000"
 7340      00
 7341              	.LASF155:
 7342 1855 43795541 		.ascii	"CyUAB_SW_VALID\000"
 7342      425F5357 
 7342      5F56414C 
 7342      494400
 7343              	.LASF257:
 7344 1864 43795541 		.ascii	"CyUAB_CAP_28UNIT\000"
 7344      425F4341 
 7344      505F3238 
 7344      554E4954 
 7344      00
 7345              	.LASF501:
 7346 1875 56444143 		.ascii	"VDAC_Synth_UAB_SetOAPower\000"
 7346      5F53796E 
 7346      74685F55 
 7346      41425F53 
 7346      65744F41 
 7347              	.LASF243:
 7348 188f 43795541 		.ascii	"CyUAB_CAP_14UNIT\000"
 7348      425F4341 
 7348      505F3134 
 7348      554E4954 
 7348      00
 7349              	.LASF481:
 7350 18a0 43795541 		.ascii	"CyUAB_F_CAP_52UNIT\000"
 7350      425F465F 
 7350      4341505F 
 7350      3532554E 
 7350      495400
 7351              	.LASF341:
 7352 18b3 43795541 		.ascii	"CyUAB_B_CAP_2350fF\000"
 7352      425F425F 
 7352      4341505F 
 7352      32333530 
 7352      664600
 7353              	.LASF540:
 7354 18c6 64657465 		.ascii	"detectMode\000"
 7354      63744D6F 
 7354      646500
 7355              	.LASF33:
 7356 18d1 43795541 		.ascii	"CyUAB_CMP_EDGE_BOTH\000"
 7356      425F434D 
 7356      505F4544 
 7356      47455F42 
 7356      4F544800 
 7357              	.LASF346:
 7358 18e5 43795541 		.ascii	"CyUAB_B_CAP_2600fF\000"
 7358      425F425F 
 7358      4341505F 
 7358      32363030 
 7358      664600
 7359              	.LASF274:
ARM GAS  C:\Users\Jerry\AppData\Local\Temp\cc1IKG0O.s 			page 187


 7360 18f8 43795541 		.ascii	"CyUAB_CAP_45UNIT\000"
 7360      425F4341 
 7360      505F3435 
 7360      554E4954 
 7360      00
 7361              	.LASF318:
 7362 1909 43795541 		.ascii	"CyUAB_B_CAP_1200fF\000"
 7362      425F425F 
 7362      4341505F 
 7362      31323030 
 7362      664600
 7363              	.LASF260:
 7364 191c 43795541 		.ascii	"CyUAB_CAP_31UNIT\000"
 7364      425F4341 
 7364      505F3331 
 7364      554E4954 
 7364      00
 7365              	.LASF289:
 7366 192d 43795541 		.ascii	"CyUAB_CAP_60UNIT\000"
 7366      425F4341 
 7366      505F3630 
 7366      554E4954 
 7366      00
 7367              	.LASF359:
 7368 193e 43795541 		.ascii	"CyUAB_B_CAP_01UNIT\000"
 7368      425F425F 
 7368      4341505F 
 7368      3031554E 
 7368      495400
 7369              	.LASF23:
 7370 1951 73686172 		.ascii	"shared_sw\000"
 7370      65645F73 
 7370      7700
 7371              	.LASF108:
 7372 195b 43795541 		.ascii	"CyUAB_SW_AX3_MODBIT\000"
 7372      425F5357 
 7372      5F415833 
 7372      5F4D4F44 
 7372      42495400 
 7373              	.LASF70:
 7374 196f 43795541 		.ascii	"CyUAB_DAC_MODE_SIGNED13\000"
 7374      425F4441 
 7374      435F4D4F 
 7374      44455F53 
 7374      49474E45 
 7375              	.LASF136:
 7376 1987 43795541 		.ascii	"CyUAB_SW_CX2_MODBIT\000"
 7376      425F5357 
 7376      5F435832 
 7376      5F4D4F44 
 7376      42495400 
 7377              	.LASF375:
 7378 199b 43795541 		.ascii	"CyUAB_B_CAP_17UNIT\000"
 7378      425F425F 
 7378      4341505F 
 7378      3137554E 
 7378      495400
ARM GAS  C:\Users\Jerry\AppData\Local\Temp\cc1IKG0O.s 			page 188


 7379              	.LASF445:
 7380 19ae 43795541 		.ascii	"CyUAB_F_CAP_2200fF\000"
 7380      425F465F 
 7380      4341505F 
 7380      32323030 
 7380      664600
 7381              	.LASF219:
 7382 19c1 43795541 		.ascii	"CyUAB_CAP_2650fF\000"
 7382      425F4341 
 7382      505F3236 
 7382      35306646 
 7382      00
 7383              	.LASF390:
 7384 19d2 43795541 		.ascii	"CyUAB_B_CAP_32UNIT\000"
 7384      425F425F 
 7384      4341505F 
 7384      3332554E 
 7384      495400
 7385              	.LASF34:
 7386 19e5 43795541 		.ascii	"CyUAB_cmp_edge_enum\000"
 7386      425F636D 
 7386      705F6564 
 7386      67655F65 
 7386      6E756D00 
 7387              	.LASF191:
 7388 19f9 43795541 		.ascii	"CyUAB_CAP_1250fF\000"
 7388      425F4341 
 7388      505F3132 
 7388      35306646 
 7388      00
 7389              	.LASF68:
 7390 1a0a 43795541 		.ascii	"CyUAB_DAC_MODE_UNSIGNED12\000"
 7390      425F4441 
 7390      435F4D4F 
 7390      44455F55 
 7390      4E534947 
 7391              	.LASF496:
 7392 1a24 56444143 		.ascii	"VDAC_Synth_UAB_SetInterrupt\000"
 7392      5F53796E 
 7392      74685F55 
 7392      41425F53 
 7392      6574496E 
 7393              	.LASF224:
 7394 1a40 43795541 		.ascii	"CyUAB_CAP_2900fF\000"
 7394      425F4341 
 7394      505F3239 
 7394      30306646 
 7394      00
 7395              	.LASF24:
 7396 1a51 73746570 		.ascii	"stepCount\000"
 7396      436F756E 
 7396      7400
 7397              	.LASF196:
 7398 1a5b 43795541 		.ascii	"CyUAB_CAP_1500fF\000"
 7398      425F4341 
 7398      505F3135 
 7398      30306646 
ARM GAS  C:\Users\Jerry\AppData\Local\Temp\cc1IKG0O.s 			page 189


 7398      00
 7399              	.LASF168:
 7400 1a6c 43795541 		.ascii	"CyUAB_CAP_0100fF\000"
 7400      425F4341 
 7400      505F3031 
 7400      30306646 
 7400      00
 7401              	.LASF421:
 7402 1a7d 43795541 		.ascii	"CyUAB_B_CAP_63UNIT\000"
 7402      425F425F 
 7402      4341505F 
 7402      3633554E 
 7402      495400
 7403              	.LASF146:
 7404 1a90 43795541 		.ascii	"CyUAB_SW_VC_MODBIT\000"
 7404      425F5357 
 7404      5F56435F 
 7404      4D4F4442 
 7404      495400
 7405              	.LASF87:
 7406 1aa3 43795541 		.ascii	"CyUAB_CLK_PHI6\000"
 7406      425F434C 
 7406      4B5F5048 
 7406      493600
 7407              	.LASF226:
 7408 1ab2 43795541 		.ascii	"CyUAB_CAP_3000fF\000"
 7408      425F4341 
 7408      505F3330 
 7408      30306646 
 7408      00
 7409              	.LASF313:
 7410 1ac3 43795541 		.ascii	"CyUAB_B_CAP_0950fF\000"
 7410      425F425F 
 7410      4341505F 
 7410      30393530 
 7410      664600
 7411              	.LASF550:
 7412 1ad6 56444143 		.ascii	"VDAC_Synth_UAB_Start\000"
 7412      5F53796E 
 7412      74685F55 
 7412      41425F53 
 7412      74617274 
 7413              	.LASF67:
 7414 1aeb 43795541 		.ascii	"CyUAB_dac_mode_en_enum\000"
 7414      425F6461 
 7414      635F6D6F 
 7414      64655F65 
 7414      6E5F656E 
 7415              	.LASF580:
 7416 1b02 56444143 		.ascii	"VDAC_Synth_UAB_SetSwitch\000"
 7416      5F53796E 
 7416      74685F55 
 7416      41425F53 
 7416      65745377 
 7417              	.LASF484:
 7418 1b1b 43795541 		.ascii	"CyUAB_F_CAP_58UNIT\000"
 7418      425F465F 
ARM GAS  C:\Users\Jerry\AppData\Local\Temp\cc1IKG0O.s 			page 190


 7418      4341505F 
 7418      3538554E 
 7418      495400
 7419              	.LASF529:
 7420 1b2e 6973456E 		.ascii	"isEnabled\000"
 7420      61626C65 
 7420      6400
 7421              	.LASF58:
 7422 1b38 43795541 		.ascii	"CyUAB_PWR_NORMAL\000"
 7422      425F5057 
 7422      525F4E4F 
 7422      524D414C 
 7422      00
 7423              	.LASF235:
 7424 1b49 43795541 		.ascii	"CyUAB_CAP_06UNIT\000"
 7424      425F4341 
 7424      505F3036 
 7424      554E4954 
 7424      00
 7425              	.LASF353:
 7426 1b5a 43795541 		.ascii	"CyUAB_B_CAP_2950fF\000"
 7426      425F425F 
 7426      4341505F 
 7426      32393530 
 7426      664600
 7427              	.LASF558:
 7428 1b6d 56444143 		.ascii	"VDAC_Synth_UAB_SetSubsample\000"
 7428      5F53796E 
 7428      74685F55 
 7428      41425F53 
 7428      65745375 
 7429              	.LASF325:
 7430 1b89 43795541 		.ascii	"CyUAB_B_CAP_1550fF\000"
 7430      425F425F 
 7430      4341505F 
 7430      31353530 
 7430      664600
 7431              	.LASF571:
 7432 1b9c 56444143 		.ascii	"VDAC_Synth_UAB_SetStrobeSource\000"
 7432      5F53796E 
 7432      74685F55 
 7432      41425F53 
 7432      65745374 
 7433              	.LASF298:
 7434 1bbb 43795541 		.ascii	"CyUAB_B_CAP_0200fF\000"
 7434      425F425F 
 7434      4341505F 
 7434      30323030 
 7434      664600
 7435              	.LASF250:
 7436 1bce 43795541 		.ascii	"CyUAB_CAP_21UNIT\000"
 7436      425F4341 
 7436      505F3231 
 7436      554E4954 
 7436      00
 7437              	.LASF523:
 7438 1bdf 56444143 		.ascii	"VDAC_Synth_UAB_SetGroundUnused\000"
ARM GAS  C:\Users\Jerry\AppData\Local\Temp\cc1IKG0O.s 			page 191


 7438      5F53796E 
 7438      74685F55 
 7438      41425F53 
 7438      65744772 
 7439              	.LASF25:
 7440 1bfe 70616972 		.ascii	"pairCount\000"
 7440      436F756E 
 7440      7400
 7441              	.LASF355:
 7442 1c08 43795541 		.ascii	"CyUAB_B_CAP_3050fF\000"
 7442      425F425F 
 7442      4341505F 
 7442      33303530 
 7442      664600
 7443              	.LASF330:
 7444 1c1b 43795541 		.ascii	"CyUAB_B_CAP_1800fF\000"
 7444      425F425F 
 7444      4341505F 
 7444      31383030 
 7444      664600
 7445              	.LASF466:
 7446 1c2e 43795541 		.ascii	"CyUAB_F_CAP_22UNIT\000"
 7446      425F465F 
 7446      4341505F 
 7446      3232554E 
 7446      495400
 7447              	.LASF266:
 7448 1c41 43795541 		.ascii	"CyUAB_CAP_37UNIT\000"
 7448      425F4341 
 7448      505F3337 
 7448      554E4954 
 7448      00
 7449              	.LASF187:
 7450 1c52 43795541 		.ascii	"CyUAB_CAP_1050fF\000"
 7450      425F4341 
 7450      505F3130 
 7450      35306646 
 7450      00
 7451              	.LASF504:
 7452 1c63 56444143 		.ascii	"VDAC_Synth_UAB_SetAgndPower\000"
 7452      5F53796E 
 7452      74685F55 
 7452      41425F53 
 7452      65744167 
 7453              	.LASF76:
 7454 1c7f 43795541 		.ascii	"CyUAB_CLK_ADJ_EARLY\000"
 7454      425F434C 
 7454      4B5F4144 
 7454      4A5F4541 
 7454      524C5900 
 7455              	.LASF365:
 7456 1c93 43795541 		.ascii	"CyUAB_B_CAP_07UNIT\000"
 7456      425F425F 
 7456      4341505F 
 7456      3037554E 
 7456      495400
 7457              	.LASF281:
ARM GAS  C:\Users\Jerry\AppData\Local\Temp\cc1IKG0O.s 			page 192


 7458 1ca6 43795541 		.ascii	"CyUAB_CAP_52UNIT\000"
 7458      425F4341 
 7458      505F3532 
 7458      554E4954 
 7458      00
 7459              	.LASF7:
 7460 1cb7 6C6F6E67 		.ascii	"long long unsigned int\000"
 7460      206C6F6E 
 7460      6720756E 
 7460      7369676E 
 7460      65642069 
 7461              	.LASF579:
 7462 1cce 56444143 		.ascii	"VDAC_Synth_UAB_SetStaticSwitch\000"
 7462      5F53796E 
 7462      74685F55 
 7462      41425F53 
 7462      65745374 
 7463              	.LASF575:
 7464 1ced 74726967 		.ascii	"triggerEn\000"
 7464      67657245 
 7464      6E00
 7465              	.LASF130:
 7466 1cf7 43795541 		.ascii	"CyUAB_SW_GB_MODBIT\000"
 7466      425F5357 
 7466      5F47425F 
 7466      4D4F4442 
 7466      495400
 7467              	.LASF460:
 7468 1d0a 43795541 		.ascii	"CyUAB_F_CAP_10UNIT\000"
 7468      425F465F 
 7468      4341505F 
 7468      3130554E 
 7468      495400
 7469              	.LASF17:
 7470 1d1d 72656733 		.ascii	"reg32\000"
 7470      3200
 7471              	.LASF564:
 7472 1d23 56444143 		.ascii	"VDAC_Synth_UAB_SetModbitSource\000"
 7472      5F53796E 
 7472      74685F55 
 7472      41425F53 
 7472      65744D6F 
 7473              	.LASF55:
 7474 1d42 43795541 		.ascii	"CyUAB_PWR_7_8\000"
 7474      425F5057 
 7474      525F375F 
 7474      3800
 7475              	.LASF396:
 7476 1d50 43795541 		.ascii	"CyUAB_B_CAP_38UNIT\000"
 7476      425F425F 
 7476      4341505F 
 7476      3338554E 
 7476      495400
 7477              	.LASF437:
 7478 1d63 43795541 		.ascii	"CyUAB_F_CAP_1400fF\000"
 7478      425F465F 
 7478      4341505F 
ARM GAS  C:\Users\Jerry\AppData\Local\Temp\cc1IKG0O.s 			page 193


 7478      31343030 
 7478      664600
 7479              	.LASF203:
 7480 1d76 43795541 		.ascii	"CyUAB_CAP_1850fF\000"
 7480      425F4341 
 7480      505F3138 
 7480      35306646 
 7480      00
 7481              	.LASF382:
 7482 1d87 43795541 		.ascii	"CyUAB_B_CAP_24UNIT\000"
 7482      425F425F 
 7482      4341505F 
 7482      3234554E 
 7482      495400
 7483              	.LASF531:
 7484 1d9a 6461634D 		.ascii	"dacMode\000"
 7484      6F646500 
 7485              	.LASF156:
 7486 1da2 43795541 		.ascii	"CyUAB_SW_TRIG_OUT\000"
 7486      425F5357 
 7486      5F545249 
 7486      475F4F55 
 7486      5400
 7487              	.LASF164:
 7488 1db4 43795541 		.ascii	"CyUAB_SW_PUMP_WAVE\000"
 7488      425F5357 
 7488      5F50554D 
 7488      505F5741 
 7488      564500
 7489              	.LASF368:
 7490 1dc7 43795541 		.ascii	"CyUAB_B_CAP_10UNIT\000"
 7490      425F425F 
 7490      4341505F 
 7490      3130554E 
 7490      495400
 7491              	.LASF105:
 7492 1dda 43795541 		.ascii	"CyUAB_SW_AX0_MODBIT\000"
 7492      425F5357 
 7492      5F415830 
 7492      5F4D4F44 
 7492      42495400 
 7493              	.LASF538:
 7494 1dee 43435F56 		.ascii	"CC_VAL_PRESHIFT_MASK\000"
 7494      414C5F50 
 7494      52455348 
 7494      4946545F 
 7494      4D41534B 
 7495              	.LASF180:
 7496 1e03 43795541 		.ascii	"CyUAB_CAP_0700fF\000"
 7496      425F4341 
 7496      505F3037 
 7496      30306646 
 7496      00
 7497              	.LASF139:
 7498 1e14 43795541 		.ascii	"CyUAB_SW_CQ\000"
 7498      425F5357 
 7498      5F435100 
ARM GAS  C:\Users\Jerry\AppData\Local\Temp\cc1IKG0O.s 			page 194


 7499              	.LASF94:
 7500 1e20 43795541 		.ascii	"CyUAB_SW_CLOSED\000"
 7500      425F5357 
 7500      5F434C4F 
 7500      53454400 
 7501              	.LASF169:
 7502 1e30 43795541 		.ascii	"CyUAB_CAP_0150fF\000"
 7502      425F4341 
 7502      505F3031 
 7502      35306646 
 7502      00
 7503              	.LASF413:
 7504 1e41 43795541 		.ascii	"CyUAB_B_CAP_55UNIT\000"
 7504      425F425F 
 7504      4341505F 
 7504      3535554E 
 7504      495400
 7505              	.LASF530:
 7506 1e54 56444143 		.ascii	"VDAC_Synth_UAB_SetDacMode\000"
 7506      5F53796E 
 7506      74685F55 
 7506      41425F53 
 7506      65744461 
 7507              	.LASF50:
 7508 1e6e 43795541 		.ascii	"CyUAB_PWR_OFF\000"
 7508      425F5057 
 7508      525F4F46 
 7508      4600
 7509              	.LASF472:
 7510 1e7c 43795541 		.ascii	"CyUAB_F_CAP_34UNIT\000"
 7510      425F465F 
 7510      4341505F 
 7510      3334554E 
 7510      495400
 7511              	.LASF49:
 7512 1e8f 43795541 		.ascii	"CyUAB_ref_tied_enum\000"
 7512      425F7265 
 7512      665F7469 
 7512      65645F65 
 7512      6E756D00 
 7513              	.LASF162:
 7514 1ea3 43795541 		.ascii	"CyUAB_SW_F_BOOST\000"
 7514      425F5357 
 7514      5F465F42 
 7514      4F4F5354 
 7514      00
 7515              	.LASF305:
 7516 1eb4 43795541 		.ascii	"CyUAB_B_CAP_0550fF\000"
 7516      425F425F 
 7516      4341505F 
 7516      30353530 
 7516      664600
 7517              	.LASF149:
 7518 1ec7 43795541 		.ascii	"CyUAB_SW_ZC\000"
 7518      425F5357 
 7518      5F5A4300 
 7519              	.LASF80:
ARM GAS  C:\Users\Jerry\AppData\Local\Temp\cc1IKG0O.s 			page 195


 7520 1ed3 43795541 		.ascii	"CyUAB_strobe_mode_enum\000"
 7520      425F7374 
 7520      726F6265 
 7520      5F6D6F64 
 7520      655F656E 
 7521              	.LASF116:
 7522 1eea 43795541 		.ascii	"CyUAB_SW_GA_MODBIT\000"
 7522      425F5357 
 7522      5F47415F 
 7522      4D4F4442 
 7522      495400
 7523              	.LASF515:
 7524 1efd 63617042 		.ascii	"capB\000"
 7524      00
 7525              	.LASF587:
 7526 1f02 474E5520 		.ascii	"GNU C 4.9.3 20150303 (release) [ARM/embedded-4_9-br"
 7526      4320342E 
 7526      392E3320 
 7526      32303135 
 7526      30333033 
 7527 1f35 616E6368 		.ascii	"anch revision 221220] -mcpu=cortex-m0plus -mthumb -"
 7527      20726576 
 7527      6973696F 
 7527      6E203232 
 7527      31323230 
 7528 1f68 67202D4F 		.ascii	"g -Os -ffunction-sections -ffat-lto-objects\000"
 7528      73202D66 
 7528      66756E63 
 7528      74696F6E 
 7528      2D736563 
 7529              	.LASF158:
 7530 1f94 43795541 		.ascii	"CyUAB_SW_STROBE_RST\000"
 7530      425F5357 
 7530      5F535452 
 7530      4F42455F 
 7530      52535400 
 7531              	.LASF114:
 7532 1fa8 43795541 		.ascii	"CyUAB_SW_AV_MODBIT\000"
 7532      425F5357 
 7532      5F41565F 
 7532      4D4F4442 
 7532      495400
 7533              	.LASF256:
 7534 1fbb 43795541 		.ascii	"CyUAB_CAP_27UNIT\000"
 7534      425F4341 
 7534      505F3237 
 7534      554E4954 
 7534      00
 7535              	.LASF40:
 7536 1fcc 43795541 		.ascii	"CyUAB_ref_force_vdda_enum\000"
 7536      425F7265 
 7536      665F666F 
 7536      7263655F 
 7536      76646461 
 7537              	.LASF242:
 7538 1fe6 43795541 		.ascii	"CyUAB_CAP_13UNIT\000"
 7538      425F4341 
ARM GAS  C:\Users\Jerry\AppData\Local\Temp\cc1IKG0O.s 			page 196


 7538      505F3133 
 7538      554E4954 
 7538      00
 7539              	.LASF572:
 7540 1ff7 7374726F 		.ascii	"strobeSource\000"
 7540      6265536F 
 7540      75726365 
 7540      00
 7541              	.LASF71:
 7542 2004 43795541 		.ascii	"CyUAB_dac_mode_enum\000"
 7542      425F6461 
 7542      635F6D6F 
 7542      64655F65 
 7542      6E756D00 
 7543              	.LASF73:
 7544 2018 43795541 		.ascii	"CyUAB_ALIGN_MODE_UNSCHEDULED\000"
 7544      425F414C 
 7544      49474E5F 
 7544      4D4F4445 
 7544      5F554E53 
 7545              	.LASF287:
 7546 2035 43795541 		.ascii	"CyUAB_CAP_58UNIT\000"
 7546      425F4341 
 7546      505F3538 
 7546      554E4954 
 7546      00
 7547              	.LASF398:
 7548 2046 43795541 		.ascii	"CyUAB_B_CAP_40UNIT\000"
 7548      425F425F 
 7548      4341505F 
 7548      3430554E 
 7548      495400
 7549              	.LASF344:
 7550 2059 43795541 		.ascii	"CyUAB_B_CAP_2500fF\000"
 7550      425F425F 
 7550      4341505F 
 7550      32353030 
 7550      664600
 7551              	.LASF273:
 7552 206c 43795541 		.ascii	"CyUAB_CAP_44UNIT\000"
 7552      425F4341 
 7552      505F3434 
 7552      554E4954 
 7552      00
 7553              	.LASF316:
 7554 207d 43795541 		.ascii	"CyUAB_B_CAP_1100fF\000"
 7554      425F425F 
 7554      4341505F 
 7554      31313030 
 7554      664600
 7555              	.LASF465:
 7556 2090 43795541 		.ascii	"CyUAB_F_CAP_20UNIT\000"
 7556      425F465F 
 7556      4341505F 
 7556      3230554E 
 7556      495400
 7557              	.LASF144:
ARM GAS  C:\Users\Jerry\AppData\Local\Temp\cc1IKG0O.s 			page 197


 7558 20a3 43795541 		.ascii	"CyUAB_SW_RC_MODBIT\000"
 7558      425F5357 
 7558      5F52435F 
 7558      4D4F4442 
 7558      495400
 7559              	.LASF60:
 7560 20b6 43795541 		.ascii	"CyUAB_PWR_ULTRA_HIGH\000"
 7560      425F5057 
 7560      525F554C 
 7560      5452415F 
 7560      48494748 
 7561              	.LASF463:
 7562 20cb 43795541 		.ascii	"CyUAB_F_CAP_16UNIT\000"
 7562      425F465F 
 7562      4341505F 
 7562      3136554E 
 7562      495400
 7563              	.LASF69:
 7564 20de 43795541 		.ascii	"CyUAB_DAC_MODE_VIRT_SIGNED12\000"
 7564      425F4441 
 7564      435F4D4F 
 7564      44455F56 
 7564      4952545F 
 7565              	.LASF127:
 7566 20fb 43795541 		.ascii	"CyUAB_SW_BG_MODBIT\000"
 7566      425F5357 
 7566      5F42475F 
 7566      4D4F4442 
 7566      495400
 7567              	.LASF75:
 7568 210e 43795541 		.ascii	"CyUAB_CLK_ADJ_NOEARLY\000"
 7568      425F434C 
 7568      4B5F4144 
 7568      4A5F4E4F 
 7568      4541524C 
 7569              	.LASF62:
 7570 2124 43795541 		.ascii	"CyUAB_CAP_FLOAT\000"
 7570      425F4341 
 7570      505F464C 
 7570      4F415400 
 7571              	.LASF374:
 7572 2134 43795541 		.ascii	"CyUAB_B_CAP_16UNIT\000"
 7572      425F425F 
 7572      4341505F 
 7572      3136554E 
 7572      495400
 7573              	.LASF21:
 7574 2147 77617665 		.ascii	"waveSteps\000"
 7574      53746570 
 7574      7300
 7575              	.LASF444:
 7576 2151 43795541 		.ascii	"CyUAB_F_CAP_2100fF\000"
 7576      425F465F 
 7576      4341505F 
 7576      32313030 
 7576      664600
 7577              	.LASF217:
ARM GAS  C:\Users\Jerry\AppData\Local\Temp\cc1IKG0O.s 			page 198


 7578 2164 43795541 		.ascii	"CyUAB_CAP_2550fF\000"
 7578      425F4341 
 7578      505F3235 
 7578      35306646 
 7578      00
 7579              	.LASF389:
 7580 2175 43795541 		.ascii	"CyUAB_B_CAP_31UNIT\000"
 7580      425F425F 
 7580      4341505F 
 7580      3331554E 
 7580      495400
 7581              	.LASF189:
 7582 2188 43795541 		.ascii	"CyUAB_CAP_1150fF\000"
 7582      425F4341 
 7582      505F3131 
 7582      35306646 
 7582      00
 7583              	.LASF555:
 7584 2199 64656C61 		.ascii	"delayCount\000"
 7584      79436F75 
 7584      6E7400
 7585              	.LASF493:
 7586 21a4 56444143 		.ascii	"VDAC_Synth_UAB_ClearInterrupt\000"
 7586      5F53796E 
 7586      74685F55 
 7586      41425F43 
 7586      6C656172 
 7587              	.LASF434:
 7588 21c2 43795541 		.ascii	"CyUAB_F_CAP_1100fF\000"
 7588      425F465F 
 7588      4341505F 
 7588      31313030 
 7588      664600
 7589              	.LASF222:
 7590 21d5 43795541 		.ascii	"CyUAB_CAP_2800fF\000"
 7590      425F4341 
 7590      505F3238 
 7590      30306646 
 7590      00
 7591              	.LASF566:
 7592 21e6 6D6F6462 		.ascii	"modbitSrcC\000"
 7592      69745372 
 7592      634300
 7593              	.LASF194:
 7594 21f1 43795541 		.ascii	"CyUAB_CAP_1400fF\000"
 7594      425F4341 
 7594      505F3134 
 7594      30306646 
 7594      00
 7595              	.LASF490:
 7596 2202 73697A65 		.ascii	"sizetype\000"
 7596      74797065 
 7596      00
 7597              	.LASF468:
 7598 220b 43795541 		.ascii	"CyUAB_F_CAP_26UNIT\000"
 7598      425F465F 
 7598      4341505F 
ARM GAS  C:\Users\Jerry\AppData\Local\Temp\cc1IKG0O.s 			page 199


 7598      3236554E 
 7598      495400
 7599              	.LASF420:
 7600 221e 43795541 		.ascii	"CyUAB_B_CAP_62UNIT\000"
 7600      425F425F 
 7600      4341505F 
 7600      3632554E 
 7600      495400
 7601              	.LASF121:
 7602 2231 43795541 		.ascii	"CyUAB_SW_BX2_MODBIT\000"
 7602      425F5357 
 7602      5F425832 
 7602      5F4D4F44 
 7602      42495400 
 7603              	.LASF9:
 7604 2245 75696E74 		.ascii	"uint8\000"
 7604      3800
 7605              	.LASF79:
 7606 224b 43795541 		.ascii	"CyUAB_STROBE_MODE_RESET\000"
 7606      425F5354 
 7606      524F4245 
 7606      5F4D4F44 
 7606      455F5245 
 7607              	.LASF248:
 7608 2263 43795541 		.ascii	"CyUAB_CAP_19UNIT\000"
 7608      425F4341 
 7608      505F3139 
 7608      554E4954 
 7608      00
 7609              	.LASF2:
 7610 2274 73686F72 		.ascii	"short int\000"
 7610      7420696E 
 7610      7400
 7611              	.LASF234:
 7612 227e 43795541 		.ascii	"CyUAB_CAP_05UNIT\000"
 7612      425F4341 
 7612      505F3035 
 7612      554E4954 
 7612      00
 7613              	.LASF351:
 7614 228f 43795541 		.ascii	"CyUAB_B_CAP_2850fF\000"
 7614      425F425F 
 7614      4341505F 
 7614      32383530 
 7614      664600
 7615              	.LASF323:
 7616 22a2 43795541 		.ascii	"CyUAB_B_CAP_1450fF\000"
 7616      425F425F 
 7616      4341505F 
 7616      31343530 
 7616      664600
 7617              	.LASF544:
 7618 22b5 56444143 		.ascii	"VDAC_Synth_UAB_GetCompStatus\000"
 7618      5F53796E 
 7618      74685F55 
 7618      41425F47 
 7618      6574436F 
ARM GAS  C:\Users\Jerry\AppData\Local\Temp\cc1IKG0O.s 			page 200


 7619              	.LASF296:
 7620 22d2 43795541 		.ascii	"CyUAB_B_CAP_0100fF\000"
 7620      425F425F 
 7620      4341505F 
 7620      30313030 
 7620      664600
 7621              	.LASF535:
 7622 22e5 6E657874 		.ascii	"nextCapC\000"
 7622      43617043 
 7622      00
 7623              	.LASF249:
 7624 22ee 43795541 		.ascii	"CyUAB_CAP_20UNIT\000"
 7624      425F4341 
 7624      505F3230 
 7624      554E4954 
 7624      00
 7625              	.LASF576:
 7626 22ff 74726967 		.ascii	"triggerSel\000"
 7626      67657253 
 7626      656C00
 7627              	.LASF279:
 7628 230a 43795541 		.ascii	"CyUAB_CAP_50UNIT\000"
 7628      425F4341 
 7628      505F3530 
 7628      554E4954 
 7628      00
 7629              	.LASF328:
 7630 231b 43795541 		.ascii	"CyUAB_B_CAP_1700fF\000"
 7630      425F425F 
 7630      4341505F 
 7630      31373030 
 7630      664600
 7631              	.LASF560:
 7632 232e 56444143 		.ascii	"VDAC_Synth_UAB_SetSubsampleInit\000"
 7632      5F53796E 
 7632      74685F55 
 7632      41425F53 
 7632      65745375 
 7633              	.LASF265:
 7634 234e 43795541 		.ascii	"CyUAB_CAP_36UNIT\000"
 7634      425F4341 
 7634      505F3336 
 7634      554E4954 
 7634      00
 7635              	.LASF166:
 7636 235f 43795541 		.ascii	"CyUAB_CAP_OPEN\000"
 7636      425F4341 
 7636      505F4F50 
 7636      454E00
 7637              	.LASF358:
 7638 236e 43795541 		.ascii	"CyUAB_B_CAP_3200fF\000"
 7638      425F425F 
 7638      4341505F 
 7638      33323030 
 7638      664600
 7639              	.LASF364:
 7640 2381 43795541 		.ascii	"CyUAB_B_CAP_06UNIT\000"
ARM GAS  C:\Users\Jerry\AppData\Local\Temp\cc1IKG0O.s 			page 201


 7640      425F425F 
 7640      4341505F 
 7640      3036554E 
 7640      495400
 7641              	.LASF280:
 7642 2394 43795541 		.ascii	"CyUAB_CAP_51UNIT\000"
 7642      425F4341 
 7642      505F3531 
 7642      554E4954 
 7642      00
 7643              	.LASF539:
 7644 23a5 56444143 		.ascii	"VDAC_Synth_UAB_SetCompEdgeDetect\000"
 7644      5F53796E 
 7644      74685F55 
 7644      41425F53 
 7644      6574436F 
 7645              	.LASF157:
 7646 23c6 43795541 		.ascii	"CyUAB_SW_STROBE_SW\000"
 7646      425F5357 
 7646      5F535452 
 7646      4F42455F 
 7646      535700
 7647              	.LASF524:
 7648 23d9 676E6455 		.ascii	"gndUnusedB\000"
 7648      6E757365 
 7648      644200
 7649              	.LASF525:
 7650 23e4 676E6455 		.ascii	"gndUnusedC\000"
 7650      6E757365 
 7650      644300
 7651              	.LASF20:
 7652 23ef 43795541 		.ascii	"CyUAB_reg_pair\000"
 7652      425F7265 
 7652      675F7061 
 7652      697200
 7653              	.LASF395:
 7654 23fe 43795541 		.ascii	"CyUAB_B_CAP_37UNIT\000"
 7654      425F425F 
 7654      4341505F 
 7654      3337554E 
 7654      495400
 7655              	.LASF436:
 7656 2411 43795541 		.ascii	"CyUAB_F_CAP_1300fF\000"
 7656      425F465F 
 7656      4341505F 
 7656      31333030 
 7656      664600
 7657              	.LASF201:
 7658 2424 43795541 		.ascii	"CyUAB_CAP_1750fF\000"
 7658      425F4341 
 7658      505F3137 
 7658      35306646 
 7658      00
 7659              	.LASF381:
 7660 2435 43795541 		.ascii	"CyUAB_B_CAP_23UNIT\000"
 7660      425F425F 
 7660      4341505F 
ARM GAS  C:\Users\Jerry\AppData\Local\Temp\cc1IKG0O.s 			page 202


 7660      3233554E 
 7660      495400
 7661              	.LASF173:
 7662 2448 43795541 		.ascii	"CyUAB_CAP_0350fF\000"
 7662      425F4341 
 7662      505F3033 
 7662      35306646 
 7662      00
 7663              	.LASF586:
 7664 2459 43795541 		.ascii	"CyUAB_wordset\000"
 7664      425F776F 
 7664      72647365 
 7664      7400
 7665              	.LASF574:
 7666 2467 56444143 		.ascii	"VDAC_Synth_UAB_SetInputTrigger\000"
 7666      5F53796E 
 7666      74685F55 
 7666      41425F53 
 7666      6574496E 
 7667              	.LASF178:
 7668 2486 43795541 		.ascii	"CyUAB_CAP_0600fF\000"
 7668      425F4341 
 7668      505F3036 
 7668      30306646 
 7668      00
 7669              	.LASF112:
 7670 2497 43795541 		.ascii	"CyUAB_SW_AR_MODBIT\000"
 7670      425F5357 
 7670      5F41525F 
 7670      4D4F4442 
 7670      495400
 7671              	.LASF464:
 7672 24aa 43795541 		.ascii	"CyUAB_F_CAP_18UNIT\000"
 7672      425F465F 
 7672      4341505F 
 7672      3138554E 
 7672      495400
 7673              	.LASF12:
 7674 24bd 696E7431 		.ascii	"int16\000"
 7674      3600
 7675              	.LASF412:
 7676 24c3 43795541 		.ascii	"CyUAB_B_CAP_54UNIT\000"
 7676      425F425F 
 7676      4341505F 
 7676      3534554E 
 7676      495400
 7677              	.LASF457:
 7678 24d6 43795541 		.ascii	"CyUAB_F_CAP_04UNIT\000"
 7678      425F465F 
 7678      4341505F 
 7678      3034554E 
 7678      495400
 7679              	.LASF312:
 7680 24e9 43795541 		.ascii	"CyUAB_B_CAP_0900fF\000"
 7680      425F425F 
 7680      4341505F 
 7680      30393030 
ARM GAS  C:\Users\Jerry\AppData\Local\Temp\cc1IKG0O.s 			page 203


 7680      664600
 7681              	.LASF208:
 7682 24fc 43795541 		.ascii	"CyUAB_CAP_2100fF\000"
 7682      425F4341 
 7682      505F3231 
 7682      30306646 
 7682      00
 7683              	.LASF583:
 7684 250d 56444143 		.ascii	"VDAC_Synth_UAB_waveConfig\000"
 7684      5F53796E 
 7684      74685F55 
 7684      41425F77 
 7684      61766543 
 7685              	.LASF570:
 7686 2527 7374726F 		.ascii	"strobeMode\000"
 7686      62654D6F 
 7686      646500
 7687              	.LASF546:
 7688 2532 73775F69 		.ascii	"sw_id\000"
 7688      6400
 7689              	.LASF303:
 7690 2538 43795541 		.ascii	"CyUAB_B_CAP_0450fF\000"
 7690      425F425F 
 7690      4341505F 
 7690      30343530 
 7690      664600
 7691              	.LASF581:
 7692 254b 56444143 		.ascii	"VDAC_Synth_UAB_initVar\000"
 7692      5F53796E 
 7692      74685F55 
 7692      41425F69 
 7692      6E697456 
 7693              	.LASF48:
 7694 2562 43795541 		.ascii	"CyUAB_REF_TIED\000"
 7694      425F5245 
 7694      465F5449 
 7694      454400
 7695              	.LASF27:
 7696 2571 43795541 		.ascii	"CyUAB_INTR_COMP\000"
 7696      425F494E 
 7696      54525F43 
 7696      4F4D5000 
 7697              	.LASF308:
 7698 2581 43795541 		.ascii	"CyUAB_B_CAP_0700fF\000"
 7698      425F425F 
 7698      4341505F 
 7698      30373030 
 7698      664600
 7699              	.LASF52:
 7700 2594 43795541 		.ascii	"CyUAB_PWR_3_8\000"
 7700      425F5057 
 7700      525F335F 
 7700      3800
 7701              	.LASF511:
 7702 25a2 61676E64 		.ascii	"agndTied\000"
 7702      54696564 
 7702      00
ARM GAS  C:\Users\Jerry\AppData\Local\Temp\cc1IKG0O.s 			page 204


 7703              	.LASF255:
 7704 25ab 43795541 		.ascii	"CyUAB_CAP_26UNIT\000"
 7704      425F4341 
 7704      505F3236 
 7704      554E4954 
 7704      00
 7705              	.LASF487:
 7706 25bc 43795541 		.ascii	"CyUAB_F_CAP_64UNIT\000"
 7706      425F465F 
 7706      4341505F 
 7706      3634554E 
 7706      495400
 7707              	.LASF241:
 7708 25cf 43795541 		.ascii	"CyUAB_CAP_12UNIT\000"
 7708      425F4341 
 7708      505F3132 
 7708      554E4954 
 7708      00
 7709              	.LASF175:
 7710 25e0 43795541 		.ascii	"CyUAB_CAP_0450fF\000"
 7710      425F4341 
 7710      505F3034 
 7710      35306646 
 7710      00
 7711              	.LASF480:
 7712 25f1 43795541 		.ascii	"CyUAB_F_CAP_50UNIT\000"
 7712      425F465F 
 7712      4341505F 
 7712      3530554E 
 7712      495400
 7713              	.LASF451:
 7714 2604 43795541 		.ascii	"CyUAB_F_CAP_2800fF\000"
 7714      425F465F 
 7714      4341505F 
 7714      32383030 
 7714      664600
 7715              	.LASF337:
 7716 2617 43795541 		.ascii	"CyUAB_B_CAP_2150fF\000"
 7716      425F425F 
 7716      4341505F 
 7716      32313530 
 7716      664600
 7717              	.LASF406:
 7718 262a 43795541 		.ascii	"CyUAB_B_CAP_48UNIT\000"
 7718      425F425F 
 7718      4341505F 
 7718      3438554E 
 7718      495400
 7719              	.LASF508:
 7720 263d 56444143 		.ascii	"VDAC_Synth_UAB_SetRefTied\000"
 7720      5F53796E 
 7720      74685F55 
 7720      41425F53 
 7720      65745265 
 7721              	.LASF111:
 7722 2657 43795541 		.ascii	"CyUAB_SW_AA\000"
 7722      425F5357 
ARM GAS  C:\Users\Jerry\AppData\Local\Temp\cc1IKG0O.s 			page 205


 7722      5F414100 
 7723              	.LASF302:
 7724 2663 43795541 		.ascii	"CyUAB_B_CAP_0400fF\000"
 7724      425F425F 
 7724      4341505F 
 7724      30343030 
 7724      664600
 7725              	.LASF286:
 7726 2676 43795541 		.ascii	"CyUAB_CAP_57UNIT\000"
 7726      425F4341 
 7726      505F3537 
 7726      554E4954 
 7726      00
 7727              	.LASF342:
 7728 2687 43795541 		.ascii	"CyUAB_B_CAP_2400fF\000"
 7728      425F425F 
 7728      4341505F 
 7728      32343030 
 7728      664600
 7729              	.LASF272:
 7730 269a 43795541 		.ascii	"CyUAB_CAP_43UNIT\000"
 7730      425F4341 
 7730      505F3433 
 7730      554E4954 
 7730      00
 7731              	.LASF314:
 7732 26ab 43795541 		.ascii	"CyUAB_B_CAP_1000fF\000"
 7732      425F425F 
 7732      4341505F 
 7732      31303030 
 7732      664600
 7733              	.LASF109:
 7734 26be 43795541 		.ascii	"CyUAB_SW_AP\000"
 7734      425F5357 
 7734      5F415000 
 7735              	.LASF110:
 7736 26ca 43795541 		.ascii	"CyUAB_SW_AQ\000"
 7736      425F5357 
 7736      5F415100 
 7737              	.LASF45:
 7738 26d6 43795541 		.ascii	"CyUAB_AGND_TIED\000"
 7738      425F4147 
 7738      4E445F54 
 7738      49454400 
 7739              	.LASF590:
 7740 26e6 56444143 		.ascii	"VDAC_Synth_UAB_Enable\000"
 7740      5F53796E 
 7740      74685F55 
 7740      41425F45 
 7740      6E61626C 
 7741              	.LASF442:
 7742 26fc 43795541 		.ascii	"CyUAB_F_CAP_1900fF\000"
 7742      425F465F 
 7742      4341505F 
 7742      31393030 
 7742      664600
 7743              	.LASF3:
ARM GAS  C:\Users\Jerry\AppData\Local\Temp\cc1IKG0O.s 			page 206


 7744 270f 73686F72 		.ascii	"short unsigned int\000"
 7744      7420756E 
 7744      7369676E 
 7744      65642069 
 7744      6E7400
 7745              	.LASF387:
 7746 2722 43795541 		.ascii	"CyUAB_B_CAP_29UNIT\000"
 7746      425F425F 
 7746      4341505F 
 7746      3239554E 
 7746      495400
 7747              	.LASF428:
 7748 2735 43795541 		.ascii	"CyUAB_F_CAP_0500fF\000"
 7748      425F465F 
 7748      4341505F 
 7748      30353030 
 7748      664600
 7749              	.LASF185:
 7750 2748 43795541 		.ascii	"CyUAB_CAP_0950fF\000"
 7750      425F4341 
 7750      505F3039 
 7750      35306646 
 7750      00
 7751              	.LASF373:
 7752 2759 43795541 		.ascii	"CyUAB_B_CAP_15UNIT\000"
 7752      425F425F 
 7752      4341505F 
 7752      3135554E 
 7752      495400
 7753              	.LASF401:
 7754 276c 43795541 		.ascii	"CyUAB_B_CAP_43UNIT\000"
 7754      425F425F 
 7754      4341505F 
 7754      3433554E 
 7754      495400
 7755              	.LASF443:
 7756 277f 43795541 		.ascii	"CyUAB_F_CAP_2000fF\000"
 7756      425F465F 
 7756      4341505F 
 7756      32303030 
 7756      664600
 7757              	.LASF13:
 7758 2792 696E7433 		.ascii	"int32\000"
 7758      3200
 7759              	.LASF215:
 7760 2798 43795541 		.ascii	"CyUAB_CAP_2450fF\000"
 7760      425F4341 
 7760      505F3234 
 7760      35306646 
 7760      00
 7761              	.LASF388:
 7762 27a9 43795541 		.ascii	"CyUAB_B_CAP_30UNIT\000"
 7762      425F425F 
 7762      4341505F 
 7762      3330554E 
 7762      495400
 7763              	.LASF125:
ARM GAS  C:\Users\Jerry\AppData\Local\Temp\cc1IKG0O.s 			page 207


 7764 27bc 43795541 		.ascii	"CyUAB_SW_BB\000"
 7764      425F5357 
 7764      5F424200 
 7765              	.LASF220:
 7766 27c8 43795541 		.ascii	"CyUAB_CAP_2700fF\000"
 7766      425F4341 
 7766      505F3237 
 7766      30306646 
 7766      00
 7767              	.LASF123:
 7768 27d9 43795541 		.ascii	"CyUAB_SW_BP\000"
 7768      425F5357 
 7768      5F425000 
 7769              	.LASF124:
 7770 27e5 43795541 		.ascii	"CyUAB_SW_BQ\000"
 7770      425F5357 
 7770      5F425100 
 7771              	.LASF66:
 7772 27f1 43795541 		.ascii	"CyUAB_DAC_MODE_EN_ON\000"
 7772      425F4441 
 7772      435F4D4F 
 7772      44455F45 
 7772      4E5F4F4E 
 7773              	.LASF192:
 7774 2806 43795541 		.ascii	"CyUAB_CAP_1300fF\000"
 7774      425F4341 
 7774      505F3133 
 7774      30306646 
 7774      00
 7775              	.LASF419:
 7776 2817 43795541 		.ascii	"CyUAB_B_CAP_61UNIT\000"
 7776      425F425F 
 7776      4341505F 
 7776      3631554E 
 7776      495400
 7777              	.LASF128:
 7778 282a 43795541 		.ascii	"CyUAB_SW_BV_MODBIT\000"
 7778      425F5357 
 7778      5F42565F 
 7778      4D4F4442 
 7778      495400
 7779              	.LASF497:
 7780 283d 56444143 		.ascii	"VDAC_Synth_UAB_SetInterruptMask\000"
 7780      5F53796E 
 7780      74685F55 
 7780      41425F53 
 7780      6574496E 
 7781              	.LASF475:
 7782 285d 43795541 		.ascii	"CyUAB_F_CAP_40UNIT\000"
 7782      425F465F 
 7782      4341505F 
 7782      3430554E 
 7782      495400
 7783              	.LASF247:
 7784 2870 43795541 		.ascii	"CyUAB_CAP_18UNIT\000"
 7784      425F4341 
 7784      505F3138 
ARM GAS  C:\Users\Jerry\AppData\Local\Temp\cc1IKG0O.s 			page 208


 7784      554E4954 
 7784      00
 7785              	.LASF150:
 7786 2881 43795541 		.ascii	"CyUAB_SW_GF\000"
 7786      425F5357 
 7786      5F474600 
 7787              	.LASF483:
 7788 288d 43795541 		.ascii	"CyUAB_F_CAP_56UNIT\000"
 7788      425F465F 
 7788      4341505F 
 7788      3536554E 
 7788      495400
 7789              	.LASF233:
 7790 28a0 43795541 		.ascii	"CyUAB_CAP_04UNIT\000"
 7790      425F4341 
 7790      505F3034 
 7790      554E4954 
 7790      00
 7791              	.LASF349:
 7792 28b1 43795541 		.ascii	"CyUAB_B_CAP_2750fF\000"
 7792      425F425F 
 7792      4341505F 
 7792      32373530 
 7792      664600
 7793              	.LASF430:
 7794 28c4 43795541 		.ascii	"CyUAB_F_CAP_0700fF\000"
 7794      425F465F 
 7794      4341505F 
 7794      30373030 
 7794      664600
 7795              	.LASF140:
 7796 28d7 43795541 		.ascii	"CyUAB_SW_CC\000"
 7796      425F5357 
 7796      5F434300 
 7797              	.LASF163:
 7798 28e3 43795541 		.ascii	"CyUAB_SW_SUM_BOOST\000"
 7798      425F5357 
 7798      5F53554D 
 7798      5F424F4F 
 7798      535400
 7799              	.LASF542:
 7800 28f6 69734C65 		.ascii	"isLevel\000"
 7800      76656C00 
 7801              	.LASF138:
 7802 28fe 43795541 		.ascii	"CyUAB_SW_CP\000"
 7802      425F5357 
 7802      5F435000 
 7803              	.LASF10:
 7804 290a 75696E74 		.ascii	"uint16\000"
 7804      313600
 7805              	.LASF107:
 7806 2911 43795541 		.ascii	"CyUAB_SW_AX2_MODBIT\000"
 7806      425F5357 
 7806      5F415832 
 7806      5F4D4F44 
 7806      42495400 
 7807              	.LASF278:
ARM GAS  C:\Users\Jerry\AppData\Local\Temp\cc1IKG0O.s 			page 209


 7808 2925 43795541 		.ascii	"CyUAB_CAP_49UNIT\000"
 7808      425F4341 
 7808      505F3439 
 7808      554E4954 
 7808      00
 7809              	.LASF43:
 7810 2936 43795541 		.ascii	"CyUAB_agnd_force_vdda_enum\000"
 7810      425F6167 
 7810      6E645F66 
 7810      6F726365 
 7810      5F766464 
 7811              	.LASF135:
 7812 2951 43795541 		.ascii	"CyUAB_SW_CX1_MODBIT\000"
 7812      425F5357 
 7812      5F435831 
 7812      5F4D4F44 
 7812      42495400 
 7813              	.LASF326:
 7814 2965 43795541 		.ascii	"CyUAB_B_CAP_1600fF\000"
 7814      425F425F 
 7814      4341505F 
 7814      31363030 
 7814      664600
 7815              	.LASF264:
 7816 2978 43795541 		.ascii	"CyUAB_CAP_35UNIT\000"
 7816      425F4341 
 7816      505F3335 
 7816      554E4954 
 7816      00
 7817              	.LASF142:
 7818 2989 43795541 		.ascii	"CyUAB_SW_CG_MODBIT\000"
 7818      425F5357 
 7818      5F43475F 
 7818      4D4F4442 
 7818      495400
 7819              	.LASF82:
 7820 299c 43795541 		.ascii	"CyUAB_CLK_PHI1\000"
 7820      425F434C 
 7820      4B5F5048 
 7820      493100
 7821              	.LASF83:
 7822 29ab 43795541 		.ascii	"CyUAB_CLK_PHI2\000"
 7822      425F434C 
 7822      4B5F5048 
 7822      493200
 7823              	.LASF84:
 7824 29ba 43795541 		.ascii	"CyUAB_CLK_PHI3\000"
 7824      425F434C 
 7824      4B5F5048 
 7824      493300
 7825              	.LASF85:
 7826 29c9 43795541 		.ascii	"CyUAB_CLK_PHI4\000"
 7826      425F434C 
 7826      4B5F5048 
 7826      493400
 7827              	.LASF86:
 7828 29d8 43795541 		.ascii	"CyUAB_CLK_PHI5\000"
ARM GAS  C:\Users\Jerry\AppData\Local\Temp\cc1IKG0O.s 			page 210


 7828      425F434C 
 7828      4B5F5048 
 7828      493500
 7829              	.LASF46:
 7830 29e7 43795541 		.ascii	"CyUAB_agnd_tied_enum\000"
 7830      425F6167 
 7830      6E645F74 
 7830      6965645F 
 7830      656E756D 
 7831              	.LASF88:
 7832 29fc 43795541 		.ascii	"CyUAB_CLK_PHI7\000"
 7832      425F434C 
 7832      4B5F5048 
 7832      493700
 7833              	.LASF89:
 7834 2a0b 43795541 		.ascii	"CyUAB_CLK_PHI8\000"
 7834      425F434C 
 7834      4B5F5048 
 7834      493800
 7835              	.LASF90:
 7836 2a1a 43795541 		.ascii	"CyUAB_CLK_PHI9\000"
 7836      425F434C 
 7836      4B5F5048 
 7836      493900
 7837              		.ident	"GCC: (GNU Tools for ARM Embedded Processors) 4.9.3 20150303 (release) [ARM/embedded-4_9-br
