ARM GAS  C:\Users\Jerry\AppData\Local\Temp\ccahGxHn.s 			page 1


   1              		.cpu cortex-m0plus
   2              		.fpu softvfp
   3              		.eabi_attribute 20, 1
   4              		.eabi_attribute 21, 1
   5              		.eabi_attribute 23, 3
   6              		.eabi_attribute 24, 1
   7              		.eabi_attribute 25, 1
   8              		.eabi_attribute 26, 1
   9              		.eabi_attribute 30, 4
  10              		.eabi_attribute 34, 0
  11              		.eabi_attribute 18, 4
  12              		.code	16
  13              		.file	"VDAC_Synth_UAB_CyUAB.c"
  14              		.text
  15              	.Ltext0:
  16              		.cfi_sections	.debug_frame
  17              		.section	.text.CyUAB_SetClock,"ax",%progbits
  18              		.align	1
  19              		.global	CyUAB_SetClock
  20              		.code	16
  21              		.thumb_func
  22              		.type	CyUAB_SetClock, %function
  23              	CyUAB_SetClock:
  24              	.LFB1:
  25              		.file 1 "Generated_Source\\PSoC4\\VDAC_Synth_UAB_CyUAB.c"
   1:Generated_Source\PSoC4/VDAC_Synth_UAB_CyUAB.c **** /*!*****************************************************************************
   2:Generated_Source\PSoC4/VDAC_Synth_UAB_CyUAB.c **** * \file VDAC_Synth_UAB_CyUAB.c
   3:Generated_Source\PSoC4/VDAC_Synth_UAB_CyUAB.c **** * \version 1.10
   4:Generated_Source\PSoC4/VDAC_Synth_UAB_CyUAB.c **** *
   5:Generated_Source\PSoC4/VDAC_Synth_UAB_CyUAB.c **** * \brief 
   6:Generated_Source\PSoC4/VDAC_Synth_UAB_CyUAB.c **** *   API for Universal Analog Block (UAB)
   7:Generated_Source\PSoC4/VDAC_Synth_UAB_CyUAB.c **** *
   8:Generated_Source\PSoC4/VDAC_Synth_UAB_CyUAB.c **** ********************************************************************************
   9:Generated_Source\PSoC4/VDAC_Synth_UAB_CyUAB.c **** * \copyright
  10:Generated_Source\PSoC4/VDAC_Synth_UAB_CyUAB.c **** * (c) 2014-2016, Cypress Semiconductor Corporation. All rights reserved.
  11:Generated_Source\PSoC4/VDAC_Synth_UAB_CyUAB.c **** * This software, including source code, documentation and related
  12:Generated_Source\PSoC4/VDAC_Synth_UAB_CyUAB.c **** * materials ("Software"), is owned by Cypress Semiconductor
  13:Generated_Source\PSoC4/VDAC_Synth_UAB_CyUAB.c **** * Corporation ("Cypress") and is protected by and subject to worldwide
  14:Generated_Source\PSoC4/VDAC_Synth_UAB_CyUAB.c **** * patent protection (United States and foreign), United States copyright
  15:Generated_Source\PSoC4/VDAC_Synth_UAB_CyUAB.c **** * laws and international treaty provisions. Therefore, you may use this
  16:Generated_Source\PSoC4/VDAC_Synth_UAB_CyUAB.c **** * Software only as provided in the license agreement accompanying the
  17:Generated_Source\PSoC4/VDAC_Synth_UAB_CyUAB.c **** * software package from which you obtained this Software ("EULA").
  18:Generated_Source\PSoC4/VDAC_Synth_UAB_CyUAB.c **** * If no EULA applies, Cypress hereby grants you a personal, nonexclusive,
  19:Generated_Source\PSoC4/VDAC_Synth_UAB_CyUAB.c **** * non-transferable license to copy, modify, and compile the
  20:Generated_Source\PSoC4/VDAC_Synth_UAB_CyUAB.c **** * Software source code solely for use in connection with Cypress's
  21:Generated_Source\PSoC4/VDAC_Synth_UAB_CyUAB.c **** * integrated circuit products. Any reproduction, modification, translation,
  22:Generated_Source\PSoC4/VDAC_Synth_UAB_CyUAB.c **** * compilation, or representation of this Software except as specified
  23:Generated_Source\PSoC4/VDAC_Synth_UAB_CyUAB.c **** * above is prohibited without the express written permission of Cypress.
  24:Generated_Source\PSoC4/VDAC_Synth_UAB_CyUAB.c **** * Disclaimer: THIS SOFTWARE IS PROVIDED AS-IS, WITH NO
  25:Generated_Source\PSoC4/VDAC_Synth_UAB_CyUAB.c **** * WARRANTY OF ANY KIND, EXPRESS OR IMPLIED, INCLUDING,
  26:Generated_Source\PSoC4/VDAC_Synth_UAB_CyUAB.c **** * BUT NOT LIMITED TO, NONINFRINGEMENT, IMPLIED
  27:Generated_Source\PSoC4/VDAC_Synth_UAB_CyUAB.c **** * WARRANTIES OF MERCHANTABILITY AND FITNESS FOR A
  28:Generated_Source\PSoC4/VDAC_Synth_UAB_CyUAB.c **** * PARTICULAR PURPOSE. Cypress reserves the right to make
  29:Generated_Source\PSoC4/VDAC_Synth_UAB_CyUAB.c **** * changes to the Software without notice. Cypress does not assume any
  30:Generated_Source\PSoC4/VDAC_Synth_UAB_CyUAB.c **** * liability arising out of the application or use of the Software or any
  31:Generated_Source\PSoC4/VDAC_Synth_UAB_CyUAB.c **** * product or circuit described in the Software. Cypress does not
  32:Generated_Source\PSoC4/VDAC_Synth_UAB_CyUAB.c **** * authorize its products for use in any products where a malfunction or
ARM GAS  C:\Users\Jerry\AppData\Local\Temp\ccahGxHn.s 			page 2


  33:Generated_Source\PSoC4/VDAC_Synth_UAB_CyUAB.c **** * failure of the Cypress product may reasonably be expected to result in
  34:Generated_Source\PSoC4/VDAC_Synth_UAB_CyUAB.c **** * significant property damage, injury or death ("High Risk Product"). By
  35:Generated_Source\PSoC4/VDAC_Synth_UAB_CyUAB.c **** * including Cypress's product in a High Risk Product, the manufacturer
  36:Generated_Source\PSoC4/VDAC_Synth_UAB_CyUAB.c **** * of such system or application assumes all risk of such use and in doing
  37:Generated_Source\PSoC4/VDAC_Synth_UAB_CyUAB.c **** * so agrees to indemnify Cypress against all liability.
  38:Generated_Source\PSoC4/VDAC_Synth_UAB_CyUAB.c **** *******************************************************************************/
  39:Generated_Source\PSoC4/VDAC_Synth_UAB_CyUAB.c **** 
  40:Generated_Source\PSoC4/VDAC_Synth_UAB_CyUAB.c **** #if !defined(CyUAB_C)
  41:Generated_Source\PSoC4/VDAC_Synth_UAB_CyUAB.c **** #define CyUAB_C
  42:Generated_Source\PSoC4/VDAC_Synth_UAB_CyUAB.c **** 
  43:Generated_Source\PSoC4/VDAC_Synth_UAB_CyUAB.c **** #include "VDAC_Synth_UAB_CyUAB.h"    
  44:Generated_Source\PSoC4/VDAC_Synth_UAB_CyUAB.c **** 
  45:Generated_Source\PSoC4/VDAC_Synth_UAB_CyUAB.c **** /******************* CyUAB_SetClock() *****************************************/
  46:Generated_Source\PSoC4/VDAC_Synth_UAB_CyUAB.c **** /*!
  47:Generated_Source\PSoC4/VDAC_Synth_UAB_CyUAB.c **** * @brief Write clock - handles filling a bit column that spans multiple memory locations.
  48:Generated_Source\PSoC4/VDAC_Synth_UAB_CyUAB.c **** * 
  49:Generated_Source\PSoC4/VDAC_Synth_UAB_CyUAB.c **** * @details There are 8 non-modbit clocks (pattern only) and 
  50:Generated_Source\PSoC4/VDAC_Synth_UAB_CyUAB.c **** * 4 modbit clocks (pattern and modbit) - this functions can set either type.
  51:Generated_Source\PSoC4/VDAC_Synth_UAB_CyUAB.c **** * Set the pattern and modbit pattern of a modbit clock and just the pattern for a non-modbit clock.
  52:Generated_Source\PSoC4/VDAC_Synth_UAB_CyUAB.c **** * Returns @c void.
  53:Generated_Source\PSoC4/VDAC_Synth_UAB_CyUAB.c **** * clocks fill columns that span multiple RAM locations.
  54:Generated_Source\PSoC4/VDAC_Synth_UAB_CyUAB.c **** *
  55:Generated_Source\PSoC4/VDAC_Synth_UAB_CyUAB.c **** * @c modbit is only used for modbit clocks (PHI9-PHI12)
  56:Generated_Source\PSoC4/VDAC_Synth_UAB_CyUAB.c **** * @c modbit is ignored for non-modbit clocks (PHI1-PHI8)
  57:Generated_Source\PSoC4/VDAC_Synth_UAB_CyUAB.c **** *
  58:Generated_Source\PSoC4/VDAC_Synth_UAB_CyUAB.c **** * Always write all 16 steps, because you don't know what was set previously 
  59:Generated_Source\PSoC4/VDAC_Synth_UAB_CyUAB.c **** * (and keeps the parameter list down to 4 - threshold for function calling method)
  60:Generated_Source\PSoC4/VDAC_Synth_UAB_CyUAB.c **** *
  61:Generated_Source\PSoC4/VDAC_Synth_UAB_CyUAB.c **** * A call to this function must be preceded by Start(), Init(), or ClearAllClocks()
  62:Generated_Source\PSoC4/VDAC_Synth_UAB_CyUAB.c **** * to initialize the wavestep SRAM.
  63:Generated_Source\PSoC4/VDAC_Synth_UAB_CyUAB.c **** * The UAB clocking must be presently stopped.
  64:Generated_Source\PSoC4/VDAC_Synth_UAB_CyUAB.c **** * Before enabling UAB clocking, as needed, modify lastStep with SetLastStep()
  65:Generated_Source\PSoC4/VDAC_Synth_UAB_CyUAB.c **** *   
  66:Generated_Source\PSoC4/VDAC_Synth_UAB_CyUAB.c **** * @internal
  67:Generated_Source\PSoC4/VDAC_Synth_UAB_CyUAB.c **** * @reglist @reg VDAC_Synth_UAB_SRAM<tt>xx</tt>_REG<, where <tt>xx</tt> 
  68:Generated_Source\PSoC4/VDAC_Synth_UAB_CyUAB.c **** * spans 00 to 15.
  69:Generated_Source\PSoC4/VDAC_Synth_UAB_CyUAB.c **** *
  70:Generated_Source\PSoC4/VDAC_Synth_UAB_CyUAB.c **** * This function relies on several assumptions/definitions:
  71:Generated_Source\PSoC4/VDAC_Synth_UAB_CyUAB.c **** * @li The SRAM clocks are all stored contiguously in memory.
  72:Generated_Source\PSoC4/VDAC_Synth_UAB_CyUAB.c **** * @li The lowest address is VDAC_Synth_UAB_UAB0_SRAM00.
  73:Generated_Source\PSoC4/VDAC_Synth_UAB_CyUAB.c **** * @li The modbit clocks start at phi_m1 = 9
  74:Generated_Source\PSoC4/VDAC_Synth_UAB_CyUAB.c **** * @li The modbit clocks take two consecutive bit fields within a step 
  75:Generated_Source\PSoC4/VDAC_Synth_UAB_CyUAB.c **** *
  76:Generated_Source\PSoC4/VDAC_Synth_UAB_CyUAB.c **** * The expression (8 + 2*(phi - 9)) This expression 
  77:Generated_Source\PSoC4/VDAC_Synth_UAB_CyUAB.c **** * simplifies to the one used for field shifting
  78:Generated_Source\PSoC4/VDAC_Synth_UAB_CyUAB.c **** *
  79:Generated_Source\PSoC4/VDAC_Synth_UAB_CyUAB.c **** * @endinternal
  80:Generated_Source\PSoC4/VDAC_Synth_UAB_CyUAB.c **** *
  81:Generated_Source\PSoC4/VDAC_Synth_UAB_CyUAB.c **** * @param uabSram starting address of UAB half waveform SRAM; ie VDAC_Synth_UAB_SRAM1_PTR
  82:Generated_Source\PSoC4/VDAC_Synth_UAB_CyUAB.c **** * @param pattern clocking in LSbit to MSbit ordering for step 0 to step 15.
  83:Generated_Source\PSoC4/VDAC_Synth_UAB_CyUAB.c **** * When the @p modbitPattern is high, the
  84:Generated_Source\PSoC4/VDAC_Synth_UAB_CyUAB.c **** * modbit waveform (chosen by VDAC_Synth_UAB_SetModbitSource()) is used as
  85:Generated_Source\PSoC4/VDAC_Synth_UAB_CyUAB.c **** * this clock.  @p pattern inverts the modbit waveform when high, doesn’t invert
  86:Generated_Source\PSoC4/VDAC_Synth_UAB_CyUAB.c **** * it when low.  When the @p modbitPattern is low, this clock simply follows
  87:Generated_Source\PSoC4/VDAC_Synth_UAB_CyUAB.c **** * @p pattern as it would for the non-modbit clocks.
  88:Generated_Source\PSoC4/VDAC_Synth_UAB_CyUAB.c **** * @param modbitPattern A pattern which describes when to use the modbit
  89:Generated_Source\PSoC4/VDAC_Synth_UAB_CyUAB.c **** * waveform as this clock. When @p modbitPattern is high, the
ARM GAS  C:\Users\Jerry\AppData\Local\Temp\ccahGxHn.s 			page 3


  90:Generated_Source\PSoC4/VDAC_Synth_UAB_CyUAB.c **** * modbit waveform (chosen by VDAC_Synth_UAB_SetModbitSource()) is used as
  91:Generated_Source\PSoC4/VDAC_Synth_UAB_CyUAB.c **** * this clock.  @p pattern inverts the modbit waveform when high, doesn’t invert
  92:Generated_Source\PSoC4/VDAC_Synth_UAB_CyUAB.c **** * it when low.  When the @p modbitPattern is low, this clock simply follows
  93:Generated_Source\PSoC4/VDAC_Synth_UAB_CyUAB.c **** * @p pattern as it would for the non-modbit clocks.
  94:Generated_Source\PSoC4/VDAC_Synth_UAB_CyUAB.c **** *
  95:Generated_Source\PSoC4/VDAC_Synth_UAB_CyUAB.c **** * @param phi The clock to configure.  Function ignores all other values besides valid:
  96:Generated_Source\PSoC4/VDAC_Synth_UAB_CyUAB.c **** * @arg @c CyUAB_CLK_PHI1
  97:Generated_Source\PSoC4/VDAC_Synth_UAB_CyUAB.c **** * @arg @c CyUAB_CLK_PHI2
  98:Generated_Source\PSoC4/VDAC_Synth_UAB_CyUAB.c **** * @arg @c CyUAB_CLK_PHI3
  99:Generated_Source\PSoC4/VDAC_Synth_UAB_CyUAB.c **** * @arg @c CyUAB_CLK_PHI4
 100:Generated_Source\PSoC4/VDAC_Synth_UAB_CyUAB.c **** * @arg @c CyUAB_CLK_PHI5
 101:Generated_Source\PSoC4/VDAC_Synth_UAB_CyUAB.c **** * @arg @c CyUAB_CLK_PHI6
 102:Generated_Source\PSoC4/VDAC_Synth_UAB_CyUAB.c **** * @arg @c CyUAB_CLK_PHI7
 103:Generated_Source\PSoC4/VDAC_Synth_UAB_CyUAB.c **** * @arg @c CyUAB_CLK_PHI8
 104:Generated_Source\PSoC4/VDAC_Synth_UAB_CyUAB.c **** * @arg @c CyUAB_CLK_PHI9
 105:Generated_Source\PSoC4/VDAC_Synth_UAB_CyUAB.c **** * @arg @c CyUAB_CLK_PHI10
 106:Generated_Source\PSoC4/VDAC_Synth_UAB_CyUAB.c **** * @arg @c CyUAB_CLK_PHI11
 107:Generated_Source\PSoC4/VDAC_Synth_UAB_CyUAB.c **** * @arg @c CyUAB_CLK_PHI12
 108:Generated_Source\PSoC4/VDAC_Synth_UAB_CyUAB.c **** *
 109:Generated_Source\PSoC4/VDAC_Synth_UAB_CyUAB.c **** * @see
 110:Generated_Source\PSoC4/VDAC_Synth_UAB_CyUAB.c **** * 
 111:Generated_Source\PSoC4/VDAC_Synth_UAB_CyUAB.c **** * @sideeffect None
 112:Generated_Source\PSoC4/VDAC_Synth_UAB_CyUAB.c **** *******************************************************************************/
 113:Generated_Source\PSoC4/VDAC_Synth_UAB_CyUAB.c **** void CyUAB_SetClock( reg32 uabSram[], CyUAB_clk_enum phi, uint16 pattern, uint16 modbitPattern )
 114:Generated_Source\PSoC4/VDAC_Synth_UAB_CyUAB.c **** {
  26              		.loc 1 114 0
  27              		.cfi_startproc
  28              	.LVL0:
  29 0000 F0B5     		push	{r4, r5, r6, r7, lr}
  30              		.cfi_def_cfa_offset 20
  31              		.cfi_offset 4, -20
  32              		.cfi_offset 5, -16
  33              		.cfi_offset 6, -12
  34              		.cfi_offset 7, -8
  35              		.cfi_offset 14, -4
 115:Generated_Source\PSoC4/VDAC_Synth_UAB_CyUAB.c ****     const uint32 PATTERN_SHIFT = 0UL;
 116:Generated_Source\PSoC4/VDAC_Synth_UAB_CyUAB.c ****     const uint32 MODBIT_SHIFT = 1UL;
 117:Generated_Source\PSoC4/VDAC_Synth_UAB_CyUAB.c ****     const uint32 PATTERN_MASK = 1UL<<PATTERN_SHIFT;
 118:Generated_Source\PSoC4/VDAC_Synth_UAB_CyUAB.c ****     const uint32 MODBIT_MASK  = 1UL<<MODBIT_SHIFT;
 119:Generated_Source\PSoC4/VDAC_Synth_UAB_CyUAB.c ****     const uint32 BOTH_MASK = PATTERN_MASK | MODBIT_MASK;
 120:Generated_Source\PSoC4/VDAC_Synth_UAB_CyUAB.c ****     const int32 PHI9_SHIFT = ((int32)CyUAB_CLK_PHI9)-1;
 121:Generated_Source\PSoC4/VDAC_Synth_UAB_CyUAB.c ****     
 122:Generated_Source\PSoC4/VDAC_Synth_UAB_CyUAB.c ****     uint32 i;
 123:Generated_Source\PSoC4/VDAC_Synth_UAB_CyUAB.c ****     int32 shift;
 124:Generated_Source\PSoC4/VDAC_Synth_UAB_CyUAB.c ****     uint32 mask;
 125:Generated_Source\PSoC4/VDAC_Synth_UAB_CyUAB.c ****     uint32 modbitCopy;
 126:Generated_Source\PSoC4/VDAC_Synth_UAB_CyUAB.c ****     
 127:Generated_Source\PSoC4/VDAC_Synth_UAB_CyUAB.c ****     if( ( ((int32)CyUAB_CLK_PHI1) <= ((int32)phi) ) && ( ((int32)phi) <= ((int32)CyUAB_CLK_PHI12) )
  36              		.loc 1 127 0
  37 0002 4C1E     		sub	r4, r1, #1
 114:Generated_Source\PSoC4/VDAC_Synth_UAB_CyUAB.c ****     const uint32 PATTERN_SHIFT = 0UL;
  38              		.loc 1 114 0
  39 0004 85B0     		sub	sp, sp, #20
  40              		.cfi_def_cfa_offset 40
  41              		.loc 1 127 0
  42 0006 E5B2     		uxtb	r5, r4
 114:Generated_Source\PSoC4/VDAC_Synth_UAB_CyUAB.c ****     const uint32 PATTERN_SHIFT = 0UL;
ARM GAS  C:\Users\Jerry\AppData\Local\Temp\ccahGxHn.s 			page 4


  43              		.loc 1 114 0
  44 0008 0292     		str	r2, [sp, #8]
  45              		.loc 1 127 0
  46 000a 0B2D     		cmp	r5, #11
  47 000c 26D8     		bhi	.L1
 128:Generated_Source\PSoC4/VDAC_Synth_UAB_CyUAB.c ****     {
 129:Generated_Source\PSoC4/VDAC_Synth_UAB_CyUAB.c ****         if( ((int32)phi) > ((int32)CyUAB_CLK_PHI8) )
  48              		.loc 1 129 0
  49 000e 0829     		cmp	r1, #8
  50 0010 05D9     		bls	.L3
 130:Generated_Source\PSoC4/VDAC_Synth_UAB_CyUAB.c ****         {
 131:Generated_Source\PSoC4/VDAC_Synth_UAB_CyUAB.c ****             shift = (2*((int32)phi))+(PHI9_SHIFT-(2*((int32)CyUAB_CLK_PHI9) ) ); /* ==2*phi-10==(2*
 132:Generated_Source\PSoC4/VDAC_Synth_UAB_CyUAB.c ****             mask  = BOTH_MASK<<shift;
  51              		.loc 1 132 0
  52 0012 0325     		mov	r5, #3
 131:Generated_Source\PSoC4/VDAC_Synth_UAB_CyUAB.c ****             mask  = BOTH_MASK<<shift;
  53              		.loc 1 131 0
  54 0014 0539     		sub	r1, r1, #5
  55              	.LVL1:
  56 0016 4900     		lsl	r1, r1, #1
  57              	.LVL2:
  58              		.loc 1 132 0
  59 0018 8D40     		lsl	r5, r5, r1
  60              	.LVL3:
 133:Generated_Source\PSoC4/VDAC_Synth_UAB_CyUAB.c ****             modbitCopy = ((uint32)modbitPattern)<<MODBIT_SHIFT; /* pre-shift, so correct for right 
  61              		.loc 1 133 0
  62 001a 5B00     		lsl	r3, r3, #1
  63              	.LVL4:
  64 001c 03E0     		b	.L4
  65              	.LVL5:
  66              	.L3:
 134:Generated_Source\PSoC4/VDAC_Synth_UAB_CyUAB.c ****         }
 135:Generated_Source\PSoC4/VDAC_Synth_UAB_CyUAB.c ****         else
 136:Generated_Source\PSoC4/VDAC_Synth_UAB_CyUAB.c ****         {
 137:Generated_Source\PSoC4/VDAC_Synth_UAB_CyUAB.c ****             shift = phi-CyUAB_CLK_PHI1;
 138:Generated_Source\PSoC4/VDAC_Synth_UAB_CyUAB.c ****             mask = 1UL<<shift;
  67              		.loc 1 138 0
  68 001e 0125     		mov	r5, #1
 137:Generated_Source\PSoC4/VDAC_Synth_UAB_CyUAB.c ****             mask = 1UL<<shift;
  69              		.loc 1 137 0
  70 0020 211C     		mov	r1, r4
  71              	.LVL6:
  72              		.loc 1 138 0
  73 0022 A540     		lsl	r5, r5, r4
  74              	.LVL7:
 139:Generated_Source\PSoC4/VDAC_Synth_UAB_CyUAB.c ****             modbitCopy = 0UL;
  75              		.loc 1 139 0
  76 0024 0023     		mov	r3, #0
  77              	.LVL8:
  78              	.L4:
 140:Generated_Source\PSoC4/VDAC_Synth_UAB_CyUAB.c ****         }
 141:Generated_Source\PSoC4/VDAC_Synth_UAB_CyUAB.c ****         
 142:Generated_Source\PSoC4/VDAC_Synth_UAB_CyUAB.c ****         for( i=0UL; i<CyUAB_STEPS_LEN_MAX; ++i )
  79              		.loc 1 142 0
  80 0026 0026     		mov	r6, #0
  81              	.LVL9:
  82              	.L5:
ARM GAS  C:\Users\Jerry\AppData\Local\Temp\ccahGxHn.s 			page 5


 143:Generated_Source\PSoC4/VDAC_Synth_UAB_CyUAB.c ****         {
 144:Generated_Source\PSoC4/VDAC_Synth_UAB_CyUAB.c ****             uabSram[i] = (uabSram[i]&(~mask)) | (((((modbitCopy>>i)&MODBIT_MASK)|((((uint32)pattern
  83              		.loc 1 144 0 discriminator 3
  84 0028 029C     		ldr	r4, [sp, #8]
  85 002a B700     		lsl	r7, r6, #2
  86 002c F440     		lsr	r4, r4, r6
  87 002e A446     		mov	ip, r4
  88 0030 C719     		add	r7, r0, r7
  89 0032 3A68     		ldr	r2, [r7]
  90 0034 0124     		mov	r4, #1
  91 0036 0192     		str	r2, [sp, #4]
  92 0038 6246     		mov	r2, ip
  93 003a 2240     		and	r2, r4
  94 003c 0392     		str	r2, [sp, #12]
  95 003e 1A1C     		mov	r2, r3
  96 0040 F240     		lsr	r2, r2, r6
  97 0042 2419     		add	r4, r4, r4
  98 0044 1440     		and	r4, r2
  99 0046 039A     		ldr	r2, [sp, #12]
 142:Generated_Source\PSoC4/VDAC_Synth_UAB_CyUAB.c ****         {
 100              		.loc 1 142 0 discriminator 3
 101 0048 0136     		add	r6, r6, #1
 102              	.LVL10:
 103              		.loc 1 144 0 discriminator 3
 104 004a 1443     		orr	r4, r2
 105 004c 8C40     		lsl	r4, r4, r1
 106 004e 019A     		ldr	r2, [sp, #4]
 107 0050 2C40     		and	r4, r5
 108 0052 AA43     		bic	r2, r5
 109 0054 1443     		orr	r4, r2
 110 0056 3C60     		str	r4, [r7]
 142:Generated_Source\PSoC4/VDAC_Synth_UAB_CyUAB.c ****         {
 111              		.loc 1 142 0 discriminator 3
 112 0058 102E     		cmp	r6, #16
 113 005a E5D1     		bne	.L5
 114              	.LVL11:
 115              	.L1:
 145:Generated_Source\PSoC4/VDAC_Synth_UAB_CyUAB.c ****         }
 146:Generated_Source\PSoC4/VDAC_Synth_UAB_CyUAB.c ****     }
 147:Generated_Source\PSoC4/VDAC_Synth_UAB_CyUAB.c **** }
 116              		.loc 1 147 0
 117 005c 05B0     		add	sp, sp, #20
 118              		@ sp needed
 119 005e F0BD     		pop	{r4, r5, r6, r7, pc}
 120              		.cfi_endproc
 121              	.LFE1:
 122              		.size	CyUAB_SetClock, .-CyUAB_SetClock
 123              		.section	.text.CyUAB_SetNSteps,"ax",%progbits
 124              		.align	1
 125              		.global	CyUAB_SetNSteps
 126              		.code	16
 127              		.thumb_func
 128              		.type	CyUAB_SetNSteps, %function
 129              	CyUAB_SetNSteps:
 130              	.LFB2:
 148:Generated_Source\PSoC4/VDAC_Synth_UAB_CyUAB.c **** 
 149:Generated_Source\PSoC4/VDAC_Synth_UAB_CyUAB.c **** 
ARM GAS  C:\Users\Jerry\AppData\Local\Temp\ccahGxHn.s 			page 6


 150:Generated_Source\PSoC4/VDAC_Synth_UAB_CyUAB.c **** /******************* CyUAB_SetNSteps() ****************************************/
 151:Generated_Source\PSoC4/VDAC_Synth_UAB_CyUAB.c **** /*!
 152:Generated_Source\PSoC4/VDAC_Synth_UAB_CyUAB.c **** * @brief Write all clocks as a series of steps 
 153:Generated_Source\PSoC4/VDAC_Synth_UAB_CyUAB.c **** * 
 154:Generated_Source\PSoC4/VDAC_Synth_UAB_CyUAB.c **** * @details Writes stepArray of size @c n steps to memory.
 155:Generated_Source\PSoC4/VDAC_Synth_UAB_CyUAB.c **** *
 156:Generated_Source\PSoC4/VDAC_Synth_UAB_CyUAB.c **** * @param uabSram starting address of UAB half waveform SRAM; ie VDAC_Synth_UAB_SRAM1_PTR
 157:Generated_Source\PSoC4/VDAC_Synth_UAB_CyUAB.c **** * @param n number of steps to write (starting at step0)
 158:Generated_Source\PSoC4/VDAC_Synth_UAB_CyUAB.c **** * @param stepArray of size @c n - each elements represents a single step
 159:Generated_Source\PSoC4/VDAC_Synth_UAB_CyUAB.c **** * specification for all clocks
 160:Generated_Source\PSoC4/VDAC_Synth_UAB_CyUAB.c **** *
 161:Generated_Source\PSoC4/VDAC_Synth_UAB_CyUAB.c **** * @internal
 162:Generated_Source\PSoC4/VDAC_Synth_UAB_CyUAB.c **** * @reglist @reg 
 163:Generated_Source\PSoC4/VDAC_Synth_UAB_CyUAB.c **** * @image html _.png 
 164:Generated_Source\PSoC4/VDAC_Synth_UAB_CyUAB.c **** * UAB SRAM locations are 32-bits in size with only the first 16 bytes populated
 165:Generated_Source\PSoC4/VDAC_Synth_UAB_CyUAB.c **** * Only lower 16 bits of stepArray elements used
 166:Generated_Source\PSoC4/VDAC_Synth_UAB_CyUAB.c **** * @endinternal
 167:Generated_Source\PSoC4/VDAC_Synth_UAB_CyUAB.c **** * 
 168:Generated_Source\PSoC4/VDAC_Synth_UAB_CyUAB.c **** * @sideeffect None
 169:Generated_Source\PSoC4/VDAC_Synth_UAB_CyUAB.c **** *******************************************************************************/
 170:Generated_Source\PSoC4/VDAC_Synth_UAB_CyUAB.c **** void CyUAB_SetNSteps( reg32 uabSram[], size_t n, const uint16 stepArray[] )
 171:Generated_Source\PSoC4/VDAC_Synth_UAB_CyUAB.c **** {
 131              		.loc 1 171 0
 132              		.cfi_startproc
 133              	.LVL12:
 134 0000 30B5     		push	{r4, r5, lr}
 135              		.cfi_def_cfa_offset 12
 136              		.cfi_offset 4, -12
 137              		.cfi_offset 5, -8
 138              		.cfi_offset 14, -4
 139 0002 0023     		mov	r3, #0
 172:Generated_Source\PSoC4/VDAC_Synth_UAB_CyUAB.c ****     uint32 i;
 173:Generated_Source\PSoC4/VDAC_Synth_UAB_CyUAB.c ****     if( n<=CyUAB_STEPS_LEN_MAX )
 140              		.loc 1 173 0
 141 0004 1029     		cmp	r1, #16
 142 0006 08D8     		bhi	.L8
 143              	.L9:
 144              	.LVL13:
 174:Generated_Source\PSoC4/VDAC_Synth_UAB_CyUAB.c ****     {
 175:Generated_Source\PSoC4/VDAC_Synth_UAB_CyUAB.c ****         for( i=0UL; i<n; i++ )
 145              		.loc 1 175 0 discriminator 1
 146 0008 8B42     		cmp	r3, r1
 147 000a 06D0     		beq	.L8
 148 000c 5D00     		lsl	r5, r3, #1
 149 000e 9C00     		lsl	r4, r3, #2
 176:Generated_Source\PSoC4/VDAC_Synth_UAB_CyUAB.c ****         {
 177:Generated_Source\PSoC4/VDAC_Synth_UAB_CyUAB.c ****             uabSram[i] = stepArray[i];
 150              		.loc 1 177 0 discriminator 3
 151 0010 555B     		ldrh	r5, [r2, r5]
 152 0012 0419     		add	r4, r0, r4
 153 0014 2560     		str	r5, [r4]
 175:Generated_Source\PSoC4/VDAC_Synth_UAB_CyUAB.c ****         {
 154              		.loc 1 175 0 discriminator 3
 155 0016 0133     		add	r3, r3, #1
 156              	.LVL14:
 157 0018 F6E7     		b	.L9
 158              	.LVL15:
ARM GAS  C:\Users\Jerry\AppData\Local\Temp\ccahGxHn.s 			page 7


 159              	.L8:
 178:Generated_Source\PSoC4/VDAC_Synth_UAB_CyUAB.c ****         }
 179:Generated_Source\PSoC4/VDAC_Synth_UAB_CyUAB.c ****     }
 180:Generated_Source\PSoC4/VDAC_Synth_UAB_CyUAB.c **** }
 160              		.loc 1 180 0
 161              		@ sp needed
 162 001a 30BD     		pop	{r4, r5, pc}
 163              		.cfi_endproc
 164              	.LFE2:
 165              		.size	CyUAB_SetNSteps, .-CyUAB_SetNSteps
 166              		.section	.text.CyUAB_SetSingleStep,"ax",%progbits
 167              		.align	1
 168              		.global	CyUAB_SetSingleStep
 169              		.code	16
 170              		.thumb_func
 171              		.type	CyUAB_SetSingleStep, %function
 172              	CyUAB_SetSingleStep:
 173              	.LFB3:
 181:Generated_Source\PSoC4/VDAC_Synth_UAB_CyUAB.c **** 
 182:Generated_Source\PSoC4/VDAC_Synth_UAB_CyUAB.c **** /***************** CyUAB_SetSingleStep() **************************************/
 183:Generated_Source\PSoC4/VDAC_Synth_UAB_CyUAB.c **** /*!
 184:Generated_Source\PSoC4/VDAC_Synth_UAB_CyUAB.c **** * @brief Write all clocks for a single step 
 185:Generated_Source\PSoC4/VDAC_Synth_UAB_CyUAB.c **** * 
 186:Generated_Source\PSoC4/VDAC_Synth_UAB_CyUAB.c **** * @details Allows patching specific steps (can use for dynamic reconfig)
 187:Generated_Source\PSoC4/VDAC_Synth_UAB_CyUAB.c **** *
 188:Generated_Source\PSoC4/VDAC_Synth_UAB_CyUAB.c **** * @param uabSram starting address of UAB half waveform SRAM; ie VDAC_Synth_UAB_SRAM1_PTR
 189:Generated_Source\PSoC4/VDAC_Synth_UAB_CyUAB.c **** * @param idx index of the targeted step
 190:Generated_Source\PSoC4/VDAC_Synth_UAB_CyUAB.c **** * @param stepValue all clocks specified for a single step
 191:Generated_Source\PSoC4/VDAC_Synth_UAB_CyUAB.c **** *
 192:Generated_Source\PSoC4/VDAC_Synth_UAB_CyUAB.c **** * @internal
 193:Generated_Source\PSoC4/VDAC_Synth_UAB_CyUAB.c **** * @reglist @reg 
 194:Generated_Source\PSoC4/VDAC_Synth_UAB_CyUAB.c **** * @image html _.png 
 195:Generated_Source\PSoC4/VDAC_Synth_UAB_CyUAB.c **** * UAB SRAM locations are 32-bits in size with only the first 16 bytes populated
 196:Generated_Source\PSoC4/VDAC_Synth_UAB_CyUAB.c **** * Only lower 16 bits of stepArray elements used
 197:Generated_Source\PSoC4/VDAC_Synth_UAB_CyUAB.c **** * @endinternal
 198:Generated_Source\PSoC4/VDAC_Synth_UAB_CyUAB.c **** * 
 199:Generated_Source\PSoC4/VDAC_Synth_UAB_CyUAB.c **** * @sideeffect None
 200:Generated_Source\PSoC4/VDAC_Synth_UAB_CyUAB.c **** *******************************************************************************/
 201:Generated_Source\PSoC4/VDAC_Synth_UAB_CyUAB.c **** void CyUAB_SetSingleStep(reg32 uabSram[], size_t idx, const uint16 stepValue )
 202:Generated_Source\PSoC4/VDAC_Synth_UAB_CyUAB.c **** {
 174              		.loc 1 202 0
 175              		.cfi_startproc
 176              	.LVL16:
 203:Generated_Source\PSoC4/VDAC_Synth_UAB_CyUAB.c ****     if( idx<=CyUAB_STEPS_IDX_MAX )
 177              		.loc 1 203 0
 178 0000 0F29     		cmp	r1, #15
 179 0002 02D8     		bhi	.L13
 204:Generated_Source\PSoC4/VDAC_Synth_UAB_CyUAB.c ****     {
 205:Generated_Source\PSoC4/VDAC_Synth_UAB_CyUAB.c ****         uabSram[idx] = ((uint32)stepValue);
 180              		.loc 1 205 0
 181 0004 8900     		lsl	r1, r1, #2
 182              	.LVL17:
 183 0006 4018     		add	r0, r0, r1
 184              	.LVL18:
 185 0008 0260     		str	r2, [r0]
 186              	.L13:
 206:Generated_Source\PSoC4/VDAC_Synth_UAB_CyUAB.c ****     } 
ARM GAS  C:\Users\Jerry\AppData\Local\Temp\ccahGxHn.s 			page 8


 207:Generated_Source\PSoC4/VDAC_Synth_UAB_CyUAB.c **** }
 187              		.loc 1 207 0
 188              		@ sp needed
 189 000a 7047     		bx	lr
 190              		.cfi_endproc
 191              	.LFE3:
 192              		.size	CyUAB_SetSingleStep, .-CyUAB_SetSingleStep
 193              		.section	.text.CyUAB_wordset,"ax",%progbits
 194              		.align	1
 195              		.global	CyUAB_wordset
 196              		.code	16
 197              		.thumb_func
 198              		.type	CyUAB_wordset, %function
 199              	CyUAB_wordset:
 200              	.LFB4:
 208:Generated_Source\PSoC4/VDAC_Synth_UAB_CyUAB.c **** 
 209:Generated_Source\PSoC4/VDAC_Synth_UAB_CyUAB.c **** /*! 
 210:Generated_Source\PSoC4/VDAC_Synth_UAB_CyUAB.c **** * @brief wordset is like a 32-bit aligned memset()
 211:Generated_Source\PSoC4/VDAC_Synth_UAB_CyUAB.c **** *
 212:Generated_Source\PSoC4/VDAC_Synth_UAB_CyUAB.c **** * @param s pointer to memory block of 32-bit words
 213:Generated_Source\PSoC4/VDAC_Synth_UAB_CyUAB.c **** * @param c value to overwrite words
 214:Generated_Source\PSoC4/VDAC_Synth_UAB_CyUAB.c **** * @param size length of memory block in bytes 
 215:Generated_Source\PSoC4/VDAC_Synth_UAB_CyUAB.c **** */
 216:Generated_Source\PSoC4/VDAC_Synth_UAB_CyUAB.c **** reg32* CyUAB_wordset( reg32 s[], uint32 c, size_t size )
 217:Generated_Source\PSoC4/VDAC_Synth_UAB_CyUAB.c **** {
 201              		.loc 1 217 0
 202              		.cfi_startproc
 203              	.LVL19:
 218:Generated_Source\PSoC4/VDAC_Synth_UAB_CyUAB.c ****     size_t n = size/sizeof(c);
 204              		.loc 1 218 0
 205 0000 9208     		lsr	r2, r2, #2
 206              	.LVL20:
 207 0002 9200     		lsl	r2, r2, #2
 208              	.LVL21:
 209 0004 8218     		add	r2, r0, r2
 210              	.LVL22:
 211              	.L16:
 219:Generated_Source\PSoC4/VDAC_Synth_UAB_CyUAB.c ****     while( 0UL != n )
 212              		.loc 1 219 0
 213 0006 9042     		cmp	r0, r2
 214 0008 02D0     		beq	.L18
 215 000a 043A     		sub	r2, r2, #4
 220:Generated_Source\PSoC4/VDAC_Synth_UAB_CyUAB.c ****     {
 221:Generated_Source\PSoC4/VDAC_Synth_UAB_CyUAB.c ****         --n;
 222:Generated_Source\PSoC4/VDAC_Synth_UAB_CyUAB.c ****         s[n] = c;
 216              		.loc 1 222 0
 217 000c 1160     		str	r1, [r2]
 218 000e FAE7     		b	.L16
 219              	.L18:
 223:Generated_Source\PSoC4/VDAC_Synth_UAB_CyUAB.c ****     }
 224:Generated_Source\PSoC4/VDAC_Synth_UAB_CyUAB.c ****     return s;
 225:Generated_Source\PSoC4/VDAC_Synth_UAB_CyUAB.c **** }
 220              		.loc 1 225 0
 221              		@ sp needed
 222 0010 7047     		bx	lr
 223              		.cfi_endproc
 224              	.LFE4:
ARM GAS  C:\Users\Jerry\AppData\Local\Temp\ccahGxHn.s 			page 9


 225              		.size	CyUAB_wordset, .-CyUAB_wordset
 226              		.text
 227              	.Letext0:
 228              		.file 2 "Generated_Source\\PSoC4\\cytypes.h"
 229              		.file 3 "c:\\program files (x86)\\cypress\\psoc creator\\4.0\\psoc creator\\import\\gnu\\arm\\4.9.
 230              		.file 4 "Generated_Source\\PSoC4\\VDAC_Synth_UAB_CyUAB_types.h"